; Listing generated by Microsoft (R) Optimizing Compiler Version 19.35.32217.1 

include listing.inc

INCLUDELIB OLDNAMES

PUBLIC	?qpc_freq@CPU@@3_KA				; CPU::qpc_freq
PUBLIC	??_C@_03BBEEILCJ@AMD@				; `string'
PUBLIC	??_C@_05CDGBNGHP@Intel@				; `string'
PUBLIC	??_C@_03KGPELIJG@VIA@				; `string'
PUBLIC	??_C@_0BB@FMCOGJKD@?$CK?5Vendor?5CPU?3?5?$CFs@	; `string'
PUBLIC	??_C@_0BD@IMJAKLPD@?$CK?5Detected?5CPU?3?5?$CFs@ ; `string'
PUBLIC	??_C@_05FDMJBNPD@RDTSC@				; `string'
PUBLIC	??_C@_05JMMMPNDK@?0?5MMX@			; `string'
PUBLIC	??_C@_08NAKAGFEO@?0?53DNow?$CB@			; `string'
PUBLIC	??_C@_0M@KJAGBAIB@?0?53DNowExt?$CB@		; `string'
PUBLIC	??_C@_05MFNODPPA@?0?5SSE@			; `string'
PUBLIC	??_C@_06FAAIHIFC@?0?5SSE2@			; `string'
PUBLIC	??_C@_06EJBDEJBD@?0?5SSE3@			; `string'
PUBLIC	??_C@_0BA@BHJGOODF@?0?5MONITOR?1MWAIT@		; `string'
PUBLIC	??_C@_07FFJCCLAG@?0?5SSSE3@			; `string'
PUBLIC	??_C@_08HLGKFFE@?0?5SSE4?41@			; `string'
PUBLIC	??_C@_08CMJLPGJH@?0?5SSE4?42@			; `string'
PUBLIC	??_C@_05BEFANKPL@?0?5HTT@			; `string'
PUBLIC	??_C@_05MGGJAOBD@?0?5AVX@			; `string'
PUBLIC	??_C@_0BM@FAAPMKAP@X?9Ray?5x64?5using?5AVX?5anyway?$CB@ ; `string'
PUBLIC	??_C@_0BA@GNNAADKH@_initialize_cpu@		; `string'
PUBLIC	??_C@_0EH@HKCBIHCB@C?3?2Users?2Mahito?2Desktop?2Night?5o@ ; `string'
PUBLIC	??_C@_06GJAIHMKB@?0?5AVX2@			; `string'
PUBLIC	??_C@_08LNANPIAA@?0?5SSE4?4a@			; `string'
PUBLIC	??_C@_08KHEHFMKE@?0?5MMXExt@			; `string'
PUBLIC	??_C@_05COMPGGAC@?0?5TM2@			; `string'
PUBLIC	??_C@_05DLPNMKPB@?0?5AES@			; `string'
PUBLIC	??_C@_05BLNECNKE@?0?5VMX@			; `string'
PUBLIC	??_C@_05ODHFBEKD@?0?5EST@			; `string'
PUBLIC	??_C@_06DNEJFKIL@?0?5XFSR@			; `string'
PUBLIC	??_C@_0BD@JEIOOIEJ@?$CK?5CPU?5features?3?5?$CFs@ ; `string'
PUBLIC	??_C@_0BN@MJCMGJIN@?$CK?5CPU?5cores?1threads?3?5?$CFd?1?$CFd?5?6@ ; `string'
PUBLIC	?Fidentity@@3U?$_matrix@M@@A			; Fidentity
PUBLIC	?Didentity@@3U?$_matrix@N@@A			; Didentity
EXTRN	__imp__beginthread:PROC
EXTRN	__imp_QueryPerformanceFrequency:PROC
EXTRN	__imp_timeGetTime:PROC
EXTRN	__imp_SetPriorityClass:PROC
EXTRN	__imp_QueryPerformanceCounter:PROC
?qpc_freq@CPU@@3_KA DQ 01H DUP (?)			; CPU::qpc_freq
?Fidentity@@3U?$_matrix@M@@A DB 040H DUP (?)		; Fidentity
?Didentity@@3U?$_matrix@N@@A DB 080H DUP (?)		; Didentity
_BSS	ENDS
;	COMDAT ??_C@_0BN@MJCMGJIN@?$CK?5CPU?5cores?1threads?3?5?$CFd?1?$CFd?5?6@
CONST	SEGMENT
??_C@_0BN@MJCMGJIN@?$CK?5CPU?5cores?1threads?3?5?$CFd?1?$CFd?5?6@ DB '* C'
	DB	'PU cores/threads: %d/%d ', 0aH, 00H		; `string'
CONST	ENDS
;	COMDAT ??_C@_0BD@JEIOOIEJ@?$CK?5CPU?5features?3?5?$CFs@
CONST	SEGMENT
??_C@_0BD@JEIOOIEJ@?$CK?5CPU?5features?3?5?$CFs@ DB '* CPU features: %s', 00H ; `string'
CONST	ENDS
;	COMDAT ??_C@_06DNEJFKIL@?0?5XFSR@
CONST	SEGMENT
??_C@_06DNEJFKIL@?0?5XFSR@ DB ', XFSR', 00H		; `string'
CONST	ENDS
;	COMDAT ??_C@_05ODHFBEKD@?0?5EST@
CONST	SEGMENT
??_C@_05ODHFBEKD@?0?5EST@ DB ', EST', 00H		; `string'
CONST	ENDS
;	COMDAT ??_C@_05BLNECNKE@?0?5VMX@
CONST	SEGMENT
??_C@_05BLNECNKE@?0?5VMX@ DB ', VMX', 00H		; `string'
CONST	ENDS
;	COMDAT ??_C@_05DLPNMKPB@?0?5AES@
CONST	SEGMENT
??_C@_05DLPNMKPB@?0?5AES@ DB ', AES', 00H		; `string'
CONST	ENDS
;	COMDAT ??_C@_05COMPGGAC@?0?5TM2@
CONST	SEGMENT
??_C@_05COMPGGAC@?0?5TM2@ DB ', TM2', 00H		; `string'
CONST	ENDS
;	COMDAT ??_C@_08KHEHFMKE@?0?5MMXExt@
CONST	SEGMENT
??_C@_08KHEHFMKE@?0?5MMXExt@ DB ', MMXExt', 00H		; `string'
CONST	ENDS
;	COMDAT ??_C@_08LNANPIAA@?0?5SSE4?4a@
CONST	SEGMENT
??_C@_08LNANPIAA@?0?5SSE4?4a@ DB ', SSE4.a', 00H	; `string'
CONST	ENDS
;	COMDAT ??_C@_06GJAIHMKB@?0?5AVX2@
CONST	SEGMENT
??_C@_06GJAIHMKB@?0?5AVX2@ DB ', AVX2', 00H		; `string'
CONST	ENDS
;	COMDAT ??_C@_0EH@HKCBIHCB@C?3?2Users?2Mahito?2Desktop?2Night?5o@
CONST	SEGMENT
??_C@_0EH@HKCBIHCB@C?3?2Users?2Mahito?2Desktop?2Night?5o@ DB 'C:\Users\Ma'
	DB	'hito\Desktop\Night outing\Night-outing\src\xrCore\_math.cpp', 00H ; `string'
CONST	ENDS
;	COMDAT ??_C@_0BA@GNNAADKH@_initialize_cpu@
CONST	SEGMENT
??_C@_0BA@GNNAADKH@_initialize_cpu@ DB '_initialize_cpu', 00H ; `string'
CONST	ENDS
;	COMDAT ??_C@_0BM@FAAPMKAP@X?9Ray?5x64?5using?5AVX?5anyway?$CB@
CONST	SEGMENT
??_C@_0BM@FAAPMKAP@X?9Ray?5x64?5using?5AVX?5anyway?$CB@ DB 'X-Ray x64 usi'
	DB	'ng AVX anyway!', 00H			; `string'
CONST	ENDS
;	COMDAT ??_C@_05MGGJAOBD@?0?5AVX@
CONST	SEGMENT
??_C@_05MGGJAOBD@?0?5AVX@ DB ', AVX', 00H		; `string'
CONST	ENDS
;	COMDAT ??_C@_05BEFANKPL@?0?5HTT@
CONST	SEGMENT
??_C@_05BEFANKPL@?0?5HTT@ DB ', HTT', 00H		; `string'
CONST	ENDS
;	COMDAT ??_C@_08CMJLPGJH@?0?5SSE4?42@
CONST	SEGMENT
??_C@_08CMJLPGJH@?0?5SSE4?42@ DB ', SSE4.2', 00H	; `string'
CONST	ENDS
;	COMDAT ??_C@_08HLGKFFE@?0?5SSE4?41@
CONST	SEGMENT
??_C@_08HLGKFFE@?0?5SSE4?41@ DB ', SSE4.1', 00H		; `string'
CONST	ENDS
;	COMDAT ??_C@_07FFJCCLAG@?0?5SSSE3@
CONST	SEGMENT
??_C@_07FFJCCLAG@?0?5SSSE3@ DB ', SSSE3', 00H		; `string'
CONST	ENDS
;	COMDAT ??_C@_0BA@BHJGOODF@?0?5MONITOR?1MWAIT@
CONST	SEGMENT
??_C@_0BA@BHJGOODF@?0?5MONITOR?1MWAIT@ DB ', MONITOR/MWAIT', 00H ; `string'
CONST	ENDS
;	COMDAT ??_C@_06EJBDEJBD@?0?5SSE3@
CONST	SEGMENT
??_C@_06EJBDEJBD@?0?5SSE3@ DB ', SSE3', 00H		; `string'
CONST	ENDS
;	COMDAT ??_C@_06FAAIHIFC@?0?5SSE2@
CONST	SEGMENT
??_C@_06FAAIHIFC@?0?5SSE2@ DB ', SSE2', 00H		; `string'
CONST	ENDS
;	COMDAT ??_C@_05MFNODPPA@?0?5SSE@
CONST	SEGMENT
??_C@_05MFNODPPA@?0?5SSE@ DB ', SSE', 00H		; `string'
CONST	ENDS
;	COMDAT ??_C@_0M@KJAGBAIB@?0?53DNowExt?$CB@
CONST	SEGMENT
??_C@_0M@KJAGBAIB@?0?53DNowExt?$CB@ DB ', 3DNowExt!', 00H ; `string'
CONST	ENDS
;	COMDAT ??_C@_08NAKAGFEO@?0?53DNow?$CB@
CONST	SEGMENT
??_C@_08NAKAGFEO@?0?53DNow?$CB@ DB ', 3DNow!', 00H	; `string'
CONST	ENDS
;	COMDAT ??_C@_05JMMMPNDK@?0?5MMX@
CONST	SEGMENT
??_C@_05JMMMPNDK@?0?5MMX@ DB ', MMX', 00H		; `string'
CONST	ENDS
;	COMDAT ??_C@_05FDMJBNPD@RDTSC@
CONST	SEGMENT
??_C@_05FDMJBNPD@RDTSC@ DB 'RDTSC', 00H			; `string'
CONST	ENDS
;	COMDAT ??_C@_0BD@IMJAKLPD@?$CK?5Detected?5CPU?3?5?$CFs@
CONST	SEGMENT
??_C@_0BD@IMJAKLPD@?$CK?5Detected?5CPU?3?5?$CFs@ DB '* Detected CPU: %s', 00H ; `string'
CONST	ENDS
;	COMDAT ??_C@_0BB@FMCOGJKD@?$CK?5Vendor?5CPU?3?5?$CFs@
CONST	SEGMENT
??_C@_0BB@FMCOGJKD@?$CK?5Vendor?5CPU?3?5?$CFs@ DB '* Vendor CPU: %s', 00H ; `string'
CONST	ENDS
;	COMDAT ??_C@_03KGPELIJG@VIA@
CONST	SEGMENT
??_C@_03KGPELIJG@VIA@ DB 'VIA', 00H			; `string'
CONST	ENDS
;	COMDAT ??_C@_05CDGBNGHP@Intel@
CONST	SEGMENT
??_C@_05CDGBNGHP@Intel@ DB 'Intel', 00H			; `string'
CONST	ENDS
;	COMDAT ??_C@_03BBEEILCJ@AMD@
CONST	SEGMENT
??_C@_03BBEEILCJ@AMD@ DB 'AMD', 00H			; `string'
PUBLIC	??0CRandom@@QEAA@XZ				; CRandom::CRandom
PUBLIC	?hasFeature@processor_info@@QEBA_NW4CPUFeature@@@Z ; processor_info::hasFeature
PUBLIC	??R?$xr_special_free@$0A@UTHREAD_STARTUP@@@@QEAAXAEAPEAUTHREAD_STARTUP@@@Z ; xr_special_free<0,THREAD_STARTUP>::operator()
PUBLIC	??$xr_delete@UTHREAD_STARTUP@@@@YAXAEAPEAUTHREAD_STARTUP@@@Z ; xr_delete<THREAD_STARTUP>
PUBLIC	?thread_entry@@YAXPEAX@Z			; thread_entry
PUBLIC	?thread_name@@YAXPEBD@Z				; thread_name
PUBLIC	?_initialize_cpu_thread@@YAXXZ			; _initialize_cpu_thread
PUBLIC	?m24r@FPU@@YAXXZ				; FPU::m24r
PUBLIC	?Random@@3VCRandom@@A				; Random
PUBLIC	?ID@CPU@@3Uprocessor_info@@A			; CPU::ID
?ID@CPU@@3Uprocessor_info@@A DB 04170H DUP (?)		; CPU::ID
_BSS	ENDS
;	COMDAT pdata
pdata	SEGMENT
$pdata$??$xr_delete@UTHREAD_STARTUP@@@@YAXAEAPEAUTHREAD_STARTUP@@@Z DD imagerel $LN26
	DD	imagerel $LN26+42
	DD	imagerel $unwind$??$xr_delete@UTHREAD_STARTUP@@@@YAXAEAPEAUTHREAD_STARTUP@@@Z
pdata	ENDS
pdata	SEGMENT
$pdata$?thread_entry@@YAXPEAX@Z DD imagerel $LN28
	DD	imagerel $LN28+78
	DD	imagerel $unwind$?thread_entry@@YAXPEAX@Z
$pdata$?thread_name@@YAXPEBD@Z DD imagerel $LN10
	DD	imagerel $LN10+62
	DD	imagerel $unwind$?thread_name@@YAXPEBD@Z
pdata	ENDS
pdata	SEGMENT
$pdata$?filt$0@?0??thread_name@@YAXPEBD@Z@4HA DD imagerel ?filt$0@?0??thread_name@@YAXPEBD@Z@4HA
	DD	imagerel ?filt$0@?0??thread_name@@YAXPEBD@Z@4HA+21
	DD	imagerel $unwind$?filt$0@?0??thread_name@@YAXPEBD@Z@4HA
pdata	ENDS
pdata	SEGMENT
$pdata$?_initialize_cpu_thread@@YAXXZ DD imagerel $LN16
	DD	imagerel $LN16+274
	DD	imagerel $unwind$?_initialize_cpu_thread@@YAXXZ
pdata	ENDS
;	COMDAT pdata
pdata	SEGMENT
$pdata$??__EID@CPU@@YAXXZ DD imagerel ??__EID@CPU@@YAXXZ
	DD	imagerel ??__EID@CPU@@YAXXZ+230
	DD	imagerel $unwind$??__EID@CPU@@YAXXZ
pdata	ENDS
pdata	SEGMENT
$pdata$?m24r@FPU@@YAXXZ DD imagerel $LN4
	DD	imagerel $LN4+38
	DD	imagerel $unwind$?m24r@FPU@@YAXXZ
;	COMDAT xdata
xdata	SEGMENT
$unwind$??__EID@CPU@@YAXXZ DD 020601H
	DD	030029206H
xdata	ENDS
voltbl	SEGMENT
_volmd	DD	0ffffffffH
	DDSymXIndex: 	FLAT:?_initialize_cpu_thread@@YAXXZ
	DD	082H
	DD	0aeH
voltbl	ENDS
xdata	SEGMENT
$unwind$?thread_entry@@YAXPEAX@Z DD 060f01H
	DD	07640fH
	DD	06340fH
	DD	0700b320fH
$unwind$?thread_name@@YAXPEBD@Z DD 010409H
	DD	08204H
	DD	imagerel __C_specific_handler
	DD	01H
	DD	imagerel $LN10+33
	DD	imagerel $LN10+57
	DD	imagerel ?filt$0@?0??thread_name@@YAXPEBD@Z@4HA
	DD	imagerel $LN10+57
$unwind$?filt$0@?0??thread_name@@YAXPEBD@Z@4HA DD 020601H
	DD	050023206H
$unwind$?_initialize_cpu_thread@@YAXXZ DD 0163f09H
	DD	02f83fH
	DD	03e839H
	DD	04d833H
	DD	05c82dH
	DD	06b828H
	DD	07a823H
	DD	08981eH
	DD	098819H
	DD	0a7814H
	DD	0b680fH
	DD	019010aH
	DD	imagerel __C_specific_handler
	DD	01H
	DD	imagerel $LN16+155
	DD	imagerel $LN16+192
	DD	01H
	DD	imagerel $LN16+192
$unwind$?m24r@FPU@@YAXXZ DD 010401H
	DD	04204H
xdata	ENDS
;	COMDAT xdata
xdata	SEGMENT
$unwind$??$xr_delete@UTHREAD_STARTUP@@@@YAXAEAPEAUTHREAD_STARTUP@@@Z DD 020601H
	DD	030023206H
xdata	ENDS
;	COMDAT voltbl
voltbl	SEGMENT
_volmd	DB	00H
?Random@@3VCRandom@@A DD 01H				; Random
	ORG $+4
?_denormals_are_zero_supported@@3HA DD 01H		; _denormals_are_zero_supported
?ID$initializer$@CPU@@3P6AXXZEA DQ FLAT:??__EID@CPU@@YAXXZ ; CPU::ID$initializer$
; Function compile flags: /Ogtpy
; File C:\Users\Mahito\Desktop\Night outing\Night-outing\src\xrCore\_math.cpp
_TEXT	SEGMENT
?m24r@FPU@@YAXXZ PROC					; FPU::m24r

; 28   : 	XRCORE_API void 	m24r(void) {

$LN4:
	sub	rsp, 40					; 00000028H

; 29   : 		_control87(_PC_24, MCW_PC);

	mov	edx, 196608				; 00030000H
	mov	ecx, 131072				; 00020000H
	call	QWORD PTR __imp__control87

; 30   : 		_control87(_RC_NEAR, MCW_RC);

	mov	edx, 768				; 00000300H
	xor	ecx, ecx

; 31   : 	}

	add	rsp, 40					; 00000028H

; 30   : 		_control87(_RC_NEAR, MCW_RC);

	rex_jmp	QWORD PTR __imp__control87
?m24r@FPU@@YAXXZ ENDP					; FPU::m24r
_TEXT	ENDS
; Function compile flags: /Ogtpy
; File C:\Users\Mahito\Desktop\Night outing\Night-outing\src\xrCore\_math.cpp
; File C:\Users\Mahito\Desktop\Night outing\Night-outing\src\xrCore\cpuid.cpp
; File C:\Users\Mahito\Desktop\Night outing\Night-outing\src\xrCore\xrDebugNew.cpp
; File C:\Users\Mahito\Desktop\Night outing\Night-outing\src\xrCore\cpuid.cpp
; File C:\Users\Mahito\Desktop\Night outing\Night-outing\src\xrCore\_math.cpp
;	COMDAT ??__EID@CPU@@YAXXZ
text$di	SEGMENT
??__EID@CPU@@YAXXZ PROC					; CPU::`dynamic initializer for 'ID'', COMDAT

; 139  : 	XRCORE_API processor_info	ID;

	push	rbx
	sub	rsp, 80					; 00000050H
; File C:\Users\Mahito\Desktop\Night outing\Night-outing\src\xrCore\cpuid.cpp

; 255  : 	features = query_processor_info(&*this);

	call	?query_processor_info@@YAIPEAUprocessor_info@@@Z ; query_processor_info

; 256  : 	GetSystemInfo(&sysInfo);

	lea	rcx, OFFSET FLAT:?ID@CPU@@3Uprocessor_info@@A+8
	mov	DWORD PTR ?ID@CPU@@3Uprocessor_info@@A+16736, eax
	call	QWORD PTR __imp_GetSystemInfo

; 257  : 	m_dwNumberOfProcessors = sysInfo.dwNumberOfProcessors;

	mov	eax, DWORD PTR ?ID@CPU@@3Uprocessor_info@@A+40
	mov	ebx, eax
	mov	DWORD PTR ?ID@CPU@@3Uprocessor_info@@A, eax

; 258  : 
; 259  : 	fUsage = (PFLOAT)HeapAlloc(GetProcessHeap(), HEAP_ZERO_MEMORY, sizeof(FLOAT) * m_dwNumberOfProcessors);

	shl	rbx, 2
	call	QWORD PTR __imp_GetProcessHeap
	mov	r8, rbx
	mov	edx, 8
	mov	rcx, rax
	call	QWORD PTR __imp_HeapAlloc

; 260  : 
; 261  : 	// get adress to our func to use
; 262  : 	m_pNtQuerySystemInformation = (NTQUERYSYSTEMINFORMATION)GetProcAddress(

	lea	rcx, OFFSET FLAT:??_C@_09FLKFJBLM@ntdll?4dll@
	mov	QWORD PTR ?ID@CPU@@3Uprocessor_info@@A+16624, rax
	call	QWORD PTR __imp_GetModuleHandleA
	mov	rcx, rax
	lea	rdx, OFFSET FLAT:??_C@_0BJ@NDLOPGCH@NtQuerySystemInformation@
	call	QWORD PTR __imp_GetProcAddress
	mov	QWORD PTR ?ID@CPU@@3Uprocessor_info@@A+56, rax

; 263  : 		GetModuleHandleA("ntdll.dll"),
; 264  : 		"NtQuerySystemInformation"
; 265  : 	);
; 266  : 
; 267  : 	R_ASSERT(m_pNtQuerySystemInformation);

	test	rax, rax
	jne	SHORT $LN4@dynamic
; File C:\Users\Mahito\Desktop\Night outing\Night-outing\src\xrCore\xrDebugNew.cpp

; 388  :     backend(e1, "assertion failed", 0, 0, file, line, function, ignore_always);

	lea	rax, OFFSET FLAT:??_C@_0BP@MJPDEBMB@processor_info?3?3processor_info@
	xor	r9d, r9d
	mov	QWORD PTR [rsp+56], rax
	lea	r8, OFFSET FLAT:??_C@_0BB@DBHFCHNO@assertion?5failed@
	lea	rax, OFFSET FLAT:??_C@_0EH@NMFLECBF@C?3?2Users?2Mahito?2Desktop?2Night?5o@
	mov	DWORD PTR [rsp+48], 267			; 0000010bH
	lea	rdx, OFFSET FLAT:??_C@_0BM@OGNBJGIG@m_pNtQuerySystemInformation@
	mov	QWORD PTR [rsp+40], rax
	lea	rcx, OFFSET FLAT:?Debug@@3VxrDebug@@A	; Debug
	call	?backend@xrDebug@@QEAAXPEBD0000H0AEA_N@Z ; xrDebug::backend
$LN4@dynamic:
; File C:\Users\Mahito\Desktop\Night outing\Night-outing\src\xrCore\cpuid.cpp

; 268  : 	perfomanceInfo = (SYSTEM_PROCESSOR_PERFORMANCE_INFORMATION*)HeapAlloc(

	mov	eax, DWORD PTR ?ID@CPU@@3Uprocessor_info@@A
	lea	rbx, QWORD PTR [rax+rax*2]
	shl	rbx, 4
	call	QWORD PTR __imp_GetProcessHeap
	mov	r8, rbx
	mov	edx, 8
	mov	rcx, rax
	call	QWORD PTR __imp_HeapAlloc
	mov	QWORD PTR ?ID@CPU@@3Uprocessor_info@@A+64, rax
; File C:\Users\Mahito\Desktop\Night outing\Night-outing\src\xrCore\_math.cpp

; 139  : 	XRCORE_API processor_info	ID;

	add	rsp, 80					; 00000050H
	pop	rbx
	ret	0
??__EID@CPU@@YAXXZ ENDP					; CPU::`dynamic initializer for 'ID''
text$di	ENDS
; Function compile flags: /Ogtpy
; File C:\Users\Mahito\Desktop\Night outing\Night-outing\src\xrCore\_math.cpp
; File C:\Users\Mahito\Desktop\Night outing\Night-outing\src\xrCore\cpuid.h
; File C:\Users\Mahito\Desktop\Night outing\Night-outing\src\xrCore\_math.cpp
_TEXT	SEGMENT
tv136 = 208
tv134 = 208
tv133 = 208
tv85 = 208
?_initialize_cpu_thread@@YAXXZ PROC			; _initialize_cpu_thread

; 323  : {

$LN16:
	mov	rax, rsp
	sub	rsp, 200				; 000000c8H
	vmovaps	XMMWORD PTR [rax-24], xmm6
	vmovaps	XMMWORD PTR [rax-40], xmm7
	vmovaps	XMMWORD PTR [rax-56], xmm8
	vmovaps	XMMWORD PTR [rax-72], xmm9
	vmovaps	XMMWORD PTR [rax-88], xmm10
	vmovaps	XMMWORD PTR [rax-104], xmm11
	vmovaps	XMMWORD PTR [rax-120], xmm12
	vmovaps	XMMWORD PTR [rsp+64], xmm13
	vmovaps	XMMWORD PTR [rsp+48], xmm14
	vmovaps	XMMWORD PTR [rsp+32], xmm15

; 324  : 	debug_on_thread_spawn();

	call	?debug_on_thread_spawn@@YAXXZ		; debug_on_thread_spawn

; 29   : 		_control87(_PC_24, MCW_PC);

	mov	edx, 196608				; 00030000H
	mov	ecx, 131072				; 00020000H
	call	QWORD PTR __imp__control87

; 30   : 		_control87(_RC_NEAR, MCW_RC);

	mov	edx, 768				; 00000300H
	xor	ecx, ecx
	call	QWORD PTR __imp__control87
; File C:\Users\Mahito\Desktop\Night outing\Night-outing\src\xrCore\cpuid.h

; 96   : 		return (features & static_cast<unsigned>(feature));

	mov	eax, DWORD PTR ?ID@CPU@@3Uprocessor_info@@A+16736
	shr	eax, 3
	test	al, 1
; File C:\Users\Mahito\Desktop\Night outing\Night-outing\src\xrCore\_math.cpp

; 329  : 	if (CPU::ID.hasFeature(CPUFeature::SSE2))

	je	SHORT $LN10@initialize

; 330  : 	{
; 331  : 		//_mm_setcsr ( _mm_getcsr() | (_MM_FLUSH_ZERO_ON+_MM_DENORMALS_ZERO_ON) );
; 332  : 		_MM_SET_FLUSH_ZERO_MODE(_MM_FLUSH_ZERO_ON);

	vstmxcsr DWORD PTR tv133[rsp]
	mov	eax, DWORD PTR tv133[rsp]
	bts	eax, 15
	mov	DWORD PTR tv134[rsp], eax
	vldmxcsr DWORD PTR tv134[rsp]

; 333  : 		if (_denormals_are_zero_supported) {

	cmp	DWORD PTR ?_denormals_are_zero_supported@@3HA, 0
	je	SHORT $LN10@initialize

; 334  : 			__try {
; 335  : 				_MM_SET_DENORMALS_ZERO_MODE(_MM_DENORMALS_ZERO_ON);

	vstmxcsr DWORD PTR tv85[rsp]
	mov	eax, DWORD PTR tv85[rsp]
	or	eax, 64					; 00000040H
	mov	DWORD PTR tv136[rsp], eax
	vldmxcsr DWORD PTR tv136[rsp]

; 336  : 			}

	jmp	SHORT $LN10@initialize
$LN8@initialize:

; 337  : 			__except (EXCEPTION_EXECUTE_HANDLER) {
; 338  : 				_denormals_are_zero_supported = FALSE;

	mov	DWORD PTR ?_denormals_are_zero_supported@@3HA, 0
$LN10@initialize:

; 339  : 			}
; 340  : 		}
; 341  : 	}
; 342  : }

	lea	r11, QWORD PTR [rsp+200]
	vmovaps	xmm6, XMMWORD PTR [r11-24]
	vmovaps	xmm7, XMMWORD PTR [r11-40]
	vmovaps	xmm8, XMMWORD PTR [r11-56]
	vmovaps	xmm9, XMMWORD PTR [r11-72]
	vmovaps	xmm10, XMMWORD PTR [r11-88]
	vmovaps	xmm11, XMMWORD PTR [r11-104]
	vmovaps	xmm12, XMMWORD PTR [r11-120]
	vmovaps	xmm13, XMMWORD PTR [rsp+64]
	vmovaps	xmm14, XMMWORD PTR [rsp+48]
	vmovaps	xmm15, XMMWORD PTR [rsp+32]
	mov	rsp, r11
	ret	0
?_initialize_cpu_thread@@YAXXZ ENDP			; _initialize_cpu_thread
_TEXT	ENDS
; Function compile flags: /Ogtpy
; File C:\Users\Mahito\Desktop\Night outing\Night-outing\src\xrCore\_math.cpp
_TEXT	SEGMENT
tn$ = 32
name$ = 80
?thread_name@@YAXPEBD@Z PROC				; thread_name

; 353  : {

$LN10:
	sub	rsp, 72					; 00000048H

; 354  : 	THREAD_NAME		tn;
; 355  : 	tn.dwType = 0x1000;

	mov	DWORD PTR tn$[rsp], 4096		; 00001000H

; 356  : 	tn.szName = name;

	mov	QWORD PTR tn$[rsp+8], rcx

; 357  : 	tn.dwThreadID = DWORD(-1);

	mov	DWORD PTR tn$[rsp+16], -1		; ffffffffH

; 358  : 	tn.dwFlags = 0;

	mov	DWORD PTR tn$[rsp+20], 0

; 359  : 	__try
; 360  : 	{
; 361  : 		RaiseException(0x406D1388, 0, sizeof(tn) / sizeof(DWORD), (size_t*)&tn);

	lea	r9, QWORD PTR tn$[rsp]
	xor	edx, edx
	lea	r8d, QWORD PTR [rdx+6]
	mov	ecx, 1080890248				; 406d1388H
	call	QWORD PTR __imp_RaiseException

; 362  : 	}

	jmp	SHORT $LN8@thread_nam
$LN6@thread_nam:
$LN8@thread_nam:

; 363  : 	__except (EXCEPTION_CONTINUE_EXECUTION)
; 364  : 	{
; 365  : 	}
; 366  : }

	add	rsp, 72					; 00000048H
	ret	0
?thread_name@@YAXPEBD@Z ENDP				; thread_name
_TEXT	ENDS
; Function compile flags: /Ogtpy
text$x	SEGMENT
tn$ = 32
name$ = 80
?filt$0@?0??thread_name@@YAXPEBD@Z@4HA PROC		; `thread_name'::`1'::filt$0
	push	rbp
	sub	rsp, 32					; 00000020H
	mov	rbp, rdx
$LN5@filt$0:

; 363  : 	__except (EXCEPTION_CONTINUE_EXECUTION)

	mov	eax, -1
$LN7@filt$0:
	add	rsp, 32					; 00000020H
	pop	rbp
	ret	0
	int	3
?filt$0@?0??thread_name@@YAXPEBD@Z@4HA ENDP		; `thread_name'::`1'::filt$0
text$x	ENDS
; Function compile flags: /Ogtpy
; File C:\Users\Mahito\Desktop\Night outing\Night-outing\src\xrCore\_math.cpp
; File C:\Users\Mahito\Desktop\Night outing\Night-outing\src\xrCore\xrMemory_subst_msvc.cpp
; File C:\Users\Mahito\Desktop\Night outing\Night-outing\src\xrCore\_math.cpp
; File C:\Users\Mahito\Desktop\Night outing\Night-outing\src\xrCore\xrMemory_subst_msvc.cpp
; File C:\Users\Mahito\Desktop\Night outing\Night-outing\src\xrCore\_math.cpp
_TEXT	SEGMENT
_params$ = 48
?thread_entry@@YAXPEAX@Z PROC				; thread_entry

; 375  : void	__cdecl			thread_entry(void* _params) {

$LN28:
	mov	QWORD PTR [rsp+8], rbx
	mov	QWORD PTR [rsp+16], rsi
	push	rdi
	sub	rsp, 32					; 00000020H
	mov	rdi, rcx

; 376  : 	// initialize
; 377  : 	THREAD_STARTUP* startup = (THREAD_STARTUP*)_params;
; 378  : 	thread_name(startup->name);

	mov	rcx, QWORD PTR [rcx+8]
	call	?thread_name@@YAXPEBD@Z			; thread_name

; 379  : 	thread_t* entry = startup->entry;

	mov	rsi, QWORD PTR [rdi]
; File C:\Users\Mahito\Desktop\Night outing\Night-outing\src\xrCore\xrMemory_subst_msvc.cpp

; 105  : 		_aligned_free(P);

	mov	rcx, rdi
; File C:\Users\Mahito\Desktop\Night outing\Night-outing\src\xrCore\_math.cpp

; 380  : 	void* arglist = startup->args;

	mov	rbx, QWORD PTR [rdi+16]
; File C:\Users\Mahito\Desktop\Night outing\Night-outing\src\xrCore\xrMemory_subst_msvc.cpp

; 99   : 	stat_calls++;

	inc	DWORD PTR ?Memory@@3VxrMemory@@A

; 105  : 		_aligned_free(P);

	call	QWORD PTR __imp__aligned_free
; File C:\Users\Mahito\Desktop\Night outing\Night-outing\src\xrCore\_math.cpp

; 382  : 	_initialize_cpu_thread();

	call	?_initialize_cpu_thread@@YAXXZ		; _initialize_cpu_thread

; 383  : 
; 384  : 	// call
; 385  : 	entry(arglist);

	mov	rcx, rbx
	mov	rax, rsi

; 386  : }

	mov	rbx, QWORD PTR [rsp+48]
	mov	rsi, QWORD PTR [rsp+56]
	add	rsp, 32					; 00000020H
	pop	rdi

; 383  : 
; 384  : 	// call
; 385  : 	entry(arglist);

	rex_jmp	rax
?thread_entry@@YAXPEAX@Z ENDP				; thread_entry
_TEXT	ENDS
; Function compile flags: /Ogtpy
; File C:\Users\Mahito\Desktop\Night outing\Night-outing\src\xrCore\xrMemory_subst_msvc.h
; File C:\Users\Mahito\Desktop\Night outing\Night-outing\src\xrCore\xrMemory_subst_msvc.cpp
; File C:\Users\Mahito\Desktop\Night outing\Night-outing\src\xrCore\xrMemory_subst_msvc.h
;	COMDAT ??$xr_delete@UTHREAD_STARTUP@@@@YAXAEAPEAUTHREAD_STARTUP@@@Z
_TEXT	SEGMENT
ptr$ = 48
??$xr_delete@UTHREAD_STARTUP@@@@YAXAEAPEAUTHREAD_STARTUP@@@Z PROC ; xr_delete<THREAD_STARTUP>, COMDAT

; 38   : {

$LN26:
	push	rbx
	sub	rsp, 32					; 00000020H
	mov	rbx, rcx

; 39   : 	if (ptr)

	mov	rcx, QWORD PTR [rcx]
	test	rcx, rcx
	je	SHORT $LN2@xr_delete
; File C:\Users\Mahito\Desktop\Night outing\Night-outing\src\xrCore\xrMemory_subst_msvc.cpp

; 99   : 	stat_calls++;

	inc	DWORD PTR ?Memory@@3VxrMemory@@A

; 100  : 
; 101  : #ifdef PURE_ALLOC
; 102  : 	if (g_use_pure_alloc)
; 103  : 	{
; 104  : 		//free(P);
; 105  : 		_aligned_free(P);

	call	QWORD PTR __imp__aligned_free
; File C:\Users\Mahito\Desktop\Night outing\Night-outing\src\xrCore\xrMemory_subst_msvc.h

; 42   : 		ptr = NULL;

	mov	QWORD PTR [rbx], 0
$LN2@xr_delete:

; 43   : 	}
; 44   : }

	add	rsp, 32					; 00000020H
	pop	rbx
	ret	0
??$xr_delete@UTHREAD_STARTUP@@@@YAXAEAPEAUTHREAD_STARTUP@@@Z ENDP ; xr_delete<THREAD_STARTUP>
_TEXT	ENDS
; Function compile flags: /Ogtpy
; File C:\Users\Mahito\Desktop\Night outing\Night-outing\src\xrCore\xrMemory_subst_msvc.h
; File C:\Users\Mahito\Desktop\Night outing\Night-outing\src\xrCore\xrMemory_subst_msvc.cpp
; File C:\Users\Mahito\Desktop\Night outing\Night-outing\src\xrCore\xrMemory_subst_msvc.h
;	COMDAT ??R?$xr_special_free@$0A@UTHREAD_STARTUP@@@@QEAAXAEAPEAUTHREAD_STARTUP@@@Z
_TEXT	SEGMENT
this$dead$ = 8
ptr$ = 16
??R?$xr_special_free@$0A@UTHREAD_STARTUP@@@@QEAAXAEAPEAUTHREAD_STARTUP@@@Z PROC ; xr_special_free<0,THREAD_STARTUP>::operator(), COMDAT
; File C:\Users\Mahito\Desktop\Night outing\Night-outing\src\xrCore\xrMemory_subst_msvc.cpp

; 99   : 	stat_calls++;

	inc	DWORD PTR ?Memory@@3VxrMemory@@A

; 100  : 
; 101  : #ifdef PURE_ALLOC
; 102  : 	if (g_use_pure_alloc)
; 103  : 	{
; 104  : 		//free(P);
; 105  : 		_aligned_free(P);

	mov	rcx, QWORD PTR [rdx]
	rex_jmp	QWORD PTR __imp__aligned_free
??R?$xr_special_free@$0A@UTHREAD_STARTUP@@@@QEAAXAEAPEAUTHREAD_STARTUP@@@Z ENDP ; xr_special_free<0,THREAD_STARTUP>::operator()
_TEXT	ENDS
; Function compile flags: /Ogtpy
; File C:\Users\Mahito\Desktop\Night outing\Night-outing\src\xrCore\cpuid.h
;	COMDAT ?hasFeature@processor_info@@QEBA_NW4CPUFeature@@@Z
_TEXT	SEGMENT
this$dead$ = 8
feature$dead$ = 16
?hasFeature@processor_info@@QEBA_NW4CPUFeature@@@Z PROC	; processor_info::hasFeature, COMDAT

; 96   : 		return (features & static_cast<unsigned>(feature));

	mov	eax, DWORD PTR ?ID@CPU@@3Uprocessor_info@@A+16736
	shr	eax, 3
	and	al, 1

; 97   : 	}

	ret	0
?hasFeature@processor_info@@QEBA_NW4CPUFeature@@@Z ENDP	; processor_info::hasFeature
_TEXT	ENDS
; Function compile flags: /Ogtpy
; File C:\Users\Mahito\Desktop\Night outing\Night-outing\src\xrCore\_random.h
;	COMDAT ??0CRandom@@QEAA@XZ
_TEXT	SEGMENT
this$dead$ = 8
??0CRandom@@QEAA@XZ PROC				; CRandom::CRandom, COMDAT

; 26   : 	CRandom()			: holdrand(1)				{};

	mov	DWORD PTR ?Random@@3VCRandom@@A, 1	; Random
	lea	rax, OFFSET FLAT:?Random@@3VCRandom@@A	; Random
	ret	0
??0CRandom@@QEAA@XZ ENDP				; CRandom::CRandom
_TEXT	ENDS
END
