; Listing generated by Microsoft (R) Optimizing Compiler Version 19.35.32217.1 

include listing.inc

INCLUDELIB OLDNAMES

EXTRN	__imp__strtime:PROC
EXTRN	__imp__strdate:PROC
EXTRN	__imp__tzset:PROC
PUBLIC	?timestamp@@YAPEADAEAY0EA@D@Z			; timestamp
pdata	SEGMENT
$pdata$?timestamp@@YAPEADAEAY0EA@D@Z DD imagerel $LN89
	DD	imagerel $LN89+368
	DD	imagerel $unwind$?timestamp@@YAPEADAEAY0EA@D@Z
xdata	SEGMENT
$unwind$?timestamp@@YAPEADAEAY0EA@D@Z DD 060f01H
	DD	0f640fH
	DD	0e340fH
	DD	0700bb20fH
; Function compile flags: /Ogtpy
; File C:\Users\Mahito\Desktop\Night outing\Night-outing\src\xrCore\_std_extensions.cpp
; File C:\Users\Mahito\Desktop\Night outing\Night-outing\src\xrCore\_std_extensions.h
; File C:\Users\Mahito\Desktop\Night outing\Night-outing\src\xrCore\_std_extensions.cpp
; File C:\Users\Mahito\Desktop\Night outing\Night-outing\src\xrCore\_std_extensions.h
; File C:\Users\Mahito\Desktop\Night outing\Night-outing\src\xrCore\_std_extensions.cpp
; File C:\Users\Mahito\Desktop\Night outing\Night-outing\src\xrCore\_std_extensions.h
; File C:\Users\Mahito\Desktop\Night outing\Night-outing\src\xrCore\_std_extensions.cpp
; File C:\Users\Mahito\Desktop\Night outing\Night-outing\src\xrCore\string_concatenations.cpp
; File C:\Users\Mahito\Desktop\Night outing\Night-outing\src\xrCore\_std_extensions.cpp
; File C:\Users\Mahito\Desktop\Night outing\Night-outing\src\xrCore\string_concatenations.cpp
; File C:\Users\Mahito\Desktop\Night outing\Night-outing\src\xrCore\_std_extensions.cpp
; File C:\Users\Mahito\Desktop\Night outing\Night-outing\src\xrCore\_std_extensions.h
; File C:\Users\Mahito\Desktop\Night outing\Night-outing\src\xrCore\_std_extensions.cpp
; File C:\Users\Mahito\Desktop\Night outing\Night-outing\src\xrCore\_std_extensions.h
; File C:\Users\Mahito\Desktop\Night outing\Night-outing\src\xrCore\_std_extensions.cpp
; File C:\Users\Mahito\Desktop\Night outing\Night-outing\src\xrCore\_std_extensions.h
; File C:\Users\Mahito\Desktop\Night outing\Night-outing\src\xrCore\_std_extensions.cpp
_TEXT	SEGMENT
temp$ = 32
dest$ = 112
?timestamp@@YAPEADAEAY0EA@D@Z PROC			; timestamp

; 18   : {

$LN89:
	mov	QWORD PTR [rsp+8], rbx
	mov	QWORD PTR [rsp+16], rsi
	push	rdi
	sub	rsp, 96					; 00000060H
	mov	rsi, rcx

; 19   : 	string64	temp;
; 20   : 
; 21   : 	/* Set time zone from TZ environment variable. If TZ is not set,
; 22   : 	* the operating system is queried to obtain the default value 
; 23   : 	* for the variable. 
; 24   : 	*/
; 25   : 	_tzset		();

	call	QWORD PTR __imp__tzset

; 26   : 	u32			it;
; 27   : 
; 28   : 	// date
; 29   : 	_strdate	( temp );

	lea	rcx, QWORD PTR temp$[rsp]
	call	QWORD PTR __imp__strdate

; 30   : 	for (it=0; it<xr_strlen(temp); it++)

	xor	edi, edi
; File C:\Users\Mahito\Desktop\Night outing\Night-outing\src\xrCore\_std_extensions.h

; 186  : {	return (u32)strlen(S);			}

	lea	rcx, QWORD PTR temp$[rsp]
	mov	rbx, -1
; File C:\Users\Mahito\Desktop\Night outing\Night-outing\src\xrCore\_std_extensions.cpp

; 30   : 	for (it=0; it<xr_strlen(temp); it++)

	mov	edx, edi
; File C:\Users\Mahito\Desktop\Night outing\Night-outing\src\xrCore\_std_extensions.h

; 186  : {	return (u32)strlen(S);			}

	mov	rax, rbx
$LL82@timestamp:
	inc	rax
	cmp	BYTE PTR [rcx+rax], dl
	jne	SHORT $LL82@timestamp
; File C:\Users\Mahito\Desktop\Night outing\Night-outing\src\xrCore\_std_extensions.cpp

; 30   : 	for (it=0; it<xr_strlen(temp); it++)

	test	eax, eax
	je	SHORT $LN26@timestamp
$LL4@timestamp:

; 31   : 		if ('/'==temp[it]) temp[it]='-';

	mov	eax, edx
	cmp	BYTE PTR temp$[rsp+rax], 47		; 0000002fH
	jne	SHORT $LN2@timestamp
	mov	BYTE PTR temp$[rsp+rax], 45		; 0000002dH
$LN2@timestamp:

; 30   : 	for (it=0; it<xr_strlen(temp); it++)

	inc	edx
; File C:\Users\Mahito\Desktop\Night outing\Night-outing\src\xrCore\_std_extensions.h

; 186  : {	return (u32)strlen(S);			}

	lea	rcx, QWORD PTR temp$[rsp]
	mov	rax, rbx
	npad	6
$LL81@timestamp:
	inc	rax
	cmp	BYTE PTR [rcx+rax], dil
	jne	SHORT $LL81@timestamp
; File C:\Users\Mahito\Desktop\Night outing\Night-outing\src\xrCore\_std_extensions.cpp

; 30   : 	for (it=0; it<xr_strlen(temp); it++)

	cmp	edx, eax
	jb	SHORT $LL4@timestamp
$LN26@timestamp:
; File C:\Users\Mahito\Desktop\Night outing\Night-outing\src\xrCore\string_concatenations.cpp

; 130  : 	LPCSTR			e = dest + dest_sz;

	lea	r9, QWORD PTR [rsi+64]
	mov	rcx, rsi

; 131  : 	LPCSTR			j;
; 132  : 	for (j = S1; *j && i < e; ++i, ++j)

	cmp	BYTE PTR temp$[rsp], dil
	je	SHORT $LN52@timestamp

; 129  : 	LPSTR			i = dest;

	lea	rdx, QWORD PTR temp$[rsp]
	sub	rdx, rsi
$LL35@timestamp:

; 131  : 	LPCSTR			j;
; 132  : 	for (j = S1; *j && i < e; ++i, ++j)

	cmp	rcx, r9
	jae	SHORT $LN52@timestamp

; 133  : 		*i			= *j;

	movzx	eax, BYTE PTR [rdx+rcx]
	mov	BYTE PTR [rcx], al
	inc	rcx
	cmp	BYTE PTR [rdx+rcx], dil
	jne	SHORT $LL35@timestamp
$LN52@timestamp:

; 134  : 
; 135  : 	strconcat_error::process	( i, e, 0, strings );
; 136  : 
; 137  : 	for (j = S2; *j && i < e; ++i, ++j)

	cmp	rcx, r9
	lea	rdx, QWORD PTR [rcx-1]
	lea	r8, OFFSET FLAT:??_C@_01IDAFKMJL@_@
	cmovne	rdx, rcx
	npad	7
$LL38@timestamp:
	cmp	rdx, r9
	jae	SHORT $LN43@timestamp

; 138  : 		*i			= *j;

	movzx	eax, BYTE PTR [r8]
	inc	r8
	mov	BYTE PTR [rdx], al
	inc	rdx
	cmp	BYTE PTR [r8], dil
	jne	SHORT $LL38@timestamp
$LN43@timestamp:

; 142  : 	*i				= 0;

	cmp	rdx, r9
	lea	rax, QWORD PTR [rdx-1]
; File C:\Users\Mahito\Desktop\Night outing\Night-outing\src\xrCore\_std_extensions.cpp

; 35   : 	_strtime	( temp );

	lea	rcx, QWORD PTR temp$[rsp]
; File C:\Users\Mahito\Desktop\Night outing\Night-outing\src\xrCore\string_concatenations.cpp

; 142  : 	*i				= 0;

	cmovne	rax, rdx
	mov	BYTE PTR [rax], dil
; File C:\Users\Mahito\Desktop\Night outing\Night-outing\src\xrCore\_std_extensions.cpp

; 35   : 	_strtime	( temp );

	call	QWORD PTR __imp__strtime
; File C:\Users\Mahito\Desktop\Night outing\Night-outing\src\xrCore\_std_extensions.h

; 186  : {	return (u32)strlen(S);			}

	lea	rcx, QWORD PTR temp$[rsp]
	mov	rax, rbx
$LL80@timestamp:
	inc	rax
	cmp	BYTE PTR [rcx+rax], dil
	jne	SHORT $LL80@timestamp
; File C:\Users\Mahito\Desktop\Night outing\Night-outing\src\xrCore\_std_extensions.cpp

; 36   : 	for (it=0; it<xr_strlen(temp); it++)

	test	eax, eax
	je	SHORT $LL6@timestamp
$LL7@timestamp:

; 37   : 		if (':'==temp[it]) temp[it]='-';

	cmp	BYTE PTR temp$[rsp+rdi], 58		; 0000003aH
	jne	SHORT $LN5@timestamp
	mov	BYTE PTR temp$[rsp+rdi], 45		; 0000002dH
$LN5@timestamp:

; 36   : 	for (it=0; it<xr_strlen(temp); it++)

	inc	edi
; File C:\Users\Mahito\Desktop\Night outing\Night-outing\src\xrCore\_std_extensions.h

; 186  : {	return (u32)strlen(S);			}

	lea	rcx, QWORD PTR temp$[rsp]
	mov	rax, rbx
	npad	6
$LL79@timestamp:
	inc	rax
	cmp	BYTE PTR [rcx+rax], 0
	jne	SHORT $LL79@timestamp
; File C:\Users\Mahito\Desktop\Night outing\Night-outing\src\xrCore\_std_extensions.cpp

; 36   : 	for (it=0; it<xr_strlen(temp); it++)

	cmp	edi, eax
	jb	SHORT $LL7@timestamp
	npad	3
$LL6@timestamp:
; File C:\Users\Mahito\Desktop\Night outing\Night-outing\src\xrCore\_std_extensions.h

; 186  : {	return (u32)strlen(S);			}

	inc	rbx
	cmp	BYTE PTR [rsi+rbx], 0
	jne	SHORT $LL6@timestamp

; 236  : 	LPSTR const e				= destination + buffer_size - 1;

	mov	ecx, ebx
	lea	r8, QWORD PTR [rsi+63]
	add	rcx, rsi

; 237  : 	if ( i > e )

	cmp	rcx, r8
	ja	SHORT $LN83@timestamp

; 238  : 		return					0;
; 239  : 
; 240  : 	for ( LPCSTR j = source; *j && (i != e); ++i, ++j )

	cmp	BYTE PTR temp$[rsp], 0
	je	SHORT $LN85@timestamp
	lea	rdx, QWORD PTR temp$[rsp]
	sub	rdx, rcx
$LL16@timestamp:
	cmp	rcx, r8
	je	SHORT $LN85@timestamp

; 241  : 		*i						= *j;

	movzx	eax, BYTE PTR [rdx+rcx]
	mov	BYTE PTR [rcx], al
	inc	rcx
	cmp	BYTE PTR [rdx+rcx], 0
	jne	SHORT $LL16@timestamp
$LN85@timestamp:

; 242  : 
; 243  : 	*i							= 0;

	mov	BYTE PTR [rcx], 0
$LN83@timestamp:
; File C:\Users\Mahito\Desktop\Night outing\Night-outing\src\xrCore\_std_extensions.cpp

; 40   : }

	mov	rbx, QWORD PTR [rsp+112]
	mov	rax, rsi
	mov	rsi, QWORD PTR [rsp+120]
	add	rsp, 96					; 00000060H
	pop	rdi
	ret	0
?timestamp@@YAPEADAEAY0EA@D@Z ENDP			; timestamp
_TEXT	ENDS
END
