; Listing generated by Microsoft (R) Optimizing Compiler Version 19.35.32217.1 

include listing.inc

INCLUDELIB OLDNAMES

EXTRN	__imp_SymInitialize:PROC
EXTRN	__imp_SymLoadModule64:PROC
PUBLIC	BSUSymInitialize
pdata	SEGMENT
$pdata$BSUSymInitialize DD imagerel $LN123
	DD	imagerel $LN123+49
	DD	imagerel $unwind$BSUSymInitialize
$pdata$2$BSUSymInitialize DD imagerel $LN123+49
	DD	imagerel $LN123+152
	DD	imagerel $chain$2$BSUSymInitialize
$pdata$4$BSUSymInitialize DD imagerel $LN123+152
	DD	imagerel $LN123+445
	DD	imagerel $chain$4$BSUSymInitialize
$pdata$5$BSUSymInitialize DD imagerel $LN123+445
	DD	imagerel $LN123+461
	DD	imagerel $chain$5$BSUSymInitialize
xdata	SEGMENT
$unwind$BSUSymInitialize DD 040e01H
	DD	02b010eH
	DD	030066007H
$chain$2$BSUSymInitialize DD 061821H
	DD	02ae418H
	DD	02f7410H
	DD	02e5408H
	DD	imagerel $LN123
	DD	imagerel $LN123+49
	DD	imagerel $unwind$BSUSymInitialize
$chain$4$BSUSymInitialize DD 060021H
	DD	02ae400H
	DD	02f7400H
	DD	02e5400H
	DD	imagerel $LN123
	DD	imagerel $LN123+49
	DD	imagerel $unwind$BSUSymInitialize
$chain$5$BSUSymInitialize DD 021H
	DD	imagerel $LN123
	DD	imagerel $LN123+49
	DD	imagerel $unwind$BSUSymInitialize
; Function compile flags: /Ogtpy
; File C:\Users\Mahito\Desktop\Night outing\Night-outing\src\xrCore\blackbox\BSUFunctions.cpp
; File C:\Users\Mahito\Desktop\Night outing\Night-outing\src\xrCore\xrMemory.h
; File C:\Users\Mahito\Desktop\Night outing\Night-outing\src\xrCore\xrMemory_subst_msvc.cpp
; File C:\Users\Mahito\Desktop\Night outing\Night-outing\src\xrCore\blackbox\BSUFunctions.cpp
_TEXT	SEGMENT
szModName$1 = 64
dwPID$ = 368
hProcess$ = 376
UserSearchPath$dead$ = 384
fInvadeProcess$dead$ = 392
dwCount$2 = 392
BSUSymInitialize PROC

; 94   : {

$LN123:
	mov	DWORD PTR [rsp+32], r9d
	push	rbx
	push	rsi
	sub	rsp, 344				; 00000158H
	mov	rsi, rdx
	mov	ebx, ecx

; 95   :     // If this is any flavor of NT or fInvadeProcess is FALSE, just call
; 96   :     // SymInitialize itself
; 97   :     if ( ( TRUE == IsNT ( ) ) || ( FALSE == fInvadeProcess ) )

	call	IsNT
	mov	r8d, 1
	lea	rdx, OFFSET FLAT:?g_application_path@@3PADA ; g_application_path
	mov	rcx, rsi
	cmp	eax, r8d
	je	$LN7@BSUSymInit

; 100  :                                    UserSearchPath ,
; 101  :                                    fInvadeProcess  ) ) ;
; 102  :     }
; 103  :     else
; 104  :     {
; 105  :         // This is Win9x and the user wants to invade!
; 106  : 
; 107  :         // The first step is to initialize the symbol engine.  If it
; 108  :         // fails, there is not much I can do.
; 109  :         BOOL bSymInit = ::SymInitialize ( hProcess       ,

	mov	QWORD PTR [rsp+368], rbp
	mov	QWORD PTR [rsp+376], rdi
	mov	QWORD PTR [rsp+336], r14
	call	QWORD PTR __imp_SymInitialize

; 110  :                                           UserSearchPath ,
; 111  :                                           fInvadeProcess  ) ;
; 112  :         ASSERT ( FALSE != bSymInit ) ;
; 113  :         if ( FALSE == bSymInit )

	test	eax, eax
	je	SHORT $LN90@BSUSymInit

; 114  :         {
; 115  :             return ( FALSE ) ;
; 116  :         }
; 117  : 
; 118  :         DWORD dwCount ;
; 119  :         // Find out how many modules there are.  This is a BSU function.
; 120  :         if ( FALSE == GetLoadedModules ( dwPID    ,

	lea	r9, QWORD PTR dwCount$2[rsp]
	xor	r8d, r8d
	xor	edx, edx
	mov	ecx, ebx
	call	GetLoadedModules
	test	eax, eax
	jne	SHORT $LN9@BSUSymInit

; 121  :                                          0        ,
; 122  :                                          NULL     ,
; 123  :                                          &dwCount  ) )
; 124  :         {
; 125  :             ASSERT ( !"GetLoadedModules failed" ) ;
; 126  :             // Clean up the symbol engine and leave.
; 127  :             VERIFY ( ::SymCleanup ( hProcess ) ) ;

	mov	rcx, rsi
	call	QWORD PTR __imp_SymCleanup
$LN90@BSUSymInit:

; 128  :             return ( FALSE ) ;

	xor	eax, eax
$LN121@BSUSymInit:
	mov	rdi, QWORD PTR [rsp+376]
	mov	rbp, QWORD PTR [rsp+368]
	mov	r14, QWORD PTR [rsp+336]

; 201  : }

	add	rsp, 344				; 00000158H
	pop	rsi
	pop	rbx
	ret	0
$LN9@BSUSymInit:

; 129  :         }
; 130  :         // Allocate something big enough to hold the list.
; 131  :         HMODULE * paMods = new HMODULE[ dwCount ] ;

	mov	ecx, DWORD PTR dwCount$2[rsp]
	mov	eax, 8
	mul	rcx
	mov	rcx, -1
	cmovo	rax, rcx
	mov	rcx, rax
	call	??_U@YAPEAX_K@Z				; operator new[]

; 132  : 
; 133  :         // Get the list for real.
; 134  :         if ( FALSE == GetLoadedModules ( dwPID    ,

	mov	edx, DWORD PTR dwCount$2[rsp]
	lea	r9, QWORD PTR dwCount$2[rsp]
	mov	r8, rax
	mov	ecx, ebx
	mov	rdi, rax
	call	GetLoadedModules
	test	eax, eax
	je	$LN112@BSUSymInit

; 135  :                                          dwCount  ,
; 136  :                                          paMods   ,
; 137  :                                          &dwCount  ) )
; 138  :         {
; 139  :             ASSERT ( !"GetLoadedModules failed" ) ;
; 140  :             // Clean up the symbol engine and leave.
; 141  :             VERIFY ( ::SymCleanup ( hProcess ) ) ;
; 142  :             // Free the memory that I allocated earlier.
; 143  :             delete [] paMods ;
; 144  :             return ( FALSE ) ;
; 145  :         }
; 146  :         // The module filename.
; 147  :         TCHAR szModName [ MAX_PATH ] ;
; 148  :         for ( UINT uiCurr = 0 ; uiCurr < dwCount ; uiCurr++ )

	xor	ebp, ebp
	mov	ebx, ebp
	cmp	DWORD PTR dwCount$2[rsp], ebx
	jbe	$LN3@BSUSymInit
	npad	1
$LL4@BSUSymInit:

; 149  :         {
; 150  :             // Get the module's filename.
; 151  :             if ( FALSE == GetModuleFileName ( paMods[ uiCurr ]     ,

	mov	eax, ebx
	lea	rdx, QWORD PTR szModName$1[rsp]
	mov	rcx, QWORD PTR [rdi+rax*8]
	lea	r14, QWORD PTR [rdi+rax*8]
	mov	r8d, 260				; 00000104H
	call	QWORD PTR __imp_GetModuleFileNameA
	test	eax, eax
	je	$LN112@BSUSymInit

; 152  :                                               szModName            ,
; 153  :                                               sizeof ( szModName )  ) )
; 154  :             {
; 155  :                 ASSERT ( !"GetModuleFileName failed!" ) ;
; 156  :                 // Clean up the symbol engine and leave.
; 157  :                 VERIFY ( ::SymCleanup ( hProcess ) ) ;
; 158  :                 // Free the memory that I allocated earlier.
; 159  :                 delete [] paMods ;
; 160  :                 return ( FALSE ) ;
; 161  :             }
; 162  : 
; 163  :             // In order to get the symbol engine to work outside a
; 164  :             // debugger, it needs a handle to the image.  Yes, this
; 165  :             // will leak but the OS will close it down when the process
; 166  :             // ends.
; 167  :             HANDLE hFile = CreateFile ( szModName       ,

	xor	r9d, r9d
	mov	QWORD PTR [rsp+48], rbp
	mov	DWORD PTR [rsp+40], ebp
	lea	rcx, QWORD PTR szModName$1[rsp]
	mov	edx, -2147483648			; 80000000H
	mov	DWORD PTR [rsp+32], 3
	lea	r8d, QWORD PTR [r9+1]
	call	QWORD PTR __imp_CreateFileA

; 168  :                                         GENERIC_READ    ,
; 169  :                                         FILE_SHARE_READ ,
; 170  :                                         NULL            ,
; 171  :                                         OPEN_EXISTING   ,
; 172  :                                         0               ,
; 173  :                                         0                ) ;
; 174  : 
; 175  :             // For whatever reason, SymLoadModule can return zero, but
; 176  :             // it still loads the modules.  Sheez.
; 177  :             if ( FALSE == SymLoadModule ( hProcess               ,

	mov	ecx, DWORD PTR [r14]
	lea	r8, QWORD PTR szModName$1[rsp]
	mov	DWORD PTR [rsp+40], ebp
	xor	r9d, r9d
	mov	QWORD PTR [rsp+32], rcx
	mov	rdx, rax
	mov	rcx, rsi
	call	QWORD PTR __imp_SymLoadModule64
	test	rax, rax
	jne	SHORT $LN2@BSUSymInit

; 178  :                                           hFile                  ,
; 179  :                                           szModName              ,
; 180  :                                           NULL                   ,
; 181  :                                          (DWORD)paMods[ uiCurr ] ,
; 182  :                                           0                       ) )
; 183  :             {
; 184  :                 // Check the last error value.  If it is zero, then all
; 185  :                 // I can assume is that it worked.
; 186  :                 DWORD dwLastErr = GetLastError ( ) ;

	call	QWORD PTR __imp_GetLastError

; 187  :                 ASSERT ( ERROR_SUCCESS == dwLastErr ) ;
; 188  :                 if ( ERROR_SUCCESS != dwLastErr )

	test	eax, eax
	jne	SHORT $LN112@BSUSymInit
$LN2@BSUSymInit:

; 135  :                                          dwCount  ,
; 136  :                                          paMods   ,
; 137  :                                          &dwCount  ) )
; 138  :         {
; 139  :             ASSERT ( !"GetLoadedModules failed" ) ;
; 140  :             // Clean up the symbol engine and leave.
; 141  :             VERIFY ( ::SymCleanup ( hProcess ) ) ;
; 142  :             // Free the memory that I allocated earlier.
; 143  :             delete [] paMods ;
; 144  :             return ( FALSE ) ;
; 145  :         }
; 146  :         // The module filename.
; 147  :         TCHAR szModName [ MAX_PATH ] ;
; 148  :         for ( UINT uiCurr = 0 ; uiCurr < dwCount ; uiCurr++ )

	inc	ebx
	cmp	ebx, DWORD PTR dwCount$2[rsp]
	jb	$LL4@BSUSymInit
$LN3@BSUSymInit:
; File C:\Users\Mahito\Desktop\Night outing\Night-outing\src\xrCore\xrMemory.h

; 69   : 	if (P)

	test	rdi, rdi
	je	SHORT $LN18@BSUSymInit
; File C:\Users\Mahito\Desktop\Night outing\Night-outing\src\xrCore\xrMemory_subst_msvc.cpp

; 99   : 	stat_calls++;

	inc	DWORD PTR ?Memory@@3VxrMemory@@A

; 100  : 
; 101  : #ifdef PURE_ALLOC
; 102  : 	if (g_use_pure_alloc)
; 103  : 	{
; 104  : 		//free(P);
; 105  : 		_aligned_free(P);

	mov	rcx, rdi
	call	QWORD PTR __imp__aligned_free
$LN18@BSUSymInit:
; File C:\Users\Mahito\Desktop\Night outing\Night-outing\src\xrCore\blackbox\BSUFunctions.cpp

; 200  :     return ( TRUE ) ;

	mov	eax, 1
	jmp	$LN121@BSUSymInit
$LN112@BSUSymInit:

; 189  :                 {
; 190  :                     // Clean up the symbol engine and leave.
; 191  :                     VERIFY ( ::SymCleanup ( hProcess ) ) ;
; 192  :                     // Free the memory that I allocated earlier.
; 193  :                     delete [] paMods ;
; 194  :                     return ( FALSE ) ;

	mov	rcx, rsi
	call	QWORD PTR __imp_SymCleanup
	test	rdi, rdi
	je	$LN90@BSUSymInit
	inc	DWORD PTR ?Memory@@3VxrMemory@@A
	mov	rcx, rdi
	call	QWORD PTR __imp__aligned_free
	jmp	$LN90@BSUSymInit
$LN7@BSUSymInit:

; 201  : }

	add	rsp, 344				; 00000158H
	pop	rsi
	pop	rbx

; 98   :     {
; 99   :         return ( ::SymInitialize ( hProcess       ,

	rex_jmp	QWORD PTR __imp_SymInitialize
BSUSymInitialize ENDP
_TEXT	ENDS
END
