; Listing generated by Microsoft (R) Optimizing Compiler Version 19.35.32217.1 

include listing.inc

INCLUDELIB OLDNAMES

PUBLIC	??_C@_0N@FFJGBINN@AuthenticAMD@			; `string'
PUBLIC	??_C@_0N@BDDFKIGD@GenuineIntel@			; `string'
PUBLIC	??_C@_0N@DHAFJCOO@CentaurHauls@			; `string'
PUBLIC	??_C@_0BJ@NDLOPGCH@NtQuerySystemInformation@	; `string'
PUBLIC	??_C@_09FLKFJBLM@ntdll?4dll@			; `string'
PUBLIC	??_C@_0BP@MJPDEBMB@processor_info?3?3processor_info@ ; `string'
PUBLIC	??_C@_0EH@NMFLECBF@C?3?2Users?2Mahito?2Desktop?2Night?5o@ ; `string'
PUBLIC	??_C@_0BM@OGNBJGIG@m_pNtQuerySystemInformation@	; `string'
EXTRN	__imp_GetLogicalProcessorInformation:PROC
EXTRN	__imp_GetProcessAffinityMask:PROC
;	COMDAT ?ignore_always@?3???0processor_info@@QEAA@XZ@4_NA
_BSS	SEGMENT
?ignore_always@?3???0processor_info@@QEAA@XZ@4_NA DB 01H DUP (?) ; `processor_info::processor_info'::`4'::ignore_always
_BSS	ENDS
;	COMDAT ??_C@_0BM@OGNBJGIG@m_pNtQuerySystemInformation@
CONST	SEGMENT
??_C@_0BM@OGNBJGIG@m_pNtQuerySystemInformation@ DB 'm_pNtQuerySystemInfor'
	DB	'mation', 00H				; `string'
CONST	ENDS
;	COMDAT ??_C@_0EH@NMFLECBF@C?3?2Users?2Mahito?2Desktop?2Night?5o@
CONST	SEGMENT
??_C@_0EH@NMFLECBF@C?3?2Users?2Mahito?2Desktop?2Night?5o@ DB 'C:\Users\Ma'
	DB	'hito\Desktop\Night outing\Night-outing\src\xrCore\cpuid.cpp', 00H ; `string'
CONST	ENDS
;	COMDAT ??_C@_0BP@MJPDEBMB@processor_info?3?3processor_info@
CONST	SEGMENT
??_C@_0BP@MJPDEBMB@processor_info?3?3processor_info@ DB 'processor_info::'
	DB	'processor_info', 00H			; `string'
CONST	ENDS
;	COMDAT ??_C@_09FLKFJBLM@ntdll?4dll@
CONST	SEGMENT
??_C@_09FLKFJBLM@ntdll?4dll@ DB 'ntdll.dll', 00H	; `string'
CONST	ENDS
;	COMDAT ??_C@_0BJ@NDLOPGCH@NtQuerySystemInformation@
CONST	SEGMENT
??_C@_0BJ@NDLOPGCH@NtQuerySystemInformation@ DB 'NtQuerySystemInformation'
	DB	00H						; `string'
CONST	ENDS
;	COMDAT ??_C@_0N@DHAFJCOO@CentaurHauls@
CONST	SEGMENT
??_C@_0N@DHAFJCOO@CentaurHauls@ DB 'CentaurHauls', 00H	; `string'
CONST	ENDS
;	COMDAT ??_C@_0N@BDDFKIGD@GenuineIntel@
CONST	SEGMENT
??_C@_0N@BDDFKIGD@GenuineIntel@ DB 'GenuineIntel', 00H	; `string'
CONST	ENDS
;	COMDAT ??_C@_0N@FFJGBINN@AuthenticAMD@
CONST	SEGMENT
??_C@_0N@FFJGBINN@AuthenticAMD@ DB 'AuthenticAMD', 00H	; `string'
PUBLIC	??$construct@V?$array@H$03@std@@V12@@?$_Normal_allocator_traits@V?$xalloc@V?$array@H$03@std@@@@@std@@SAXAEAV?$xalloc@V?$array@H$03@std@@@@PEAV?$array@H$03@1@$$QEAV31@@Z ; std::_Normal_allocator_traits<xalloc<std::array<int,4> > >::construct<std::array<int,4>,std::array<int,4> >
PUBLIC	??$forward@V?$array@H$03@std@@@std@@YA$$QEAV?$array@H$03@0@AEAV10@@Z ; std::forward<std::array<int,4> >
PUBLIC	??$_Emplace_back@V?$array@H$03@std@@@?$_Uninitialized_backout_al@V?$xalloc@V?$array@H$03@std@@@@@std@@QEAAX$$QEAV?$array@H$03@1@@Z ; std::_Uninitialized_backout_al<xalloc<std::array<int,4> > >::_Emplace_back<std::array<int,4> >
PUBLIC	??$move@AEAV?$array@H$03@std@@@std@@YA$$QEAV?$array@H$03@0@AEAV10@@Z ; std::move<std::array<int,4> &>
PUBLIC	?construct@?$xalloc@V?$array@H$03@std@@@@QEAAXPEAV?$array@H$03@std@@AEBV23@@Z ; xalloc<std::array<int,4> >::construct
PUBLIC	??0?$_Uninitialized_backout_al@V?$xalloc@V?$array@H$03@std@@@@@std@@QEAA@PEAV?$array@H$03@1@AEAV?$xalloc@V?$array@H$03@std@@@@@Z ; std::_Uninitialized_backout_al<xalloc<std::array<int,4> > >::_Uninitialized_backout_al<xalloc<std::array<int,4> > >
PUBLIC	??1?$_Uninitialized_backout_al@V?$xalloc@V?$array@H$03@std@@@@@std@@QEAA@XZ ; std::_Uninitialized_backout_al<xalloc<std::array<int,4> > >::~_Uninitialized_backout_al<xalloc<std::array<int,4> > >
PUBLIC	?_Release@?$_Uninitialized_backout_al@V?$xalloc@V?$array@H$03@std@@@@@std@@QEAAPEAV?$array@H$03@2@XZ ; std::_Uninitialized_backout_al<xalloc<std::array<int,4> > >::_Release
PUBLIC	??$xr_alloc@V?$array@H$03@std@@@@YAPEAV?$array@H$03@std@@I@Z ; xr_alloc<std::array<int,4> >
PUBLIC	??$_Get_unwrapped@AEBQEAV?$array@H$03@std@@@std@@YA?A_TAEBQEAV?$array@H$03@0@@Z ; std::_Get_unwrapped<std::array<int,4> * const &>
PUBLIC	??$_Uninitialized_move@PEAV?$array@H$03@std@@V?$xalloc@V?$array@H$03@std@@@@@std@@YAPEAV?$array@H$03@0@QEAV10@0PEAV10@AEAV?$xalloc@V?$array@H$03@std@@@@@Z ; std::_Uninitialized_move<std::array<int,4> *,xalloc<std::array<int,4> > >
PUBLIC	??$construct@V?$array@H$03@std@@AEBV12@@?$_Normal_allocator_traits@V?$xalloc@V?$array@H$03@std@@@@@std@@SAXAEAV?$xalloc@V?$array@H$03@std@@@@PEAV?$array@H$03@1@AEBV31@@Z ; std::_Normal_allocator_traits<xalloc<std::array<int,4> > >::construct<std::array<int,4>,std::array<int,4> const &>
PUBLIC	?max_size@?$xalloc@V?$array@H$03@std@@@@QEBA_KXZ ; xalloc<std::array<int,4> >::max_size
PUBLIC	?_Get_first@?$_Compressed_pair@V?$xalloc@V?$array@H$03@std@@@@V?$_Vector_val@U?$_Simple_types@V?$array@H$03@std@@@std@@@std@@$00@std@@QEBAAEBV?$xalloc@V?$array@H$03@std@@@@XZ ; std::_Compressed_pair<xalloc<std::array<int,4> >,std::_Vector_val<std::_Simple_types<std::array<int,4> > >,1>::_Get_first
PUBLIC	?max_size@?$_Normal_allocator_traits@V?$xalloc@V?$array@H$03@std@@@@@std@@SA_KAEBV?$xalloc@V?$array@H$03@std@@@@@Z ; std::_Normal_allocator_traits<xalloc<std::array<int,4> > >::max_size
PUBLIC	?capacity@?$vector@V?$array@H$03@std@@V?$xalloc@V?$array@H$03@std@@@@@std@@QEBA_KXZ ; std::vector<std::array<int,4>,xalloc<std::array<int,4> > >::capacity
PUBLIC	?_Getal@?$vector@V?$array@H$03@std@@V?$xalloc@V?$array@H$03@std@@@@@std@@AEBAAEBV?$xalloc@V?$array@H$03@std@@@@XZ ; std::vector<std::array<int,4>,xalloc<std::array<int,4> > >::_Getal
PUBLIC	?allocate@?$xalloc@V?$array@H$03@std@@@@QEBAPEAV?$array@H$03@std@@_KPEBX@Z ; xalloc<std::array<int,4> >::allocate
PUBLIC	?destroy@?$xalloc@V?$array@H$03@std@@@@QEAAXPEAV?$array@H$03@std@@@Z ; xalloc<std::array<int,4> >::destroy
PUBLIC	?max_size@?$vector@V?$array@H$03@std@@V?$xalloc@V?$array@H$03@std@@@@@std@@QEBA_KXZ ; std::vector<std::array<int,4>,xalloc<std::array<int,4> > >::max_size
PUBLIC	?_Calculate_growth@?$vector@V?$array@H$03@std@@V?$xalloc@V?$array@H$03@std@@@@@std@@AEBA_K_K@Z ; std::vector<std::array<int,4>,xalloc<std::array<int,4> > >::_Calculate_growth
PUBLIC	?_Change_array@?$vector@V?$array@H$03@std@@V?$xalloc@V?$array@H$03@std@@@@@std@@AEAAXQEAV?$array@H$03@2@_K1@Z ; std::vector<std::array<int,4>,xalloc<std::array<int,4> > >::_Change_array
PUBLIC	?_Xlength@?$vector@V?$array@H$03@std@@V?$xalloc@V?$array@H$03@std@@@@@std@@CAXXZ ; std::vector<std::array<int,4>,xalloc<std::array<int,4> > >::_Xlength
PUBLIC	?_Orphan_range@?$vector@V?$array@H$03@std@@V?$xalloc@V?$array@H$03@std@@@@@std@@AEBAXPEAV?$array@H$03@2@0@Z ; std::vector<std::array<int,4>,xalloc<std::array<int,4> > >::_Orphan_range
PUBLIC	??$destroy@V?$array@H$03@std@@@?$_Normal_allocator_traits@V?$xalloc@V?$array@H$03@std@@@@@std@@SAXAEAV?$xalloc@V?$array@H$03@std@@@@PEAV?$array@H$03@1@@Z ; std::_Normal_allocator_traits<xalloc<std::array<int,4> > >::destroy<std::array<int,4> >
PUBLIC	??$_Unfancy@V?$array@H$03@std@@@std@@YAPEAV?$array@H$03@0@PEAV10@@Z ; std::_Unfancy<std::array<int,4> >
PUBLIC	??$_Emplace_reallocate@AEBV?$array@H$03@std@@@?$vector@V?$array@H$03@std@@V?$xalloc@V?$array@H$03@std@@@@@std@@AEAAPEAV?$array@H$03@1@QEAV21@AEBV21@@Z ; std::vector<std::array<int,4>,xalloc<std::array<int,4> > >::_Emplace_reallocate<std::array<int,4> const &>
PUBLIC	??$_Emplace_back_with_unused_capacity@AEBV?$array@H$03@std@@@?$vector@V?$array@H$03@std@@V?$xalloc@V?$array@H$03@std@@@@@std@@AEAAAEAV?$array@H$03@1@AEBV21@@Z ; std::vector<std::array<int,4>,xalloc<std::array<int,4> > >::_Emplace_back_with_unused_capacity<std::array<int,4> const &>
PUBLIC	??$forward@AEBV?$array@H$03@std@@@std@@YAAEBV?$array@H$03@0@AEBV10@@Z ; std::forward<std::array<int,4> const &>
PUBLIC	??0?$xalloc@V?$array@H$03@std@@@@QEAA@XZ	; xalloc<std::array<int,4> >::xalloc<std::array<int,4> >
PUBLIC	??0?$_Vector_val@U?$_Simple_types@V?$array@H$03@std@@@std@@@std@@QEAA@XZ ; std::_Vector_val<std::_Simple_types<std::array<int,4> > >::_Vector_val<std::_Simple_types<std::array<int,4> > >
PUBLIC	??$xr_free@V?$array@H$03@std@@@@YAXAEAPEAV?$array@H$03@std@@@Z ; xr_free<std::array<int,4> >
PUBLIC	??$?0$$V@?$_Compressed_pair@V?$xalloc@V?$array@H$03@std@@@@V?$_Vector_val@U?$_Simple_types@V?$array@H$03@std@@@std@@@std@@$00@std@@QEAA@U_Zero_then_variadic_args_t@1@@Z ; std::_Compressed_pair<xalloc<std::array<int,4> >,std::_Vector_val<std::_Simple_types<std::array<int,4> > >,1>::_Compressed_pair<xalloc<std::array<int,4> >,std::_Vector_val<std::_Simple_types<std::array<int,4> > >,1><>
PUBLIC	??$addressof@V?$_Vector_val@U?$_Simple_types@V?$array@H$03@std@@@std@@@std@@@std@@YAPEAV?$_Vector_val@U?$_Simple_types@V?$array@H$03@std@@@std@@@0@AEAV10@@Z ; std::addressof<std::_Vector_val<std::_Simple_types<std::array<int,4> > > >
PUBLIC	??$_Destroy_range@V?$xalloc@V?$array@H$03@std@@@@@std@@YAXPEAV?$array@H$03@0@QEAV10@AEAV?$xalloc@V?$array@H$03@std@@@@@Z ; std::_Destroy_range<xalloc<std::array<int,4> > >
PUBLIC	??$_Emplace_one_at_back@AEBV?$array@H$03@std@@@?$vector@V?$array@H$03@std@@V?$xalloc@V?$array@H$03@std@@@@@std@@AEAAAEAV?$array@H$03@1@AEBV21@@Z ; std::vector<std::array<int,4>,xalloc<std::array<int,4> > >::_Emplace_one_at_back<std::array<int,4> const &>
PUBLIC	?_Verify_offset@?$_Vector_const_iterator@V?$_Vector_val@U?$_Simple_types@V?$array@H$03@std@@@std@@@std@@@std@@QEBAX_J@Z ; std::_Vector_const_iterator<std::_Vector_val<std::_Simple_types<std::array<int,4> > > >::_Verify_offset
PUBLIC	?_Get_first@?$_Compressed_pair@V?$xalloc@V?$array@H$03@std@@@@V?$_Vector_val@U?$_Simple_types@V?$array@H$03@std@@@std@@@std@@$00@std@@QEAAAEAV?$xalloc@V?$array@H$03@std@@@@XZ ; std::_Compressed_pair<xalloc<std::array<int,4> >,std::_Vector_val<std::_Simple_types<std::array<int,4> > >,1>::_Get_first
PUBLIC	??Y?$_Vector_const_iterator@V?$_Vector_val@U?$_Simple_types@V?$array@H$03@std@@@std@@@std@@@std@@QEAAAEAV01@_J@Z ; std::_Vector_const_iterator<std::_Vector_val<std::_Simple_types<std::array<int,4> > > >::operator+=
PUBLIC	?deallocate@?$xalloc@V?$array@H$03@std@@@@QEBAXPEAV?$array@H$03@std@@_K@Z ; xalloc<std::array<int,4> >::deallocate
PUBLIC	?clear@?$vector@V?$array@H$03@std@@V?$xalloc@V?$array@H$03@std@@@@@std@@QEAAXXZ ; std::vector<std::array<int,4>,xalloc<std::array<int,4> > >::clear
PUBLIC	?_Getal@?$vector@V?$array@H$03@std@@V?$xalloc@V?$array@H$03@std@@@@@std@@AEAAAEAV?$xalloc@V?$array@H$03@std@@@@XZ ; std::vector<std::array<int,4>,xalloc<std::array<int,4> > >::_Getal
PUBLIC	??0?$_Vector_const_iterator@V?$_Vector_val@U?$_Simple_types@V?$array@H$03@std@@@std@@@std@@@std@@QEAA@PEAV?$array@H$03@1@PEBU_Container_base0@1@@Z ; std::_Vector_const_iterator<std::_Vector_val<std::_Simple_types<std::array<int,4> > > >::_Vector_const_iterator<std::_Vector_val<std::_Simple_types<std::array<int,4> > > >
PUBLIC	??D?$_Vector_const_iterator@V?$_Vector_val@U?$_Simple_types@V?$array@H$03@std@@@std@@@std@@@std@@QEBAAEBV?$array@H$03@1@XZ ; std::_Vector_const_iterator<std::_Vector_val<std::_Simple_types<std::array<int,4> > > >::operator*
PUBLIC	??Y?$_Vector_iterator@V?$_Vector_val@U?$_Simple_types@V?$array@H$03@std@@@std@@@std@@@std@@QEAAAEAV01@_J@Z ; std::_Vector_iterator<std::_Vector_val<std::_Simple_types<std::array<int,4> > > >::operator+=
PUBLIC	??0?$_Vector_iterator@V?$_Vector_val@U?$_Simple_types@V?$array@H$03@std@@@std@@@std@@@std@@QEAA@PEAV?$array@H$03@1@PEBU_Container_base0@1@@Z ; std::_Vector_iterator<std::_Vector_val<std::_Simple_types<std::array<int,4> > > >::_Vector_iterator<std::_Vector_val<std::_Simple_types<std::array<int,4> > > >
PUBLIC	?_Validate@?$bitset@$0CA@@std@@SAX_K@Z		; std::bitset<32>::_Validate
PUBLIC	?_Subscript@?$bitset@$0CA@@std@@QEBA_N_K@Z	; std::bitset<32>::_Subscript
PUBLIC	??0?$vector@V?$array@H$03@std@@V?$xalloc@V?$array@H$03@std@@@@@std@@QEAA@XZ ; std::vector<std::array<int,4>,xalloc<std::array<int,4> > >::vector<std::array<int,4>,xalloc<std::array<int,4> > >
PUBLIC	?begin@?$vector@V?$array@H$03@std@@V?$xalloc@V?$array@H$03@std@@@@@std@@QEAA?AV?$_Vector_iterator@V?$_Vector_val@U?$_Simple_types@V?$array@H$03@std@@@std@@@std@@@2@XZ ; std::vector<std::array<int,4>,xalloc<std::array<int,4> > >::begin
PUBLIC	?_Tidy@?$vector@V?$array@H$03@std@@V?$xalloc@V?$array@H$03@std@@@@@std@@AEAAXXZ ; std::vector<std::array<int,4>,xalloc<std::array<int,4> > >::_Tidy
PUBLIC	?clear_and_free@?$xr_vector@V?$array@H$03@std@@V?$xalloc@V?$array@H$03@std@@@@@@QEAAXXZ ; xr_vector<std::array<int,4>,xalloc<std::array<int,4> > >::clear_and_free
PUBLIC	??0reference@?$bitset@$0CA@@std@@AEAA@AEAV12@_K@Z ; std::bitset<32>::reference::reference
PUBLIC	??D?$_Vector_iterator@V?$_Vector_val@U?$_Simple_types@V?$array@H$03@std@@@std@@@std@@@std@@QEBAAEAV?$array@H$03@1@XZ ; std::_Vector_iterator<std::_Vector_val<std::_Simple_types<std::array<int,4> > > >::operator*
PUBLIC	??H?$_Vector_iterator@V?$_Vector_val@U?$_Simple_types@V?$array@H$03@std@@@std@@@std@@@std@@QEBA?AV01@_J@Z ; std::_Vector_iterator<std::_Vector_val<std::_Simple_types<std::array<int,4> > > >::operator+
PUBLIC	??A?$bitset@$0CA@@std@@QEAA?AVreference@01@_K@Z	; std::bitset<32>::operator[]
PUBLIC	??0?$bitset@$0CA@@std@@QEAA@XZ			; std::bitset<32>::bitset<32>
PUBLIC	??0?$bitset@$0CA@@std@@QEAA@_K@Z		; std::bitset<32>::bitset<32>
PUBLIC	??1?$vector@V?$array@H$03@std@@V?$xalloc@V?$array@H$03@std@@@@@std@@QEAA@XZ ; std::vector<std::array<int,4>,xalloc<std::array<int,4> > >::~vector<std::array<int,4>,xalloc<std::array<int,4> > >
PUBLIC	?push_back@?$vector@V?$array@H$03@std@@V?$xalloc@V?$array@H$03@std@@@@@std@@QEAAXAEBV?$array@H$03@2@@Z ; std::vector<std::array<int,4>,xalloc<std::array<int,4> > >::push_back
PUBLIC	??0?$xr_vector@V?$array@H$03@std@@V?$xalloc@V?$array@H$03@std@@@@@@QEAA@XZ ; xr_vector<std::array<int,4>,xalloc<std::array<int,4> > >::xr_vector<std::array<int,4>,xalloc<std::array<int,4> > >
PUBLIC	?clear@?$xr_vector@V?$array@H$03@std@@V?$xalloc@V?$array@H$03@std@@@@@@QEAAXXZ ; xr_vector<std::array<int,4>,xalloc<std::array<int,4> > >::clear
PUBLIC	??A?$xr_vector@V?$array@H$03@std@@V?$xalloc@V?$array@H$03@std@@@@@@QEAAAEAV?$array@H$03@std@@_K@Z ; xr_vector<std::array<int,4>,xalloc<std::array<int,4> > >::operator[]
PUBLIC	?data@?$array@H$03@std@@QEAAPEAHXZ		; std::array<int,4>::data
PUBLIC	??1reference@?$bitset@$0CA@@std@@QEAA@XZ	; std::bitset<32>::reference::~reference
PUBLIC	??Breference@?$bitset@$0CA@@std@@QEBA_NXZ	; std::bitset<32>::reference::operator bool
PUBLIC	??1?$xr_vector@V?$array@H$03@std@@V?$xalloc@V?$array@H$03@std@@@@@@QEAA@XZ ; xr_vector<std::array<int,4>,xalloc<std::array<int,4> > >::~xr_vector<std::array<int,4>,xalloc<std::array<int,4> > >
PUBLIC	??A?$array@H$03@std@@QEAAAEAH_K@Z		; std::array<int,4>::operator[]
PUBLIC	?query_processor_info@@YAIPEAUprocessor_info@@@Z ; query_processor_info
PUBLIC	??0processor_info@@QEAA@XZ			; processor_info::processor_info
;	COMDAT pdata
pdata	SEGMENT
$pdata$??$xr_alloc@V?$array@H$03@std@@@@YAPEAV?$array@H$03@std@@I@Z DD imagerel $LN34
	DD	imagerel $LN34+71
	DD	imagerel $unwind$??$xr_alloc@V?$array@H$03@std@@@@YAPEAV?$array@H$03@std@@I@Z
pdata	ENDS
;	COMDAT pdata
pdata	SEGMENT
$pdata$?allocate@?$xalloc@V?$array@H$03@std@@@@QEBAPEAV?$array@H$03@std@@_KPEBX@Z DD imagerel $LN36
	DD	imagerel $LN36+71
	DD	imagerel $unwind$?allocate@?$xalloc@V?$array@H$03@std@@@@QEBAPEAV?$array@H$03@std@@_KPEBX@Z
pdata	ENDS
;	COMDAT pdata
pdata	SEGMENT
$pdata$?_Change_array@?$vector@V?$array@H$03@std@@V?$xalloc@V?$array@H$03@std@@@@@std@@AEAAXQEAV?$array@H$03@2@_K1@Z DD imagerel $LN29
	DD	imagerel $LN29+98
	DD	imagerel $unwind$?_Change_array@?$vector@V?$array@H$03@std@@V?$xalloc@V?$array@H$03@std@@@@@std@@AEAAXQEAV?$array@H$03@2@_K1@Z
pdata	ENDS
;	COMDAT pdata
pdata	SEGMENT
$pdata$?_Xlength@?$vector@V?$array@H$03@std@@V?$xalloc@V?$array@H$03@std@@@@@std@@CAXXZ DD imagerel $LN4
	DD	imagerel $LN4+18
	DD	imagerel $unwind$?_Xlength@?$vector@V?$array@H$03@std@@V?$xalloc@V?$array@H$03@std@@@@@std@@CAXXZ
pdata	ENDS
;	COMDAT pdata
pdata	SEGMENT
$pdata$??$_Emplace_reallocate@AEBV?$array@H$03@std@@@?$vector@V?$array@H$03@std@@V?$xalloc@V?$array@H$03@std@@@@@std@@AEAAPEAV?$array@H$03@1@QEAV21@AEBV21@@Z DD imagerel $LN139
	DD	imagerel $LN139+502
	DD	imagerel $unwind$??$_Emplace_reallocate@AEBV?$array@H$03@std@@@?$vector@V?$array@H$03@std@@V?$xalloc@V?$array@H$03@std@@@@@std@@AEAAPEAV?$array@H$03@1@QEAV21@AEBV21@@Z
pdata	ENDS
;	COMDAT pdata
pdata	SEGMENT
$pdata$?catch$0@?0???$_Emplace_reallocate@AEBV?$array@H$03@std@@@?$vector@V?$array@H$03@std@@V?$xalloc@V?$array@H$03@std@@@@@std@@AEAAPEAV?$array@H$03@1@QEAV21@AEBV21@@Z@4HA DD imagerel ?catch$0@?0???$_Emplace_reallocate@AEBV?$array@H$03@std@@@?$vector@V?$array@H$03@std@@V?$xalloc@V?$array@H$03@std@@@@@std@@AEAAPEAV?$array@H$03@1@QEAV21@AEBV21@@Z@4HA
	DD	imagerel ?catch$0@?0???$_Emplace_reallocate@AEBV?$array@H$03@std@@@?$vector@V?$array@H$03@std@@V?$xalloc@V?$array@H$03@std@@@@@std@@AEAAPEAV?$array@H$03@1@QEAV21@AEBV21@@Z@4HA+35
	DD	imagerel $unwind$?catch$0@?0???$_Emplace_reallocate@AEBV?$array@H$03@std@@@?$vector@V?$array@H$03@std@@V?$xalloc@V?$array@H$03@std@@@@@std@@AEAAPEAV?$array@H$03@1@QEAV21@AEBV21@@Z@4HA
pdata	ENDS
;	COMDAT pdata
pdata	SEGMENT
$pdata$??$xr_free@V?$array@H$03@std@@@@YAXAEAPEAV?$array@H$03@std@@@Z DD imagerel $LN24
	DD	imagerel $LN24+42
	DD	imagerel $unwind$??$xr_free@V?$array@H$03@std@@@@YAXAEAPEAV?$array@H$03@std@@@Z
pdata	ENDS
;	COMDAT pdata
pdata	SEGMENT
$pdata$?_Tidy@?$vector@V?$array@H$03@std@@V?$xalloc@V?$array@H$03@std@@@@@std@@AEAAXXZ DD imagerel $LN29
	DD	imagerel $LN29+48
	DD	imagerel $unwind$?_Tidy@?$vector@V?$array@H$03@std@@V?$xalloc@V?$array@H$03@std@@@@@std@@AEAAXXZ
pdata	ENDS
;	COMDAT pdata
pdata	SEGMENT
$pdata$??1?$vector@V?$array@H$03@std@@V?$xalloc@V?$array@H$03@std@@@@@std@@QEAA@XZ DD imagerel $LN31
	DD	imagerel $LN31+48
	DD	imagerel $unwind$??1?$vector@V?$array@H$03@std@@V?$xalloc@V?$array@H$03@std@@@@@std@@QEAA@XZ
pdata	ENDS
;	COMDAT pdata
pdata	SEGMENT
$pdata$??1?$xr_vector@V?$array@H$03@std@@V?$xalloc@V?$array@H$03@std@@@@@@QEAA@XZ DD imagerel $LN34
	DD	imagerel $LN34+48
	DD	imagerel $unwind$??1?$xr_vector@V?$array@H$03@std@@V?$xalloc@V?$array@H$03@std@@@@@@QEAA@XZ
pdata	ENDS
pdata	SEGMENT
$pdata$?query_processor_info@@YAIPEAUprocessor_info@@@Z DD imagerel $LN642
	DD	imagerel $LN642+1617
	DD	imagerel $unwind$?query_processor_info@@YAIPEAUprocessor_info@@@Z
$pdata$??0processor_info@@QEAA@XZ DD imagerel $LN10
	DD	imagerel $LN10+242
	DD	imagerel $unwind$??0processor_info@@QEAA@XZ
xdata	SEGMENT
$unwind$?query_processor_info@@YAIPEAUprocessor_info@@@Z DD 091701H
	DD	0160117H
	DD	0e00ef010H
	DD	0c00ad00cH
	DD	060077008H
	DD	03006H
$unwind$??0processor_info@@QEAA@XZ DD 020601H
	DD	030029206H
xdata	ENDS
;	COMDAT xdata
xdata	SEGMENT
$unwind$??1?$xr_vector@V?$array@H$03@std@@V?$xalloc@V?$array@H$03@std@@@@@@QEAA@XZ DD 020601H
	DD	030023206H
xdata	ENDS
;	COMDAT xdata
xdata	SEGMENT
$unwind$??1?$vector@V?$array@H$03@std@@V?$xalloc@V?$array@H$03@std@@@@@std@@QEAA@XZ DD 020601H
	DD	030023206H
xdata	ENDS
;	COMDAT xdata
xdata	SEGMENT
$unwind$?_Tidy@?$vector@V?$array@H$03@std@@V?$xalloc@V?$array@H$03@std@@@@@std@@AEAAXXZ DD 020601H
	DD	030023206H
xdata	ENDS
;	COMDAT xdata
xdata	SEGMENT
$unwind$??$xr_free@V?$array@H$03@std@@@@YAXAEAPEAV?$array@H$03@std@@@Z DD 020601H
	DD	030023206H
xdata	ENDS
;	COMDAT voltbl
voltbl	SEGMENT
_volmd	DB	00H
voltbl	ENDS
;	COMDAT xdata
xdata	SEGMENT
$unwind$?catch$0@?0???$_Emplace_reallocate@AEBV?$array@H$03@std@@@?$vector@V?$array@H$03@std@@V?$xalloc@V?$array@H$03@std@@@@@std@@AEAAPEAV?$array@H$03@1@QEAV21@AEBV21@@Z@4HA DD 020a01H
	DD	05006320aH
xdata	ENDS
;	COMDAT xdata
xdata	SEGMENT
$ip2state$??$_Emplace_reallocate@AEBV?$array@H$03@std@@@?$vector@V?$array@H$03@std@@V?$xalloc@V?$array@H$03@std@@@@@std@@AEAAPEAV?$array@H$03@1@QEAV21@AEBV21@@Z DB 06H
	DB	00H
	DB	00H
	DB	0bdH, 02H
	DB	02H
	DB	0d1H, 03H
	DB	00H
xdata	ENDS
;	COMDAT xdata
xdata	SEGMENT
$handlerMap$??$_Emplace_reallocate@AEBV?$array@H$03@std@@@?$vector@V?$array@H$03@std@@V?$xalloc@V?$array@H$03@std@@@@@std@@AEAAPEAV?$array@H$03@1@QEAV21@AEBV21@@Z DB 02H
	DB	00H
	DD	imagerel ?catch$0@?0???$_Emplace_reallocate@AEBV?$array@H$03@std@@@?$vector@V?$array@H$03@std@@V?$xalloc@V?$array@H$03@std@@@@@std@@AEAAPEAV?$array@H$03@1@QEAV21@AEBV21@@Z@4HA
xdata	ENDS
;	COMDAT xdata
xdata	SEGMENT
$tryMap$??$_Emplace_reallocate@AEBV?$array@H$03@std@@@?$vector@V?$array@H$03@std@@V?$xalloc@V?$array@H$03@std@@@@@std@@AEAAPEAV?$array@H$03@1@QEAV21@AEBV21@@Z DB 02H
	DB	00H
	DB	00H
	DB	02H
	DD	imagerel $handlerMap$??$_Emplace_reallocate@AEBV?$array@H$03@std@@@?$vector@V?$array@H$03@std@@V?$xalloc@V?$array@H$03@std@@@@@std@@AEAAPEAV?$array@H$03@1@QEAV21@AEBV21@@Z
xdata	ENDS
;	COMDAT xdata
xdata	SEGMENT
$stateUnwindMap$??$_Emplace_reallocate@AEBV?$array@H$03@std@@@?$vector@V?$array@H$03@std@@V?$xalloc@V?$array@H$03@std@@@@@std@@AEAAPEAV?$array@H$03@1@QEAV21@AEBV21@@Z DB 04H
	DB	08H
	DB	010H
xdata	ENDS
;	COMDAT xdata
xdata	SEGMENT
$cppxdata$??$_Emplace_reallocate@AEBV?$array@H$03@std@@@?$vector@V?$array@H$03@std@@V?$xalloc@V?$array@H$03@std@@@@@std@@AEAAPEAV?$array@H$03@1@QEAV21@AEBV21@@Z DB 018H
	DD	imagerel $stateUnwindMap$??$_Emplace_reallocate@AEBV?$array@H$03@std@@@?$vector@V?$array@H$03@std@@V?$xalloc@V?$array@H$03@std@@@@@std@@AEAAPEAV?$array@H$03@1@QEAV21@AEBV21@@Z
	DD	imagerel $tryMap$??$_Emplace_reallocate@AEBV?$array@H$03@std@@@?$vector@V?$array@H$03@std@@V?$xalloc@V?$array@H$03@std@@@@@std@@AEAAPEAV?$array@H$03@1@QEAV21@AEBV21@@Z
	DD	imagerel $ip2state$??$_Emplace_reallocate@AEBV?$array@H$03@std@@@?$vector@V?$array@H$03@std@@V?$xalloc@V?$array@H$03@std@@@@@std@@AEAAPEAV?$array@H$03@1@QEAV21@AEBV21@@Z
xdata	ENDS
;	COMDAT xdata
xdata	SEGMENT
$unwind$??$_Emplace_reallocate@AEBV?$array@H$03@std@@@?$vector@V?$array@H$03@std@@V?$xalloc@V?$array@H$03@std@@@@@std@@AEAAPEAV?$array@H$03@1@QEAV21@AEBV21@@Z DD 0a1f19H
	DD	019641fH
	DD	017341fH
	DD	0f018f21fH
	DD	0d014e016H
	DD	07010c012H
	DD	imagerel __CxxFrameHandler4
	DD	imagerel $cppxdata$??$_Emplace_reallocate@AEBV?$array@H$03@std@@@?$vector@V?$array@H$03@std@@V?$xalloc@V?$array@H$03@std@@@@@std@@AEAAPEAV?$array@H$03@1@QEAV21@AEBV21@@Z
xdata	ENDS
;	COMDAT xdata
xdata	SEGMENT
$unwind$?_Xlength@?$vector@V?$array@H$03@std@@V?$xalloc@V?$array@H$03@std@@@@@std@@CAXXZ DD 010401H
	DD	04204H
xdata	ENDS
;	COMDAT xdata
xdata	SEGMENT
$unwind$?_Change_array@?$vector@V?$array@H$03@std@@V?$xalloc@V?$array@H$03@std@@@@@std@@AEAAXQEAV?$array@H$03@2@_K1@Z DD 081401H
	DD	086414H
	DD	075414H
	DD	063414H
	DD	070103214H
xdata	ENDS
;	COMDAT xdata
xdata	SEGMENT
$unwind$?allocate@?$xalloc@V?$array@H$03@std@@@@QEBAPEAV?$array@H$03@std@@_KPEBX@Z DD 040a01H
	DD	06340aH
	DD	07006320aH
xdata	ENDS
;	COMDAT xdata
xdata	SEGMENT
$unwind$??$xr_alloc@V?$array@H$03@std@@@@YAPEAV?$array@H$03@std@@I@Z DD 040a01H
	DD	06340aH
	DD	07006320aH
; Function compile flags: /Ogtpy
; File C:\Users\Mahito\Desktop\Night outing\Night-outing\src\xrCore\cpuid.cpp
; File C:\Users\Mahito\Desktop\Night outing\Night-outing\src\xrCore\xrDebugNew.cpp
; File C:\Users\Mahito\Desktop\Night outing\Night-outing\src\xrCore\cpuid.cpp
_TEXT	SEGMENT
this$dead$ = 96
??0processor_info@@QEAA@XZ PROC				; processor_info::processor_info

; 254  : {

$LN10:
	push	rbx
	sub	rsp, 80					; 00000050H

; 255  : 	features = query_processor_info(&*this);

	lea	rcx, OFFSET FLAT:?ID@CPU@@3Uprocessor_info@@A ; CPU::ID
	call	?query_processor_info@@YAIPEAUprocessor_info@@@Z ; query_processor_info

; 256  : 	GetSystemInfo(&sysInfo);

	lea	rcx, OFFSET FLAT:?ID@CPU@@3Uprocessor_info@@A+8
	mov	DWORD PTR ?ID@CPU@@3Uprocessor_info@@A+16736, eax
	call	QWORD PTR __imp_GetSystemInfo

; 257  : 	m_dwNumberOfProcessors = sysInfo.dwNumberOfProcessors;

	mov	ebx, DWORD PTR ?ID@CPU@@3Uprocessor_info@@A+40
	mov	DWORD PTR ?ID@CPU@@3Uprocessor_info@@A, ebx

; 258  : 
; 259  : 	fUsage = (PFLOAT)HeapAlloc(GetProcessHeap(), HEAP_ZERO_MEMORY, sizeof(FLOAT) * m_dwNumberOfProcessors);

	call	QWORD PTR __imp_GetProcessHeap
	mov	r8d, ebx
	mov	edx, 8
	shl	r8, 2
	mov	rcx, rax
	call	QWORD PTR __imp_HeapAlloc

; 260  : 
; 261  : 	// get adress to our func to use
; 262  : 	m_pNtQuerySystemInformation = (NTQUERYSYSTEMINFORMATION)GetProcAddress(

	lea	rcx, OFFSET FLAT:??_C@_09FLKFJBLM@ntdll?4dll@
	mov	QWORD PTR ?ID@CPU@@3Uprocessor_info@@A+16624, rax
	call	QWORD PTR __imp_GetModuleHandleA
	mov	rcx, rax
	lea	rdx, OFFSET FLAT:??_C@_0BJ@NDLOPGCH@NtQuerySystemInformation@
	call	QWORD PTR __imp_GetProcAddress
	mov	QWORD PTR ?ID@CPU@@3Uprocessor_info@@A+56, rax

; 263  : 		GetModuleHandleA("ntdll.dll"),
; 264  : 		"NtQuerySystemInformation"
; 265  : 	);
; 266  : 
; 267  : 	R_ASSERT(m_pNtQuerySystemInformation);

	test	rax, rax
	jne	SHORT $LN2@processor_
; File C:\Users\Mahito\Desktop\Night outing\Night-outing\src\xrCore\xrDebugNew.cpp

; 388  :     backend(e1, "assertion failed", 0, 0, file, line, function, ignore_always);

	lea	rax, OFFSET FLAT:??_C@_0BP@MJPDEBMB@processor_info?3?3processor_info@
	xor	r9d, r9d
	mov	QWORD PTR [rsp+56], rax
	lea	r8, OFFSET FLAT:??_C@_0BB@DBHFCHNO@assertion?5failed@
	lea	rax, OFFSET FLAT:??_C@_0EH@NMFLECBF@C?3?2Users?2Mahito?2Desktop?2Night?5o@
	mov	DWORD PTR [rsp+48], 267			; 0000010bH
	lea	rdx, OFFSET FLAT:??_C@_0BM@OGNBJGIG@m_pNtQuerySystemInformation@
	mov	QWORD PTR [rsp+40], rax
	lea	rcx, OFFSET FLAT:?Debug@@3VxrDebug@@A	; Debug
	call	?backend@xrDebug@@QEAAXPEBD0000H0AEA_N@Z ; xrDebug::backend
$LN2@processor_:
; File C:\Users\Mahito\Desktop\Night outing\Night-outing\src\xrCore\cpuid.cpp

; 268  : 	perfomanceInfo = (SYSTEM_PROCESSOR_PERFORMANCE_INFORMATION*)HeapAlloc(

	mov	ecx, DWORD PTR ?ID@CPU@@3Uprocessor_info@@A
	lea	rbx, QWORD PTR [rcx+rcx*2]
	shl	rbx, 4
	call	QWORD PTR __imp_GetProcessHeap
	mov	r8, rbx
	mov	edx, 8
	mov	rcx, rax
	call	QWORD PTR __imp_HeapAlloc
	mov	QWORD PTR ?ID@CPU@@3Uprocessor_info@@A+64, rax

; 269  : 		GetProcessHeap(),
; 270  : 		HEAP_ZERO_MEMORY,
; 271  : 		sizeof(SYSTEM_PROCESSOR_PERFORMANCE_INFORMATION) * m_dwNumberOfProcessors
; 272  : 	);
; 273  : }

	lea	rax, OFFSET FLAT:?ID@CPU@@3Uprocessor_info@@A ; CPU::ID
	add	rsp, 80					; 00000050H
	pop	rbx
	ret	0
??0processor_info@@QEAA@XZ ENDP				; processor_info::processor_info
_TEXT	ENDS
; Function compile flags: /Ogtpy
; File C:\Users\Mahito\Desktop\Night outing\Night-outing\src\xrCore\cpuid.cpp
_TEXT	SEGMENT
s$ = 8
c$dead$ = 16
?CleanDups@@YAXPEADD@Z PROC				; CleanDups

; 20   : 	if (*s == 0)

	cmp	BYTE PTR [rcx], 0
	je	SHORT $LN1@CleanDups

; 21   : 		return;
; 22   : 	char* dst = s;
; 23   : 	char* src = s + 1;
; 24   : 	while (*src != 0)

	movzx	eax, BYTE PTR [rcx+1]
	lea	rdx, QWORD PTR [rcx+1]
	test	al, al
	je	SHORT $LN3@CleanDups
$LL2@CleanDups:

; 25   : 	{
; 26   : 		if (*src == c && *dst == c)

	cmp	al, 32					; 00000020H
	jne	SHORT $LN5@CleanDups
	cmp	BYTE PTR [rcx], al
	je	SHORT $LN6@CleanDups
$LN5@CleanDups:

; 27   : 			++src;
; 28   : 		else
; 29   : 			*++dst = *src++;

	inc	rcx
	mov	BYTE PTR [rcx], al
$LN6@CleanDups:

; 21   : 		return;
; 22   : 	char* dst = s;
; 23   : 	char* src = s + 1;
; 24   : 	while (*src != 0)

	movzx	eax, BYTE PTR [rdx+1]
	inc	rdx
	test	al, al
	jne	SHORT $LL2@CleanDups
$LN3@CleanDups:

; 30   : 	}
; 31   : 	*++dst = 0;

	mov	BYTE PTR [rcx+1], 0
$LN1@CleanDups:

; 32   : }

	ret	0
?CleanDups@@YAXPEADD@Z ENDP				; CleanDups
_TEXT	ENDS
; Function compile flags: /Ogtpy
; File C:\Users\Mahito\Desktop\Night outing\Night-outing\src\xrCore\cpuid.cpp
; File C:\Program Files\Microsoft Visual Studio\2022\Community\VC\Tools\MSVC\14.35.32215\include\bitset
; File C:\Program Files\Microsoft Visual Studio\2022\Community\VC\Tools\MSVC\14.35.32215\include\vector
; File C:\Users\Mahito\Desktop\Night outing\Night-outing\src\xrCore\cpuid.cpp
; File C:\Program Files\Microsoft Visual Studio\2022\Community\VC\Tools\MSVC\14.35.32215\include\bitset
; File C:\Program Files\Microsoft Visual Studio\2022\Community\VC\Tools\MSVC\14.35.32215\include\vector
; File C:\Program Files\Microsoft Visual Studio\2022\Community\VC\Tools\MSVC\14.35.32215\include\bitset
; File C:\Users\Mahito\Desktop\Night outing\Night-outing\src\xrCore\cpuid.cpp
; File C:\Program Files\Microsoft Visual Studio\2022\Community\VC\Tools\MSVC\14.35.32215\include\bitset
; File C:\Users\Mahito\Desktop\Night outing\Night-outing\src\xrCore\cpuid.cpp
; File C:\Program Files\Microsoft Visual Studio\2022\Community\VC\Tools\MSVC\14.35.32215\include\vector
; File C:\Users\Mahito\Desktop\Night outing\Night-outing\src\xrCore\cpuid.cpp
; File C:\Program Files\Microsoft Visual Studio\2022\Community\VC\Tools\MSVC\14.35.32215\include\vector
; File C:\Users\Mahito\Desktop\Night outing\Night-outing\src\xrCore\cpuid.cpp
; File C:\Program Files\Microsoft Visual Studio\2022\Community\VC\Tools\MSVC\14.35.32215\include\vector
; File C:\Users\Mahito\Desktop\Night outing\Night-outing\src\xrCore\_stl_extensions.h
; File C:\Program Files\Microsoft Visual Studio\2022\Community\VC\Tools\MSVC\14.35.32215\include\vector
; File C:\Users\Mahito\Desktop\Night outing\Night-outing\src\xrCore\cpuid.cpp
; File C:\Program Files\Microsoft Visual Studio\2022\Community\VC\Tools\MSVC\14.35.32215\include\vector
; File C:\Users\Mahito\Desktop\Night outing\Night-outing\src\xrCore\cpuid.cpp
; File C:\Program Files\Microsoft Visual Studio\2022\Community\VC\Tools\MSVC\14.35.32215\include\vector
; File C:\Users\Mahito\Desktop\Night outing\Night-outing\src\xrCore\cpuid.cpp
; File C:\Program Files\Microsoft Visual Studio\2022\Community\VC\Tools\MSVC\14.35.32215\include\vector
; File C:\Users\Mahito\Desktop\Night outing\Night-outing\src\xrCore\cpuid.cpp
; File C:\Program Files\Microsoft Visual Studio\2022\Community\VC\Tools\MSVC\14.35.32215\include\vector
; File C:\Users\Mahito\Desktop\Night outing\Night-outing\src\xrCore\_stl_extensions.h
; File C:\Program Files\Microsoft Visual Studio\2022\Community\VC\Tools\MSVC\14.35.32215\include\vector
; File C:\Users\Mahito\Desktop\Night outing\Night-outing\src\xrCore\cpuid.cpp
; File C:\Program Files\Microsoft Visual Studio\2022\Community\VC\Tools\MSVC\14.35.32215\include\bitset
; File C:\Users\Mahito\Desktop\Night outing\Night-outing\src\xrCore\cpuid.cpp
; File C:\Program Files\Microsoft Visual Studio\2022\Community\VC\Tools\MSVC\14.35.32215\include\bitset
; File C:\Users\Mahito\Desktop\Night outing\Night-outing\src\xrCore\cpuid.cpp
; File C:\Program Files\Microsoft Visual Studio\2022\Community\VC\Tools\MSVC\14.35.32215\include\bitset
; File C:\Users\Mahito\Desktop\Night outing\Night-outing\src\xrCore\cpuid.cpp
; File C:\Program Files\Microsoft Visual Studio\2022\Community\VC\Tools\MSVC\14.35.32215\include\bitset
; File C:\Users\Mahito\Desktop\Night outing\Night-outing\src\xrCore\cpuid.cpp
; File C:\Program Files\Microsoft Visual Studio\2022\Community\VC\Tools\MSVC\14.35.32215\include\bitset
; File C:\Users\Mahito\Desktop\Night outing\Night-outing\src\xrCore\cpuid.cpp
; File C:\Program Files\Microsoft Visual Studio\2022\Community\VC\Tools\MSVC\14.35.32215\include\bitset
; File C:\Users\Mahito\Desktop\Night outing\Night-outing\src\xrCore\cpuid.cpp
; File C:\Program Files\Microsoft Visual Studio\2022\Community\VC\Tools\MSVC\14.35.32215\include\bitset
; File C:\Users\Mahito\Desktop\Night outing\Night-outing\src\xrCore\cpuid.cpp
; File C:\Program Files\Microsoft Visual Studio\2022\Community\VC\Tools\MSVC\14.35.32215\include\bitset
; File C:\Users\Mahito\Desktop\Night outing\Night-outing\src\xrCore\cpuid.cpp
; File C:\Program Files\Microsoft Visual Studio\2022\Community\VC\Tools\MSVC\14.35.32215\include\bitset
; File C:\Users\Mahito\Desktop\Night outing\Night-outing\src\xrCore\cpuid.cpp
; File C:\Program Files\Microsoft Visual Studio\2022\Community\VC\Tools\MSVC\14.35.32215\include\bitset
; File C:\Users\Mahito\Desktop\Night outing\Night-outing\src\xrCore\cpuid.cpp
; File C:\Program Files\Microsoft Visual Studio\2022\Community\VC\Tools\MSVC\14.35.32215\include\bitset
; File C:\Users\Mahito\Desktop\Night outing\Night-outing\src\xrCore\cpuid.cpp
; File C:\Program Files\Microsoft Visual Studio\2022\Community\VC\Tools\MSVC\14.35.32215\include\bitset
; File C:\Users\Mahito\Desktop\Night outing\Night-outing\src\xrCore\cpuid.cpp
; File C:\Program Files\Microsoft Visual Studio\2022\Community\VC\Tools\MSVC\14.35.32215\include\bitset
; File C:\Users\Mahito\Desktop\Night outing\Night-outing\src\xrCore\cpuid.cpp
; File C:\Program Files\Microsoft Visual Studio\2022\Community\VC\Tools\MSVC\14.35.32215\include\bitset
; File C:\Users\Mahito\Desktop\Night outing\Night-outing\src\xrCore\cpuid.cpp
; File C:\Program Files\Microsoft Visual Studio\2022\Community\VC\Tools\MSVC\14.35.32215\include\bitset
; File C:\Users\Mahito\Desktop\Night outing\Night-outing\src\xrCore\cpuid.cpp
; File C:\Program Files\Microsoft Visual Studio\2022\Community\VC\Tools\MSVC\14.35.32215\include\bitset
; File C:\Users\Mahito\Desktop\Night outing\Night-outing\src\xrCore\cpuid.cpp
; File C:\Program Files\Microsoft Visual Studio\2022\Community\VC\Tools\MSVC\14.35.32215\include\bitset
; File C:\Users\Mahito\Desktop\Night outing\Night-outing\src\xrCore\cpuid.cpp
; File C:\Program Files\Microsoft Visual Studio\2022\Community\VC\Tools\MSVC\14.35.32215\include\bitset
; File C:\Users\Mahito\Desktop\Night outing\Night-outing\src\xrCore\cpuid.cpp
; File C:\Program Files\Microsoft Visual Studio\2022\Community\VC\Tools\MSVC\14.35.32215\include\bitset
; File C:\Users\Mahito\Desktop\Night outing\Night-outing\src\xrCore\cpuid.cpp
; File C:\Program Files\Microsoft Visual Studio\2022\Community\VC\Tools\MSVC\14.35.32215\include\bitset
; File C:\Users\Mahito\Desktop\Night outing\Night-outing\src\xrCore\cpuid.cpp
; File C:\Program Files\Microsoft Visual Studio\2022\Community\VC\Tools\MSVC\14.35.32215\include\bitset
; File C:\Users\Mahito\Desktop\Night outing\Night-outing\src\xrCore\cpuid.cpp
; File C:\Program Files\Microsoft Visual Studio\2022\Community\VC\Tools\MSVC\14.35.32215\include\bitset
; File C:\Users\Mahito\Desktop\Night outing\Night-outing\src\xrCore\cpuid.cpp
; File C:\Program Files\Microsoft Visual Studio\2022\Community\VC\Tools\MSVC\14.35.32215\include\bitset
; File C:\Users\Mahito\Desktop\Night outing\Night-outing\src\xrCore\cpuid.cpp
; File C:\Program Files\Microsoft Visual Studio\2022\Community\VC\Tools\MSVC\14.35.32215\include\bitset
; File C:\Users\Mahito\Desktop\Night outing\Night-outing\src\xrCore\cpuid.cpp
; File C:\Users\Mahito\Desktop\Night outing\Night-outing\src\xrCore\xrMemory_subst_msvc.cpp
; File C:\Users\Mahito\Desktop\Night outing\Night-outing\src\xrCore\xrMemory.h
; File C:\Users\Mahito\Desktop\Night outing\Night-outing\src\xrCore\xrMemory_subst_msvc.cpp
; File C:\Users\Mahito\Desktop\Night outing\Night-outing\src\xrCore\cpuid.cpp
; File C:\Users\Mahito\Desktop\Night outing\Night-outing\src\xrCore\xrMemory.h
; File C:\Users\Mahito\Desktop\Night outing\Night-outing\src\xrCore\xrMemory_subst_msvc.cpp
; File C:\Users\Mahito\Desktop\Night outing\Night-outing\src\xrCore\cpuid.cpp
; File C:\Program Files\Microsoft Visual Studio\2022\Community\VC\Tools\MSVC\14.35.32215\include\vector
; File C:\Users\Mahito\Desktop\Night outing\Night-outing\src\xrCore\xrMemory_subst_msvc.cpp
; File C:\Users\Mahito\Desktop\Night outing\Night-outing\src\xrCore\cpuid.cpp
_TEXT	SEGMENT
cpui$ = 32
data$ = 48
tv3127 = 72
sa_mask_stub$ = 80
pa_mask_save$ = 88
SLPI$ = 96
sysInfo$ = 128
pinfo$dead$ = 240
addr$ = 240
f_81_EDX$ = 248
tv3125 = 256
tv3123 = 264
?query_processor_info@@YAIPEAUprocessor_info@@@Z PROC	; query_processor_info

; 50   : {

$LN642:
	mov	QWORD PTR [rsp+8], rcx
	push	rbx
	push	rsi
	push	rdi
	push	r12
	push	r13
	push	r14
	push	r15
	sub	rsp, 176				; 000000b0H

; 51   : 	std::memset(pinfo, 0, sizeof(processor_info));

	xor	edx, edx
	lea	rcx, OFFSET FLAT:?ID@CPU@@3Uprocessor_info@@A ; CPU::ID
	mov	r8d, 16752				; 00004170H
	call	memset
; File C:\Program Files\Microsoft Visual Studio\2022\Community\VC\Tools\MSVC\14.35.32215\include\bitset

; 95   :     constexpr bitset() noexcept : _Array() {} // construct with all false values

	xor	eax, eax
; File C:\Program Files\Microsoft Visual Studio\2022\Community\VC\Tools\MSVC\14.35.32215\include\vector

; 390  :     _CONSTEXPR20 _Vector_val() noexcept : _Myfirst(), _Mylast(), _Myend() {}

	xor	r8d, r8d
; File C:\Users\Mahito\Desktop\Night outing\Night-outing\src\xrCore\cpuid.cpp

; 62   : 	__cpuid(cpui.data(), 0);

	xor	ecx, ecx
; File C:\Program Files\Microsoft Visual Studio\2022\Community\VC\Tools\MSVC\14.35.32215\include\bitset

; 95   :     constexpr bitset() noexcept : _Array() {} // construct with all false values

	mov	QWORD PTR tv3123[rsp], rax
	mov	QWORD PTR tv3125[rsp], rax
; File C:\Program Files\Microsoft Visual Studio\2022\Community\VC\Tools\MSVC\14.35.32215\include\vector

; 390  :     _CONSTEXPR20 _Vector_val() noexcept : _Myfirst(), _Mylast(), _Myend() {}

	mov	r15d, r8d
; File C:\Program Files\Microsoft Visual Studio\2022\Community\VC\Tools\MSVC\14.35.32215\include\bitset

; 95   :     constexpr bitset() noexcept : _Array() {} // construct with all false values

	mov	QWORD PTR tv3127[rsp], rax
; File C:\Users\Mahito\Desktop\Night outing\Night-outing\src\xrCore\cpuid.cpp

; 51   : 	std::memset(pinfo, 0, sizeof(processor_info));

	mov	esi, r8d
; File C:\Program Files\Microsoft Visual Studio\2022\Community\VC\Tools\MSVC\14.35.32215\include\bitset

; 95   :     constexpr bitset() noexcept : _Array() {} // construct with all false values

	mov	DWORD PTR f_81_EDX$[rsp], eax
; File C:\Users\Mahito\Desktop\Night outing\Night-outing\src\xrCore\cpuid.cpp

; 62   : 	__cpuid(cpui.data(), 0);

	cpuid
; File C:\Program Files\Microsoft Visual Studio\2022\Community\VC\Tools\MSVC\14.35.32215\include\vector

; 390  :     _CONSTEXPR20 _Vector_val() noexcept : _Myfirst(), _Mylast(), _Myend() {}

	mov	QWORD PTR data$[rsp+16], r8
; File C:\Users\Mahito\Desktop\Night outing\Night-outing\src\xrCore\cpuid.cpp

; 62   : 	__cpuid(cpui.data(), 0);

	mov	r14d, eax
	mov	DWORD PTR cpui$[rsp], eax
	mov	DWORD PTR cpui$[rsp+4], ebx
	mov	DWORD PTR cpui$[rsp+8], ecx
	mov	DWORD PTR cpui$[rsp+12], edx
	vpxor	xmm0, xmm0, xmm0
; File C:\Program Files\Microsoft Visual Studio\2022\Community\VC\Tools\MSVC\14.35.32215\include\vector

; 390  :     _CONSTEXPR20 _Vector_val() noexcept : _Myfirst(), _Mylast(), _Myend() {}

	vmovdqu	XMMWORD PTR data$[rsp], xmm0
; File C:\Users\Mahito\Desktop\Night outing\Night-outing\src\xrCore\cpuid.cpp

; 65   : 	for (int i = 0; i <= nIds; ++i)

	mov	rdi, QWORD PTR data$[rsp+8]
	test	eax, eax
	js	SHORT $LN3@query_proc
$LL4@query_proc:

; 66   : 	{
; 67   : 		__cpuidex(cpui.data(), i, 0);

	xor	ecx, ecx
	mov	eax, esi
	cpuid
	mov	DWORD PTR cpui$[rsp], eax
	mov	DWORD PTR cpui$[rsp+4], ebx
	mov	DWORD PTR cpui$[rsp+8], ecx
	mov	DWORD PTR cpui$[rsp+12], edx
; File C:\Program Files\Microsoft Visual Studio\2022\Community\VC\Tools\MSVC\14.35.32215\include\vector

; 844  :         if (_Mylast != _My_data._Myend) {

	cmp	rdi, r15
	je	SHORT $LN460@query_proc
; File C:\Users\Mahito\Desktop\Night outing\Night-outing\src\xrCore\_stl_extensions.h

; 85   : 							void					construct		(pointer p, const T& _Val)				{	::new(p) T(_Val);	}

	vmovups	xmm0, XMMWORD PTR cpui$[rsp]
	vmovups	XMMWORD PTR [rdi], xmm0
; File C:\Program Files\Microsoft Visual Studio\2022\Community\VC\Tools\MSVC\14.35.32215\include\vector

; 869  :         ++_Mylast;

	add	rdi, 16
	mov	QWORD PTR data$[rsp+8], rdi

; 845  :             return _Emplace_back_with_unused_capacity(_STD forward<_Valty>(_Val)...);

	jmp	SHORT $LN2@query_proc
$LN460@query_proc:

; 846  :         }
; 847  : 
; 848  :         return *_Emplace_reallocate(_Mylast, _STD forward<_Valty>(_Val)...);

	lea	r8, QWORD PTR cpui$[rsp]
	mov	rdx, rdi
	lea	rcx, QWORD PTR data$[rsp]
	call	??$_Emplace_reallocate@AEBV?$array@H$03@std@@@?$vector@V?$array@H$03@std@@V?$xalloc@V?$array@H$03@std@@@@@std@@AEAAPEAV?$array@H$03@1@QEAV21@AEBV21@@Z ; std::vector<std::array<int,4>,xalloc<std::array<int,4> > >::_Emplace_reallocate<std::array<int,4> const &>
	mov	r15, QWORD PTR data$[rsp+16]
	mov	rdi, QWORD PTR data$[rsp+8]
$LN2@query_proc:
; File C:\Users\Mahito\Desktop\Night outing\Night-outing\src\xrCore\cpuid.cpp

; 65   : 	for (int i = 0; i <= nIds; ++i)

	inc	esi
	cmp	esi, r14d
	jle	SHORT $LL4@query_proc
$LN3@query_proc:

; 68   : 		data.push_back(cpui);
; 69   : 	}
; 70   : 
; 71   : 	memset(pinfo->vendor, 0, sizeof(pinfo->vendor));
; 72   : 	*reinterpret_cast<int*>(pinfo->vendor) = data[0][1];

	mov	r13, QWORD PTR data$[rsp]

; 73   : 	*reinterpret_cast<int*>(pinfo->vendor + 4) = data[0][3];
; 74   : 	*reinterpret_cast<int*>(pinfo->vendor + 8) = data[0][2];
; 75   : 
; 76   : 	pinfo->isAmd = strncmp(pinfo->vendor, "AuthenticAMD", 12) == NULL;

	lea	rsi, OFFSET FLAT:?ID@CPU@@3Uprocessor_info@@A+16638
	vpxor	xmm0, xmm0, xmm0
	vmovups	YMMWORD PTR ?ID@CPU@@3Uprocessor_info@@A+16638, ymm0
	mov	r8d, 12
	lea	rdx, OFFSET FLAT:??_C@_0N@FFJGBINN@AuthenticAMD@
	mov	eax, DWORD PTR [r13+4]
	mov	rcx, rsi
	mov	DWORD PTR ?ID@CPU@@3Uprocessor_info@@A+16638, eax
	mov	eax, DWORD PTR [r13+12]
	mov	DWORD PTR ?ID@CPU@@3Uprocessor_info@@A+16642, eax
	mov	eax, DWORD PTR [r13+8]
	mov	DWORD PTR ?ID@CPU@@3Uprocessor_info@@A+16646, eax
	vzeroupper
	call	QWORD PTR __imp_strncmp

; 77   : 	pinfo->isIntel = strncmp(pinfo->vendor, "GenuineIntel", 12) == NULL;

	mov	r8d, 12
	lea	rdx, OFFSET FLAT:??_C@_0N@BDDFKIGD@GenuineIntel@
	test	eax, eax
	mov	rcx, rsi
	sete	BYTE PTR ?ID@CPU@@3Uprocessor_info@@A+16635
	call	QWORD PTR __imp_strncmp

; 78   : 	pinfo->isVia = strncmp(pinfo->vendor, "CentaurHauls", 12) == NULL;		// It's really commons?

	mov	r8d, 12
	lea	rdx, OFFSET FLAT:??_C@_0N@DHAFJCOO@CentaurHauls@
	test	eax, eax
	mov	rcx, rsi
	sete	BYTE PTR ?ID@CPU@@3Uprocessor_info@@A+16636
	call	QWORD PTR __imp_strncmp
	test	eax, eax
	sete	BYTE PTR ?ID@CPU@@3Uprocessor_info@@A+16637

; 79   : 
; 80   : 	// load bitset with flags for function 0x00000001
; 81   : 	if (nIds >= 1)

	cmp	r14d, 1
	jl	SHORT $LN12@query_proc

; 82   : 	{
; 83   : 		f_1_ECX = data[1][2];

	mov	eax, DWORD PTR [r13+24]
	mov	QWORD PTR tv3123[rsp], rax

; 84   : 		f_1_EDX = data[1][3];

	mov	eax, DWORD PTR [r13+28]
	mov	QWORD PTR tv3125[rsp], rax
$LN12@query_proc:

; 85   : 	}
; 86   : 
; 87   : 	if (nIds >= 7)

	cmp	r14d, 7
	jl	SHORT $LN13@query_proc

; 88   : 	{
; 89   : 		f_1_EBX = data[7][1];

	mov	eax, DWORD PTR [r13+116]
	mov	QWORD PTR tv3127[rsp], rax
$LN13@query_proc:

; 93   : 	__cpuid(cpui.data(), 0x80000000);

	xor	ecx, ecx
	mov	r14d, -2147483648			; ffffffff80000000H
; File C:\Program Files\Microsoft Visual Studio\2022\Community\VC\Tools\MSVC\14.35.32215\include\vector

; 1829 :         if (_Myfirst == _Mylast) { // already empty, nothing to do

	cmp	r13, rdi
; File C:\Users\Mahito\Desktop\Night outing\Night-outing\src\xrCore\cpuid.cpp

; 93   : 	__cpuid(cpui.data(), 0x80000000);

	mov	eax, r14d
	cpuid
; File C:\Program Files\Microsoft Visual Studio\2022\Community\VC\Tools\MSVC\14.35.32215\include\vector

; 1829 :         if (_Myfirst == _Mylast) { // already empty, nothing to do

	cmovne	rdi, r13
; File C:\Users\Mahito\Desktop\Night outing\Night-outing\src\xrCore\cpuid.cpp

; 93   : 	__cpuid(cpui.data(), 0x80000000);

	mov	DWORD PTR cpui$[rsp+4], ebx
; File C:\Program Files\Microsoft Visual Studio\2022\Community\VC\Tools\MSVC\14.35.32215\include\vector

; 1829 :         if (_Myfirst == _Mylast) { // already empty, nothing to do

	mov	QWORD PTR data$[rsp+8], rdi
; File C:\Users\Mahito\Desktop\Night outing\Night-outing\src\xrCore\cpuid.cpp

; 93   : 	__cpuid(cpui.data(), 0x80000000);

	mov	r12d, eax
	mov	DWORD PTR cpui$[rsp+8], ecx
	mov	DWORD PTR cpui$[rsp+12], edx
	npad	1
$LL7@query_proc:

; 98   : 	{
; 99   : 		__cpuidex(cpui.data(), i, 0);

	xor	ecx, ecx
	mov	eax, r14d
	cpuid
	mov	DWORD PTR cpui$[rsp], eax
	mov	DWORD PTR cpui$[rsp+4], ebx
	mov	DWORD PTR cpui$[rsp+8], ecx
	mov	DWORD PTR cpui$[rsp+12], edx
; File C:\Program Files\Microsoft Visual Studio\2022\Community\VC\Tools\MSVC\14.35.32215\include\vector

; 844  :         if (_Mylast != _My_data._Myend) {

	cmp	rdi, r15
	je	SHORT $LN51@query_proc
; File C:\Users\Mahito\Desktop\Night outing\Night-outing\src\xrCore\_stl_extensions.h

; 85   : 							void					construct		(pointer p, const T& _Val)				{	::new(p) T(_Val);	}

	vmovups	xmm0, XMMWORD PTR cpui$[rsp]
	vmovups	XMMWORD PTR [rdi], xmm0
; File C:\Program Files\Microsoft Visual Studio\2022\Community\VC\Tools\MSVC\14.35.32215\include\vector

; 869  :         ++_Mylast;

	add	rdi, 16
	mov	QWORD PTR data$[rsp+8], rdi

; 845  :             return _Emplace_back_with_unused_capacity(_STD forward<_Valty>(_Val)...);

	jmp	SHORT $LN5@query_proc
$LN51@query_proc:

; 846  :         }
; 847  : 
; 848  :         return *_Emplace_reallocate(_Mylast, _STD forward<_Valty>(_Val)...);

	lea	r8, QWORD PTR cpui$[rsp]
	mov	rdx, rdi
	lea	rcx, QWORD PTR data$[rsp]
	call	??$_Emplace_reallocate@AEBV?$array@H$03@std@@@?$vector@V?$array@H$03@std@@V?$xalloc@V?$array@H$03@std@@@@@std@@AEAAPEAV?$array@H$03@1@QEAV21@AEBV21@@Z ; std::vector<std::array<int,4>,xalloc<std::array<int,4> > >::_Emplace_reallocate<std::array<int,4> const &>
	mov	r15, QWORD PTR data$[rsp+16]
	mov	rdi, QWORD PTR data$[rsp+8]
$LN5@query_proc:
; File C:\Users\Mahito\Desktop\Night outing\Night-outing\src\xrCore\cpuid.cpp

; 97   : 	for (int i = 0x80000000; i <= nExIds_; ++i)

	inc	r14d
	cmp	r14d, r12d
	jle	SHORT $LL7@query_proc

; 100  : 		data.push_back(cpui);
; 101  : 	}
; 102  : 	// load bitset with flags for function 0x80000001
; 103  : 	if (nExIds_ >= 0x80000001)

	mov	r15, QWORD PTR data$[rsp]
	cmp	r12d, -2147483647			; 80000001H
	jb	SHORT $LN635@query_proc

; 104  : 	{
; 105  : 		f_81_ECX = data[1][2];
; 106  : 		f_81_EDX = data[1][3];

	mov	eax, DWORD PTR [r15+28]
	mov	DWORD PTR f_81_EDX$[rsp], eax
	jmp	SHORT $LN14@query_proc
$LN635@query_proc:

; 100  : 		data.push_back(cpui);
; 101  : 	}
; 102  : 	// load bitset with flags for function 0x80000001
; 103  : 	if (nExIds_ >= 0x80000001)

	mov	eax, DWORD PTR f_81_EDX$[rsp]
$LN14@query_proc:
	vpxor	xmm0, xmm0, xmm0

; 107  : 	}
; 108  : 	memset(pinfo->modelName, 0, sizeof(pinfo->modelName));

	vmovups	YMMWORD PTR ?ID@CPU@@3Uprocessor_info@@A+16670, ymm0
	vmovups	YMMWORD PTR ?ID@CPU@@3Uprocessor_info@@A+16702, ymm0

; 109  : 
; 110  : 	// Interpret CPU brand string if reported
; 111  : 	if (nExIds_ >= 0x80000004)

	cmp	r12d, -2147483644			; 80000004H
	jb	SHORT $LN15@query_proc

; 112  : 	{
; 113  : 		memcpy(pinfo->modelName, data[2].data(), sizeof(cpui));

	vmovups	xmm0, XMMWORD PTR [r15+32]
	vmovups	XMMWORD PTR ?ID@CPU@@3Uprocessor_info@@A+16670, xmm0

; 114  : 		memcpy(pinfo->modelName + 16, data[3].data(), sizeof(cpui));

	vmovups	xmm1, XMMWORD PTR [r15+48]
	vmovups	XMMWORD PTR ?ID@CPU@@3Uprocessor_info@@A+16686, xmm1

; 115  : 		memcpy(pinfo->modelName + 32, data[4].data(), sizeof(cpui));

	vmovups	xmm0, XMMWORD PTR [r15+64]
	vmovups	XMMWORD PTR ?ID@CPU@@3Uprocessor_info@@A+16702, xmm0
$LN15@query_proc:

; 20   : 	if (*s == 0)

	cmp	BYTE PTR ?ID@CPU@@3Uprocessor_info@@A+16638, 0
	je	SHORT $LN171@query_proc

; 21   : 		return;
; 22   : 	char* dst = s;
; 23   : 	char* src = s + 1;
; 24   : 	while (*src != 0)

	movzx	ecx, BYTE PTR ?ID@CPU@@3Uprocessor_info@@A+16639
	lea	rdx, OFFSET FLAT:?ID@CPU@@3Uprocessor_info@@A+16639
	test	cl, cl
	je	SHORT $LN173@query_proc
	npad	7
$LL172@query_proc:

; 25   : 	{
; 26   : 		if (*src == c && *dst == c)

	cmp	cl, 32					; 00000020H
	jne	SHORT $LN175@query_proc
	cmp	BYTE PTR [rsi], cl
	je	SHORT $LN176@query_proc
$LN175@query_proc:

; 27   : 			++src;
; 28   : 		else
; 29   : 			*++dst = *src++;

	inc	rsi
	mov	BYTE PTR [rsi], cl
$LN176@query_proc:

; 21   : 		return;
; 22   : 	char* dst = s;
; 23   : 	char* src = s + 1;
; 24   : 	while (*src != 0)

	movzx	ecx, BYTE PTR [rdx+1]
	inc	rdx
	test	cl, cl
	jne	SHORT $LL172@query_proc
$LN173@query_proc:

; 30   : 	}
; 31   : 	*++dst = 0;

	mov	BYTE PTR [rsi+1], 0
$LN171@query_proc:

; 20   : 	if (*s == 0)

	cmp	BYTE PTR ?ID@CPU@@3Uprocessor_info@@A+16670, 0
	je	SHORT $LN178@query_proc

; 21   : 		return;
; 22   : 	char* dst = s;
; 23   : 	char* src = s + 1;
; 24   : 	while (*src != 0)

	movzx	edx, BYTE PTR ?ID@CPU@@3Uprocessor_info@@A+16671
	lea	rcx, OFFSET FLAT:?ID@CPU@@3Uprocessor_info@@A+16670
	lea	rbx, OFFSET FLAT:?ID@CPU@@3Uprocessor_info@@A+16671
	test	dl, dl
	je	SHORT $LN180@query_proc
	npad	1
$LL179@query_proc:

; 25   : 	{
; 26   : 		if (*src == c && *dst == c)

	cmp	dl, 32					; 00000020H
	jne	SHORT $LN182@query_proc
	cmp	BYTE PTR [rcx], dl
	je	SHORT $LN183@query_proc
$LN182@query_proc:

; 27   : 			++src;
; 28   : 		else
; 29   : 			*++dst = *src++;

	inc	rcx
	mov	BYTE PTR [rcx], dl
$LN183@query_proc:

; 21   : 		return;
; 22   : 	char* dst = s;
; 23   : 	char* src = s + 1;
; 24   : 	while (*src != 0)

	movzx	edx, BYTE PTR [rbx+1]
	inc	rbx
	test	dl, dl
	jne	SHORT $LL179@query_proc
$LN180@query_proc:

; 30   : 	}
; 31   : 	*++dst = 0;

	mov	BYTE PTR [rcx+1], 0
$LN178@query_proc:
; File C:\Program Files\Microsoft Visual Studio\2022\Community\VC\Tools\MSVC\14.35.32215\include\bitset

; 78   :         return (_Array[_Pos / _Bitsperword] & (_Ty{1} << _Pos % _Bitsperword)) != 0;

	mov	rdx, QWORD PTR tv3125[rsp]
; File C:\Users\Mahito\Desktop\Night outing\Night-outing\src\xrCore\cpuid.cpp

; 123  : 	if (f_1_EDX[23])

	mov	ecx, DWORD PTR ?ID@CPU@@3Uprocessor_info@@A+16736
; File C:\Program Files\Microsoft Visual Studio\2022\Community\VC\Tools\MSVC\14.35.32215\include\bitset

; 78   :         return (_Array[_Pos / _Bitsperword] & (_Ty{1} << _Pos % _Bitsperword)) != 0;

	bt	edx, 23
; File C:\Users\Mahito\Desktop\Night outing\Night-outing\src\xrCore\cpuid.cpp

; 123  : 	if (f_1_EDX[23])

	jae	SHORT $LN16@query_proc

; 124  : 		pinfo->features |= static_cast<unsigned>(CPUFeature::MMX);

	or	ecx, 1
	mov	DWORD PTR ?ID@CPU@@3Uprocessor_info@@A+16736, ecx
$LN16@query_proc:

; 125  : 	//Added sv3nk: AMD Features
; 126  : 	if (pinfo->isAmd)

	cmp	BYTE PTR ?ID@CPU@@3Uprocessor_info@@A+16635, 0
	je	$LN637@query_proc

; 127  : 	{
; 128  : 		pinfo->features |= static_cast<unsigned>(CPUFeature::AMD);

	bts	ecx, 23
	mov	edx, ecx
	mov	DWORD PTR ?ID@CPU@@3Uprocessor_info@@A+16736, ecx
	bts	edx, 15
	mov	ebx, ecx
; File C:\Program Files\Microsoft Visual Studio\2022\Community\VC\Tools\MSVC\14.35.32215\include\bitset

; 78   :         return (_Array[_Pos / _Bitsperword] & (_Ty{1} << _Pos % _Bitsperword)) != 0;

	test	eax, eax
; File C:\Users\Mahito\Desktop\Night outing\Night-outing\src\xrCore\cpuid.cpp

; 130  : 		if (f_81_EDX[31])

	jns	SHORT $LN639@query_proc

; 131  : 			pinfo->features |= static_cast<unsigned>(CPUFeature::AMD_3DNow);

	mov	ecx, edx
	mov	DWORD PTR ?ID@CPU@@3Uprocessor_info@@A+16736, edx
$LN639@query_proc:
; File C:\Program Files\Microsoft Visual Studio\2022\Community\VC\Tools\MSVC\14.35.32215\include\bitset

; 78   :         return (_Array[_Pos / _Bitsperword] & (_Ty{1} << _Pos % _Bitsperword)) != 0;

	mov	r8d, eax

; 63   :         _CONSTEXPR23 reference(bitset<_Bits>& _Bitset, const size_t _Pos) noexcept : _Pbitset(&_Bitset), _Mypos(_Pos) {}

	cmovns	edx, ebx

; 78   :         return (_Array[_Pos / _Bitsperword] & (_Ty{1} << _Pos % _Bitsperword)) != 0;

	and	r8d, 1073741824				; 40000000H
; File C:\Users\Mahito\Desktop\Night outing\Night-outing\src\xrCore\cpuid.cpp

; 132  : 		if (f_81_EDX[30])

	je	SHORT $LN19@query_proc

; 133  : 			pinfo->features |= static_cast<unsigned>(CPUFeature::AMD_3DNowExt);

	mov	ecx, edx
	bts	ecx, 16
	mov	DWORD PTR ?ID@CPU@@3Uprocessor_info@@A+16736, ecx
$LN19@query_proc:
; File C:\Program Files\Microsoft Visual Studio\2022\Community\VC\Tools\MSVC\14.35.32215\include\bitset

; 78   :         return (_Array[_Pos / _Bitsperword] & (_Ty{1} << _Pos % _Bitsperword)) != 0;

	mov	ebx, edx
	bts	ebx, 16
	test	r8d, r8d
	mov	r8, QWORD PTR tv3123[rsp]
	mov	r9d, r8d
	cmove	ebx, edx
	and	r9d, 64					; 00000040H
; File C:\Users\Mahito\Desktop\Night outing\Night-outing\src\xrCore\cpuid.cpp

; 135  : 		if (f_1_ECX[6])

	je	SHORT $LN20@query_proc

; 136  : 			pinfo->features |= static_cast<unsigned>(CPUFeature::SSE4a);

	mov	ecx, ebx
	bts	ecx, 7
	mov	DWORD PTR ?ID@CPU@@3Uprocessor_info@@A+16736, ecx
$LN20@query_proc:
; File C:\Program Files\Microsoft Visual Studio\2022\Community\VC\Tools\MSVC\14.35.32215\include\bitset

; 78   :         return (_Array[_Pos / _Bitsperword] & (_Ty{1} << _Pos % _Bitsperword)) != 0;

	mov	edx, ebx
	bts	edx, 7
	test	r9d, r9d
	cmove	edx, ebx
	bt	eax, 22
; File C:\Users\Mahito\Desktop\Night outing\Night-outing\src\xrCore\cpuid.cpp

; 137  : 		if (f_81_EDX[22])

	jae	SHORT $LN638@query_proc

; 138  : 			pinfo->features |= static_cast<unsigned>(CPUFeature::MMXExt);

	mov	ecx, edx
	or	ecx, 2
	mov	DWORD PTR ?ID@CPU@@3Uprocessor_info@@A+16736, ecx
$LN638@query_proc:
; File C:\Program Files\Microsoft Visual Studio\2022\Community\VC\Tools\MSVC\14.35.32215\include\bitset

; 78   :         return (_Array[_Pos / _Bitsperword] & (_Ty{1} << _Pos % _Bitsperword)) != 0;

	mov	rdx, QWORD PTR tv3125[rsp]
$LN21@query_proc:
	bt	eax, 28
; File C:\Users\Mahito\Desktop\Night outing\Night-outing\src\xrCore\cpuid.cpp

; 143  : 	if (f_81_EDX[28])

	jae	SHORT $LN22@query_proc

; 144  : 		pinfo->features |= static_cast<unsigned>(CPUFeature::HT);

	bts	ecx, 18
	mov	DWORD PTR ?ID@CPU@@3Uprocessor_info@@A+16736, ecx
$LN22@query_proc:
; File C:\Program Files\Microsoft Visual Studio\2022\Community\VC\Tools\MSVC\14.35.32215\include\bitset

; 78   :         return (_Array[_Pos / _Bitsperword] & (_Ty{1} << _Pos % _Bitsperword)) != 0;

	bt	r8d, 25
; File C:\Users\Mahito\Desktop\Night outing\Night-outing\src\xrCore\cpuid.cpp

; 145  : 	if (f_1_ECX[25])

	jae	SHORT $LN23@query_proc

; 146  : 		pinfo->features |= static_cast<unsigned>(CPUFeature::AES);

	bts	ecx, 20
	mov	DWORD PTR ?ID@CPU@@3Uprocessor_info@@A+16736, ecx
$LN23@query_proc:
; File C:\Program Files\Microsoft Visual Studio\2022\Community\VC\Tools\MSVC\14.35.32215\include\bitset

; 78   :         return (_Array[_Pos / _Bitsperword] & (_Ty{1} << _Pos % _Bitsperword)) != 0;

	bt	r8d, 8
; File C:\Users\Mahito\Desktop\Night outing\Night-outing\src\xrCore\cpuid.cpp

; 147  : 	if (f_1_ECX[8])

	jae	SHORT $LN24@query_proc

; 148  : 		pinfo->features |= static_cast<unsigned>(CPUFeature::TM2);

	bts	ecx, 19
	mov	DWORD PTR ?ID@CPU@@3Uprocessor_info@@A+16736, ecx
$LN24@query_proc:
; File C:\Program Files\Microsoft Visual Studio\2022\Community\VC\Tools\MSVC\14.35.32215\include\bitset

; 78   :         return (_Array[_Pos / _Bitsperword] & (_Ty{1} << _Pos % _Bitsperword)) != 0;

	test	r8b, r8b
; File C:\Users\Mahito\Desktop\Night outing\Night-outing\src\xrCore\cpuid.cpp

; 149  : 	if (f_1_ECX[7])

	jns	SHORT $LN25@query_proc

; 150  : 		pinfo->features |= static_cast<unsigned>(CPUFeature::EST);

	bts	ecx, 21
	mov	DWORD PTR ?ID@CPU@@3Uprocessor_info@@A+16736, ecx
$LN25@query_proc:
; File C:\Program Files\Microsoft Visual Studio\2022\Community\VC\Tools\MSVC\14.35.32215\include\bitset

; 78   :         return (_Array[_Pos / _Bitsperword] & (_Ty{1} << _Pos % _Bitsperword)) != 0;

	test	r8b, 32					; 00000020H
; File C:\Users\Mahito\Desktop\Night outing\Night-outing\src\xrCore\cpuid.cpp

; 151  : 	if (f_1_ECX[5])

	je	SHORT $LN26@query_proc

; 152  : 		pinfo->features |= static_cast<unsigned>(CPUFeature::VMX);

	bts	ecx, 22
	mov	DWORD PTR ?ID@CPU@@3Uprocessor_info@@A+16736, ecx
$LN26@query_proc:
; File C:\Program Files\Microsoft Visual Studio\2022\Community\VC\Tools\MSVC\14.35.32215\include\bitset

; 78   :         return (_Array[_Pos / _Bitsperword] & (_Ty{1} << _Pos % _Bitsperword)) != 0;

	bt	edx, 24
; File C:\Users\Mahito\Desktop\Night outing\Night-outing\src\xrCore\cpuid.cpp

; 153  : 	if (f_1_EDX[24])

	jae	SHORT $LN27@query_proc

; 154  : 		pinfo->features |= static_cast<unsigned>(CPUFeature::XFSR);

	bts	ecx, 24
	mov	DWORD PTR ?ID@CPU@@3Uprocessor_info@@A+16736, ecx
$LN27@query_proc:
; File C:\Program Files\Microsoft Visual Studio\2022\Community\VC\Tools\MSVC\14.35.32215\include\bitset

; 78   :         return (_Array[_Pos / _Bitsperword] & (_Ty{1} << _Pos % _Bitsperword)) != 0;

	bt	edx, 25
; File C:\Users\Mahito\Desktop\Night outing\Night-outing\src\xrCore\cpuid.cpp

; 157  : 	if (f_1_EDX[25])

	jae	SHORT $LN28@query_proc

; 158  : 		pinfo->features |= static_cast<unsigned>(CPUFeature::SSE);

	or	ecx, 4
	mov	DWORD PTR ?ID@CPU@@3Uprocessor_info@@A+16736, ecx
$LN28@query_proc:
; File C:\Program Files\Microsoft Visual Studio\2022\Community\VC\Tools\MSVC\14.35.32215\include\bitset

; 78   :         return (_Array[_Pos / _Bitsperword] & (_Ty{1} << _Pos % _Bitsperword)) != 0;

	bt	edx, 26
; File C:\Users\Mahito\Desktop\Night outing\Night-outing\src\xrCore\cpuid.cpp

; 159  : 	if (f_1_EDX[26])

	jae	SHORT $LN29@query_proc

; 160  : 		pinfo->features |= static_cast<unsigned>(CPUFeature::SSE2);

	or	ecx, 8
	mov	DWORD PTR ?ID@CPU@@3Uprocessor_info@@A+16736, ecx
$LN29@query_proc:
; File C:\Program Files\Microsoft Visual Studio\2022\Community\VC\Tools\MSVC\14.35.32215\include\bitset

; 78   :         return (_Array[_Pos / _Bitsperword] & (_Ty{1} << _Pos % _Bitsperword)) != 0;

	test	r8b, 1
; File C:\Users\Mahito\Desktop\Night outing\Night-outing\src\xrCore\cpuid.cpp

; 161  : 	if (f_1_ECX[0])

	je	SHORT $LN30@query_proc

; 162  : 		pinfo->features |= static_cast<unsigned>(CPUFeature::SSE3);

	or	ecx, 16
	mov	DWORD PTR ?ID@CPU@@3Uprocessor_info@@A+16736, ecx
$LN30@query_proc:
; File C:\Program Files\Microsoft Visual Studio\2022\Community\VC\Tools\MSVC\14.35.32215\include\bitset

; 78   :         return (_Array[_Pos / _Bitsperword] & (_Ty{1} << _Pos % _Bitsperword)) != 0;

	bt	r8d, 9
; File C:\Users\Mahito\Desktop\Night outing\Night-outing\src\xrCore\cpuid.cpp

; 163  : 	if (f_1_ECX[9])

	jae	SHORT $LN31@query_proc

; 164  : 		pinfo->features |= static_cast<unsigned>(CPUFeature::SSSE3);

	or	ecx, 32					; 00000020H
	mov	DWORD PTR ?ID@CPU@@3Uprocessor_info@@A+16736, ecx
$LN31@query_proc:
; File C:\Program Files\Microsoft Visual Studio\2022\Community\VC\Tools\MSVC\14.35.32215\include\bitset

; 78   :         return (_Array[_Pos / _Bitsperword] & (_Ty{1} << _Pos % _Bitsperword)) != 0;

	bt	r8d, 19
; File C:\Users\Mahito\Desktop\Night outing\Night-outing\src\xrCore\cpuid.cpp

; 165  : 	if (f_1_ECX[19])

	jae	SHORT $LN32@query_proc

; 166  : 		pinfo->features |= static_cast<unsigned>(CPUFeature::SSE41);

	or	ecx, 64					; 00000040H
	mov	DWORD PTR ?ID@CPU@@3Uprocessor_info@@A+16736, ecx
$LN32@query_proc:
; File C:\Program Files\Microsoft Visual Studio\2022\Community\VC\Tools\MSVC\14.35.32215\include\bitset

; 78   :         return (_Array[_Pos / _Bitsperword] & (_Ty{1} << _Pos % _Bitsperword)) != 0;

	bt	r8d, 20
; File C:\Users\Mahito\Desktop\Night outing\Night-outing\src\xrCore\cpuid.cpp

; 167  : 	if (f_1_ECX[20])

	jae	SHORT $LN33@query_proc

; 168  : 		pinfo->features |= static_cast<unsigned>(CPUFeature::SSE42);

	bts	ecx, 8
	mov	DWORD PTR ?ID@CPU@@3Uprocessor_info@@A+16736, ecx
$LN33@query_proc:
; File C:\Program Files\Microsoft Visual Studio\2022\Community\VC\Tools\MSVC\14.35.32215\include\bitset

; 78   :         return (_Array[_Pos / _Bitsperword] & (_Ty{1} << _Pos % _Bitsperword)) != 0;

	bt	r8d, 28
; File C:\Users\Mahito\Desktop\Night outing\Night-outing\src\xrCore\cpuid.cpp

; 171  : 	if (f_1_ECX[28])

	jae	SHORT $LN34@query_proc

; 172  : 		pinfo->features |= static_cast<unsigned>(CPUFeature::AVX);

	bts	ecx, 9
	mov	DWORD PTR ?ID@CPU@@3Uprocessor_info@@A+16736, ecx
$LN34@query_proc:
; File C:\Program Files\Microsoft Visual Studio\2022\Community\VC\Tools\MSVC\14.35.32215\include\bitset

; 78   :         return (_Array[_Pos / _Bitsperword] & (_Ty{1} << _Pos % _Bitsperword)) != 0;

	mov	rax, QWORD PTR tv3127[rsp]
	test	al, 32					; 00000020H
; File C:\Users\Mahito\Desktop\Night outing\Night-outing\src\xrCore\cpuid.cpp

; 173  : 	if (f_1_EBX[5])

	je	SHORT $LN35@query_proc

; 174  : 		pinfo->features |= static_cast<unsigned>(CPUFeature::AVX2);

	bts	ecx, 10
	mov	DWORD PTR ?ID@CPU@@3Uprocessor_info@@A+16736, ecx
$LN35@query_proc:
; File C:\Program Files\Microsoft Visual Studio\2022\Community\VC\Tools\MSVC\14.35.32215\include\bitset

; 78   :         return (_Array[_Pos / _Bitsperword] & (_Ty{1} << _Pos % _Bitsperword)) != 0;

	bt	eax, 16
; File C:\Users\Mahito\Desktop\Night outing\Night-outing\src\xrCore\cpuid.cpp

; 175  : 	if (f_1_EBX[16])

	jae	SHORT $LN36@query_proc

; 176  : 		pinfo->features |= static_cast<unsigned>(CPUFeature::AVX512F);

	bts	ecx, 11
	mov	DWORD PTR ?ID@CPU@@3Uprocessor_info@@A+16736, ecx
$LN36@query_proc:
; File C:\Program Files\Microsoft Visual Studio\2022\Community\VC\Tools\MSVC\14.35.32215\include\bitset

; 78   :         return (_Array[_Pos / _Bitsperword] & (_Ty{1} << _Pos % _Bitsperword)) != 0;

	bt	eax, 26
; File C:\Users\Mahito\Desktop\Night outing\Night-outing\src\xrCore\cpuid.cpp

; 177  : 	if (f_1_EBX[26])

	jae	SHORT $LN37@query_proc

; 178  : 		pinfo->features |= static_cast<unsigned>(CPUFeature::AVX512PF);

	bts	ecx, 12
	mov	DWORD PTR ?ID@CPU@@3Uprocessor_info@@A+16736, ecx
$LN37@query_proc:
; File C:\Program Files\Microsoft Visual Studio\2022\Community\VC\Tools\MSVC\14.35.32215\include\bitset

; 78   :         return (_Array[_Pos / _Bitsperword] & (_Ty{1} << _Pos % _Bitsperword)) != 0;

	bt	eax, 27
; File C:\Users\Mahito\Desktop\Night outing\Night-outing\src\xrCore\cpuid.cpp

; 179  : 	if (f_1_EBX[27])

	jae	SHORT $LN38@query_proc

; 180  : 		pinfo->features |= static_cast<unsigned>(CPUFeature::AVX512ER);

	bts	ecx, 13
	mov	DWORD PTR ?ID@CPU@@3Uprocessor_info@@A+16736, ecx
$LN38@query_proc:
; File C:\Program Files\Microsoft Visual Studio\2022\Community\VC\Tools\MSVC\14.35.32215\include\bitset

; 78   :         return (_Array[_Pos / _Bitsperword] & (_Ty{1} << _Pos % _Bitsperword)) != 0;

	bt	eax, 28
; File C:\Users\Mahito\Desktop\Night outing\Night-outing\src\xrCore\cpuid.cpp

; 181  : 	if (f_1_EBX[28])

	jae	SHORT $LN39@query_proc

; 182  : 		pinfo->features |= static_cast<unsigned>(CPUFeature::AVX512CD);

	bts	ecx, 14
	mov	DWORD PTR ?ID@CPU@@3Uprocessor_info@@A+16736, ecx
$LN39@query_proc:

; 183  : 	//End
; 184  : 
; 185  : 	//Edit sv3nk
; 186  : 	if ((cpui[2] & 0x8) > 0)	pinfo->features |= static_cast<unsigned>(CPUFeature::MWait);

	test	BYTE PTR cpui$[rsp+8], 8
	jbe	SHORT $LN40@query_proc
	bts	ecx, 17
	mov	DWORD PTR ?ID@CPU@@3Uprocessor_info@@A+16736, ecx
$LN40@query_proc:

; 187  : 
; 188  : 	pinfo->family = (cpui[0] >> 8) & 0xf;

	mov	ecx, DWORD PTR cpui$[rsp]

; 189  : 	pinfo->model = (cpui[0] >> 4) & 0xf;
; 190  : 	pinfo->stepping = cpui[0] & 0xf;
; 191  : 
; 192  : 	// Calculate available processors
; 193  : 	ulong_t pa_mask_save, sa_mask_stub = 0;

	xor	esi, esi
	mov	eax, ecx
	mov	QWORD PTR sa_mask_stub$[rsp], rsi
	sar	eax, 8
	and	al, 15
	mov	BYTE PTR ?ID@CPU@@3Uprocessor_info@@A+16632, al
	mov	eax, ecx
	sar	eax, 4
	and	cl, 15
	and	al, 15
	mov	BYTE PTR ?ID@CPU@@3Uprocessor_info@@A+16634, cl
	mov	BYTE PTR ?ID@CPU@@3Uprocessor_info@@A+16633, al

; 194  : 	GetProcessAffinityMask(GetCurrentProcess(), &pa_mask_save, &sa_mask_stub);

	vzeroupper
	call	QWORD PTR __imp_GetCurrentProcess
	mov	rcx, rax
	lea	r8, QWORD PTR sa_mask_stub$[rsp]
	lea	rdx, QWORD PTR pa_mask_save$[rsp]
	call	QWORD PTR __imp_GetProcessAffinityMask

; 195  : 
; 196  : 	SYSTEM_INFO sysInfo;
; 197  : 	GetSystemInfo(&sysInfo);

	lea	rcx, QWORD PTR sysInfo$[rsp]
	call	QWORD PTR __imp_GetSystemInfo

; 198  : 
; 199  : 	// All logical processors
; 200  : 	pinfo->n_threads = sysInfo.dwNumberOfProcessors;

	mov	eax, DWORD PTR sysInfo$[rsp+32]

; 201  : 	pinfo->affinity_mask = unsigned(pa_mask_save);
; 202  : 	//threads
; 203  : 	//ňŕę, ëó÷řĺ íĺ íŕäî çäĺńü cpuid, äŕâŕéňĺ ńňŕíäŕđňíűé WinAPI
; 204  : 	bool allocatedBuffer = false;
; 205  : 	SYSTEM_LOGICAL_PROCESSOR_INFORMATION SLPI;
; 206  : 	SYSTEM_LOGICAL_PROCESSOR_INFORMATION* ptr = &SLPI;
; 207  : 	DWORD addr = sizeof(SLPI);
; 208  : 	DWORD sizeofStruct = sizeof(SLPI);
; 209  : 	BOOL result = GetLogicalProcessorInformation(&SLPI, &addr);

	lea	rdx, QWORD PTR addr$[rsp]
	mov	DWORD PTR ?ID@CPU@@3Uprocessor_info@@A+16744, eax
	lea	rcx, QWORD PTR SLPI$[rsp]
	mov	eax, DWORD PTR pa_mask_save$[rsp]
	lea	rdi, QWORD PTR SLPI$[rsp]
	mov	ebx, 32					; 00000020H
	mov	DWORD PTR ?ID@CPU@@3Uprocessor_info@@A+16748, eax
	xor	r14b, r14b
	mov	DWORD PTR addr$[rsp], ebx
	call	QWORD PTR __imp_GetLogicalProcessorInformation

; 210  : 	if (!result)

	test	eax, eax
	jne	SHORT $LN42@query_proc

; 211  : 	{
; 212  : 		DWORD errCode = GetLastError();

	call	QWORD PTR __imp_GetLastError

; 213  : 		if (errCode == ERROR_INSUFFICIENT_BUFFER)

	cmp	eax, 122				; 0000007aH
	jne	SHORT $LN42@query_proc

; 214  : 		{
; 215  : 			ptr = (SYSTEM_LOGICAL_PROCESSOR_INFORMATION*)new BYTE[addr];

	mov	eax, DWORD PTR addr$[rsp]
; File C:\Users\Mahito\Desktop\Night outing\Night-outing\src\xrCore\xrMemory_subst_msvc.cpp

; 45   : 		void* result = _aligned_malloc(size, PURE_MEMORY_ALIGNMENT);

	lea	edx, QWORD PTR [rbx-16]
; File C:\Users\Mahito\Desktop\Night outing\Night-outing\src\xrCore\xrMemory.h

; 84   : IC void* operator new[](size_t size) { return Memory.mem_alloc(size ? size : 1); }

	test	rax, rax
	mov	esi, 1
	cmovne	esi, eax
; File C:\Users\Mahito\Desktop\Night outing\Night-outing\src\xrCore\xrMemory_subst_msvc.cpp

; 39   : 	stat_calls++;

	inc	DWORD PTR ?Memory@@3VxrMemory@@A

; 45   : 		void* result = _aligned_malloc(size, PURE_MEMORY_ALIGNMENT);

	mov	ecx, esi
	call	QWORD PTR __imp__aligned_malloc
	mov	rdi, rax

; 46   : #ifdef PURE_MEMORY_FILL_ZERO
; 47   : 		if (result)

	test	rax, rax
	je	SHORT $LN421@query_proc

; 48   : 			memset(result, 0, size);

	mov	r8d, esi
	xor	edx, edx
	mov	rcx, rax
	call	memset
$LN421@query_proc:
; File C:\Users\Mahito\Desktop\Night outing\Night-outing\src\xrCore\cpuid.cpp

; 217  : 			result = GetLogicalProcessorInformation(ptr, &addr);

	lea	rdx, QWORD PTR addr$[rsp]
	mov	rcx, rdi
	mov	r14b, 1
	call	QWORD PTR __imp_GetLogicalProcessorInformation
	xor	esi, esi
$LN42@query_proc:

; 223  : 	DWORD processorCoreCount = 0;
; 224  : 	DWORD processorPackageCount = 0;
; 225  : 
; 226  : 	INT64 origPtr = (INT64)ptr;
; 227  : 	while (byteOffset + sizeofStruct <= addr)

	mov	ecx, DWORD PTR addr$[rsp]
	cmp	ecx, ebx
	jb	SHORT $LN9@query_proc

; 218  : 		}
; 219  : 	}
; 220  : 
; 221  : 
; 222  : 	DWORD byteOffset = 0;

	lea	rax, QWORD PTR [rdi+8]
$LL8@query_proc:

; 228  : 	{
; 229  : 		switch (ptr->Relationship)

	cmp	DWORD PTR [rax], 0
	jne	SHORT $LN45@query_proc

; 230  : 		{
; 231  : 		case RelationProcessorCore:
; 232  : 			processorCoreCount++;

	inc	esi
$LN45@query_proc:

; 233  : 
; 234  : 			break;
; 235  : 		case RelationProcessorPackage:
; 236  : 			// Logical processors share a physical package.
; 237  : 			processorPackageCount++;
; 238  : 			break;
; 239  : 
; 240  : 		default:
; 241  : 			break;
; 242  : 		}
; 243  : 		byteOffset += sizeofStruct;

	add	ebx, 32					; 00000020H

; 244  : 		ptr++;

	add	rax, 32					; 00000020H
	cmp	ebx, ecx
	jbe	SHORT $LL8@query_proc
$LN9@query_proc:

; 245  : 	}
; 246  : 	ptr = (SYSTEM_LOGICAL_PROCESSOR_INFORMATION*)origPtr;
; 247  : 	if (allocatedBuffer) delete[] ptr;

	test	r14b, r14b
	je	SHORT $LN396@query_proc
; File C:\Users\Mahito\Desktop\Night outing\Night-outing\src\xrCore\xrMemory.h

; 69   : 	if (P)

	test	rdi, rdi
	je	SHORT $LN396@query_proc
; File C:\Users\Mahito\Desktop\Night outing\Night-outing\src\xrCore\xrMemory_subst_msvc.cpp

; 99   : 	stat_calls++;

	inc	DWORD PTR ?Memory@@3VxrMemory@@A

; 100  : 
; 101  : #ifdef PURE_ALLOC
; 102  : 	if (g_use_pure_alloc)
; 103  : 	{
; 104  : 		//free(P);
; 105  : 		_aligned_free(P);

	mov	rcx, rdi
	call	QWORD PTR __imp__aligned_free
$LN396@query_proc:
; File C:\Users\Mahito\Desktop\Night outing\Night-outing\src\xrCore\cpuid.cpp

; 250  : 	return pinfo->features;

	mov	ebx, DWORD PTR ?ID@CPU@@3Uprocessor_info@@A+16736
	mov	DWORD PTR ?ID@CPU@@3Uprocessor_info@@A+16740, esi
; File C:\Program Files\Microsoft Visual Studio\2022\Community\VC\Tools\MSVC\14.35.32215\include\vector

; 2107 :         if (_Myfirst) { // destroy and deallocate old array

	test	r15, r15
	je	SHORT $LN633@query_proc
; File C:\Users\Mahito\Desktop\Night outing\Night-outing\src\xrCore\xrMemory_subst_msvc.cpp

; 99   : 	stat_calls++;

	inc	DWORD PTR ?Memory@@3VxrMemory@@A

; 100  : 
; 101  : #ifdef PURE_ALLOC
; 102  : 	if (g_use_pure_alloc)
; 103  : 	{
; 104  : 		//free(P);
; 105  : 		_aligned_free(P);

	mov	rcx, r15
	call	QWORD PTR __imp__aligned_free
$LN633@query_proc:
; File C:\Users\Mahito\Desktop\Night outing\Night-outing\src\xrCore\cpuid.cpp

; 251  : }

	mov	eax, ebx
	add	rsp, 176				; 000000b0H
	pop	r15
	pop	r14
	pop	r13
	pop	r12
	pop	rdi
	pop	rsi
	pop	rbx
	ret	0
$LN637@query_proc:

; 125  : 	//Added sv3nk: AMD Features
; 126  : 	if (pinfo->isAmd)

	mov	r8, QWORD PTR tv3123[rsp]
	jmp	$LN21@query_proc
?query_processor_info@@YAIPEAUprocessor_info@@@Z ENDP	; query_processor_info
_TEXT	ENDS
; Function compile flags: /Ogtpy
; File C:\Program Files\Microsoft Visual Studio\2022\Community\VC\Tools\MSVC\14.35.32215\include\array
;	COMDAT ??A?$array@H$03@std@@QEAAAEAH_K@Z
_TEXT	SEGMENT
this$ = 8
_Pos$ = 16
??A?$array@H$03@std@@QEAAAEAH_K@Z PROC			; std::array<int,4>::operator[], COMDAT

; 530  : #if _CONTAINER_DEBUG_LEVEL > 0
; 531  :         _STL_VERIFY(_Pos < _Size, "array subscript out of range");
; 532  : #endif // _CONTAINER_DEBUG_LEVEL > 0
; 533  : 
; 534  :         return _Elems[_Pos];

	lea	rax, QWORD PTR [rcx+rdx*4]

; 535  :     }

	ret	0
??A?$array@H$03@std@@QEAAAEAH_K@Z ENDP			; std::array<int,4>::operator[]
_TEXT	ENDS
; Function compile flags: /Ogtpy
; File C:\Program Files\Microsoft Visual Studio\2022\Community\VC\Tools\MSVC\14.35.32215\include\vector
; File C:\Users\Mahito\Desktop\Night outing\Night-outing\src\xrCore\xrMemory_subst_msvc.cpp
; File C:\Program Files\Microsoft Visual Studio\2022\Community\VC\Tools\MSVC\14.35.32215\include\vector
;	COMDAT ??1?$xr_vector@V?$array@H$03@std@@V?$xalloc@V?$array@H$03@std@@@@@@QEAA@XZ
_TEXT	SEGMENT
this$ = 48
??1?$xr_vector@V?$array@H$03@std@@V?$xalloc@V?$array@H$03@std@@@@@@QEAA@XZ PROC ; xr_vector<std::array<int,4>,xalloc<std::array<int,4> > >::~xr_vector<std::array<int,4>,xalloc<std::array<int,4> > >, COMDAT
$LN34:
	push	rbx
	sub	rsp, 32					; 00000020H
	mov	rbx, rcx

; 2107 :         if (_Myfirst) { // destroy and deallocate old array

	mov	rcx, QWORD PTR [rcx]
	test	rcx, rcx
	je	SHORT $LN6@xr_vector
; File C:\Users\Mahito\Desktop\Night outing\Night-outing\src\xrCore\xrMemory_subst_msvc.cpp

; 99   : 	stat_calls++;

	inc	DWORD PTR ?Memory@@3VxrMemory@@A

; 100  : 
; 101  : #ifdef PURE_ALLOC
; 102  : 	if (g_use_pure_alloc)
; 103  : 	{
; 104  : 		//free(P);
; 105  : 		_aligned_free(P);

	call	QWORD PTR __imp__aligned_free
; File C:\Program Files\Microsoft Visual Studio\2022\Community\VC\Tools\MSVC\14.35.32215\include\vector

; 2112 :             _Myfirst = nullptr;

	xor	eax, eax
	mov	QWORD PTR [rbx], rax

; 2113 :             _Mylast  = nullptr;

	mov	QWORD PTR [rbx+8], rax

; 2114 :             _Myend   = nullptr;

	mov	QWORD PTR [rbx+16], rax
$LN6@xr_vector:
	add	rsp, 32					; 00000020H
	pop	rbx
	ret	0
??1?$xr_vector@V?$array@H$03@std@@V?$xalloc@V?$array@H$03@std@@@@@@QEAA@XZ ENDP ; xr_vector<std::array<int,4>,xalloc<std::array<int,4> > >::~xr_vector<std::array<int,4>,xalloc<std::array<int,4> > >
_TEXT	ENDS
; Function compile flags: /Ogtpy
; File C:\Program Files\Microsoft Visual Studio\2022\Community\VC\Tools\MSVC\14.35.32215\include\bitset
;	COMDAT ??Breference@?$bitset@$0CA@@std@@QEBA_NXZ
_TEXT	SEGMENT
this$ = 8
??Breference@?$bitset@$0CA@@std@@QEBA_NXZ PROC		; std::bitset<32>::reference::operator bool, COMDAT

; 57   :             return _Pbitset->_Subscript(_Mypos);

	mov	rdx, QWORD PTR [rcx+8]

; 78   :         return (_Array[_Pos / _Bitsperword] & (_Ty{1} << _Pos % _Bitsperword)) != 0;

	mov	rax, QWORD PTR [rcx]
	mov	r8, rdx
	shr	rdx, 5
	and	r8d, 31
	mov	ecx, DWORD PTR [rax+rdx*4]
	bt	ecx, r8d
	setb	al

; 58   :         }

	ret	0
??Breference@?$bitset@$0CA@@std@@QEBA_NXZ ENDP		; std::bitset<32>::reference::operator bool
_TEXT	ENDS
; Function compile flags: /Ogtpy
; File C:\Program Files\Microsoft Visual Studio\2022\Community\VC\Tools\MSVC\14.35.32215\include\bitset
;	COMDAT ??1reference@?$bitset@$0CA@@std@@QEAA@XZ
_TEXT	SEGMENT
this$ = 8
??1reference@?$bitset@$0CA@@std@@QEAA@XZ PROC		; std::bitset<32>::reference::~reference, COMDAT

; 35   :         _CONSTEXPR23 ~reference() noexcept {} // TRANSITION, ABI

	ret	0
??1reference@?$bitset@$0CA@@std@@QEAA@XZ ENDP		; std::bitset<32>::reference::~reference
_TEXT	ENDS
; Function compile flags: /Ogtpy
; File C:\Program Files\Microsoft Visual Studio\2022\Community\VC\Tools\MSVC\14.35.32215\include\array
;	COMDAT ?data@?$array@H$03@std@@QEAAPEAHXZ
_TEXT	SEGMENT
this$ = 8
?data@?$array@H$03@std@@QEAAPEAHXZ PROC			; std::array<int,4>::data, COMDAT

; 563  :         return _Elems;

	mov	rax, rcx

; 564  :     }

	ret	0
?data@?$array@H$03@std@@QEAAPEAHXZ ENDP			; std::array<int,4>::data
_TEXT	ENDS
; Function compile flags: /Ogtpy
; File C:\Users\Mahito\Desktop\Night outing\Night-outing\src\xrCore\_stl_extensions.h
; File C:\Program Files\Microsoft Visual Studio\2022\Community\VC\Tools\MSVC\14.35.32215\include\vector
; File C:\Users\Mahito\Desktop\Night outing\Night-outing\src\xrCore\_stl_extensions.h
;	COMDAT ??A?$xr_vector@V?$array@H$03@std@@V?$xalloc@V?$array@H$03@std@@@@@@QEAAAEAV?$array@H$03@std@@_K@Z
_TEXT	SEGMENT
this$ = 8
_Pos$ = 16
??A?$xr_vector@V?$array@H$03@std@@V?$xalloc@V?$array@H$03@std@@@@@@QEAAAEAV?$array@H$03@std@@_K@Z PROC ; xr_vector<std::array<int,4>,xalloc<std::array<int,4> > >::operator[], COMDAT
; File C:\Program Files\Microsoft Visual Studio\2022\Community\VC\Tools\MSVC\14.35.32215\include\vector

; 119  :         _Ptr += _Off;

	shl	rdx, 4
	add	rdx, QWORD PTR [rcx]
; File C:\Users\Mahito\Desktop\Night outing\Night-outing\src\xrCore\_stl_extensions.h

; 139  : 	reference operator[]		(size_type _Pos)					{ {VERIFY2(_Pos<size(),make_string("index is out of range: index requested[%d], size of container[%d]", _Pos, size()).c_str());} return (*(begin() + _Pos)); }

	mov	rax, rdx
	ret	0
??A?$xr_vector@V?$array@H$03@std@@V?$xalloc@V?$array@H$03@std@@@@@@QEAAAEAV?$array@H$03@std@@_K@Z ENDP ; xr_vector<std::array<int,4>,xalloc<std::array<int,4> > >::operator[]
_TEXT	ENDS
; Function compile flags: /Ogtpy
; File C:\Users\Mahito\Desktop\Night outing\Night-outing\src\xrCore\_stl_extensions.h
; File C:\Program Files\Microsoft Visual Studio\2022\Community\VC\Tools\MSVC\14.35.32215\include\vector
; File C:\Users\Mahito\Desktop\Night outing\Night-outing\src\xrCore\_stl_extensions.h
;	COMDAT ?clear@?$xr_vector@V?$array@H$03@std@@V?$xalloc@V?$array@H$03@std@@@@@@QEAAXXZ
_TEXT	SEGMENT
this$ = 8
?clear@?$xr_vector@V?$array@H$03@std@@V?$xalloc@V?$array@H$03@std@@@@@@QEAAXXZ PROC ; xr_vector<std::array<int,4>,xalloc<std::array<int,4> > >::clear, COMDAT
; File C:\Program Files\Microsoft Visual Studio\2022\Community\VC\Tools\MSVC\14.35.32215\include\vector

; 1829 :         if (_Myfirst == _Mylast) { // already empty, nothing to do

	mov	rax, QWORD PTR [rcx]
	cmp	rax, QWORD PTR [rcx+8]
	je	SHORT $LN5@clear

; 1830 :             // This is an optimization for debug mode: we can avoid taking the debug lock to invalidate iterators.
; 1831 :             // Note that when clearing an empty vector, this will preserve past-the-end iterators, which is allowed by
; 1832 :             // N4901 [tab:container.seq.req] "a.clear() [...] may invalidate the past-the-end iterator".
; 1833 :             return;
; 1834 :         }
; 1835 : 
; 1836 :         _My_data._Orphan_all();
; 1837 :         _Destroy_range(_Myfirst, _Mylast, _Getal());
; 1838 :         _ASAN_VECTOR_MODIFY(static_cast<difference_type>(_Myfirst - _Mylast)); // negative when destroying elements
; 1839 :         _Mylast = _Myfirst;

	mov	QWORD PTR [rcx+8], rax
$LN5@clear:
; File C:\Users\Mahito\Desktop\Night outing\Night-outing\src\xrCore\_stl_extensions.h

; 133  : 	void	clear				()									{ clear_and_free	();			}

	ret	0
?clear@?$xr_vector@V?$array@H$03@std@@V?$xalloc@V?$array@H$03@std@@@@@@QEAAXXZ ENDP ; xr_vector<std::array<int,4>,xalloc<std::array<int,4> > >::clear
_TEXT	ENDS
; Function compile flags: /Ogtpy
; File C:\Users\Mahito\Desktop\Night outing\Night-outing\src\xrCore\_stl_extensions.h
; File C:\Program Files\Microsoft Visual Studio\2022\Community\VC\Tools\MSVC\14.35.32215\include\vector
; File C:\Users\Mahito\Desktop\Night outing\Night-outing\src\xrCore\_stl_extensions.h
;	COMDAT ??0?$xr_vector@V?$array@H$03@std@@V?$xalloc@V?$array@H$03@std@@@@@@QEAA@XZ
_TEXT	SEGMENT
this$ = 8
??0?$xr_vector@V?$array@H$03@std@@V?$xalloc@V?$array@H$03@std@@@@@@QEAA@XZ PROC ; xr_vector<std::array<int,4>,xalloc<std::array<int,4> > >::xr_vector<std::array<int,4>,xalloc<std::array<int,4> > >, COMDAT
; File C:\Program Files\Microsoft Visual Studio\2022\Community\VC\Tools\MSVC\14.35.32215\include\vector

; 390  :     _CONSTEXPR20 _Vector_val() noexcept : _Myfirst(), _Mylast(), _Myend() {}

	xor	eax, eax
	mov	QWORD PTR [rcx], rax
	mov	QWORD PTR [rcx+8], rax
	mov	QWORD PTR [rcx+16], rax
; File C:\Users\Mahito\Desktop\Night outing\Night-outing\src\xrCore\_stl_extensions.h

; 123  : 			xr_vector			()									: inherited	()					{}

	mov	rax, rcx
	ret	0
??0?$xr_vector@V?$array@H$03@std@@V?$xalloc@V?$array@H$03@std@@@@@@QEAA@XZ ENDP ; xr_vector<std::array<int,4>,xalloc<std::array<int,4> > >::xr_vector<std::array<int,4>,xalloc<std::array<int,4> > >
_TEXT	ENDS
; Function compile flags: /Ogtpy
; File C:\Program Files\Microsoft Visual Studio\2022\Community\VC\Tools\MSVC\14.35.32215\include\vector
; File C:\Users\Mahito\Desktop\Night outing\Night-outing\src\xrCore\_stl_extensions.h
; File C:\Program Files\Microsoft Visual Studio\2022\Community\VC\Tools\MSVC\14.35.32215\include\vector
;	COMDAT ?push_back@?$vector@V?$array@H$03@std@@V?$xalloc@V?$array@H$03@std@@@@@std@@QEAAXAEBV?$array@H$03@2@@Z
_TEXT	SEGMENT
this$ = 8
_Val$ = 16
?push_back@?$vector@V?$array@H$03@std@@V?$xalloc@V?$array@H$03@std@@@@@std@@QEAAXAEBV?$array@H$03@2@@Z PROC ; std::vector<std::array<int,4>,xalloc<std::array<int,4> > >::push_back, COMDAT

; 935  :     _CONSTEXPR20 void push_back(const _Ty& _Val) { // insert element at end, provide strong guarantee

	mov	r8, rdx

; 844  :         if (_Mylast != _My_data._Myend) {

	mov	rdx, QWORD PTR [rcx+8]
	cmp	rdx, QWORD PTR [rcx+16]
	je	SHORT $LN4@push_back
; File C:\Users\Mahito\Desktop\Night outing\Night-outing\src\xrCore\_stl_extensions.h

; 85   : 							void					construct		(pointer p, const T& _Val)				{	::new(p) T(_Val);	}

	vmovups	xmm0, XMMWORD PTR [r8]
	vmovups	XMMWORD PTR [rdx], xmm0
; File C:\Program Files\Microsoft Visual Studio\2022\Community\VC\Tools\MSVC\14.35.32215\include\vector

; 869  :         ++_Mylast;

	add	QWORD PTR [rcx+8], 16

; 936  :         _Emplace_one_at_back(_Val);
; 937  :     }

	ret	0
$LN4@push_back:

; 848  :         return *_Emplace_reallocate(_Mylast, _STD forward<_Valty>(_Val)...);

	jmp	??$_Emplace_reallocate@AEBV?$array@H$03@std@@@?$vector@V?$array@H$03@std@@V?$xalloc@V?$array@H$03@std@@@@@std@@AEAAPEAV?$array@H$03@1@QEAV21@AEBV21@@Z ; std::vector<std::array<int,4>,xalloc<std::array<int,4> > >::_Emplace_reallocate<std::array<int,4> const &>
?push_back@?$vector@V?$array@H$03@std@@V?$xalloc@V?$array@H$03@std@@@@@std@@QEAAXAEBV?$array@H$03@2@@Z ENDP ; std::vector<std::array<int,4>,xalloc<std::array<int,4> > >::push_back
_TEXT	ENDS
; Function compile flags: /Ogtpy
; File C:\Program Files\Microsoft Visual Studio\2022\Community\VC\Tools\MSVC\14.35.32215\include\vector
; File C:\Users\Mahito\Desktop\Night outing\Night-outing\src\xrCore\xrMemory_subst_msvc.cpp
; File C:\Program Files\Microsoft Visual Studio\2022\Community\VC\Tools\MSVC\14.35.32215\include\vector
;	COMDAT ??1?$vector@V?$array@H$03@std@@V?$xalloc@V?$array@H$03@std@@@@@std@@QEAA@XZ
_TEXT	SEGMENT
this$ = 48
??1?$vector@V?$array@H$03@std@@V?$xalloc@V?$array@H$03@std@@@@@std@@QEAA@XZ PROC ; std::vector<std::array<int,4>,xalloc<std::array<int,4> > >::~vector<std::array<int,4>,xalloc<std::array<int,4> > >, COMDAT

; 829  :     _CONSTEXPR20 ~vector() noexcept {

$LN31:
	push	rbx
	sub	rsp, 32					; 00000020H
	mov	rbx, rcx

; 2107 :         if (_Myfirst) { // destroy and deallocate old array

	mov	rcx, QWORD PTR [rcx]
	test	rcx, rcx
	je	SHORT $LN4@vector
; File C:\Users\Mahito\Desktop\Night outing\Night-outing\src\xrCore\xrMemory_subst_msvc.cpp

; 99   : 	stat_calls++;

	inc	DWORD PTR ?Memory@@3VxrMemory@@A

; 100  : 
; 101  : #ifdef PURE_ALLOC
; 102  : 	if (g_use_pure_alloc)
; 103  : 	{
; 104  : 		//free(P);
; 105  : 		_aligned_free(P);

	call	QWORD PTR __imp__aligned_free
; File C:\Program Files\Microsoft Visual Studio\2022\Community\VC\Tools\MSVC\14.35.32215\include\vector

; 2112 :             _Myfirst = nullptr;

	xor	eax, eax
	mov	QWORD PTR [rbx], rax

; 2113 :             _Mylast  = nullptr;

	mov	QWORD PTR [rbx+8], rax

; 2114 :             _Myend   = nullptr;

	mov	QWORD PTR [rbx+16], rax
$LN4@vector:

; 830  :         _Tidy();
; 831  : #if _ITERATOR_DEBUG_LEVEL != 0
; 832  :         auto&& _Alproxy = _GET_PROXY_ALLOCATOR(_Alty, _Getal());
; 833  :         _Delete_plain_internal(_Alproxy, _STD exchange(_Mypair._Myval2._Myproxy, nullptr));
; 834  : #endif // _ITERATOR_DEBUG_LEVEL != 0
; 835  :     }

	add	rsp, 32					; 00000020H
	pop	rbx
	ret	0
??1?$vector@V?$array@H$03@std@@V?$xalloc@V?$array@H$03@std@@@@@std@@QEAA@XZ ENDP ; std::vector<std::array<int,4>,xalloc<std::array<int,4> > >::~vector<std::array<int,4>,xalloc<std::array<int,4> > >
_TEXT	ENDS
; Function compile flags: /Ogtpy
; File C:\Program Files\Microsoft Visual Studio\2022\Community\VC\Tools\MSVC\14.35.32215\include\bitset
;	COMDAT ??0?$bitset@$0CA@@std@@QEAA@_K@Z
_TEXT	SEGMENT
this$ = 8
_Val$ = 16
??0?$bitset@$0CA@@std@@QEAA@_K@Z PROC			; std::bitset<32>::bitset<32>, COMDAT

; 101  :     constexpr bitset(unsigned long long _Val) noexcept : _Array{static_cast<_Ty>(_Need_mask ? _Val & _Mask : _Val)} {}

	mov	DWORD PTR [rcx], edx
	mov	rax, rcx
	ret	0
??0?$bitset@$0CA@@std@@QEAA@_K@Z ENDP			; std::bitset<32>::bitset<32>
_TEXT	ENDS
; Function compile flags: /Ogtpy
; File C:\Program Files\Microsoft Visual Studio\2022\Community\VC\Tools\MSVC\14.35.32215\include\bitset
;	COMDAT ??0?$bitset@$0CA@@std@@QEAA@XZ
_TEXT	SEGMENT
this$ = 8
??0?$bitset@$0CA@@std@@QEAA@XZ PROC			; std::bitset<32>::bitset<32>, COMDAT

; 95   :     constexpr bitset() noexcept : _Array() {} // construct with all false values

	xor	eax, eax
	mov	DWORD PTR [rcx], eax
	mov	rax, rcx
	ret	0
??0?$bitset@$0CA@@std@@QEAA@XZ ENDP			; std::bitset<32>::bitset<32>
_TEXT	ENDS
; Function compile flags: /Ogtpy
; File C:\Program Files\Microsoft Visual Studio\2022\Community\VC\Tools\MSVC\14.35.32215\include\bitset
;	COMDAT ??A?$bitset@$0CA@@std@@QEAA?AVreference@01@_K@Z
_TEXT	SEGMENT
this$ = 8
__$ReturnUdt$ = 16
_Pos$ = 24
??A?$bitset@$0CA@@std@@QEAA?AVreference@01@_K@Z PROC	; std::bitset<32>::operator[], COMDAT

; 63   :         _CONSTEXPR23 reference(bitset<_Bits>& _Bitset, const size_t _Pos) noexcept : _Pbitset(&_Bitset), _Mypos(_Pos) {}

	mov	QWORD PTR [rdx], rcx

; 91   :         _Validate(_Pos);
; 92   :         return reference(*this, _Pos);

	mov	rax, rdx

; 63   :         _CONSTEXPR23 reference(bitset<_Bits>& _Bitset, const size_t _Pos) noexcept : _Pbitset(&_Bitset), _Mypos(_Pos) {}

	mov	QWORD PTR [rdx+8], r8

; 93   :     }

	ret	0
??A?$bitset@$0CA@@std@@QEAA?AVreference@01@_K@Z ENDP	; std::bitset<32>::operator[]
_TEXT	ENDS
; Function compile flags: /Ogtpy
; File C:\Program Files\Microsoft Visual Studio\2022\Community\VC\Tools\MSVC\14.35.32215\include\vector
;	COMDAT ??H?$_Vector_iterator@V?$_Vector_val@U?$_Simple_types@V?$array@H$03@std@@@std@@@std@@@std@@QEBA?AV01@_J@Z
_TEXT	SEGMENT
this$ = 8
__$ReturnUdt$ = 16
_Off$ = 24
??H?$_Vector_iterator@V?$_Vector_val@U?$_Simple_types@V?$array@H$03@std@@@std@@@std@@@std@@QEBA?AV01@_J@Z PROC ; std::_Vector_iterator<std::_Vector_val<std::_Simple_types<std::array<int,4> > > >::operator+, COMDAT

; 119  :         _Ptr += _Off;

	shl	r8, 4

; 303  :         _Vector_iterator _Tmp = *this;
; 304  :         _Tmp += _Off;
; 305  :         return _Tmp;

	mov	rax, rdx

; 119  :         _Ptr += _Off;

	add	r8, QWORD PTR [rcx]
	mov	QWORD PTR [rdx], r8

; 306  :     }

	ret	0
??H?$_Vector_iterator@V?$_Vector_val@U?$_Simple_types@V?$array@H$03@std@@@std@@@std@@@std@@QEBA?AV01@_J@Z ENDP ; std::_Vector_iterator<std::_Vector_val<std::_Simple_types<std::array<int,4> > > >::operator+
_TEXT	ENDS
; Function compile flags: /Ogtpy
; File C:\Program Files\Microsoft Visual Studio\2022\Community\VC\Tools\MSVC\14.35.32215\include\vector
;	COMDAT ??D?$_Vector_iterator@V?$_Vector_val@U?$_Simple_types@V?$array@H$03@std@@@std@@@std@@@std@@QEBAAEAV?$array@H$03@1@XZ
_TEXT	SEGMENT
this$ = 8
??D?$_Vector_iterator@V?$_Vector_val@U?$_Simple_types@V?$array@H$03@std@@@std@@@std@@@std@@QEBAAEAV?$array@H$03@1@XZ PROC ; std::_Vector_iterator<std::_Vector_val<std::_Simple_types<std::array<int,4> > > >::operator*, COMDAT

; 261  :         return const_cast<reference>(_Mybase::operator*());

	mov	rax, QWORD PTR [rcx]

; 262  :     }

	ret	0
??D?$_Vector_iterator@V?$_Vector_val@U?$_Simple_types@V?$array@H$03@std@@@std@@@std@@@std@@QEBAAEAV?$array@H$03@1@XZ ENDP ; std::_Vector_iterator<std::_Vector_val<std::_Simple_types<std::array<int,4> > > >::operator*
_TEXT	ENDS
; Function compile flags: /Ogtpy
; File C:\Program Files\Microsoft Visual Studio\2022\Community\VC\Tools\MSVC\14.35.32215\include\bitset
;	COMDAT ??0reference@?$bitset@$0CA@@std@@AEAA@AEAV12@_K@Z
_TEXT	SEGMENT
this$ = 8
_Bitset$ = 16
_Pos$ = 24
??0reference@?$bitset@$0CA@@std@@AEAA@AEAV12@_K@Z PROC	; std::bitset<32>::reference::reference, COMDAT

; 63   :         _CONSTEXPR23 reference(bitset<_Bits>& _Bitset, const size_t _Pos) noexcept : _Pbitset(&_Bitset), _Mypos(_Pos) {}

	mov	QWORD PTR [rcx], rdx
	mov	rax, rcx
	mov	QWORD PTR [rcx+8], r8
	ret	0
??0reference@?$bitset@$0CA@@std@@AEAA@AEAV12@_K@Z ENDP	; std::bitset<32>::reference::reference
_TEXT	ENDS
; Function compile flags: /Ogtpy
; File C:\Users\Mahito\Desktop\Night outing\Night-outing\src\xrCore\_stl_extensions.h
; File C:\Program Files\Microsoft Visual Studio\2022\Community\VC\Tools\MSVC\14.35.32215\include\vector
; File C:\Users\Mahito\Desktop\Night outing\Night-outing\src\xrCore\_stl_extensions.h
;	COMDAT ?clear_and_free@?$xr_vector@V?$array@H$03@std@@V?$xalloc@V?$array@H$03@std@@@@@@QEAAXXZ
_TEXT	SEGMENT
this$ = 8
?clear_and_free@?$xr_vector@V?$array@H$03@std@@V?$xalloc@V?$array@H$03@std@@@@@@QEAAXXZ PROC ; xr_vector<std::array<int,4>,xalloc<std::array<int,4> > >::clear_and_free, COMDAT
; File C:\Program Files\Microsoft Visual Studio\2022\Community\VC\Tools\MSVC\14.35.32215\include\vector

; 1829 :         if (_Myfirst == _Mylast) { // already empty, nothing to do

	mov	rax, QWORD PTR [rcx]
	cmp	rax, QWORD PTR [rcx+8]
	je	SHORT $LN3@clear_and_

; 1830 :             // This is an optimization for debug mode: we can avoid taking the debug lock to invalidate iterators.
; 1831 :             // Note that when clearing an empty vector, this will preserve past-the-end iterators, which is allowed by
; 1832 :             // N4901 [tab:container.seq.req] "a.clear() [...] may invalidate the past-the-end iterator".
; 1833 :             return;
; 1834 :         }
; 1835 : 
; 1836 :         _My_data._Orphan_all();
; 1837 :         _Destroy_range(_Myfirst, _Mylast, _Getal());
; 1838 :         _ASAN_VECTOR_MODIFY(static_cast<difference_type>(_Myfirst - _Mylast)); // negative when destroying elements
; 1839 :         _Mylast = _Myfirst;

	mov	QWORD PTR [rcx+8], rax
$LN3@clear_and_:
; File C:\Users\Mahito\Desktop\Night outing\Night-outing\src\xrCore\_stl_extensions.h

; 128  : 	void	clear_and_free		()									{ inherited::clear();			}

	ret	0
?clear_and_free@?$xr_vector@V?$array@H$03@std@@V?$xalloc@V?$array@H$03@std@@@@@@QEAAXXZ ENDP ; xr_vector<std::array<int,4>,xalloc<std::array<int,4> > >::clear_and_free
_TEXT	ENDS
; Function compile flags: /Ogtpy
; File C:\Program Files\Microsoft Visual Studio\2022\Community\VC\Tools\MSVC\14.35.32215\include\vector
; File C:\Users\Mahito\Desktop\Night outing\Night-outing\src\xrCore\xrMemory_subst_msvc.cpp
; File C:\Program Files\Microsoft Visual Studio\2022\Community\VC\Tools\MSVC\14.35.32215\include\vector
;	COMDAT ?_Tidy@?$vector@V?$array@H$03@std@@V?$xalloc@V?$array@H$03@std@@@@@std@@AEAAXXZ
_TEXT	SEGMENT
this$ = 48
?_Tidy@?$vector@V?$array@H$03@std@@V?$xalloc@V?$array@H$03@std@@@@@std@@AEAAXXZ PROC ; std::vector<std::array<int,4>,xalloc<std::array<int,4> > >::_Tidy, COMDAT

; 2098 :     _CONSTEXPR20 void _Tidy() noexcept { // free all storage

$LN29:
	push	rbx
	sub	rsp, 32					; 00000020H
	mov	rbx, rcx

; 2099 :         auto& _Al         = _Getal();
; 2100 :         auto& _My_data    = _Mypair._Myval2;
; 2101 :         pointer& _Myfirst = _My_data._Myfirst;
; 2102 :         pointer& _Mylast  = _My_data._Mylast;
; 2103 :         pointer& _Myend   = _My_data._Myend;
; 2104 : 
; 2105 :         _My_data._Orphan_all();
; 2106 : 
; 2107 :         if (_Myfirst) { // destroy and deallocate old array

	mov	rcx, QWORD PTR [rcx]
	test	rcx, rcx
	je	SHORT $LN2@Tidy
; File C:\Users\Mahito\Desktop\Night outing\Night-outing\src\xrCore\xrMemory_subst_msvc.cpp

; 99   : 	stat_calls++;

	inc	DWORD PTR ?Memory@@3VxrMemory@@A

; 100  : 
; 101  : #ifdef PURE_ALLOC
; 102  : 	if (g_use_pure_alloc)
; 103  : 	{
; 104  : 		//free(P);
; 105  : 		_aligned_free(P);

	call	QWORD PTR __imp__aligned_free
; File C:\Program Files\Microsoft Visual Studio\2022\Community\VC\Tools\MSVC\14.35.32215\include\vector

; 2112 :             _Myfirst = nullptr;

	xor	eax, eax
	mov	QWORD PTR [rbx], rax

; 2113 :             _Mylast  = nullptr;

	mov	QWORD PTR [rbx+8], rax

; 2114 :             _Myend   = nullptr;

	mov	QWORD PTR [rbx+16], rax
$LN2@Tidy:

; 2115 :         }
; 2116 :     }

	add	rsp, 32					; 00000020H
	pop	rbx
	ret	0
?_Tidy@?$vector@V?$array@H$03@std@@V?$xalloc@V?$array@H$03@std@@@@@std@@AEAAXXZ ENDP ; std::vector<std::array<int,4>,xalloc<std::array<int,4> > >::_Tidy
_TEXT	ENDS
; Function compile flags: /Ogtpy
; File C:\Program Files\Microsoft Visual Studio\2022\Community\VC\Tools\MSVC\14.35.32215\include\vector
;	COMDAT ?begin@?$vector@V?$array@H$03@std@@V?$xalloc@V?$array@H$03@std@@@@@std@@QEAA?AV?$_Vector_iterator@V?$_Vector_val@U?$_Simple_types@V?$array@H$03@std@@@std@@@std@@@2@XZ
_TEXT	SEGMENT
this$ = 8
__$ReturnUdt$ = 16
?begin@?$vector@V?$array@H$03@std@@V?$xalloc@V?$array@H$03@std@@@@@std@@QEAA?AV?$_Vector_iterator@V?$_Vector_val@U?$_Simple_types@V?$array@H$03@std@@@std@@@std@@@2@XZ PROC ; std::vector<std::array<int,4>,xalloc<std::array<int,4> > >::begin, COMDAT

; 41   :     _CONSTEXPR20 _Vector_const_iterator(_Tptr _Parg, const _Container_base* _Pvector) noexcept : _Ptr(_Parg) {

	mov	rax, QWORD PTR [rcx]
	mov	QWORD PTR [rdx], rax

; 1858 :         auto& _My_data = _Mypair._Myval2;
; 1859 :         return iterator(_My_data._Myfirst, _STD addressof(_My_data));

	mov	rax, rdx

; 1860 :     }

	ret	0
?begin@?$vector@V?$array@H$03@std@@V?$xalloc@V?$array@H$03@std@@@@@std@@QEAA?AV?$_Vector_iterator@V?$_Vector_val@U?$_Simple_types@V?$array@H$03@std@@@std@@@std@@@2@XZ ENDP ; std::vector<std::array<int,4>,xalloc<std::array<int,4> > >::begin
_TEXT	ENDS
; Function compile flags: /Ogtpy
; File C:\Program Files\Microsoft Visual Studio\2022\Community\VC\Tools\MSVC\14.35.32215\include\vector
;	COMDAT ??0?$vector@V?$array@H$03@std@@V?$xalloc@V?$array@H$03@std@@@@@std@@QEAA@XZ
_TEXT	SEGMENT
this$ = 8
??0?$vector@V?$array@H$03@std@@V?$xalloc@V?$array@H$03@std@@@@@std@@QEAA@XZ PROC ; std::vector<std::array<int,4>,xalloc<std::array<int,4> > >::vector<std::array<int,4>,xalloc<std::array<int,4> > >, COMDAT

; 390  :     _CONSTEXPR20 _Vector_val() noexcept : _Myfirst(), _Mylast(), _Myend() {}

	xor	eax, eax
	mov	QWORD PTR [rcx], rax
	mov	QWORD PTR [rcx+8], rax
	mov	QWORD PTR [rcx+16], rax

; 674  :         _Mypair._Myval2._Alloc_proxy(_GET_PROXY_ALLOCATOR(_Alty, _Getal()));
; 675  :     }

	mov	rax, rcx
	ret	0
??0?$vector@V?$array@H$03@std@@V?$xalloc@V?$array@H$03@std@@@@@std@@QEAA@XZ ENDP ; std::vector<std::array<int,4>,xalloc<std::array<int,4> > >::vector<std::array<int,4>,xalloc<std::array<int,4> > >
_TEXT	ENDS
; Function compile flags: /Ogtpy
; File C:\Program Files\Microsoft Visual Studio\2022\Community\VC\Tools\MSVC\14.35.32215\include\bitset
;	COMDAT ?_Subscript@?$bitset@$0CA@@std@@QEBA_N_K@Z
_TEXT	SEGMENT
this$ = 8
_Pos$ = 16
?_Subscript@?$bitset@$0CA@@std@@QEBA_N_K@Z PROC		; std::bitset<32>::_Subscript, COMDAT

; 78   :         return (_Array[_Pos / _Bitsperword] & (_Ty{1} << _Pos % _Bitsperword)) != 0;

	mov	r8, rdx
	shr	rdx, 5
	and	r8d, 31
	mov	eax, DWORD PTR [rcx+rdx*4]
	bt	eax, r8d
	setb	al

; 79   :     }

	ret	0
?_Subscript@?$bitset@$0CA@@std@@QEBA_N_K@Z ENDP		; std::bitset<32>::_Subscript
_TEXT	ENDS
; Function compile flags: /Ogtpy
; File C:\Program Files\Microsoft Visual Studio\2022\Community\VC\Tools\MSVC\14.35.32215\include\bitset
;	COMDAT ?_Validate@?$bitset@$0CA@@std@@SAX_K@Z
_TEXT	SEGMENT
_Pos$dead$ = 8
?_Validate@?$bitset@$0CA@@std@@SAX_K@Z PROC		; std::bitset<32>::_Validate, COMDAT

; 70   : #if _ITERATOR_DEBUG_LEVEL == 0
; 71   :         (void) _Pos;
; 72   : #else // ^^^ _ITERATOR_DEBUG_LEVEL == 0 ^^^ // vvv _ITERATOR_DEBUG_LEVEL != 0 vvv
; 73   :         _STL_VERIFY(_Pos < _Bits, "bitset index outside range");
; 74   : #endif // _ITERATOR_DEBUG_LEVEL == 0
; 75   :     }

	ret	0
?_Validate@?$bitset@$0CA@@std@@SAX_K@Z ENDP		; std::bitset<32>::_Validate
_TEXT	ENDS
; Function compile flags: /Ogtpy
; File C:\Program Files\Microsoft Visual Studio\2022\Community\VC\Tools\MSVC\14.35.32215\include\vector
;	COMDAT ??0?$_Vector_iterator@V?$_Vector_val@U?$_Simple_types@V?$array@H$03@std@@@std@@@std@@@std@@QEAA@PEAV?$array@H$03@1@PEBU_Container_base0@1@@Z
_TEXT	SEGMENT
this$ = 8
__param0$ = 16
__param1$dead$ = 24
??0?$_Vector_iterator@V?$_Vector_val@U?$_Simple_types@V?$array@H$03@std@@@std@@@std@@@std@@QEAA@PEAV?$array@H$03@1@PEBU_Container_base0@1@@Z PROC ; std::_Vector_iterator<std::_Vector_val<std::_Simple_types<std::array<int,4> > > >::_Vector_iterator<std::_Vector_val<std::_Simple_types<std::array<int,4> > > >, COMDAT

; 41   :     _CONSTEXPR20 _Vector_const_iterator(_Tptr _Parg, const _Container_base* _Pvector) noexcept : _Ptr(_Parg) {

	mov	QWORD PTR [rcx], rdx
	mov	rax, rcx
	ret	0
??0?$_Vector_iterator@V?$_Vector_val@U?$_Simple_types@V?$array@H$03@std@@@std@@@std@@@std@@QEAA@PEAV?$array@H$03@1@PEBU_Container_base0@1@@Z ENDP ; std::_Vector_iterator<std::_Vector_val<std::_Simple_types<std::array<int,4> > > >::_Vector_iterator<std::_Vector_val<std::_Simple_types<std::array<int,4> > > >
_TEXT	ENDS
; Function compile flags: /Ogtpy
; File C:\Program Files\Microsoft Visual Studio\2022\Community\VC\Tools\MSVC\14.35.32215\include\vector
;	COMDAT ??Y?$_Vector_iterator@V?$_Vector_val@U?$_Simple_types@V?$array@H$03@std@@@std@@@std@@@std@@QEAAAEAV01@_J@Z
_TEXT	SEGMENT
this$ = 8
_Off$ = 16
??Y?$_Vector_iterator@V?$_Vector_val@U?$_Simple_types@V?$array@H$03@std@@@std@@@std@@@std@@QEAAAEAV01@_J@Z PROC ; std::_Vector_iterator<std::_Vector_val<std::_Simple_types<std::array<int,4> > > >::operator+=, COMDAT

; 119  :         _Ptr += _Off;

	shl	rdx, 4

; 298  :         _Mybase::operator+=(_Off);
; 299  :         return *this;

	mov	rax, rcx

; 119  :         _Ptr += _Off;

	add	QWORD PTR [rcx], rdx

; 300  :     }

	ret	0
??Y?$_Vector_iterator@V?$_Vector_val@U?$_Simple_types@V?$array@H$03@std@@@std@@@std@@@std@@QEAAAEAV01@_J@Z ENDP ; std::_Vector_iterator<std::_Vector_val<std::_Simple_types<std::array<int,4> > > >::operator+=
_TEXT	ENDS
; Function compile flags: /Ogtpy
; File C:\Program Files\Microsoft Visual Studio\2022\Community\VC\Tools\MSVC\14.35.32215\include\vector
;	COMDAT ??D?$_Vector_const_iterator@V?$_Vector_val@U?$_Simple_types@V?$array@H$03@std@@@std@@@std@@@std@@QEBAAEBV?$array@H$03@1@XZ
_TEXT	SEGMENT
this$ = 8
??D?$_Vector_const_iterator@V?$_Vector_val@U?$_Simple_types@V?$array@H$03@std@@@std@@@std@@@std@@QEBAAEBV?$array@H$03@1@XZ PROC ; std::_Vector_const_iterator<std::_Vector_val<std::_Simple_types<std::array<int,4> > > >::operator*, COMDAT

; 46   : #if _ITERATOR_DEBUG_LEVEL != 0
; 47   :         const auto _Mycont = static_cast<const _Myvec*>(this->_Getcont());
; 48   :         _STL_VERIFY(_Ptr, "can't dereference value-initialized vector iterator");
; 49   :         _STL_VERIFY(
; 50   :             _Mycont->_Myfirst <= _Ptr && _Ptr < _Mycont->_Mylast, "can't dereference out of range vector iterator");
; 51   : #endif // _ITERATOR_DEBUG_LEVEL != 0
; 52   : 
; 53   :         return *_Ptr;

	mov	rax, QWORD PTR [rcx]

; 54   :     }

	ret	0
??D?$_Vector_const_iterator@V?$_Vector_val@U?$_Simple_types@V?$array@H$03@std@@@std@@@std@@@std@@QEBAAEBV?$array@H$03@1@XZ ENDP ; std::_Vector_const_iterator<std::_Vector_val<std::_Simple_types<std::array<int,4> > > >::operator*
_TEXT	ENDS
; Function compile flags: /Ogtpy
; File C:\Program Files\Microsoft Visual Studio\2022\Community\VC\Tools\MSVC\14.35.32215\include\vector
;	COMDAT ??0?$_Vector_const_iterator@V?$_Vector_val@U?$_Simple_types@V?$array@H$03@std@@@std@@@std@@@std@@QEAA@PEAV?$array@H$03@1@PEBU_Container_base0@1@@Z
_TEXT	SEGMENT
this$ = 8
_Parg$ = 16
_Pvector$dead$ = 24
??0?$_Vector_const_iterator@V?$_Vector_val@U?$_Simple_types@V?$array@H$03@std@@@std@@@std@@@std@@QEAA@PEAV?$array@H$03@1@PEBU_Container_base0@1@@Z PROC ; std::_Vector_const_iterator<std::_Vector_val<std::_Simple_types<std::array<int,4> > > >::_Vector_const_iterator<std::_Vector_val<std::_Simple_types<std::array<int,4> > > >, COMDAT

; 41   :     _CONSTEXPR20 _Vector_const_iterator(_Tptr _Parg, const _Container_base* _Pvector) noexcept : _Ptr(_Parg) {

	mov	QWORD PTR [rcx], rdx

; 42   :         this->_Adopt(_Pvector);
; 43   :     }

	mov	rax, rcx
	ret	0
??0?$_Vector_const_iterator@V?$_Vector_val@U?$_Simple_types@V?$array@H$03@std@@@std@@@std@@@std@@QEAA@PEAV?$array@H$03@1@PEBU_Container_base0@1@@Z ENDP ; std::_Vector_const_iterator<std::_Vector_val<std::_Simple_types<std::array<int,4> > > >::_Vector_const_iterator<std::_Vector_val<std::_Simple_types<std::array<int,4> > > >
_TEXT	ENDS
; Function compile flags: /Ogtpy
; File C:\Program Files\Microsoft Visual Studio\2022\Community\VC\Tools\MSVC\14.35.32215\include\vector
;	COMDAT ?_Getal@?$vector@V?$array@H$03@std@@V?$xalloc@V?$array@H$03@std@@@@@std@@AEAAAEAV?$xalloc@V?$array@H$03@std@@@@XZ
_TEXT	SEGMENT
this$ = 8
?_Getal@?$vector@V?$array@H$03@std@@V?$xalloc@V?$array@H$03@std@@@@@std@@AEAAAEAV?$xalloc@V?$array@H$03@std@@@@XZ PROC ; std::vector<std::array<int,4>,xalloc<std::array<int,4> > >::_Getal, COMDAT

; 2244 :         return _Mypair._Get_first();

	mov	rax, rcx

; 2245 :     }

	ret	0
?_Getal@?$vector@V?$array@H$03@std@@V?$xalloc@V?$array@H$03@std@@@@@std@@AEAAAEAV?$xalloc@V?$array@H$03@std@@@@XZ ENDP ; std::vector<std::array<int,4>,xalloc<std::array<int,4> > >::_Getal
_TEXT	ENDS
; Function compile flags: /Ogtpy
; File C:\Program Files\Microsoft Visual Studio\2022\Community\VC\Tools\MSVC\14.35.32215\include\vector
;	COMDAT ?clear@?$vector@V?$array@H$03@std@@V?$xalloc@V?$array@H$03@std@@@@@std@@QEAAXXZ
_TEXT	SEGMENT
this$ = 8
?clear@?$vector@V?$array@H$03@std@@V?$xalloc@V?$array@H$03@std@@@@@std@@QEAAXXZ PROC ; std::vector<std::array<int,4>,xalloc<std::array<int,4> > >::clear, COMDAT

; 1825 :         auto& _My_data    = _Mypair._Myval2;
; 1826 :         pointer& _Myfirst = _My_data._Myfirst;
; 1827 :         pointer& _Mylast  = _My_data._Mylast;
; 1828 : 
; 1829 :         if (_Myfirst == _Mylast) { // already empty, nothing to do

	mov	rax, QWORD PTR [rcx]
	cmp	rax, QWORD PTR [rcx+8]
	je	SHORT $LN1@clear

; 1830 :             // This is an optimization for debug mode: we can avoid taking the debug lock to invalidate iterators.
; 1831 :             // Note that when clearing an empty vector, this will preserve past-the-end iterators, which is allowed by
; 1832 :             // N4901 [tab:container.seq.req] "a.clear() [...] may invalidate the past-the-end iterator".
; 1833 :             return;
; 1834 :         }
; 1835 : 
; 1836 :         _My_data._Orphan_all();
; 1837 :         _Destroy_range(_Myfirst, _Mylast, _Getal());
; 1838 :         _ASAN_VECTOR_MODIFY(static_cast<difference_type>(_Myfirst - _Mylast)); // negative when destroying elements
; 1839 :         _Mylast = _Myfirst;

	mov	QWORD PTR [rcx+8], rax
$LN1@clear:

; 1840 :     }

	ret	0
?clear@?$vector@V?$array@H$03@std@@V?$xalloc@V?$array@H$03@std@@@@@std@@QEAAXXZ ENDP ; std::vector<std::array<int,4>,xalloc<std::array<int,4> > >::clear
_TEXT	ENDS
; Function compile flags: /Ogtpy
; File C:\Users\Mahito\Desktop\Night outing\Night-outing\src\xrCore\_stl_extensions.h
; File C:\Users\Mahito\Desktop\Night outing\Night-outing\src\xrCore\xrMemory.h
; File C:\Users\Mahito\Desktop\Night outing\Night-outing\src\xrCore\xrMemory_subst_msvc.cpp
; File C:\Users\Mahito\Desktop\Night outing\Night-outing\src\xrCore\_stl_extensions.h
;	COMDAT ?deallocate@?$xalloc@V?$array@H$03@std@@@@QEBAXPEAV?$array@H$03@std@@_K@Z
_TEXT	SEGMENT
this$dead$ = 8
p$ = 16
n$dead$ = 24
?deallocate@?$xalloc@V?$array@H$03@std@@@@QEBAXPEAV?$array@H$03@std@@_K@Z PROC ; xalloc<std::array<int,4> >::deallocate, COMDAT
; File C:\Users\Mahito\Desktop\Night outing\Night-outing\src\xrCore\xrMemory.h

; 69   : 	if (P)

	test	rdx, rdx
	je	SHORT $LN4@deallocate
; File C:\Users\Mahito\Desktop\Night outing\Night-outing\src\xrCore\xrMemory_subst_msvc.cpp

; 99   : 	stat_calls++;

	inc	DWORD PTR ?Memory@@3VxrMemory@@A

; 100  : 
; 101  : #ifdef PURE_ALLOC
; 102  : 	if (g_use_pure_alloc)
; 103  : 	{
; 104  : 		//free(P);
; 105  : 		_aligned_free(P);

	mov	rcx, rdx
	rex_jmp	QWORD PTR __imp__aligned_free
$LN4@deallocate:
; File C:\Users\Mahito\Desktop\Night outing\Night-outing\src\xrCore\_stl_extensions.h

; 83   : 							void					deallocate		(pointer p, size_type n) const			{	xr_free	(p);				}

	ret	0
?deallocate@?$xalloc@V?$array@H$03@std@@@@QEBAXPEAV?$array@H$03@std@@_K@Z ENDP ; xalloc<std::array<int,4> >::deallocate
_TEXT	ENDS
; Function compile flags: /Ogtpy
; File C:\Program Files\Microsoft Visual Studio\2022\Community\VC\Tools\MSVC\14.35.32215\include\vector
;	COMDAT ??Y?$_Vector_const_iterator@V?$_Vector_val@U?$_Simple_types@V?$array@H$03@std@@@std@@@std@@@std@@QEAAAEAV01@_J@Z
_TEXT	SEGMENT
this$ = 8
_Off$ = 16
??Y?$_Vector_const_iterator@V?$_Vector_val@U?$_Simple_types@V?$array@H$03@std@@@std@@@std@@@std@@QEAAAEAV01@_J@Z PROC ; std::_Vector_const_iterator<std::_Vector_val<std::_Simple_types<std::array<int,4> > > >::operator+=, COMDAT

; 118  :         _Verify_offset(_Off);
; 119  :         _Ptr += _Off;

	shl	rdx, 4

; 120  :         return *this;

	mov	rax, rcx
	add	QWORD PTR [rcx], rdx

; 121  :     }

	ret	0
??Y?$_Vector_const_iterator@V?$_Vector_val@U?$_Simple_types@V?$array@H$03@std@@@std@@@std@@@std@@QEAAAEAV01@_J@Z ENDP ; std::_Vector_const_iterator<std::_Vector_val<std::_Simple_types<std::array<int,4> > > >::operator+=
_TEXT	ENDS
; Function compile flags: /Ogtpy
; File C:\Program Files\Microsoft Visual Studio\2022\Community\VC\Tools\MSVC\14.35.32215\include\xmemory
;	COMDAT ?_Get_first@?$_Compressed_pair@V?$xalloc@V?$array@H$03@std@@@@V?$_Vector_val@U?$_Simple_types@V?$array@H$03@std@@@std@@@std@@$00@std@@QEAAAEAV?$xalloc@V?$array@H$03@std@@@@XZ
_TEXT	SEGMENT
this$ = 8
?_Get_first@?$_Compressed_pair@V?$xalloc@V?$array@H$03@std@@@@V?$_Vector_val@U?$_Simple_types@V?$array@H$03@std@@@std@@@std@@$00@std@@QEAAAEAV?$xalloc@V?$array@H$03@std@@@@XZ PROC ; std::_Compressed_pair<xalloc<std::array<int,4> >,std::_Vector_val<std::_Simple_types<std::array<int,4> > >,1>::_Get_first, COMDAT

; 1383 :         return *this;

	mov	rax, rcx

; 1384 :     }

	ret	0
?_Get_first@?$_Compressed_pair@V?$xalloc@V?$array@H$03@std@@@@V?$_Vector_val@U?$_Simple_types@V?$array@H$03@std@@@std@@@std@@$00@std@@QEAAAEAV?$xalloc@V?$array@H$03@std@@@@XZ ENDP ; std::_Compressed_pair<xalloc<std::array<int,4> >,std::_Vector_val<std::_Simple_types<std::array<int,4> > >,1>::_Get_first
_TEXT	ENDS
; Function compile flags: /Ogtpy
; File C:\Program Files\Microsoft Visual Studio\2022\Community\VC\Tools\MSVC\14.35.32215\include\vector
;	COMDAT ?_Verify_offset@?$_Vector_const_iterator@V?$_Vector_val@U?$_Simple_types@V?$array@H$03@std@@@std@@@std@@@std@@QEBAX_J@Z
_TEXT	SEGMENT
this$dead$ = 8
_Off$dead$ = 16
?_Verify_offset@?$_Vector_const_iterator@V?$_Vector_val@U?$_Simple_types@V?$array@H$03@std@@@std@@@std@@@std@@QEBAX_J@Z PROC ; std::_Vector_const_iterator<std::_Vector_val<std::_Simple_types<std::array<int,4> > > >::_Verify_offset, COMDAT

; 102  : #if _ITERATOR_DEBUG_LEVEL == 0
; 103  :         (void) _Off;
; 104  : #else // ^^^ _ITERATOR_DEBUG_LEVEL == 0 ^^^ // vvv _ITERATOR_DEBUG_LEVEL != 0 vvv
; 105  :         const auto _Mycont = static_cast<const _Myvec*>(this->_Getcont());
; 106  :         _STL_VERIFY(_Off == 0 || _Ptr, "cannot seek value-initialized vector iterator");
; 107  :         if (_Off < 0) {
; 108  :             _STL_VERIFY(_Off >= _Mycont->_Myfirst - _Ptr, "cannot seek vector iterator before begin");
; 109  :         }
; 110  : 
; 111  :         if (_Off > 0) {
; 112  :             _STL_VERIFY(_Off <= _Mycont->_Mylast - _Ptr, "cannot seek vector iterator after end");
; 113  :         }
; 114  : #endif // _ITERATOR_DEBUG_LEVEL == 0
; 115  :     }

	ret	0
?_Verify_offset@?$_Vector_const_iterator@V?$_Vector_val@U?$_Simple_types@V?$array@H$03@std@@@std@@@std@@@std@@QEBAX_J@Z ENDP ; std::_Vector_const_iterator<std::_Vector_val<std::_Simple_types<std::array<int,4> > > >::_Verify_offset
_TEXT	ENDS
; Function compile flags: /Ogtpy
; File C:\Program Files\Microsoft Visual Studio\2022\Community\VC\Tools\MSVC\14.35.32215\include\vector
; File C:\Users\Mahito\Desktop\Night outing\Night-outing\src\xrCore\_stl_extensions.h
; File C:\Program Files\Microsoft Visual Studio\2022\Community\VC\Tools\MSVC\14.35.32215\include\vector
;	COMDAT ??$_Emplace_one_at_back@AEBV?$array@H$03@std@@@?$vector@V?$array@H$03@std@@V?$xalloc@V?$array@H$03@std@@@@@std@@AEAAAEAV?$array@H$03@1@AEBV21@@Z
_TEXT	SEGMENT
this$ = 8
<_Val_0>$ = 16
??$_Emplace_one_at_back@AEBV?$array@H$03@std@@@?$vector@V?$array@H$03@std@@V?$xalloc@V?$array@H$03@std@@@@@std@@AEAAAEAV?$array@H$03@1@AEBV21@@Z PROC ; std::vector<std::array<int,4>,xalloc<std::array<int,4> > >::_Emplace_one_at_back<std::array<int,4> const &>, COMDAT

; 839  :     _CONSTEXPR20 _Ty& _Emplace_one_at_back(_Valty&&... _Val) {

	mov	r8, rdx
	mov	r9, rcx

; 840  :         // insert by perfectly forwarding into element at end, provide strong guarantee
; 841  :         auto& _My_data   = _Mypair._Myval2;
; 842  :         pointer& _Mylast = _My_data._Mylast;
; 843  : 
; 844  :         if (_Mylast != _My_data._Myend) {

	mov	rdx, QWORD PTR [rcx+8]
	cmp	rdx, QWORD PTR [rcx+16]
	je	SHORT $LN2@Emplace_on
; File C:\Users\Mahito\Desktop\Night outing\Night-outing\src\xrCore\_stl_extensions.h

; 85   : 							void					construct		(pointer p, const T& _Val)				{	::new(p) T(_Val);	}

	vmovups	xmm0, XMMWORD PTR [r8]
	vmovups	XMMWORD PTR [rdx], xmm0
; File C:\Program Files\Microsoft Visual Studio\2022\Community\VC\Tools\MSVC\14.35.32215\include\vector

; 868  :         _Ty& _Result = *_Mylast;

	mov	rax, QWORD PTR [rcx+8]

; 869  :         ++_Mylast;

	lea	rcx, QWORD PTR [rax+16]
	mov	QWORD PTR [r9+8], rcx

; 849  :     }

	ret	0
$LN2@Emplace_on:

; 845  :             return _Emplace_back_with_unused_capacity(_STD forward<_Valty>(_Val)...);
; 846  :         }
; 847  : 
; 848  :         return *_Emplace_reallocate(_Mylast, _STD forward<_Valty>(_Val)...);

	jmp	??$_Emplace_reallocate@AEBV?$array@H$03@std@@@?$vector@V?$array@H$03@std@@V?$xalloc@V?$array@H$03@std@@@@@std@@AEAAPEAV?$array@H$03@1@QEAV21@AEBV21@@Z ; std::vector<std::array<int,4>,xalloc<std::array<int,4> > >::_Emplace_reallocate<std::array<int,4> const &>
??$_Emplace_one_at_back@AEBV?$array@H$03@std@@@?$vector@V?$array@H$03@std@@V?$xalloc@V?$array@H$03@std@@@@@std@@AEAAAEAV?$array@H$03@1@AEBV21@@Z ENDP ; std::vector<std::array<int,4>,xalloc<std::array<int,4> > >::_Emplace_one_at_back<std::array<int,4> const &>
_TEXT	ENDS
; Function compile flags: /Ogtpy
; File C:\Program Files\Microsoft Visual Studio\2022\Community\VC\Tools\MSVC\14.35.32215\include\xmemory
;	COMDAT ??$_Destroy_range@V?$xalloc@V?$array@H$03@std@@@@@std@@YAXPEAV?$array@H$03@0@QEAV10@AEAV?$xalloc@V?$array@H$03@std@@@@@Z
_TEXT	SEGMENT
_First$dead$ = 8
_Last$dead$ = 16
_Al$dead$ = 24
??$_Destroy_range@V?$xalloc@V?$array@H$03@std@@@@@std@@YAXPEAV?$array@H$03@0@QEAV10@AEAV?$xalloc@V?$array@H$03@std@@@@@Z PROC ; std::_Destroy_range<xalloc<std::array<int,4> > >, COMDAT

; 943  :     // note that this is an optimization for debug mode codegen; in release mode the BE removes all of this
; 944  :     using _Ty = typename _Alloc::value_type;
; 945  :     if constexpr (!conjunction_v<is_trivially_destructible<_Ty>, _Uses_default_destroy<_Alloc, _Ty*>>) {
; 946  :         for (; _First != _Last; ++_First) {
; 947  :             allocator_traits<_Alloc>::destroy(_Al, _Unfancy(_First));
; 948  :         }
; 949  :     }
; 950  : }

	ret	0
??$_Destroy_range@V?$xalloc@V?$array@H$03@std@@@@@std@@YAXPEAV?$array@H$03@0@QEAV10@AEAV?$xalloc@V?$array@H$03@std@@@@@Z ENDP ; std::_Destroy_range<xalloc<std::array<int,4> > >
_TEXT	ENDS
; Function compile flags: /Ogtpy
; File C:\Program Files\Microsoft Visual Studio\2022\Community\VC\Tools\MSVC\14.35.32215\include\xstddef
;	COMDAT ??$addressof@V?$_Vector_val@U?$_Simple_types@V?$array@H$03@std@@@std@@@std@@@std@@YAPEAV?$_Vector_val@U?$_Simple_types@V?$array@H$03@std@@@std@@@0@AEAV10@@Z
_TEXT	SEGMENT
_Val$ = 8
??$addressof@V?$_Vector_val@U?$_Simple_types@V?$array@H$03@std@@@std@@@std@@@std@@YAPEAV?$_Vector_val@U?$_Simple_types@V?$array@H$03@std@@@std@@@0@AEAV10@@Z PROC ; std::addressof<std::_Vector_val<std::_Simple_types<std::array<int,4> > > >, COMDAT

; 281  :     return __builtin_addressof(_Val);

	mov	rax, rcx

; 282  : }

	ret	0
??$addressof@V?$_Vector_val@U?$_Simple_types@V?$array@H$03@std@@@std@@@std@@@std@@YAPEAV?$_Vector_val@U?$_Simple_types@V?$array@H$03@std@@@std@@@0@AEAV10@@Z ENDP ; std::addressof<std::_Vector_val<std::_Simple_types<std::array<int,4> > > >
_TEXT	ENDS
; Function compile flags: /Ogtpy
; File C:\Program Files\Microsoft Visual Studio\2022\Community\VC\Tools\MSVC\14.35.32215\include\xmemory
; File C:\Program Files\Microsoft Visual Studio\2022\Community\VC\Tools\MSVC\14.35.32215\include\vector
; File C:\Program Files\Microsoft Visual Studio\2022\Community\VC\Tools\MSVC\14.35.32215\include\xmemory
;	COMDAT ??$?0$$V@?$_Compressed_pair@V?$xalloc@V?$array@H$03@std@@@@V?$_Vector_val@U?$_Simple_types@V?$array@H$03@std@@@std@@@std@@$00@std@@QEAA@U_Zero_then_variadic_args_t@1@@Z
_TEXT	SEGMENT
this$ = 8
__formal$dead$ = 16
??$?0$$V@?$_Compressed_pair@V?$xalloc@V?$array@H$03@std@@@@V?$_Vector_val@U?$_Simple_types@V?$array@H$03@std@@@std@@@std@@$00@std@@QEAA@U_Zero_then_variadic_args_t@1@@Z PROC ; std::_Compressed_pair<xalloc<std::array<int,4> >,std::_Vector_val<std::_Simple_types<std::array<int,4> > >,1>::_Compressed_pair<xalloc<std::array<int,4> >,std::_Vector_val<std::_Simple_types<std::array<int,4> > >,1><>, COMDAT
; File C:\Program Files\Microsoft Visual Studio\2022\Community\VC\Tools\MSVC\14.35.32215\include\vector

; 390  :     _CONSTEXPR20 _Vector_val() noexcept : _Myfirst(), _Mylast(), _Myend() {}

	xor	eax, eax
	mov	QWORD PTR [rcx], rax
	mov	QWORD PTR [rcx+8], rax
	mov	QWORD PTR [rcx+16], rax
; File C:\Program Files\Microsoft Visual Studio\2022\Community\VC\Tools\MSVC\14.35.32215\include\xmemory

; 1375 :         : _Ty1(), _Myval2(_STD forward<_Other2>(_Val2)...) {}

	mov	rax, rcx
	ret	0
??$?0$$V@?$_Compressed_pair@V?$xalloc@V?$array@H$03@std@@@@V?$_Vector_val@U?$_Simple_types@V?$array@H$03@std@@@std@@@std@@$00@std@@QEAA@U_Zero_then_variadic_args_t@1@@Z ENDP ; std::_Compressed_pair<xalloc<std::array<int,4> >,std::_Vector_val<std::_Simple_types<std::array<int,4> > >,1>::_Compressed_pair<xalloc<std::array<int,4> >,std::_Vector_val<std::_Simple_types<std::array<int,4> > >,1><>
_TEXT	ENDS
; Function compile flags: /Ogtpy
; File C:\Users\Mahito\Desktop\Night outing\Night-outing\src\xrCore\xrMemory.h
; File C:\Users\Mahito\Desktop\Night outing\Night-outing\src\xrCore\xrMemory_subst_msvc.cpp
; File C:\Users\Mahito\Desktop\Night outing\Night-outing\src\xrCore\xrMemory.h
;	COMDAT ??$xr_free@V?$array@H$03@std@@@@YAXAEAPEAV?$array@H$03@std@@@Z
_TEXT	SEGMENT
P$ = 48
??$xr_free@V?$array@H$03@std@@@@YAXAEAPEAV?$array@H$03@std@@@Z PROC ; xr_free<std::array<int,4> >, COMDAT

; 68   : {

$LN24:
	push	rbx
	sub	rsp, 32					; 00000020H
	mov	rbx, rcx

; 69   : 	if (P)

	mov	rcx, QWORD PTR [rcx]
	test	rcx, rcx
	je	SHORT $LN2@xr_free
; File C:\Users\Mahito\Desktop\Night outing\Night-outing\src\xrCore\xrMemory_subst_msvc.cpp

; 99   : 	stat_calls++;

	inc	DWORD PTR ?Memory@@3VxrMemory@@A

; 100  : 
; 101  : #ifdef PURE_ALLOC
; 102  : 	if (g_use_pure_alloc)
; 103  : 	{
; 104  : 		//free(P);
; 105  : 		_aligned_free(P);

	call	QWORD PTR __imp__aligned_free
; File C:\Users\Mahito\Desktop\Night outing\Night-outing\src\xrCore\xrMemory.h

; 72   : 		P = NULL;

	mov	QWORD PTR [rbx], 0
$LN2@xr_free:

; 73   : 	};
; 74   : }

	add	rsp, 32					; 00000020H
	pop	rbx
	ret	0
??$xr_free@V?$array@H$03@std@@@@YAXAEAPEAV?$array@H$03@std@@@Z ENDP ; xr_free<std::array<int,4> >
_TEXT	ENDS
; Function compile flags: /Ogtpy
; File C:\Program Files\Microsoft Visual Studio\2022\Community\VC\Tools\MSVC\14.35.32215\include\vector
;	COMDAT ??0?$_Vector_val@U?$_Simple_types@V?$array@H$03@std@@@std@@@std@@QEAA@XZ
_TEXT	SEGMENT
this$ = 8
??0?$_Vector_val@U?$_Simple_types@V?$array@H$03@std@@@std@@@std@@QEAA@XZ PROC ; std::_Vector_val<std::_Simple_types<std::array<int,4> > >::_Vector_val<std::_Simple_types<std::array<int,4> > >, COMDAT

; 390  :     _CONSTEXPR20 _Vector_val() noexcept : _Myfirst(), _Mylast(), _Myend() {}

	xor	eax, eax
	mov	QWORD PTR [rcx], rax
	mov	QWORD PTR [rcx+8], rax
	mov	QWORD PTR [rcx+16], rax
	mov	rax, rcx
	ret	0
??0?$_Vector_val@U?$_Simple_types@V?$array@H$03@std@@@std@@@std@@QEAA@XZ ENDP ; std::_Vector_val<std::_Simple_types<std::array<int,4> > >::_Vector_val<std::_Simple_types<std::array<int,4> > >
_TEXT	ENDS
; Function compile flags: /Ogtpy
; File C:\Users\Mahito\Desktop\Night outing\Night-outing\src\xrCore\_stl_extensions.h
;	COMDAT ??0?$xalloc@V?$array@H$03@std@@@@QEAA@XZ
_TEXT	SEGMENT
this$ = 8
??0?$xalloc@V?$array@H$03@std@@@@QEAA@XZ PROC		; xalloc<std::array<int,4> >::xalloc<std::array<int,4> >, COMDAT

; 77   : 													xalloc			()										{	}

	mov	rax, rcx
	ret	0
??0?$xalloc@V?$array@H$03@std@@@@QEAA@XZ ENDP		; xalloc<std::array<int,4> >::xalloc<std::array<int,4> >
_TEXT	ENDS
; Function compile flags: /Ogtpy
; File C:\Program Files\Microsoft Visual Studio\2022\Community\VC\Tools\MSVC\14.35.32215\include\type_traits
;	COMDAT ??$forward@AEBV?$array@H$03@std@@@std@@YAAEBV?$array@H$03@0@AEBV10@@Z
_TEXT	SEGMENT
_Arg$ = 8
??$forward@AEBV?$array@H$03@std@@@std@@YAAEBV?$array@H$03@0@AEBV10@@Z PROC ; std::forward<std::array<int,4> const &>, COMDAT

; 1427 :     return static_cast<_Ty&&>(_Arg);

	mov	rax, rcx

; 1428 : }

	ret	0
??$forward@AEBV?$array@H$03@std@@@std@@YAAEBV?$array@H$03@0@AEBV10@@Z ENDP ; std::forward<std::array<int,4> const &>
_TEXT	ENDS
; Function compile flags: /Ogtpy
; File C:\Program Files\Microsoft Visual Studio\2022\Community\VC\Tools\MSVC\14.35.32215\include\vector
; File C:\Users\Mahito\Desktop\Night outing\Night-outing\src\xrCore\_stl_extensions.h
; File C:\Program Files\Microsoft Visual Studio\2022\Community\VC\Tools\MSVC\14.35.32215\include\vector
;	COMDAT ??$_Emplace_back_with_unused_capacity@AEBV?$array@H$03@std@@@?$vector@V?$array@H$03@std@@V?$xalloc@V?$array@H$03@std@@@@@std@@AEAAAEAV?$array@H$03@1@AEBV21@@Z
_TEXT	SEGMENT
this$ = 8
<_Val_0>$ = 16
??$_Emplace_back_with_unused_capacity@AEBV?$array@H$03@std@@@?$vector@V?$array@H$03@std@@V?$xalloc@V?$array@H$03@std@@@@@std@@AEAAAEAV?$array@H$03@1@AEBV21@@Z PROC ; std::vector<std::array<int,4>,xalloc<std::array<int,4> > >::_Emplace_back_with_unused_capacity<std::array<int,4> const &>, COMDAT

; 853  :         // insert by perfectly forwarding into element at end, provide strong guarantee
; 854  :         auto& _My_data   = _Mypair._Myval2;
; 855  :         pointer& _Mylast = _My_data._Mylast;
; 856  :         _STL_INTERNAL_CHECK(_Mylast != _My_data._Myend); // check that we have unused capacity
; 857  :         if constexpr (conjunction_v<is_nothrow_constructible<_Ty, _Valty...>,
; 858  :                           _Uses_default_construct<_Alloc, _Ty*, _Valty...>>) {
; 859  :             _ASAN_VECTOR_MODIFY(1);
; 860  :             _Construct_in_place(*_Mylast, _STD forward<_Valty>(_Val)...);
; 861  :         } else {
; 862  :             _ASAN_VECTOR_EXTEND_GUARD(static_cast<size_type>(_Mylast - _My_data._Myfirst) + 1);
; 863  :             _Alty_traits::construct(_Getal(), _Unfancy(_Mylast), _STD forward<_Valty>(_Val)...);

	mov	rax, QWORD PTR [rcx+8]
; File C:\Users\Mahito\Desktop\Night outing\Night-outing\src\xrCore\_stl_extensions.h

; 85   : 							void					construct		(pointer p, const T& _Val)				{	::new(p) T(_Val);	}

	vmovups	xmm0, XMMWORD PTR [rdx]
	vmovups	XMMWORD PTR [rax], xmm0
; File C:\Program Files\Microsoft Visual Studio\2022\Community\VC\Tools\MSVC\14.35.32215\include\vector

; 868  :         _Ty& _Result = *_Mylast;

	mov	rax, QWORD PTR [rcx+8]

; 869  :         ++_Mylast;

	lea	rdx, QWORD PTR [rax+16]
	mov	QWORD PTR [rcx+8], rdx

; 870  : 
; 871  :         return _Result;
; 872  :     }

	ret	0
??$_Emplace_back_with_unused_capacity@AEBV?$array@H$03@std@@@?$vector@V?$array@H$03@std@@V?$xalloc@V?$array@H$03@std@@@@@std@@AEAAAEAV?$array@H$03@1@AEBV21@@Z ENDP ; std::vector<std::array<int,4>,xalloc<std::array<int,4> > >::_Emplace_back_with_unused_capacity<std::array<int,4> const &>
_TEXT	ENDS
; Function compile flags: /Ogtpy
; File C:\Program Files\Microsoft Visual Studio\2022\Community\VC\Tools\MSVC\14.35.32215\include\vector
; File C:\Users\Mahito\Desktop\Night outing\Night-outing\src\xrCore\xrMemory.h
; File C:\Users\Mahito\Desktop\Night outing\Night-outing\src\xrCore\xrMemory_subst_msvc.cpp
; File C:\Program Files\Microsoft Visual Studio\2022\Community\VC\Tools\MSVC\14.35.32215\include\vector
; File C:\Users\Mahito\Desktop\Night outing\Night-outing\src\xrCore\_stl_extensions.h
; File C:\Program Files\Microsoft Visual Studio\2022\Community\VC\Tools\MSVC\14.35.32215\include\vector
; File C:\Program Files\Microsoft Visual Studio\2022\Community\VC\Tools\MSVC\14.35.32215\include\xmemory
; File C:\Users\Mahito\Desktop\Night outing\Night-outing\src\xrCore\_stl_extensions.h
; File C:\Program Files\Microsoft Visual Studio\2022\Community\VC\Tools\MSVC\14.35.32215\include\xmemory
; File C:\Program Files\Microsoft Visual Studio\2022\Community\VC\Tools\MSVC\14.35.32215\include\vector
; File C:\Program Files\Microsoft Visual Studio\2022\Community\VC\Tools\MSVC\14.35.32215\include\xmemory
; File C:\Users\Mahito\Desktop\Night outing\Night-outing\src\xrCore\_stl_extensions.h
; File C:\Program Files\Microsoft Visual Studio\2022\Community\VC\Tools\MSVC\14.35.32215\include\xmemory
; File C:\Program Files\Microsoft Visual Studio\2022\Community\VC\Tools\MSVC\14.35.32215\include\vector
; File C:\Program Files\Microsoft Visual Studio\2022\Community\VC\Tools\MSVC\14.35.32215\include\xmemory
; File C:\Users\Mahito\Desktop\Night outing\Night-outing\src\xrCore\_stl_extensions.h
; File C:\Program Files\Microsoft Visual Studio\2022\Community\VC\Tools\MSVC\14.35.32215\include\xmemory
; File C:\Program Files\Microsoft Visual Studio\2022\Community\VC\Tools\MSVC\14.35.32215\include\vector
; File C:\Users\Mahito\Desktop\Night outing\Night-outing\src\xrCore\xrMemory_subst_msvc.cpp
; File C:\Program Files\Microsoft Visual Studio\2022\Community\VC\Tools\MSVC\14.35.32215\include\vector
;	COMDAT ??$_Emplace_reallocate@AEBV?$array@H$03@std@@@?$vector@V?$array@H$03@std@@V?$xalloc@V?$array@H$03@std@@@@@std@@AEAAPEAV?$array@H$03@1@QEAV21@AEBV21@@Z
_TEXT	SEGMENT
_UFirst$1 = 32
_UFirst$2 = 40
_UFirst$3 = 48
_Backout$4 = 56
_Backout$5 = 80
_Backout$6 = 104
_Newvec$ = 176
this$ = 176
_Whereptr$ = 184
<_Val_0>$ = 192
??$_Emplace_reallocate@AEBV?$array@H$03@std@@@?$vector@V?$array@H$03@std@@V?$xalloc@V?$array@H$03@std@@@@@std@@AEAAPEAV?$array@H$03@1@QEAV21@AEBV21@@Z PROC ; std::vector<std::array<int,4>,xalloc<std::array<int,4> > >::_Emplace_reallocate<std::array<int,4> const &>, COMDAT

; 875  :     _CONSTEXPR20 pointer _Emplace_reallocate(const pointer _Whereptr, _Valty&&... _Val) {

$LN139:
	mov	QWORD PTR [rsp+16], rbx
	mov	QWORD PTR [rsp+32], rsi
	mov	QWORD PTR [rsp+24], r8
	push	rdi
	push	r12
	push	r13
	push	r14
	push	r15
	sub	rsp, 128				; 00000080H
	mov	rbx, rdx
	mov	r15, rcx

; 876  :         // reallocate and insert by perfectly forwarding _Val at _Whereptr
; 877  :         _Alty& _Al        = _Getal();
; 878  :         auto& _My_data    = _Mypair._Myval2;
; 879  :         pointer& _Myfirst = _My_data._Myfirst;
; 880  :         pointer& _Mylast  = _My_data._Mylast;
; 881  : 
; 882  :         _STL_INTERNAL_CHECK(_Mylast == _My_data._Myend); // check that we have no unused capacity
; 883  : 
; 884  :         const auto _Whereoff = static_cast<size_type>(_Whereptr - _Myfirst);

	mov	rdx, QWORD PTR [rcx]
	mov	r12, rbx
	sub	r12, rdx

; 885  :         const auto _Oldsize  = static_cast<size_type>(_Mylast - _Myfirst);

	mov	rax, QWORD PTR [rcx+8]
	sub	rax, rdx
	sar	rax, 4

; 886  : 
; 887  :         if (_Oldsize == max_size()) {

	mov	rsi, 1152921504606846975		; 0fffffffffffffffH
	cmp	rax, rsi
	je	$LN138@Emplace_re

; 889  :         }
; 890  : 
; 891  :         const size_type _Newsize     = _Oldsize + 1;

	lea	r13, QWORD PTR [rax+1]

; 1942 :         return static_cast<size_type>(_My_data._Myend - _My_data._Myfirst);

	mov	rcx, QWORD PTR [rcx+16]
	sub	rcx, rdx
	sar	rcx, 4

; 2029 :         if (_Oldcapacity > _Max - _Oldcapacity / 2) {

	mov	rdx, rcx
	shr	rdx, 1
	mov	rax, rsi
	sub	rax, rdx
	cmp	rcx, rax
	ja	SHORT $LN13@Emplace_re

; 2030 :             return _Max; // geometric growth would overflow
; 2031 :         }
; 2032 : 
; 2033 :         const size_type _Geometric = _Oldcapacity + _Oldcapacity / 2;

	lea	rsi, QWORD PTR [rdx+rcx]

; 2034 : 
; 2035 :         if (_Geometric < _Newsize) {

	cmp	rsi, r13
	cmovb	rsi, r13
$LN13@Emplace_re:
; File C:\Users\Mahito\Desktop\Night outing\Night-outing\src\xrCore\xrMemory.h

; 64   : IC T* xr_alloc(u32 count) { return (T*)Memory.mem_alloc(count * sizeof(T)); }

	mov	r14d, esi
	shl	r14, 4
; File C:\Users\Mahito\Desktop\Night outing\Night-outing\src\xrCore\xrMemory_subst_msvc.cpp

; 39   : 	stat_calls++;

	inc	DWORD PTR ?Memory@@3VxrMemory@@A

; 40   : 
; 41   : #ifdef PURE_ALLOC
; 42   : 	if (g_use_pure_alloc)
; 43   : 	{
; 44   : 		//void* result = malloc(size);
; 45   : 		void* result = _aligned_malloc(size, PURE_MEMORY_ALIGNMENT);

	mov	edx, 16
	mov	rcx, r14
	call	QWORD PTR __imp__aligned_malloc
	mov	rdi, rax

; 46   : #ifdef PURE_MEMORY_FILL_ZERO
; 47   : 		if (result)

	test	rax, rax
	je	SHORT $LN23@Emplace_re

; 48   : 			memset(result, 0, size);

	mov	r8, r14
	xor	edx, edx
	mov	rcx, rax
	call	memset
$LN23@Emplace_re:
; File C:\Program Files\Microsoft Visual Studio\2022\Community\VC\Tools\MSVC\14.35.32215\include\vector

; 894  :         const pointer _Newvec           = _Al.allocate(_Newcapacity);

	mov	QWORD PTR _Newvec$[rsp], rdi

; 895  :         const pointer _Constructed_last = _Newvec + _Whereoff + 1;
; 896  :         pointer _Constructed_first      = _Constructed_last;
; 897  : 
; 898  :         _TRY_BEGIN
; 899  :         _Alty_traits::construct(_Al, _Unfancy(_Newvec + _Whereoff), _STD forward<_Valty>(_Val)...);

	and	r12, -16
	lea	r14, QWORD PTR [r12+rdi]
; File C:\Users\Mahito\Desktop\Night outing\Night-outing\src\xrCore\_stl_extensions.h

; 85   : 							void					construct		(pointer p, const T& _Val)				{	::new(p) T(_Val);	}

	mov	rax, QWORD PTR <_Val_0>$[rsp]
	vmovups	xmm0, XMMWORD PTR [rax]
	vmovups	XMMWORD PTR [r14], xmm0
; File C:\Program Files\Microsoft Visual Studio\2022\Community\VC\Tools\MSVC\14.35.32215\include\vector

; 902  :         if (_Whereptr == _Mylast) { // at back, provide strong guarantee

	mov	r8, QWORD PTR [r15+8]
	mov	rax, QWORD PTR [r15]
	mov	rcx, rdi
	cmp	rbx, r8
	jne	SHORT $LN4@Emplace_re
; File C:\Program Files\Microsoft Visual Studio\2022\Community\VC\Tools\MSVC\14.35.32215\include\xmemory

; 1789 :     auto _UFirst      = _Get_unwrapped(_First);

	mov	QWORD PTR _UFirst$1[rsp], rax

; 1649 :     _CONSTEXPR20 _Uninitialized_backout_al(pointer _Dest, _Alloc& _Al_) : _First(_Dest), _Last(_Dest), _Al(_Al_) {}

	mov	QWORD PTR _Backout$4[rsp], rdi
	mov	QWORD PTR _Backout$4[rsp+8], rcx
	mov	QWORD PTR _Backout$4[rsp+16], r15

; 1803 :     for (; _UFirst != _ULast; ++_UFirst) {

	mov	rdx, rdi
	npad	2
$LL84@Emplace_re:
	cmp	rax, r8
	je	SHORT $LN83@Emplace_re
; File C:\Users\Mahito\Desktop\Night outing\Night-outing\src\xrCore\_stl_extensions.h

; 85   : 							void					construct		(pointer p, const T& _Val)				{	::new(p) T(_Val);	}

	vmovups	xmm0, XMMWORD PTR [rax]
	vmovups	XMMWORD PTR [rdx], xmm0
	lea	rcx, QWORD PTR [rdx+16]
; File C:\Program Files\Microsoft Visual Studio\2022\Community\VC\Tools\MSVC\14.35.32215\include\xmemory

; 1661 :         ++_Last;

	mov	QWORD PTR _Backout$4[rsp+8], rcx

; 1803 :     for (; _UFirst != _ULast; ++_UFirst) {

	add	rax, 16
	mov	QWORD PTR _UFirst$1[rsp], rax
	mov	rdx, rcx
	jmp	SHORT $LL84@Emplace_re
$LN83@Emplace_re:

; 1665 :         _First = _Last;

	mov	QWORD PTR _Backout$4[rsp], rcx
; File C:\Program Files\Microsoft Visual Studio\2022\Community\VC\Tools\MSVC\14.35.32215\include\vector

; 908  :         } else { // provide basic guarantee

	jmp	$LN5@Emplace_re
$LN4@Emplace_re:
; File C:\Program Files\Microsoft Visual Studio\2022\Community\VC\Tools\MSVC\14.35.32215\include\xmemory

; 1789 :     auto _UFirst      = _Get_unwrapped(_First);

	mov	QWORD PTR _UFirst$2[rsp], rax

; 1649 :     _CONSTEXPR20 _Uninitialized_backout_al(pointer _Dest, _Alloc& _Al_) : _First(_Dest), _Last(_Dest), _Al(_Al_) {}

	mov	QWORD PTR _Backout$5[rsp], rdi
	mov	QWORD PTR _Backout$5[rsp+8], rcx
	mov	QWORD PTR _Backout$5[rsp+16], r15

; 1803 :     for (; _UFirst != _ULast; ++_UFirst) {

	mov	rdx, rdi
$LL99@Emplace_re:
	cmp	rax, rbx
	je	SHORT $LN98@Emplace_re
; File C:\Users\Mahito\Desktop\Night outing\Night-outing\src\xrCore\_stl_extensions.h

; 85   : 							void					construct		(pointer p, const T& _Val)				{	::new(p) T(_Val);	}

	vmovups	xmm0, XMMWORD PTR [rax]
	vmovups	XMMWORD PTR [rdx], xmm0
	lea	rcx, QWORD PTR [rdx+16]
; File C:\Program Files\Microsoft Visual Studio\2022\Community\VC\Tools\MSVC\14.35.32215\include\xmemory

; 1661 :         ++_Last;

	mov	QWORD PTR _Backout$5[rsp+8], rcx

; 1803 :     for (; _UFirst != _ULast; ++_UFirst) {

	add	rax, 16
	mov	QWORD PTR _UFirst$2[rsp], rax
	mov	rdx, rcx
	jmp	SHORT $LL99@Emplace_re
$LN98@Emplace_re:

; 1665 :         _First = _Last;

	mov	QWORD PTR _Backout$5[rsp], rcx
; File C:\Program Files\Microsoft Visual Studio\2022\Community\VC\Tools\MSVC\14.35.32215\include\vector

; 911  :             _Uninitialized_move(_Whereptr, _Mylast, _Newvec + _Whereoff + 1, _Al);

	lea	rax, QWORD PTR [r14+16]
	mov	rdx, QWORD PTR [r15+8]
; File C:\Program Files\Microsoft Visual Studio\2022\Community\VC\Tools\MSVC\14.35.32215\include\xmemory

; 1789 :     auto _UFirst      = _Get_unwrapped(_First);

	mov	QWORD PTR _UFirst$3[rsp], rbx

; 1649 :     _CONSTEXPR20 _Uninitialized_backout_al(pointer _Dest, _Alloc& _Al_) : _First(_Dest), _Last(_Dest), _Al(_Al_) {}

	mov	QWORD PTR _Backout$6[rsp], rax
	mov	QWORD PTR _Backout$6[rsp+8], rax
	mov	QWORD PTR _Backout$6[rsp+16], r15
$LN136@Emplace_re:

; 1803 :     for (; _UFirst != _ULast; ++_UFirst) {

	mov	rcx, rax
	cmp	rbx, rdx
	je	SHORT $LN113@Emplace_re
; File C:\Users\Mahito\Desktop\Night outing\Night-outing\src\xrCore\_stl_extensions.h

; 85   : 							void					construct		(pointer p, const T& _Val)				{	::new(p) T(_Val);	}

	vmovups	xmm0, XMMWORD PTR [rbx]
	vmovups	XMMWORD PTR [rax], xmm0
	lea	rax, QWORD PTR [rax+16]
; File C:\Program Files\Microsoft Visual Studio\2022\Community\VC\Tools\MSVC\14.35.32215\include\xmemory

; 1661 :         ++_Last;

	mov	QWORD PTR _Backout$6[rsp+8], rax

; 1803 :     for (; _UFirst != _ULast; ++_UFirst) {

	add	rbx, 16
	mov	QWORD PTR _UFirst$3[rsp], rbx
	jmp	SHORT $LN136@Emplace_re
$LN113@Emplace_re:

; 1665 :         _First = _Last;

	mov	QWORD PTR _Backout$6[rsp], rax
$LN5@Emplace_re:
; File C:\Program Files\Microsoft Visual Studio\2022\Community\VC\Tools\MSVC\14.35.32215\include\vector

; 2086 :         if (_Myfirst) { // destroy and deallocate old array

	mov	rcx, QWORD PTR [r15]
	test	rcx, rcx
	je	SHORT $LN60@Emplace_re
; File C:\Users\Mahito\Desktop\Night outing\Night-outing\src\xrCore\xrMemory_subst_msvc.cpp

; 99   : 	stat_calls++;

	inc	DWORD PTR ?Memory@@3VxrMemory@@A

; 100  : 
; 101  : #ifdef PURE_ALLOC
; 102  : 	if (g_use_pure_alloc)
; 103  : 	{
; 104  : 		//free(P);
; 105  : 		_aligned_free(P);

	call	QWORD PTR __imp__aligned_free
$LN60@Emplace_re:
; File C:\Program Files\Microsoft Visual Studio\2022\Community\VC\Tools\MSVC\14.35.32215\include\vector

; 2092 :         _Myfirst = _Newvec;

	mov	QWORD PTR [r15], rdi

; 2093 :         _Mylast  = _Newvec + _Newsize;

	shl	r13, 4
	add	r13, rdi
	mov	QWORD PTR [r15+8], r13

; 2094 :         _Myend   = _Newvec + _Newcapacity;

	shl	rsi, 4
	add	rsi, rdi
	mov	QWORD PTR [r15+16], rsi

; 912  :         }
; 913  :         _CATCH_ALL
; 914  :         _Destroy_range(_Constructed_first, _Constructed_last, _Al);
; 915  :         _Al.deallocate(_Newvec, _Newcapacity);
; 916  :         _RERAISE;
; 917  :         _CATCH_END
; 918  : 
; 919  :         _Change_array(_Newvec, _Newsize, _Newcapacity);
; 920  :         return _Newvec + _Whereoff;

	mov	rax, r14

; 921  :     }

	lea	r11, QWORD PTR [rsp+128]
	mov	rbx, QWORD PTR [r11+56]
	mov	rsi, QWORD PTR [r11+72]
	mov	rsp, r11
	pop	r15
	pop	r14
	pop	r13
	pop	r12
	pop	rdi
	ret	0
$LN138@Emplace_re:

; 888  :             _Xlength();

	call	?_Xlength@?$vector@V?$array@H$03@std@@V?$xalloc@V?$array@H$03@std@@@@@std@@CAXXZ ; std::vector<std::array<int,4>,xalloc<std::array<int,4> > >::_Xlength
	int	3
$LN135@Emplace_re:
??$_Emplace_reallocate@AEBV?$array@H$03@std@@@?$vector@V?$array@H$03@std@@V?$xalloc@V?$array@H$03@std@@@@@std@@AEAAPEAV?$array@H$03@1@QEAV21@AEBV21@@Z ENDP ; std::vector<std::array<int,4>,xalloc<std::array<int,4> > >::_Emplace_reallocate<std::array<int,4> const &>
_TEXT	ENDS
; Function compile flags: /Ogtpy
;	COMDAT text$x
text$x	SEGMENT
_UFirst$1 = 32
_UFirst$2 = 40
_UFirst$3 = 48
_Backout$4 = 56
_Backout$5 = 80
_Backout$6 = 104
_Newvec$ = 176
this$ = 176
_Whereptr$ = 184
<_Val_0>$ = 192
?catch$0@?0???$_Emplace_reallocate@AEBV?$array@H$03@std@@@?$vector@V?$array@H$03@std@@V?$xalloc@V?$array@H$03@std@@@@@std@@AEAAPEAV?$array@H$03@1@QEAV21@AEBV21@@Z@4HA PROC ; `std::vector<std::array<int,4>,xalloc<std::array<int,4> > >::_Emplace_reallocate<std::array<int,4> const &>'::`1'::catch$0

; 913  :         _CATCH_ALL

	mov	QWORD PTR [rsp+16], rdx
	push	rbp
	sub	rsp, 32					; 00000020H
	mov	rbp, rdx
__catch$??$_Emplace_reallocate@AEBV?$array@H$03@std@@@?$vector@V?$array@H$03@std@@V?$xalloc@V?$array@H$03@std@@@@@std@@AEAAPEAV?$array@H$03@1@QEAV21@AEBV21@@Z$0:

; 914  :         _Destroy_range(_Constructed_first, _Constructed_last, _Al);
; 915  :         _Al.deallocate(_Newvec, _Newcapacity);

	mov	rdx, QWORD PTR _Newvec$[rbp]
	call	?deallocate@?$xalloc@V?$array@H$03@std@@@@QEBAXPEAV?$array@H$03@std@@_K@Z ; xalloc<std::array<int,4> >::deallocate

; 916  :         _RERAISE;

	xor	edx, edx
	xor	ecx, ecx
	call	_CxxThrowException
	npad	1
?catch$0@?0???$_Emplace_reallocate@AEBV?$array@H$03@std@@@?$vector@V?$array@H$03@std@@V?$xalloc@V?$array@H$03@std@@@@@std@@AEAAPEAV?$array@H$03@1@QEAV21@AEBV21@@Z@4HA ENDP ; `std::vector<std::array<int,4>,xalloc<std::array<int,4> > >::_Emplace_reallocate<std::array<int,4> const &>'::`1'::catch$0
text$x	ENDS
; Function compile flags: /Ogtpy
; File C:\Program Files\Microsoft Visual Studio\2022\Community\VC\Tools\MSVC\14.35.32215\include\xstddef
;	COMDAT ??$_Unfancy@V?$array@H$03@std@@@std@@YAPEAV?$array@H$03@0@PEAV10@@Z
_TEXT	SEGMENT
_Ptr$ = 8
??$_Unfancy@V?$array@H$03@std@@@std@@YAPEAV?$array@H$03@0@PEAV10@@Z PROC ; std::_Unfancy<std::array<int,4> >, COMDAT

; 294  :     return _Ptr;

	mov	rax, rcx

; 295  : }

	ret	0
??$_Unfancy@V?$array@H$03@std@@@std@@YAPEAV?$array@H$03@0@PEAV10@@Z ENDP ; std::_Unfancy<std::array<int,4> >
_TEXT	ENDS
; Function compile flags: /Ogtpy
; File C:\Program Files\Microsoft Visual Studio\2022\Community\VC\Tools\MSVC\14.35.32215\include\xmemory
;	COMDAT ??$destroy@V?$array@H$03@std@@@?$_Normal_allocator_traits@V?$xalloc@V?$array@H$03@std@@@@@std@@SAXAEAV?$xalloc@V?$array@H$03@std@@@@PEAV?$array@H$03@1@@Z
_TEXT	SEGMENT
_Al$dead$ = 8
_Ptr$dead$ = 16
??$destroy@V?$array@H$03@std@@@?$_Normal_allocator_traits@V?$xalloc@V?$array@H$03@std@@@@@std@@SAXAEAV?$xalloc@V?$array@H$03@std@@@@PEAV?$array@H$03@1@@Z PROC ; std::_Normal_allocator_traits<xalloc<std::array<int,4> > >::destroy<std::array<int,4> >, COMDAT

; 578  :         if constexpr (_Uses_default_destroy<_Alloc, _Ty*>::value) {
; 579  : #if _HAS_CXX20
; 580  :             _STD destroy_at(_Ptr);
; 581  : #else // _HAS_CXX20
; 582  :             _Ptr->~_Ty();
; 583  : #endif // _HAS_CXX20
; 584  :         } else {
; 585  :             _Al.destroy(_Ptr);
; 586  :         }
; 587  :     }

	ret	0
??$destroy@V?$array@H$03@std@@@?$_Normal_allocator_traits@V?$xalloc@V?$array@H$03@std@@@@@std@@SAXAEAV?$xalloc@V?$array@H$03@std@@@@PEAV?$array@H$03@1@@Z ENDP ; std::_Normal_allocator_traits<xalloc<std::array<int,4> > >::destroy<std::array<int,4> >
_TEXT	ENDS
; Function compile flags: /Ogtpy
; File C:\Program Files\Microsoft Visual Studio\2022\Community\VC\Tools\MSVC\14.35.32215\include\vector
;	COMDAT ?_Orphan_range@?$vector@V?$array@H$03@std@@V?$xalloc@V?$array@H$03@std@@@@@std@@AEBAXPEAV?$array@H$03@2@0@Z
_TEXT	SEGMENT
this$dead$ = 8
__formal$dead$ = 16
__formal$dead$ = 24
?_Orphan_range@?$vector@V?$array@H$03@std@@V?$xalloc@V?$array@H$03@std@@@@@std@@AEBAXPEAV?$array@H$03@2@0@Z PROC ; std::vector<std::array<int,4>,xalloc<std::array<int,4> > >::_Orphan_range, COMDAT

; 2240 :     _CONSTEXPR20 void _Orphan_range(pointer, pointer) const {}

	ret	0
?_Orphan_range@?$vector@V?$array@H$03@std@@V?$xalloc@V?$array@H$03@std@@@@@std@@AEBAXPEAV?$array@H$03@2@0@Z ENDP ; std::vector<std::array<int,4>,xalloc<std::array<int,4> > >::_Orphan_range
_TEXT	ENDS
; Function compile flags: /Ogtpy
; File C:\Program Files\Microsoft Visual Studio\2022\Community\VC\Tools\MSVC\14.35.32215\include\vector
;	COMDAT ?_Xlength@?$vector@V?$array@H$03@std@@V?$xalloc@V?$array@H$03@std@@@@@std@@CAXXZ
_TEXT	SEGMENT
?_Xlength@?$vector@V?$array@H$03@std@@V?$xalloc@V?$array@H$03@std@@@@@std@@CAXXZ PROC ; std::vector<std::array<int,4>,xalloc<std::array<int,4> > >::_Xlength, COMDAT

; 2200 :     [[noreturn]] static void _Xlength() {

$LN4:
	sub	rsp, 40					; 00000028H

; 2201 :         _Xlength_error("vector too long");

	lea	rcx, OFFSET FLAT:??_C@_0BA@FOIKENOD@vector?5too?5long@
	call	QWORD PTR __imp_?_Xlength_error@std@@YAXPEBD@Z
	int	3
$LN3@Xlength:
?_Xlength@?$vector@V?$array@H$03@std@@V?$xalloc@V?$array@H$03@std@@@@@std@@CAXXZ ENDP ; std::vector<std::array<int,4>,xalloc<std::array<int,4> > >::_Xlength
_TEXT	ENDS
; Function compile flags: /Ogtpy
; File C:\Program Files\Microsoft Visual Studio\2022\Community\VC\Tools\MSVC\14.35.32215\include\vector
; File C:\Users\Mahito\Desktop\Night outing\Night-outing\src\xrCore\xrMemory_subst_msvc.cpp
; File C:\Program Files\Microsoft Visual Studio\2022\Community\VC\Tools\MSVC\14.35.32215\include\vector
;	COMDAT ?_Change_array@?$vector@V?$array@H$03@std@@V?$xalloc@V?$array@H$03@std@@@@@std@@AEAAXQEAV?$array@H$03@2@_K1@Z
_TEXT	SEGMENT
this$ = 48
_Newvec$ = 56
_Newsize$ = 64
_Newcapacity$ = 72
?_Change_array@?$vector@V?$array@H$03@std@@V?$xalloc@V?$array@H$03@std@@@@@std@@AEAAXQEAV?$array@H$03@2@_K1@Z PROC ; std::vector<std::array<int,4>,xalloc<std::array<int,4> > >::_Change_array, COMDAT

; 2076 :     _CONSTEXPR20 void _Change_array(const pointer _Newvec, const size_type _Newsize, const size_type _Newcapacity) {

$LN29:
	mov	QWORD PTR [rsp+8], rbx
	mov	QWORD PTR [rsp+16], rbp
	mov	QWORD PTR [rsp+24], rsi
	push	rdi
	sub	rsp, 32					; 00000020H
	mov	rsi, rcx
	mov	rbx, r9

; 2077 :         // orphan all iterators, discard old array, acquire new array
; 2078 :         auto& _Al         = _Getal();
; 2079 :         auto& _My_data    = _Mypair._Myval2;
; 2080 :         pointer& _Myfirst = _My_data._Myfirst;
; 2081 :         pointer& _Mylast  = _My_data._Mylast;
; 2082 :         pointer& _Myend   = _My_data._Myend;
; 2083 : 
; 2084 :         _My_data._Orphan_all();
; 2085 : 
; 2086 :         if (_Myfirst) { // destroy and deallocate old array

	mov	rcx, QWORD PTR [rcx]
	mov	rdi, r8
	mov	rbp, rdx
	test	rcx, rcx
	je	SHORT $LN7@Change_arr
; File C:\Users\Mahito\Desktop\Night outing\Night-outing\src\xrCore\xrMemory_subst_msvc.cpp

; 99   : 	stat_calls++;

	inc	DWORD PTR ?Memory@@3VxrMemory@@A

; 100  : 
; 101  : #ifdef PURE_ALLOC
; 102  : 	if (g_use_pure_alloc)
; 103  : 	{
; 104  : 		//free(P);
; 105  : 		_aligned_free(P);

	call	QWORD PTR __imp__aligned_free
$LN7@Change_arr:
; File C:\Program Files\Microsoft Visual Studio\2022\Community\VC\Tools\MSVC\14.35.32215\include\vector

; 2092 :         _Myfirst = _Newvec;

	mov	QWORD PTR [rsi], rbp

; 2093 :         _Mylast  = _Newvec + _Newsize;

	shl	rdi, 4
	add	rdi, rbp

; 2094 :         _Myend   = _Newvec + _Newcapacity;

	shl	rbx, 4
	add	rbx, rbp
	mov	QWORD PTR [rsi+8], rdi

; 2095 :         _ASAN_VECTOR_CREATE;
; 2096 :     }

	mov	rbp, QWORD PTR [rsp+56]
	mov	QWORD PTR [rsi+16], rbx
	mov	rbx, QWORD PTR [rsp+48]
	mov	rsi, QWORD PTR [rsp+64]
	add	rsp, 32					; 00000020H
	pop	rdi
	ret	0
?_Change_array@?$vector@V?$array@H$03@std@@V?$xalloc@V?$array@H$03@std@@@@@std@@AEAAXQEAV?$array@H$03@2@_K1@Z ENDP ; std::vector<std::array<int,4>,xalloc<std::array<int,4> > >::_Change_array
_TEXT	ENDS
; Function compile flags: /Ogtpy
; File C:\Program Files\Microsoft Visual Studio\2022\Community\VC\Tools\MSVC\14.35.32215\include\vector
;	COMDAT ?_Calculate_growth@?$vector@V?$array@H$03@std@@V?$xalloc@V?$array@H$03@std@@@@@std@@AEBA_K_K@Z
_TEXT	SEGMENT
this$ = 8
_Newsize$ = 16
?_Calculate_growth@?$vector@V?$array@H$03@std@@V?$xalloc@V?$array@H$03@std@@@@@std@@AEBA_K_K@Z PROC ; std::vector<std::array<int,4>,xalloc<std::array<int,4> > >::_Calculate_growth, COMDAT

; 1942 :         return static_cast<size_type>(_My_data._Myend - _My_data._Myfirst);

	mov	r8, QWORD PTR [rcx+16]

; 2025 :         // given _Oldcapacity and _Newsize, calculate geometric growth
; 2026 :         const size_type _Oldcapacity = capacity();
; 2027 :         const auto _Max              = max_size();
; 2028 : 
; 2029 :         if (_Oldcapacity > _Max - _Oldcapacity / 2) {

	mov	rax, 1152921504606846975		; 0fffffffffffffffH

; 1942 :         return static_cast<size_type>(_My_data._Myend - _My_data._Myfirst);

	sub	r8, QWORD PTR [rcx]

; 2025 :         // given _Oldcapacity and _Newsize, calculate geometric growth
; 2026 :         const size_type _Oldcapacity = capacity();
; 2027 :         const auto _Max              = max_size();
; 2028 : 
; 2029 :         if (_Oldcapacity > _Max - _Oldcapacity / 2) {

	mov	rcx, rax

; 1942 :         return static_cast<size_type>(_My_data._Myend - _My_data._Myfirst);

	sar	r8, 4

; 2025 :         // given _Oldcapacity and _Newsize, calculate geometric growth
; 2026 :         const size_type _Oldcapacity = capacity();
; 2027 :         const auto _Max              = max_size();
; 2028 : 
; 2029 :         if (_Oldcapacity > _Max - _Oldcapacity / 2) {

	mov	r9, r8
	shr	r9, 1
	sub	rcx, r9
	cmp	r8, rcx
	ja	SHORT $LN1@Calculate_

; 2030 :             return _Max; // geometric growth would overflow
; 2031 :         }
; 2032 : 
; 2033 :         const size_type _Geometric = _Oldcapacity + _Oldcapacity / 2;

	lea	rax, QWORD PTR [r9+r8]

; 2034 : 
; 2035 :         if (_Geometric < _Newsize) {

	cmp	rax, rdx
	cmovb	rax, rdx
$LN1@Calculate_:

; 2036 :             return _Newsize; // geometric growth would be insufficient
; 2037 :         }
; 2038 : 
; 2039 :         return _Geometric; // geometric growth is sufficient
; 2040 :     }

	ret	0
?_Calculate_growth@?$vector@V?$array@H$03@std@@V?$xalloc@V?$array@H$03@std@@@@@std@@AEBA_K_K@Z ENDP ; std::vector<std::array<int,4>,xalloc<std::array<int,4> > >::_Calculate_growth
_TEXT	ENDS
; Function compile flags: /Ogtpy
; File C:\Program Files\Microsoft Visual Studio\2022\Community\VC\Tools\MSVC\14.35.32215\include\vector
;	COMDAT ?max_size@?$vector@V?$array@H$03@std@@V?$xalloc@V?$array@H$03@std@@@@@std@@QEBA_KXZ
_TEXT	SEGMENT
this$dead$ = 8
?max_size@?$vector@V?$array@H$03@std@@V?$xalloc@V?$array@H$03@std@@@@@std@@QEBA_KXZ PROC ; std::vector<std::array<int,4>,xalloc<std::array<int,4> > >::max_size, COMDAT

; 1936 :         return (_STD min)(

	mov	rax, 1152921504606846975		; 0fffffffffffffffH

; 1937 :             static_cast<size_type>((numeric_limits<difference_type>::max)()), _Alty_traits::max_size(_Getal()));
; 1938 :     }

	ret	0
?max_size@?$vector@V?$array@H$03@std@@V?$xalloc@V?$array@H$03@std@@@@@std@@QEBA_KXZ ENDP ; std::vector<std::array<int,4>,xalloc<std::array<int,4> > >::max_size
_TEXT	ENDS
; Function compile flags: /Ogtpy
; File C:\Users\Mahito\Desktop\Night outing\Night-outing\src\xrCore\_stl_extensions.h
;	COMDAT ?destroy@?$xalloc@V?$array@H$03@std@@@@QEAAXPEAV?$array@H$03@std@@@Z
_TEXT	SEGMENT
this$dead$ = 8
p$dead$ = 16
?destroy@?$xalloc@V?$array@H$03@std@@@@QEAAXPEAV?$array@H$03@std@@@Z PROC ; xalloc<std::array<int,4> >::destroy, COMDAT

; 86   : 							void					destroy			(pointer p)								{	p->~T();			}

	ret	0
?destroy@?$xalloc@V?$array@H$03@std@@@@QEAAXPEAV?$array@H$03@std@@@Z ENDP ; xalloc<std::array<int,4> >::destroy
_TEXT	ENDS
; Function compile flags: /Ogtpy
; File C:\Users\Mahito\Desktop\Night outing\Night-outing\src\xrCore\_stl_extensions.h
; File C:\Users\Mahito\Desktop\Night outing\Night-outing\src\xrCore\xrMemory_subst_msvc.cpp
; File C:\Users\Mahito\Desktop\Night outing\Night-outing\src\xrCore\xrMemory.h
; File C:\Users\Mahito\Desktop\Night outing\Night-outing\src\xrCore\xrMemory_subst_msvc.cpp
; File C:\Users\Mahito\Desktop\Night outing\Night-outing\src\xrCore\xrMemory.h
; File C:\Users\Mahito\Desktop\Night outing\Night-outing\src\xrCore\xrMemory_subst_msvc.cpp
; File C:\Users\Mahito\Desktop\Night outing\Night-outing\src\xrCore\_stl_extensions.h
;	COMDAT ?allocate@?$xalloc@V?$array@H$03@std@@@@QEBAPEAV?$array@H$03@std@@_KPEBX@Z
_TEXT	SEGMENT
this$dead$ = 48
n$ = 56
p$dead$ = 64
?allocate@?$xalloc@V?$array@H$03@std@@@@QEBAPEAV?$array@H$03@std@@_KPEBX@Z PROC ; xalloc<std::array<int,4> >::allocate, COMDAT

; 81   : 							pointer					allocate		(size_type n, const void* p=0) const	{	return xr_alloc<T>((u32)n);	}

$LN36:
	mov	QWORD PTR [rsp+8], rbx
	push	rdi
	sub	rsp, 32					; 00000020H
; File C:\Users\Mahito\Desktop\Night outing\Night-outing\src\xrCore\xrMemory_subst_msvc.cpp

; 39   : 	stat_calls++;

	inc	DWORD PTR ?Memory@@3VxrMemory@@A
; File C:\Users\Mahito\Desktop\Night outing\Night-outing\src\xrCore\xrMemory.h

; 64   : IC T* xr_alloc(u32 count) { return (T*)Memory.mem_alloc(count * sizeof(T)); }

	mov	edi, edx
; File C:\Users\Mahito\Desktop\Night outing\Night-outing\src\xrCore\xrMemory_subst_msvc.cpp

; 45   : 		void* result = _aligned_malloc(size, PURE_MEMORY_ALIGNMENT);

	mov	edx, 16
; File C:\Users\Mahito\Desktop\Night outing\Night-outing\src\xrCore\xrMemory.h

; 64   : IC T* xr_alloc(u32 count) { return (T*)Memory.mem_alloc(count * sizeof(T)); }

	shl	rdi, 4
; File C:\Users\Mahito\Desktop\Night outing\Night-outing\src\xrCore\xrMemory_subst_msvc.cpp

; 45   : 		void* result = _aligned_malloc(size, PURE_MEMORY_ALIGNMENT);

	mov	rcx, rdi
	call	QWORD PTR __imp__aligned_malloc
	mov	rbx, rax

; 46   : #ifdef PURE_MEMORY_FILL_ZERO
; 47   : 		if (result)

	test	rax, rax
	je	SHORT $LN7@allocate

; 48   : 			memset(result, 0, size);

	mov	r8, rdi
	xor	edx, edx
	mov	rcx, rax
	call	memset
; File C:\Users\Mahito\Desktop\Night outing\Night-outing\src\xrCore\_stl_extensions.h

; 81   : 							pointer					allocate		(size_type n, const void* p=0) const	{	return xr_alloc<T>((u32)n);	}

	mov	rax, rbx
$LN7@allocate:
	mov	rbx, QWORD PTR [rsp+48]
	add	rsp, 32					; 00000020H
	pop	rdi
	ret	0
?allocate@?$xalloc@V?$array@H$03@std@@@@QEBAPEAV?$array@H$03@std@@_KPEBX@Z ENDP ; xalloc<std::array<int,4> >::allocate
_TEXT	ENDS
; Function compile flags: /Ogtpy
; File C:\Program Files\Microsoft Visual Studio\2022\Community\VC\Tools\MSVC\14.35.32215\include\vector
;	COMDAT ?_Getal@?$vector@V?$array@H$03@std@@V?$xalloc@V?$array@H$03@std@@@@@std@@AEBAAEBV?$xalloc@V?$array@H$03@std@@@@XZ
_TEXT	SEGMENT
this$ = 8
?_Getal@?$vector@V?$array@H$03@std@@V?$xalloc@V?$array@H$03@std@@@@@std@@AEBAAEBV?$xalloc@V?$array@H$03@std@@@@XZ PROC ; std::vector<std::array<int,4>,xalloc<std::array<int,4> > >::_Getal, COMDAT

; 2248 :         return _Mypair._Get_first();

	mov	rax, rcx

; 2249 :     }

	ret	0
?_Getal@?$vector@V?$array@H$03@std@@V?$xalloc@V?$array@H$03@std@@@@@std@@AEBAAEBV?$xalloc@V?$array@H$03@std@@@@XZ ENDP ; std::vector<std::array<int,4>,xalloc<std::array<int,4> > >::_Getal
_TEXT	ENDS
; Function compile flags: /Ogtpy
; File C:\Program Files\Microsoft Visual Studio\2022\Community\VC\Tools\MSVC\14.35.32215\include\vector
;	COMDAT ?capacity@?$vector@V?$array@H$03@std@@V?$xalloc@V?$array@H$03@std@@@@@std@@QEBA_KXZ
_TEXT	SEGMENT
this$ = 8
?capacity@?$vector@V?$array@H$03@std@@V?$xalloc@V?$array@H$03@std@@@@@std@@QEBA_KXZ PROC ; std::vector<std::array<int,4>,xalloc<std::array<int,4> > >::capacity, COMDAT

; 1941 :         auto& _My_data = _Mypair._Myval2;
; 1942 :         return static_cast<size_type>(_My_data._Myend - _My_data._Myfirst);

	mov	rax, QWORD PTR [rcx+16]
	sub	rax, QWORD PTR [rcx]
	sar	rax, 4

; 1943 :     }

	ret	0
?capacity@?$vector@V?$array@H$03@std@@V?$xalloc@V?$array@H$03@std@@@@@std@@QEBA_KXZ ENDP ; std::vector<std::array<int,4>,xalloc<std::array<int,4> > >::capacity
_TEXT	ENDS
; Function compile flags: /Ogtpy
; File C:\Program Files\Microsoft Visual Studio\2022\Community\VC\Tools\MSVC\14.35.32215\include\xmemory
;	COMDAT ?max_size@?$_Normal_allocator_traits@V?$xalloc@V?$array@H$03@std@@@@@std@@SA_KAEBV?$xalloc@V?$array@H$03@std@@@@@Z
_TEXT	SEGMENT
_Al$dead$ = 8
?max_size@?$_Normal_allocator_traits@V?$xalloc@V?$array@H$03@std@@@@@std@@SA_KAEBV?$xalloc@V?$array@H$03@std@@@@@Z PROC ; std::_Normal_allocator_traits<xalloc<std::array<int,4> > >::max_size, COMDAT

; 590  :         if constexpr (_Has_max_size<_Alloc>::value) {
; 591  :             return _Al.max_size();

	mov	rax, 1152921504606846975		; 0fffffffffffffffH

; 592  :         } else {
; 593  :             return (numeric_limits<size_type>::max)() / sizeof(value_type);
; 594  :         }
; 595  :     }

	ret	0
?max_size@?$_Normal_allocator_traits@V?$xalloc@V?$array@H$03@std@@@@@std@@SA_KAEBV?$xalloc@V?$array@H$03@std@@@@@Z ENDP ; std::_Normal_allocator_traits<xalloc<std::array<int,4> > >::max_size
_TEXT	ENDS
; Function compile flags: /Ogtpy
; File C:\Program Files\Microsoft Visual Studio\2022\Community\VC\Tools\MSVC\14.35.32215\include\xmemory
;	COMDAT ?_Get_first@?$_Compressed_pair@V?$xalloc@V?$array@H$03@std@@@@V?$_Vector_val@U?$_Simple_types@V?$array@H$03@std@@@std@@@std@@$00@std@@QEBAAEBV?$xalloc@V?$array@H$03@std@@@@XZ
_TEXT	SEGMENT
this$ = 8
?_Get_first@?$_Compressed_pair@V?$xalloc@V?$array@H$03@std@@@@V?$_Vector_val@U?$_Simple_types@V?$array@H$03@std@@@std@@@std@@$00@std@@QEBAAEBV?$xalloc@V?$array@H$03@std@@@@XZ PROC ; std::_Compressed_pair<xalloc<std::array<int,4> >,std::_Vector_val<std::_Simple_types<std::array<int,4> > >,1>::_Get_first, COMDAT

; 1387 :         return *this;

	mov	rax, rcx

; 1388 :     }

	ret	0
?_Get_first@?$_Compressed_pair@V?$xalloc@V?$array@H$03@std@@@@V?$_Vector_val@U?$_Simple_types@V?$array@H$03@std@@@std@@@std@@$00@std@@QEBAAEBV?$xalloc@V?$array@H$03@std@@@@XZ ENDP ; std::_Compressed_pair<xalloc<std::array<int,4> >,std::_Vector_val<std::_Simple_types<std::array<int,4> > >,1>::_Get_first
_TEXT	ENDS
; Function compile flags: /Ogtpy
; File C:\Users\Mahito\Desktop\Night outing\Night-outing\src\xrCore\_stl_extensions.h
;	COMDAT ?max_size@?$xalloc@V?$array@H$03@std@@@@QEBA_KXZ
_TEXT	SEGMENT
this$dead$ = 8
?max_size@?$xalloc@V?$array@H$03@std@@@@QEBA_KXZ PROC	; xalloc<std::array<int,4> >::max_size, COMDAT

; 87   : 							size_type				max_size		() const								{	size_type _Count = (size_type)(-1) / sizeof (T);	return (0 < _Count ? _Count : 1);	}

	mov	rax, 1152921504606846975		; 0fffffffffffffffH
	ret	0
?max_size@?$xalloc@V?$array@H$03@std@@@@QEBA_KXZ ENDP	; xalloc<std::array<int,4> >::max_size
_TEXT	ENDS
; Function compile flags: /Ogtpy
; File C:\Program Files\Microsoft Visual Studio\2022\Community\VC\Tools\MSVC\14.35.32215\include\xmemory
; File C:\Users\Mahito\Desktop\Night outing\Night-outing\src\xrCore\_stl_extensions.h
; File C:\Program Files\Microsoft Visual Studio\2022\Community\VC\Tools\MSVC\14.35.32215\include\xmemory
;	COMDAT ??$construct@V?$array@H$03@std@@AEBV12@@?$_Normal_allocator_traits@V?$xalloc@V?$array@H$03@std@@@@@std@@SAXAEAV?$xalloc@V?$array@H$03@std@@@@PEAV?$array@H$03@1@AEBV31@@Z
_TEXT	SEGMENT
_Al$dead$ = 8
_Ptr$ = 16
<_Args_0>$ = 24
??$construct@V?$array@H$03@std@@AEBV12@@?$_Normal_allocator_traits@V?$xalloc@V?$array@H$03@std@@@@@std@@SAXAEAV?$xalloc@V?$array@H$03@std@@@@PEAV?$array@H$03@1@AEBV31@@Z PROC ; std::_Normal_allocator_traits<xalloc<std::array<int,4> > >::construct<std::array<int,4>,std::array<int,4> const &>, COMDAT
; File C:\Users\Mahito\Desktop\Night outing\Night-outing\src\xrCore\_stl_extensions.h

; 85   : 							void					construct		(pointer p, const T& _Val)				{	::new(p) T(_Val);	}

	vmovups	xmm0, XMMWORD PTR [r8]
	vmovups	XMMWORD PTR [rdx], xmm0
; File C:\Program Files\Microsoft Visual Studio\2022\Community\VC\Tools\MSVC\14.35.32215\include\xmemory

; 574  :     }

	ret	0
??$construct@V?$array@H$03@std@@AEBV12@@?$_Normal_allocator_traits@V?$xalloc@V?$array@H$03@std@@@@@std@@SAXAEAV?$xalloc@V?$array@H$03@std@@@@PEAV?$array@H$03@1@AEBV31@@Z ENDP ; std::_Normal_allocator_traits<xalloc<std::array<int,4> > >::construct<std::array<int,4>,std::array<int,4> const &>
_TEXT	ENDS
; Function compile flags: /Ogtpy
; File C:\Program Files\Microsoft Visual Studio\2022\Community\VC\Tools\MSVC\14.35.32215\include\xmemory
; File C:\Users\Mahito\Desktop\Night outing\Night-outing\src\xrCore\_stl_extensions.h
; File C:\Program Files\Microsoft Visual Studio\2022\Community\VC\Tools\MSVC\14.35.32215\include\xmemory
;	COMDAT ??$_Uninitialized_move@PEAV?$array@H$03@std@@V?$xalloc@V?$array@H$03@std@@@@@std@@YAPEAV?$array@H$03@0@QEAV10@0PEAV10@AEAV?$xalloc@V?$array@H$03@std@@@@@Z
_TEXT	SEGMENT
_First$ = 8
_Last$ = 16
_Dest$ = 24
_Al$dead$ = 32
??$_Uninitialized_move@PEAV?$array@H$03@std@@V?$xalloc@V?$array@H$03@std@@@@@std@@YAPEAV?$array@H$03@0@QEAV10@0PEAV10@AEAV?$xalloc@V?$array@H$03@std@@@@@Z PROC ; std::_Uninitialized_move<std::array<int,4> *,xalloc<std::array<int,4> > >, COMDAT

; 1786 :     // move [_First, _Last) to raw _Dest, using _Al
; 1787 :     // note: only called internally from elsewhere in the STL
; 1788 :     using _Ptrval     = typename _Alloc::value_type*;
; 1789 :     auto _UFirst      = _Get_unwrapped(_First);
; 1790 :     const auto _ULast = _Get_unwrapped(_Last);
; 1791 :     if constexpr (conjunction_v<bool_constant<_Iter_move_cat<decltype(_UFirst), _Ptrval>::_Bitcopy_constructible>,
; 1792 :                       _Uses_default_construct<_Alloc, _Ptrval, decltype(_STD move(*_UFirst))>>) {
; 1793 : #if _HAS_CXX20
; 1794 :         if (!_STD is_constant_evaluated())
; 1795 : #endif // _HAS_CXX20
; 1796 :         {
; 1797 :             _Copy_memmove(_UFirst, _ULast, _Unfancy(_Dest));
; 1798 :             return _Dest + (_ULast - _UFirst);
; 1799 :         }
; 1800 :     }
; 1801 : 
; 1802 :     _Uninitialized_backout_al<_Alloc> _Backout{_Dest, _Al};
; 1803 :     for (; _UFirst != _ULast; ++_UFirst) {

	cmp	rcx, rdx
	je	SHORT $LN20@Uninitiali
	npad	11
$LL4@Uninitiali:
; File C:\Users\Mahito\Desktop\Night outing\Night-outing\src\xrCore\_stl_extensions.h

; 85   : 							void					construct		(pointer p, const T& _Val)				{	::new(p) T(_Val);	}

	vmovups	xmm0, XMMWORD PTR [rcx]
	vmovups	XMMWORD PTR [r8], xmm0
; File C:\Program Files\Microsoft Visual Studio\2022\Community\VC\Tools\MSVC\14.35.32215\include\xmemory

; 1661 :         ++_Last;

	add	r8, 16
	add	rcx, 16

; 1786 :     // move [_First, _Last) to raw _Dest, using _Al
; 1787 :     // note: only called internally from elsewhere in the STL
; 1788 :     using _Ptrval     = typename _Alloc::value_type*;
; 1789 :     auto _UFirst      = _Get_unwrapped(_First);
; 1790 :     const auto _ULast = _Get_unwrapped(_Last);
; 1791 :     if constexpr (conjunction_v<bool_constant<_Iter_move_cat<decltype(_UFirst), _Ptrval>::_Bitcopy_constructible>,
; 1792 :                       _Uses_default_construct<_Alloc, _Ptrval, decltype(_STD move(*_UFirst))>>) {
; 1793 : #if _HAS_CXX20
; 1794 :         if (!_STD is_constant_evaluated())
; 1795 : #endif // _HAS_CXX20
; 1796 :         {
; 1797 :             _Copy_memmove(_UFirst, _ULast, _Unfancy(_Dest));
; 1798 :             return _Dest + (_ULast - _UFirst);
; 1799 :         }
; 1800 :     }
; 1801 : 
; 1802 :     _Uninitialized_backout_al<_Alloc> _Backout{_Dest, _Al};
; 1803 :     for (; _UFirst != _ULast; ++_UFirst) {

	cmp	rcx, rdx
	jne	SHORT $LL4@Uninitiali
$LN20@Uninitiali:

; 1804 :         _Backout._Emplace_back(_STD move(*_UFirst));
; 1805 :     }
; 1806 : 
; 1807 :     return _Backout._Release();
; 1808 : }

	mov	rax, r8
	ret	0
??$_Uninitialized_move@PEAV?$array@H$03@std@@V?$xalloc@V?$array@H$03@std@@@@@std@@YAPEAV?$array@H$03@0@QEAV10@0PEAV10@AEAV?$xalloc@V?$array@H$03@std@@@@@Z ENDP ; std::_Uninitialized_move<std::array<int,4> *,xalloc<std::array<int,4> > >
_TEXT	ENDS
; Function compile flags: /Ogtpy
; File C:\Program Files\Microsoft Visual Studio\2022\Community\VC\Tools\MSVC\14.35.32215\include\xutility
;	COMDAT ??$_Get_unwrapped@AEBQEAV?$array@H$03@std@@@std@@YA?A_TAEBQEAV?$array@H$03@0@@Z
_TEXT	SEGMENT
_It$ = 8
??$_Get_unwrapped@AEBQEAV?$array@H$03@std@@@std@@YA?A_TAEBQEAV?$array@H$03@0@@Z PROC ; std::_Get_unwrapped<std::array<int,4> * const &>, COMDAT

; 957  :     // unwrap an iterator previously subjected to _Adl_verify_range or otherwise validated
; 958  :     if constexpr (is_pointer_v<decay_t<_Iter>>) { // special-case pointers and arrays
; 959  :         return _It + 0;

	mov	rax, QWORD PTR [rcx]

; 960  :     } else if constexpr (_Unwrappable_v<_Iter>) {
; 961  :         return static_cast<_Iter&&>(_It)._Unwrapped();
; 962  :     } else {
; 963  :         return static_cast<_Iter&&>(_It);
; 964  :     }
; 965  : }

	ret	0
??$_Get_unwrapped@AEBQEAV?$array@H$03@std@@@std@@YA?A_TAEBQEAV?$array@H$03@0@@Z ENDP ; std::_Get_unwrapped<std::array<int,4> * const &>
_TEXT	ENDS
; Function compile flags: /Ogtpy
; File C:\Users\Mahito\Desktop\Night outing\Night-outing\src\xrCore\xrMemory.h
; File C:\Users\Mahito\Desktop\Night outing\Night-outing\src\xrCore\xrMemory_subst_msvc.cpp
; File C:\Users\Mahito\Desktop\Night outing\Night-outing\src\xrCore\xrMemory.h
; File C:\Users\Mahito\Desktop\Night outing\Night-outing\src\xrCore\xrMemory_subst_msvc.cpp
; File C:\Users\Mahito\Desktop\Night outing\Night-outing\src\xrCore\xrMemory.h
;	COMDAT ??$xr_alloc@V?$array@H$03@std@@@@YAPEAV?$array@H$03@std@@I@Z
_TEXT	SEGMENT
count$ = 48
??$xr_alloc@V?$array@H$03@std@@@@YAPEAV?$array@H$03@std@@I@Z PROC ; xr_alloc<std::array<int,4> >, COMDAT

; 64   : IC T* xr_alloc(u32 count) { return (T*)Memory.mem_alloc(count * sizeof(T)); }

$LN34:
	mov	QWORD PTR [rsp+8], rbx
	push	rdi
	sub	rsp, 32					; 00000020H
; File C:\Users\Mahito\Desktop\Night outing\Night-outing\src\xrCore\xrMemory_subst_msvc.cpp

; 39   : 	stat_calls++;

	inc	DWORD PTR ?Memory@@3VxrMemory@@A

; 45   : 		void* result = _aligned_malloc(size, PURE_MEMORY_ALIGNMENT);

	mov	edx, 16
; File C:\Users\Mahito\Desktop\Night outing\Night-outing\src\xrCore\xrMemory.h

; 64   : IC T* xr_alloc(u32 count) { return (T*)Memory.mem_alloc(count * sizeof(T)); }

	mov	edi, ecx
	shl	rdi, 4
; File C:\Users\Mahito\Desktop\Night outing\Night-outing\src\xrCore\xrMemory_subst_msvc.cpp

; 45   : 		void* result = _aligned_malloc(size, PURE_MEMORY_ALIGNMENT);

	mov	rcx, rdi
	call	QWORD PTR __imp__aligned_malloc
	mov	rbx, rax

; 46   : #ifdef PURE_MEMORY_FILL_ZERO
; 47   : 		if (result)

	test	rax, rax
	je	SHORT $LN5@xr_alloc

; 48   : 			memset(result, 0, size);

	mov	r8, rdi
	xor	edx, edx
	mov	rcx, rax
	call	memset
; File C:\Users\Mahito\Desktop\Night outing\Night-outing\src\xrCore\xrMemory.h

; 64   : IC T* xr_alloc(u32 count) { return (T*)Memory.mem_alloc(count * sizeof(T)); }

	mov	rax, rbx
$LN5@xr_alloc:
	mov	rbx, QWORD PTR [rsp+48]
	add	rsp, 32					; 00000020H
	pop	rdi
	ret	0
??$xr_alloc@V?$array@H$03@std@@@@YAPEAV?$array@H$03@std@@I@Z ENDP ; xr_alloc<std::array<int,4> >
_TEXT	ENDS
; Function compile flags: /Ogtpy
; File C:\Program Files\Microsoft Visual Studio\2022\Community\VC\Tools\MSVC\14.35.32215\include\xmemory
;	COMDAT ?_Release@?$_Uninitialized_backout_al@V?$xalloc@V?$array@H$03@std@@@@@std@@QEAAPEAV?$array@H$03@2@XZ
_TEXT	SEGMENT
this$ = 8
?_Release@?$_Uninitialized_backout_al@V?$xalloc@V?$array@H$03@std@@@@@std@@QEAAPEAV?$array@H$03@2@XZ PROC ; std::_Uninitialized_backout_al<xalloc<std::array<int,4> > >::_Release, COMDAT

; 1665 :         _First = _Last;

	mov	rax, QWORD PTR [rcx+8]
	mov	QWORD PTR [rcx], rax

; 1666 :         return _Last;
; 1667 :     }

	ret	0
?_Release@?$_Uninitialized_backout_al@V?$xalloc@V?$array@H$03@std@@@@@std@@QEAAPEAV?$array@H$03@2@XZ ENDP ; std::_Uninitialized_backout_al<xalloc<std::array<int,4> > >::_Release
_TEXT	ENDS
; Function compile flags: /Ogtpy
; File C:\Program Files\Microsoft Visual Studio\2022\Community\VC\Tools\MSVC\14.35.32215\include\xmemory
;	COMDAT ??1?$_Uninitialized_backout_al@V?$xalloc@V?$array@H$03@std@@@@@std@@QEAA@XZ
_TEXT	SEGMENT
this$ = 8
??1?$_Uninitialized_backout_al@V?$xalloc@V?$array@H$03@std@@@@@std@@QEAA@XZ PROC ; std::_Uninitialized_backout_al<xalloc<std::array<int,4> > >::~_Uninitialized_backout_al<xalloc<std::array<int,4> > >, COMDAT

; 1655 :         _Destroy_range(_First, _Last, _Al);
; 1656 :     }

	ret	0
??1?$_Uninitialized_backout_al@V?$xalloc@V?$array@H$03@std@@@@@std@@QEAA@XZ ENDP ; std::_Uninitialized_backout_al<xalloc<std::array<int,4> > >::~_Uninitialized_backout_al<xalloc<std::array<int,4> > >
_TEXT	ENDS
; Function compile flags: /Ogtpy
; File C:\Program Files\Microsoft Visual Studio\2022\Community\VC\Tools\MSVC\14.35.32215\include\xmemory
;	COMDAT ??0?$_Uninitialized_backout_al@V?$xalloc@V?$array@H$03@std@@@@@std@@QEAA@PEAV?$array@H$03@1@AEAV?$xalloc@V?$array@H$03@std@@@@@Z
_TEXT	SEGMENT
this$ = 8
_Dest$ = 16
_Al_$ = 24
??0?$_Uninitialized_backout_al@V?$xalloc@V?$array@H$03@std@@@@@std@@QEAA@PEAV?$array@H$03@1@AEAV?$xalloc@V?$array@H$03@std@@@@@Z PROC ; std::_Uninitialized_backout_al<xalloc<std::array<int,4> > >::_Uninitialized_backout_al<xalloc<std::array<int,4> > >, COMDAT

; 1649 :     _CONSTEXPR20 _Uninitialized_backout_al(pointer _Dest, _Alloc& _Al_) : _First(_Dest), _Last(_Dest), _Al(_Al_) {}

	mov	QWORD PTR [rcx], rdx
	mov	rax, rcx
	mov	QWORD PTR [rcx+8], rdx
	mov	QWORD PTR [rcx+16], r8
	ret	0
??0?$_Uninitialized_backout_al@V?$xalloc@V?$array@H$03@std@@@@@std@@QEAA@PEAV?$array@H$03@1@AEAV?$xalloc@V?$array@H$03@std@@@@@Z ENDP ; std::_Uninitialized_backout_al<xalloc<std::array<int,4> > >::_Uninitialized_backout_al<xalloc<std::array<int,4> > >
_TEXT	ENDS
; Function compile flags: /Ogtpy
; File C:\Users\Mahito\Desktop\Night outing\Night-outing\src\xrCore\_stl_extensions.h
;	COMDAT ?construct@?$xalloc@V?$array@H$03@std@@@@QEAAXPEAV?$array@H$03@std@@AEBV23@@Z
_TEXT	SEGMENT
this$dead$ = 8
p$ = 16
_Val$ = 24
?construct@?$xalloc@V?$array@H$03@std@@@@QEAAXPEAV?$array@H$03@std@@AEBV23@@Z PROC ; xalloc<std::array<int,4> >::construct, COMDAT

; 85   : 							void					construct		(pointer p, const T& _Val)				{	::new(p) T(_Val);	}

	vmovups	xmm0, XMMWORD PTR [r8]
	vmovups	XMMWORD PTR [rdx], xmm0
	ret	0
?construct@?$xalloc@V?$array@H$03@std@@@@QEAAXPEAV?$array@H$03@std@@AEBV23@@Z ENDP ; xalloc<std::array<int,4> >::construct
_TEXT	ENDS
; Function compile flags: /Ogtpy
; File C:\Program Files\Microsoft Visual Studio\2022\Community\VC\Tools\MSVC\14.35.32215\include\type_traits
;	COMDAT ??$move@AEAV?$array@H$03@std@@@std@@YA$$QEAV?$array@H$03@0@AEAV10@@Z
_TEXT	SEGMENT
_Arg$ = 8
??$move@AEAV?$array@H$03@std@@@std@@YA$$QEAV?$array@H$03@0@AEAV10@@Z PROC ; std::move<std::array<int,4> &>, COMDAT

; 1438 :     return static_cast<remove_reference_t<_Ty>&&>(_Arg);

	mov	rax, rcx

; 1439 : }

	ret	0
??$move@AEAV?$array@H$03@std@@@std@@YA$$QEAV?$array@H$03@0@AEAV10@@Z ENDP ; std::move<std::array<int,4> &>
_TEXT	ENDS
; Function compile flags: /Ogtpy
; File C:\Program Files\Microsoft Visual Studio\2022\Community\VC\Tools\MSVC\14.35.32215\include\xmemory
; File C:\Users\Mahito\Desktop\Night outing\Night-outing\src\xrCore\_stl_extensions.h
; File C:\Program Files\Microsoft Visual Studio\2022\Community\VC\Tools\MSVC\14.35.32215\include\xmemory
;	COMDAT ??$_Emplace_back@V?$array@H$03@std@@@?$_Uninitialized_backout_al@V?$xalloc@V?$array@H$03@std@@@@@std@@QEAAX$$QEAV?$array@H$03@1@@Z
_TEXT	SEGMENT
this$ = 8
<_Vals_0>$ = 16
??$_Emplace_back@V?$array@H$03@std@@@?$_Uninitialized_backout_al@V?$xalloc@V?$array@H$03@std@@@@@std@@QEAAX$$QEAV?$array@H$03@1@@Z PROC ; std::_Uninitialized_backout_al<xalloc<std::array<int,4> > >::_Emplace_back<std::array<int,4> >, COMDAT

; 1660 :         allocator_traits<_Alloc>::construct(_Al, _Unfancy(_Last), _STD forward<_Types>(_Vals)...);

	mov	rax, QWORD PTR [rcx+8]
; File C:\Users\Mahito\Desktop\Night outing\Night-outing\src\xrCore\_stl_extensions.h

; 85   : 							void					construct		(pointer p, const T& _Val)				{	::new(p) T(_Val);	}

	vmovups	xmm0, XMMWORD PTR [rdx]
	vmovups	XMMWORD PTR [rax], xmm0
; File C:\Program Files\Microsoft Visual Studio\2022\Community\VC\Tools\MSVC\14.35.32215\include\xmemory

; 1661 :         ++_Last;

	add	QWORD PTR [rcx+8], 16

; 1662 :     }

	ret	0
??$_Emplace_back@V?$array@H$03@std@@@?$_Uninitialized_backout_al@V?$xalloc@V?$array@H$03@std@@@@@std@@QEAAX$$QEAV?$array@H$03@1@@Z ENDP ; std::_Uninitialized_backout_al<xalloc<std::array<int,4> > >::_Emplace_back<std::array<int,4> >
_TEXT	ENDS
; Function compile flags: /Ogtpy
; File C:\Program Files\Microsoft Visual Studio\2022\Community\VC\Tools\MSVC\14.35.32215\include\type_traits
;	COMDAT ??$forward@V?$array@H$03@std@@@std@@YA$$QEAV?$array@H$03@0@AEAV10@@Z
_TEXT	SEGMENT
_Arg$ = 8
??$forward@V?$array@H$03@std@@@std@@YA$$QEAV?$array@H$03@0@AEAV10@@Z PROC ; std::forward<std::array<int,4> >, COMDAT

; 1427 :     return static_cast<_Ty&&>(_Arg);

	mov	rax, rcx

; 1428 : }

	ret	0
??$forward@V?$array@H$03@std@@@std@@YA$$QEAV?$array@H$03@0@AEAV10@@Z ENDP ; std::forward<std::array<int,4> >
_TEXT	ENDS
; Function compile flags: /Ogtpy
; File C:\Program Files\Microsoft Visual Studio\2022\Community\VC\Tools\MSVC\14.35.32215\include\xmemory
; File C:\Users\Mahito\Desktop\Night outing\Night-outing\src\xrCore\_stl_extensions.h
; File C:\Program Files\Microsoft Visual Studio\2022\Community\VC\Tools\MSVC\14.35.32215\include\xmemory
;	COMDAT ??$construct@V?$array@H$03@std@@V12@@?$_Normal_allocator_traits@V?$xalloc@V?$array@H$03@std@@@@@std@@SAXAEAV?$xalloc@V?$array@H$03@std@@@@PEAV?$array@H$03@1@$$QEAV31@@Z
_TEXT	SEGMENT
_Al$dead$ = 8
_Ptr$ = 16
<_Args_0>$ = 24
??$construct@V?$array@H$03@std@@V12@@?$_Normal_allocator_traits@V?$xalloc@V?$array@H$03@std@@@@@std@@SAXAEAV?$xalloc@V?$array@H$03@std@@@@PEAV?$array@H$03@1@$$QEAV31@@Z PROC ; std::_Normal_allocator_traits<xalloc<std::array<int,4> > >::construct<std::array<int,4>,std::array<int,4> >, COMDAT
; File C:\Users\Mahito\Desktop\Night outing\Night-outing\src\xrCore\_stl_extensions.h

; 85   : 							void					construct		(pointer p, const T& _Val)				{	::new(p) T(_Val);	}

	vmovups	xmm0, XMMWORD PTR [r8]
	vmovups	XMMWORD PTR [rdx], xmm0
; File C:\Program Files\Microsoft Visual Studio\2022\Community\VC\Tools\MSVC\14.35.32215\include\xmemory

; 574  :     }

	ret	0
??$construct@V?$array@H$03@std@@V12@@?$_Normal_allocator_traits@V?$xalloc@V?$array@H$03@std@@@@@std@@SAXAEAV?$xalloc@V?$array@H$03@std@@@@PEAV?$array@H$03@1@$$QEAV31@@Z ENDP ; std::_Normal_allocator_traits<xalloc<std::array<int,4> > >::construct<std::array<int,4>,std::array<int,4> >
_TEXT	ENDS
END
