; Listing generated by Microsoft (R) Optimizing Compiler Version 19.35.32217.1 

include listing.inc

INCLUDELIB OLDNAMES

PUBLIC	?g_application_path@@3PADA			; g_application_path
PUBLIC	??_C@_0CD@LBDEJLAP@?$CB?$CB?$CB?$CB?$CB?$CB?$CB?$CB?$CB?$CB?$CB?$CB?$CB?$CB?$CB?$CB?$CB?$CB?$CB?$CB?$CB?$CB?$CB?$CB?$CB?$CB?$CB?$CB?$CB?$CB?$CB@ ; `string'
PUBLIC	??_C@_0CD@KECBMHB@EXCEPTION_STACK_OVERFLOW?5occurr@ ; `string'
PUBLIC	??_C@_0M@CMJODOBC@?5caused?5an?5@		; `string'
PUBLIC	??_C@_09KKJFIDEP@NTDLL?4DLL@			; `string'
PUBLIC	??_C@_0M@MEHCDCPC@?5in?5module?5@		; `string'
PUBLIC	??_C@_09KOIOCIHC@?$DMUNKNOWN?$DO@		; `string'
PUBLIC	??_C@_09BDMEFKPB@?5at?5?$CF016X@		; `string'
PUBLIC	??_C@_0BC@CLKPGJFG@?$CFs?$CI?$CJ?$CL?$CF04d?5byte?$CIs?$CJ@ ; `string'
PUBLIC	??_C@_03IKGEINEE@?$CFs?5@			; `string'
PUBLIC	??_C@_0BL@GPBODGPP@?$CFs?0?5line?5?$CF04d?$CL?$CF04d?5byte?$CIs?$CJ@ ; `string'
PUBLIC	??_C@_0O@LLCFKP@?$CFs?0?5line?5?$CF04d@		; `string'
PUBLIC	??_C@_07CMMEBABO@0x?$CF016X@			; `string'
PUBLIC	??_C@_0BP@NDGHPOJN@?5?$CI0x?$CF08X?50x?$CF08X?50x?$CF08X?50x?$CF08X?$CJ@ ; `string'
PUBLIC	??_C@_04DLGOCPFH@?$CFs?$CI?$CJ@			; `string'
PUBLIC	??_C@_06OJLEAOEG@?$CFs?0?5?$CFd@		; `string'
PUBLIC	??_C@_0BL@CMOMFGDN@EXCEPTION_ACCESS_VIOLATION@	; `string'
PUBLIC	??_C@_0CA@LEJEDDLG@EXCEPTION_DATATYPE_MISALIGNMENT@ ; `string'
PUBLIC	??_C@_0BF@FLLDOCJP@EXCEPTION_BREAKPOINT@	; `string'
PUBLIC	??_C@_0BG@HPCFEJHG@EXCEPTION_SINGLE_STEP@	; `string'
PUBLIC	??_C@_0CA@JNIHFDGO@EXCEPTION_ARRAY_BOUNDS_EXCEEDED@ ; `string'
PUBLIC	??_C@_0BP@NMNHALMC@EXCEPTION_FLT_DENORMAL_OPERAND@ ; `string'
PUBLIC	??_C@_0BN@PHPNMCML@EXCEPTION_FLT_DIVIDE_BY_ZERO@ ; `string'
PUBLIC	??_C@_0BN@KLCBBCKL@EXCEPTION_FLT_INEXACT_RESULT@ ; `string'
PUBLIC	??_C@_0CA@JJDIIMDB@EXCEPTION_FLT_INVALID_OPERATION@ ; `string'
PUBLIC	??_C@_0BH@LGFBHAFE@EXCEPTION_FLT_OVERFLOW@	; `string'
PUBLIC	??_C@_0BK@COBCCPEI@EXCEPTION_FLT_STACK_CHECK@	; `string'
PUBLIC	??_C@_0BI@CHKFJJC@EXCEPTION_FLT_UNDERFLOW@	; `string'
PUBLIC	??_C@_0BN@LBLGDPIG@EXCEPTION_INT_DIVIDE_BY_ZERO@ ; `string'
PUBLIC	??_C@_0BH@HNBKDLPO@EXCEPTION_INT_OVERFLOW@	; `string'
PUBLIC	??_C@_0BL@HJPDFKEO@EXCEPTION_PRIV_INSTRUCTION@	; `string'
PUBLIC	??_C@_0BI@BNDIILLI@EXCEPTION_IN_PAGE_ERROR@	; `string'
PUBLIC	??_C@_0BO@DLLOIENN@EXCEPTION_ILLEGAL_INSTRUCTION@ ; `string'
PUBLIC	??_C@_0CD@JGPJMHJA@EXCEPTION_NONCONTINUABLE_EXCEPT@ ; `string'
PUBLIC	??_C@_0BJ@FNEOPPMM@EXCEPTION_STACK_OVERFLOW@	; `string'
PUBLIC	??_C@_0BO@GJKCLCLP@EXCEPTION_INVALID_DISPOSITION@ ; `string'
PUBLIC	??_C@_0BF@BLPCMAHP@EXCEPTION_GUARD_PAGE@	; `string'
PUBLIC	??_C@_0BJ@BKJLBIPE@EXCEPTION_INVALID_HANDLE@	; `string'
EXTRN	__imp_SymSetOptions:PROC
EXTRN	__imp_StackWalk64:PROC
EXTRN	__imp_IsBadReadPtr:PROC
EXTRN	__imp_GetProcessHeap:PROC
EXTRN	__imp_ReadProcessMemory:PROC
EXTRN	__imp_lstrcpynA:PROC
EXTRN	__imp_wsprintfA:PROC
EXTRN	__imp_HeapAlloc:PROC
EXTRN	__imp_SymFunctionTableAccess64:PROC
EXTRN	__imp_GetCurrentThread:PROC
EXTRN	__imp_SymGetLineFromAddr64:PROC
EXTRN	__imp_IsBadCodePtr:PROC
EXTRN	__imp_lstrlenA:PROC
EXTRN	__imp_SymGetOptions:PROC
EXTRN	__imp_HeapFree:PROC
EXTRN	__imp_SymGetModuleBase64:PROC
EXTRN	__imp_SymCleanup:PROC
EXTRN	__imp_IsBadWritePtr:PROC
EXTRN	__imp_SymGetSymFromAddr64:PROC
?g_application_path@@3PADA DB 0100H DUP (?)		; g_application_path
?g_uiModCount@@3IA DD 01H DUP (?)			; g_uiModCount
	ALIGN	8

?g_pfnOrigFilt@@3P6AJPEAU_EXCEPTION_POINTERS@@@ZEA DQ 01H DUP (?) ; g_pfnOrigFilt
?g_pfnCallBack@@3P6AJPEAU_EXCEPTION_POINTERS@@@ZEA DQ 01H DUP (?) ; g_pfnCallBack
_BSS	ENDS
;	COMDAT ??_C@_0BJ@BKJLBIPE@EXCEPTION_INVALID_HANDLE@
CONST	SEGMENT
??_C@_0BJ@BKJLBIPE@EXCEPTION_INVALID_HANDLE@ DB 'EXCEPTION_INVALID_HANDLE'
	DB	00H						; `string'
CONST	ENDS
;	COMDAT ??_C@_0BF@BLPCMAHP@EXCEPTION_GUARD_PAGE@
CONST	SEGMENT
??_C@_0BF@BLPCMAHP@EXCEPTION_GUARD_PAGE@ DB 'EXCEPTION_GUARD_PAGE', 00H ; `string'
CONST	ENDS
;	COMDAT ??_C@_0BO@GJKCLCLP@EXCEPTION_INVALID_DISPOSITION@
CONST	SEGMENT
??_C@_0BO@GJKCLCLP@EXCEPTION_INVALID_DISPOSITION@ DB 'EXCEPTION_INVALID_D'
	DB	'ISPOSITION', 00H				; `string'
CONST	ENDS
;	COMDAT ??_C@_0BJ@FNEOPPMM@EXCEPTION_STACK_OVERFLOW@
CONST	SEGMENT
??_C@_0BJ@FNEOPPMM@EXCEPTION_STACK_OVERFLOW@ DB 'EXCEPTION_STACK_OVERFLOW'
	DB	00H						; `string'
CONST	ENDS
;	COMDAT ??_C@_0CD@JGPJMHJA@EXCEPTION_NONCONTINUABLE_EXCEPT@
CONST	SEGMENT
??_C@_0CD@JGPJMHJA@EXCEPTION_NONCONTINUABLE_EXCEPT@ DB 'EXCEPTION_NONCONT'
	DB	'INUABLE_EXCEPTION', 00H			; `string'
CONST	ENDS
;	COMDAT ??_C@_0BO@DLLOIENN@EXCEPTION_ILLEGAL_INSTRUCTION@
CONST	SEGMENT
??_C@_0BO@DLLOIENN@EXCEPTION_ILLEGAL_INSTRUCTION@ DB 'EXCEPTION_ILLEGAL_I'
	DB	'NSTRUCTION', 00H				; `string'
CONST	ENDS
;	COMDAT ??_C@_0BI@BNDIILLI@EXCEPTION_IN_PAGE_ERROR@
CONST	SEGMENT
??_C@_0BI@BNDIILLI@EXCEPTION_IN_PAGE_ERROR@ DB 'EXCEPTION_IN_PAGE_ERROR', 00H ; `string'
CONST	ENDS
;	COMDAT ??_C@_0BL@HJPDFKEO@EXCEPTION_PRIV_INSTRUCTION@
CONST	SEGMENT
??_C@_0BL@HJPDFKEO@EXCEPTION_PRIV_INSTRUCTION@ DB 'EXCEPTION_PRIV_INSTRUC'
	DB	'TION', 00H					; `string'
CONST	ENDS
;	COMDAT ??_C@_0BH@HNBKDLPO@EXCEPTION_INT_OVERFLOW@
CONST	SEGMENT
??_C@_0BH@HNBKDLPO@EXCEPTION_INT_OVERFLOW@ DB 'EXCEPTION_INT_OVERFLOW', 00H ; `string'
CONST	ENDS
;	COMDAT ??_C@_0BN@LBLGDPIG@EXCEPTION_INT_DIVIDE_BY_ZERO@
CONST	SEGMENT
??_C@_0BN@LBLGDPIG@EXCEPTION_INT_DIVIDE_BY_ZERO@ DB 'EXCEPTION_INT_DIVIDE'
	DB	'_BY_ZERO', 00H				; `string'
CONST	ENDS
;	COMDAT ??_C@_0BI@CHKFJJC@EXCEPTION_FLT_UNDERFLOW@
CONST	SEGMENT
??_C@_0BI@CHKFJJC@EXCEPTION_FLT_UNDERFLOW@ DB 'EXCEPTION_FLT_UNDERFLOW', 00H ; `string'
CONST	ENDS
;	COMDAT ??_C@_0BK@COBCCPEI@EXCEPTION_FLT_STACK_CHECK@
CONST	SEGMENT
??_C@_0BK@COBCCPEI@EXCEPTION_FLT_STACK_CHECK@ DB 'EXCEPTION_FLT_STACK_CHE'
	DB	'CK', 00H					; `string'
CONST	ENDS
;	COMDAT ??_C@_0BH@LGFBHAFE@EXCEPTION_FLT_OVERFLOW@
CONST	SEGMENT
??_C@_0BH@LGFBHAFE@EXCEPTION_FLT_OVERFLOW@ DB 'EXCEPTION_FLT_OVERFLOW', 00H ; `string'
CONST	ENDS
;	COMDAT ??_C@_0CA@JJDIIMDB@EXCEPTION_FLT_INVALID_OPERATION@
CONST	SEGMENT
??_C@_0CA@JJDIIMDB@EXCEPTION_FLT_INVALID_OPERATION@ DB 'EXCEPTION_FLT_INV'
	DB	'ALID_OPERATION', 00H			; `string'
CONST	ENDS
;	COMDAT ??_C@_0BN@KLCBBCKL@EXCEPTION_FLT_INEXACT_RESULT@
CONST	SEGMENT
??_C@_0BN@KLCBBCKL@EXCEPTION_FLT_INEXACT_RESULT@ DB 'EXCEPTION_FLT_INEXAC'
	DB	'T_RESULT', 00H				; `string'
CONST	ENDS
;	COMDAT ??_C@_0BN@PHPNMCML@EXCEPTION_FLT_DIVIDE_BY_ZERO@
CONST	SEGMENT
??_C@_0BN@PHPNMCML@EXCEPTION_FLT_DIVIDE_BY_ZERO@ DB 'EXCEPTION_FLT_DIVIDE'
	DB	'_BY_ZERO', 00H				; `string'
CONST	ENDS
;	COMDAT ??_C@_0BP@NMNHALMC@EXCEPTION_FLT_DENORMAL_OPERAND@
CONST	SEGMENT
??_C@_0BP@NMNHALMC@EXCEPTION_FLT_DENORMAL_OPERAND@ DB 'EXCEPTION_FLT_DENO'
	DB	'RMAL_OPERAND', 00H				; `string'
CONST	ENDS
;	COMDAT ??_C@_0CA@JNIHFDGO@EXCEPTION_ARRAY_BOUNDS_EXCEEDED@
CONST	SEGMENT
??_C@_0CA@JNIHFDGO@EXCEPTION_ARRAY_BOUNDS_EXCEEDED@ DB 'EXCEPTION_ARRAY_B'
	DB	'OUNDS_EXCEEDED', 00H			; `string'
CONST	ENDS
;	COMDAT ??_C@_0BG@HPCFEJHG@EXCEPTION_SINGLE_STEP@
CONST	SEGMENT
??_C@_0BG@HPCFEJHG@EXCEPTION_SINGLE_STEP@ DB 'EXCEPTION_SINGLE_STEP', 00H ; `string'
CONST	ENDS
;	COMDAT ??_C@_0BF@FLLDOCJP@EXCEPTION_BREAKPOINT@
CONST	SEGMENT
??_C@_0BF@FLLDOCJP@EXCEPTION_BREAKPOINT@ DB 'EXCEPTION_BREAKPOINT', 00H ; `string'
CONST	ENDS
;	COMDAT ??_C@_0CA@LEJEDDLG@EXCEPTION_DATATYPE_MISALIGNMENT@
CONST	SEGMENT
??_C@_0CA@LEJEDDLG@EXCEPTION_DATATYPE_MISALIGNMENT@ DB 'EXCEPTION_DATATYP'
	DB	'E_MISALIGNMENT', 00H			; `string'
CONST	ENDS
;	COMDAT ??_C@_0BL@CMOMFGDN@EXCEPTION_ACCESS_VIOLATION@
CONST	SEGMENT
??_C@_0BL@CMOMFGDN@EXCEPTION_ACCESS_VIOLATION@ DB 'EXCEPTION_ACCESS_VIOLA'
	DB	'TION', 00H					; `string'
CONST	ENDS
;	COMDAT ??_C@_06OJLEAOEG@?$CFs?0?5?$CFd@
CONST	SEGMENT
??_C@_06OJLEAOEG@?$CFs?0?5?$CFd@ DB '%s, %d', 00H	; `string'
CONST	ENDS
;	COMDAT ??_C@_04DLGOCPFH@?$CFs?$CI?$CJ@
CONST	SEGMENT
??_C@_04DLGOCPFH@?$CFs?$CI?$CJ@ DB '%s()', 00H		; `string'
CONST	ENDS
;	COMDAT ??_C@_0BP@NDGHPOJN@?5?$CI0x?$CF08X?50x?$CF08X?50x?$CF08X?50x?$CF08X?$CJ@
CONST	SEGMENT
??_C@_0BP@NDGHPOJN@?5?$CI0x?$CF08X?50x?$CF08X?50x?$CF08X?50x?$CF08X?$CJ@ DB ' '
	DB	'(0x%08X 0x%08X 0x%08X 0x%08X)', 00H		; `string'
CONST	ENDS
;	COMDAT ??_C@_07CMMEBABO@0x?$CF016X@
CONST	SEGMENT
??_C@_07CMMEBABO@0x?$CF016X@ DB '0x%016X', 00H		; `string'
CONST	ENDS
;	COMDAT ??_C@_0O@LLCFKP@?$CFs?0?5line?5?$CF04d@
CONST	SEGMENT
??_C@_0O@LLCFKP@?$CFs?0?5line?5?$CF04d@ DB '%s, line %04d', 00H ; `string'
CONST	ENDS
;	COMDAT ??_C@_0BL@GPBODGPP@?$CFs?0?5line?5?$CF04d?$CL?$CF04d?5byte?$CIs?$CJ@
CONST	SEGMENT
??_C@_0BL@GPBODGPP@?$CFs?0?5line?5?$CF04d?$CL?$CF04d?5byte?$CIs?$CJ@ DB '%'
	DB	's, line %04d+%04d byte(s)', 00H		; `string'
CONST	ENDS
;	COMDAT ??_C@_03IKGEINEE@?$CFs?5@
CONST	SEGMENT
??_C@_03IKGEINEE@?$CFs?5@ DB '%s ', 00H			; `string'
CONST	ENDS
;	COMDAT ??_C@_0BC@CLKPGJFG@?$CFs?$CI?$CJ?$CL?$CF04d?5byte?$CIs?$CJ@
CONST	SEGMENT
??_C@_0BC@CLKPGJFG@?$CFs?$CI?$CJ?$CL?$CF04d?5byte?$CIs?$CJ@ DB '%s()+%04d'
	DB	' byte(s)', 00H				; `string'
CONST	ENDS
;	COMDAT ??_C@_09BDMEFKPB@?5at?5?$CF016X@
CONST	SEGMENT
??_C@_09BDMEFKPB@?5at?5?$CF016X@ DB ' at %016X', 00H	; `string'
CONST	ENDS
;	COMDAT ??_C@_09KOIOCIHC@?$DMUNKNOWN?$DO@
CONST	SEGMENT
??_C@_09KOIOCIHC@?$DMUNKNOWN?$DO@ DB '<UNKNOWN>', 00H	; `string'
CONST	ENDS
;	COMDAT ??_C@_0M@MEHCDCPC@?5in?5module?5@
CONST	SEGMENT
??_C@_0M@MEHCDCPC@?5in?5module?5@ DB ' in module ', 00H	; `string'
CONST	ENDS
;	COMDAT ??_C@_09KKJFIDEP@NTDLL?4DLL@
CONST	SEGMENT
??_C@_09KKJFIDEP@NTDLL?4DLL@ DB 'NTDLL.DLL', 00H	; `string'
CONST	ENDS
;	COMDAT ??_C@_0M@CMJODOBC@?5caused?5an?5@
CONST	SEGMENT
??_C@_0M@CMJODOBC@?5caused?5an?5@ DB ' caused an ', 00H	; `string'
CONST	ENDS
;	COMDAT ??_C@_0CD@KECBMHB@EXCEPTION_STACK_OVERFLOW?5occurr@
CONST	SEGMENT
??_C@_0CD@KECBMHB@EXCEPTION_STACK_OVERFLOW?5occurr@ DB 'EXCEPTION_STACK_O'
	DB	'VERFLOW occurred', 0aH, 00H			; `string'
CONST	ENDS
;	COMDAT ??_C@_0CD@LBDEJLAP@?$CB?$CB?$CB?$CB?$CB?$CB?$CB?$CB?$CB?$CB?$CB?$CB?$CB?$CB?$CB?$CB?$CB?$CB?$CB?$CB?$CB?$CB?$CB?$CB?$CB?$CB?$CB?$CB?$CB?$CB?$CB@
CONST	SEGMENT
??_C@_0CD@LBDEJLAP@?$CB?$CB?$CB?$CB?$CB?$CB?$CB?$CB?$CB?$CB?$CB?$CB?$CB?$CB?$CB?$CB?$CB?$CB?$CB?$CB?$CB?$CB?$CB?$CB?$CB?$CB?$CB?$CB?$CB?$CB?$CB@ DB '!'
	DB	'!!!!!!!!!!!!!!!!!!!!!!!!!!!!!!!!', 0aH, 00H	; `string'
PUBLIC	?CleanupSymEng@@YAXXZ				; CleanupSymEng
PUBLIC	?InitSymEng@@YAXXZ				; InitSymEng
PUBLIC	?CH_ReadProcessMemory@@YAHPEAXPEBX0KPEA_K@Z	; CH_ReadProcessMemory
PUBLIC	?CrashHandlerExceptionFilter@@YAJPEAU_EXCEPTION_POINTERS@@@Z ; CrashHandlerExceptionFilter
PUBLIC	??1CleanUpCrashHandler@@QEAA@XZ			; CleanUpCrashHandler::~CleanUpCrashHandler
PUBLIC	??0CleanUpCrashHandler@@QEAA@XZ			; CleanUpCrashHandler::CleanUpCrashHandler
?g_cBeforeAndAfter@@3VCleanUpCrashHandler@@A DB 01H DUP (?) ; g_cBeforeAndAfter
	ALIGN	4

?g_bSymEngInit@@3HA DD 01H DUP (?)			; g_bSymEngInit
_BSS	ENDS
pdata	SEGMENT
$pdata$?CleanupSymEng@@YAXXZ DD imagerel $LN5
	DD	imagerel $LN5+42
	DD	imagerel $unwind$?CleanupSymEng@@YAXXZ
$pdata$?InitSymEng@@YAXXZ DD imagerel $LN5
	DD	imagerel $LN5+62
	DD	imagerel $unwind$?InitSymEng@@YAXXZ
$pdata$?CH_ReadProcessMemory@@YAHPEAXPEBX0KPEA_K@Z DD imagerel $LN4
	DD	imagerel $LN4+64
	DD	imagerel $unwind$?CH_ReadProcessMemory@@YAHPEAXPEBX0KPEA_K@Z
$pdata$?CrashHandlerExceptionFilter@@YAJPEAU_EXCEPTION_POINTERS@@@Z DD imagerel $LN29
	DD	imagerel $LN29+283
	DD	imagerel $unwind$?CrashHandlerExceptionFilter@@YAJPEAU_EXCEPTION_POINTERS@@@Z
?g_cBeforeAndAfter$initializer$@@3P6AXXZEA DQ FLAT:??__Eg_cBeforeAndAfter@@YAXXZ ; g_cBeforeAndAfter$initializer$
xdata	SEGMENT
$unwind$?CleanupSymEng@@YAXXZ DD 010401H
	DD	04204H
$unwind$?InitSymEng@@YAXXZ DD 010401H
	DD	04204H
$unwind$?CH_ReadProcessMemory@@YAHPEAXPEBX0KPEA_K@Z DD 060f01H
	DD	09640fH
	DD	08340fH
	DD	0700b520fH
$unwind$?CrashHandlerExceptionFilter@@YAJPEAU_EXCEPTION_POINTERS@@@Z DD 081509H
	DD	0a7415H
	DD	096415H
	DD	083415H
	DD	0e0115215H
	DD	imagerel __C_specific_handler
	DD	01H
	DD	imagerel $LN29+77
	DD	imagerel $LN29+253
	DD	01H
	DD	imagerel $LN29+253
; Function compile flags: /Ogtpy
; File C:\Users\Mahito\Desktop\Night outing\Night-outing\src\xrCore\blackbox\CrashHandler.cpp
;	COMDAT ??0CleanUpCrashHandler@@QEAA@XZ
_TEXT	SEGMENT
this$dead$ = 8
??0CleanUpCrashHandler@@QEAA@XZ PROC			; CleanUpCrashHandler::CleanUpCrashHandler, COMDAT

; 98   :     {
; 99   :     }

	lea	rax, OFFSET FLAT:?g_cBeforeAndAfter@@3VCleanUpCrashHandler@@A
	ret	0
??0CleanUpCrashHandler@@QEAA@XZ ENDP			; CleanUpCrashHandler::CleanUpCrashHandler
_TEXT	ENDS
; Function compile flags: /Ogtpy
; File C:\Users\Mahito\Desktop\Night outing\Night-outing\src\xrCore\blackbox\CrashHandler.cpp
;	COMDAT ??1CleanUpCrashHandler@@QEAA@XZ
_TEXT	SEGMENT
this$ = 8
??1CleanUpCrashHandler@@QEAA@XZ PROC			; CleanUpCrashHandler::~CleanUpCrashHandler, COMDAT

; 102  :         // Are there any outstanding memory allocations?
; 103  :         if ( NULL != g_ahMod )
; 104  :         {
; 105  :             VERIFY ( HeapFree ( GetProcessHeap ( ) ,
; 106  :                                 0                  ,
; 107  :                                 g_ahMod             ) ) ;
; 108  :             g_ahMod = NULL ;
; 109  :         }
; 110  :         if ( NULL != g_pfnOrigFilt )

	mov	rcx, QWORD PTR ?g_pfnOrigFilt@@3P6AJPEAU_EXCEPTION_POINTERS@@@ZEA
	test	rcx, rcx
	je	SHORT $LN3@CleanUpCra

; 111  :         {
; 112  :             // Restore the original unhandled exception filter.
; 113  :             SetUnhandledExceptionFilter ( g_pfnOrigFilt ) ;

	rex_jmp	QWORD PTR __imp_SetUnhandledExceptionFilter
$LN3@CleanUpCra:

; 114  :         }
; 115  :     }

	ret	0
??1CleanUpCrashHandler@@QEAA@XZ ENDP			; CleanUpCrashHandler::~CleanUpCrashHandler
_TEXT	ENDS
; Function compile flags: /Ogtpy
; File C:\Users\Mahito\Desktop\Night outing\Night-outing\src\xrCore\blackbox\CrashHandler.cpp
;	COMDAT ??__Eg_cBeforeAndAfter@@YAXXZ
text$di	SEGMENT
??__Eg_cBeforeAndAfter@@YAXXZ PROC			; `dynamic initializer for 'g_cBeforeAndAfter'', COMDAT

; 119  : static CleanUpCrashHandler g_cBeforeAndAfter ;

	lea	rcx, OFFSET FLAT:??__Fg_cBeforeAndAfter@@YAXXZ ; `dynamic atexit destructor for 'g_cBeforeAndAfter''
	jmp	atexit
??__Eg_cBeforeAndAfter@@YAXXZ ENDP			; `dynamic initializer for 'g_cBeforeAndAfter''
text$di	ENDS
; Function compile flags: /Ogtpy
; File C:\Users\Mahito\Desktop\Night outing\Night-outing\src\xrCore\blackbox\CrashHandler.cpp
;	COMDAT ??__Fg_cBeforeAndAfter@@YAXXZ
text$yd	SEGMENT
??__Fg_cBeforeAndAfter@@YAXXZ PROC			; `dynamic atexit destructor for 'g_cBeforeAndAfter'', COMDAT

; 110  :         if ( NULL != g_pfnOrigFilt )

	mov	rcx, QWORD PTR ?g_pfnOrigFilt@@3P6AJPEAU_EXCEPTION_POINTERS@@@ZEA
	test	rcx, rcx
	je	SHORT $LN5@dynamic

; 111  :         {
; 112  :             // Restore the original unhandled exception filter.
; 113  :             SetUnhandledExceptionFilter ( g_pfnOrigFilt ) ;

	rex_jmp	QWORD PTR __imp_SetUnhandledExceptionFilter
$LN5@dynamic:
	ret	0
??__Fg_cBeforeAndAfter@@YAXXZ ENDP			; `dynamic atexit destructor for 'g_cBeforeAndAfter''
text$yd	ENDS
; Function compile flags: /Ogtpy
; File C:\Users\Mahito\Desktop\Night outing\Night-outing\src\xrCore\blackbox\CrashHandler.cpp
_TEXT	SEGMENT
bCallIt$1 = 32
lRet$ = 36
i$2 = 40
pExPtrs$ = 64
?CrashHandlerExceptionFilter@@YAJPEAU_EXCEPTION_POINTERS@@@Z PROC ; CrashHandlerExceptionFilter

; 252  : {

$LN29:
	mov	QWORD PTR [rsp+8], rbx
	mov	QWORD PTR [rsp+16], rsi
	mov	QWORD PTR [rsp+24], rdi
	push	r14
	sub	rsp, 48					; 00000030H
	mov	r14, rcx

; 253  :     LONG lRet = EXCEPTION_CONTINUE_SEARCH ;

	xor	esi, esi

; 254  : 
; 255  :     // If the exception is an EXCEPTION_STACK_OVERFLOW, there isn't much
; 256  :     // you can do because the stack is blown. If you try to do anything,
; 257  :     // the odds are great that you'll just double-fault and bomb right
; 258  :     // out of your exception filter. Although I don't recommend doing so,
; 259  :     // you could play some games with the stack register and
; 260  :     // manipulate it so that you could regain enough space to run these
; 261  :     // functions. Of course, if you did change the stack register, you'd
; 262  :     // have problems walking the stack.
; 263  :     // I take the safe route and make some calls to OutputDebugString here.
; 264  :     // I still might double-fault, but because OutputDebugString does very
; 265  :     // little on the stack (something like 8-16 bytes), it's worth a
; 266  :     // shot. You can have your users download Mark Russinovich's
; 267  :     // DebugView/Enterprise Edition (www.sysinternals.com) so they can
; 268  :     // at least tell you what they see.
; 269  :     // The only problem is that I can't even be sure there's enough
; 270  :     // room on the stack to convert the instruction pointer.
; 271  :     // Fortunately, EXCEPTION_STACK_OVERFLOW doesn't happen very often.
; 272  : 
; 273  :     // Note that I still call your crash handler. I'm doing the logging
; 274  :     // work here in case the blown stack kills your crash handler.
; 275  :     if ( EXCEPTION_STACK_OVERFLOW ==

	mov	rax, QWORD PTR [rcx]
	cmp	DWORD PTR [rax], -1073741571		; c00000fdH
	jne	SHORT $LN5@CrashHandl

; 276  :                               pExPtrs->ExceptionRecord->ExceptionCode )
; 277  :     {
; 278  :         OutputDebugString ( "!!!!!!!!!!!!!!!!!!!!!!!!!!!!!!!!!\n" ) ;

	lea	rcx, OFFSET FLAT:??_C@_0CD@LBDEJLAP@?$CB?$CB?$CB?$CB?$CB?$CB?$CB?$CB?$CB?$CB?$CB?$CB?$CB?$CB?$CB?$CB?$CB?$CB?$CB?$CB?$CB?$CB?$CB?$CB?$CB?$CB?$CB?$CB?$CB?$CB?$CB@
	call	QWORD PTR __imp_OutputDebugStringA

; 279  :         OutputDebugString ( "EXCEPTION_STACK_OVERFLOW occurred\n" ) ;

	lea	rcx, OFFSET FLAT:??_C@_0CD@KECBMHB@EXCEPTION_STACK_OVERFLOW?5occurr@
	call	QWORD PTR __imp_OutputDebugStringA

; 280  :         OutputDebugString ( "!!!!!!!!!!!!!!!!!!!!!!!!!!!!!!!!!\n" ) ;

	lea	rcx, OFFSET FLAT:??_C@_0CD@LBDEJLAP@?$CB?$CB?$CB?$CB?$CB?$CB?$CB?$CB?$CB?$CB?$CB?$CB?$CB?$CB?$CB?$CB?$CB?$CB?$CB?$CB?$CB?$CB?$CB?$CB?$CB?$CB?$CB?$CB?$CB?$CB?$CB@
	call	QWORD PTR __imp_OutputDebugStringA
	npad	1
$LN5@CrashHandl:

; 281  :     }
; 282  : 
; 283  :     __try
; 284  :     {
; 285  : 
; 286  :         if ( NULL != g_pfnCallBack )

	cmp	QWORD PTR ?g_pfnCallBack@@3P6AJPEAU_EXCEPTION_POINTERS@@@ZEA, 0
	je	$LN7@CrashHandl

; 287  :         {
; 288  : 
; 289  :             // The symbol engine has to be initialized here so that
; 290  :             // I can look up the base module information for the
; 291  :             // crash address as well as get the symbol engine
; 292  :             // ready.
; 293  :             InitSymEng ( ) ;

	call	?InitSymEng@@YAXXZ			; InitSymEng

; 294  : 
; 295  :             // Check the g_ahMod list.
; 296  :             BOOL bCallIt = FALSE ;

	mov	edi, esi
	mov	DWORD PTR bCallIt$1[rsp], esi

; 297  :             if ( 0 == g_uiModCount )

	cmp	DWORD PTR ?g_uiModCount@@3IA, esi
	je	SHORT $LN26@CrashHandl

; 298  :             {
; 299  :                 bCallIt = TRUE ;
; 300  :             }
; 301  :             else
; 302  :             {
; 303  :                 HINSTANCE hBaseAddr = (HINSTANCE)

	mov	rax, QWORD PTR [r14]
	mov	ebx, DWORD PTR [rax+16]
	call	QWORD PTR __imp_GetCurrentProcessId
	mov	ecx, eax
	mov	edx, ebx
	call	QWORD PTR __imp_SymGetModuleBase64
	mov	r8, rax

; 304  :                       SymGetModuleBase((HANDLE)GetCurrentProcessId ( ) ,
; 305  :                                        (DWORD)pExPtrs->
; 306  :                                             ExceptionRecord->
; 307  :                                                       ExceptionAddress);
; 308  :                 if ( NULL != hBaseAddr )

	test	rax, rax
	je	SHORT $LN3@CrashHandl

; 309  :                 {
; 310  :                     for ( UINT i = 0 ; i < g_uiModCount ; i ++ )

	mov	ecx, esi
	mov	edx, DWORD PTR ?g_uiModCount@@3IA
$LN25@CrashHandl:
	mov	DWORD PTR i$2[rsp], ecx
	cmp	ecx, edx
	jae	SHORT $LN3@CrashHandl

; 311  :                     {
; 312  :                         if ( hBaseAddr == g_ahMod[ i ] )

	mov	eax, ecx
	cmp	r8, QWORD PTR [rax*8]
	je	SHORT $LN26@CrashHandl

; 309  :                 {
; 310  :                     for ( UINT i = 0 ; i < g_uiModCount ; i ++ )

	inc	ecx
	jmp	SHORT $LN25@CrashHandl
$LN26@CrashHandl:

; 313  :                         {
; 314  :                             bCallIt = TRUE ;
; 315  :                             break ;
; 316  :                         }
; 317  :                     }
; 318  :                 }
; 319  :             }
; 320  :             if ( TRUE == bCallIt )

	mov	edi, 1
	mov	DWORD PTR bCallIt$1[rsp], edi
$LN3@CrashHandl:
	cmp	edi, 1
	jne	SHORT $LN12@CrashHandl

; 321  :             {
; 322  :                 // Check that the crash handler still exists in memory
; 323  :                 // before I call it. The user might have forgotten to
; 324  :                 // unregister, and the crash handler is invalid because
; 325  :                 // it got unloaded. If some other function loaded
; 326  :                 // back into the same address, however, there isn't much
; 327  :                 // I can do.
; 328  :                 ASSERT ( FALSE == IsBadCodePtr((FARPROC)g_pfnCallBack));
; 329  :                 if ( FALSE == IsBadCodePtr ( (FARPROC)g_pfnCallBack ) )

	mov	rcx, QWORD PTR ?g_pfnCallBack@@3P6AJPEAU_EXCEPTION_POINTERS@@@ZEA
	call	QWORD PTR __imp_IsBadCodePtr
	test	eax, eax
	jne	SHORT $LN15@CrashHandl

; 330  :                 {
; 331  :                     lRet = g_pfnCallBack ( pExPtrs ) ;

	mov	rcx, r14
	call	QWORD PTR ?g_pfnCallBack@@3P6AJPEAU_EXCEPTION_POINTERS@@@ZEA

; 332  :                 }
; 333  :             }

	jmp	SHORT $LN27@CrashHandl
$LN12@CrashHandl:

; 334  :             else
; 335  :             {
; 336  :                 // Call the previous filter but only after it checks
; 337  :                 // out. I'm just being a little paranoid.
; 338  :                 ASSERT ( FALSE == IsBadCodePtr((FARPROC)g_pfnOrigFilt));
; 339  :                 if ( FALSE == IsBadCodePtr ( (FARPROC)g_pfnOrigFilt ) )

	mov	rcx, QWORD PTR ?g_pfnOrigFilt@@3P6AJPEAU_EXCEPTION_POINTERS@@@ZEA
	call	QWORD PTR __imp_IsBadCodePtr
	test	eax, eax
	jne	SHORT $LN15@CrashHandl

; 340  :                 {
; 341  :                     lRet = g_pfnOrigFilt ( pExPtrs ) ;

	mov	rcx, r14
	call	QWORD PTR ?g_pfnOrigFilt@@3P6AJPEAU_EXCEPTION_POINTERS@@@ZEA
$LN27@CrashHandl:

; 342  :                 }
; 343  :             }
; 344  :             CleanupSymEng ( ) ;

	mov	DWORD PTR lRet$[rsp], eax
	mov	esi, eax
$LN15@CrashHandl:
	call	?CleanupSymEng@@YAXXZ			; CleanupSymEng
$LN7@CrashHandl:

; 345  :         }
; 346  :     }

	jmp	SHORT $LN21@CrashHandl
$LN19@CrashHandl:

; 347  :     __except ( EXCEPTION_EXECUTE_HANDLER )
; 348  :     {
; 349  :         lRet = EXCEPTION_CONTINUE_SEARCH ;

	xor	esi, esi
	mov	DWORD PTR lRet$[rsp], esi
$LN21@CrashHandl:

; 350  :     }
; 351  :     return ( lRet ) ;

	mov	eax, esi

; 352  : }

	mov	rbx, QWORD PTR [rsp+64]
	mov	rsi, QWORD PTR [rsp+72]
	mov	rdi, QWORD PTR [rsp+80]
	add	rsp, 48					; 00000030H
	pop	r14
	ret	0
?CrashHandlerExceptionFilter@@YAJPEAU_EXCEPTION_POINTERS@@@Z ENDP ; CrashHandlerExceptionFilter
_TEXT	ENDS
; Function compile flags: /Ogtpy
; File C:\Users\Mahito\Desktop\Night outing\Night-outing\src\xrCore\blackbox\CrashHandler.cpp
_TEXT	SEGMENT
__formal$ = 64
lpBaseAddress$ = 72
lpBuffer$ = 80
nSize$ = 88
lpNumberOfBytesRead$ = 96
?CH_ReadProcessMemory@@YAHPEAXPEBX0KPEA_K@Z PROC	; CH_ReadProcessMemory

; 658  : {

$LN4:
	mov	QWORD PTR [rsp+8], rbx
	mov	QWORD PTR [rsp+16], rsi
	push	rdi
	sub	rsp, 48					; 00000030H
	mov	rdi, r8

; 659  :     return ( ReadProcessMemory ( GetCurrentProcess ( ) ,

	mov	ebx, r9d
	mov	rsi, rdx
	call	QWORD PTR __imp_GetCurrentProcess
	mov	r9d, ebx
	mov	r8, rdi
	mov	rcx, rax
	mov	rdx, rsi

; 660  :                                  lpBaseAddress         ,
; 661  :                                  lpBuffer              ,
; 662  :                                  nSize                 ,
; 663  :                                     lpNumberOfBytesRead    ) ) ;
; 664  : }

	mov	rbx, QWORD PTR [rsp+64]
	mov	rsi, QWORD PTR [rsp+72]
	add	rsp, 48					; 00000030H
	pop	rdi

; 659  :     return ( ReadProcessMemory ( GetCurrentProcess ( ) ,

	rex_jmp	QWORD PTR __imp_ReadProcessMemory
?CH_ReadProcessMemory@@YAHPEAXPEBX0KPEA_K@Z ENDP	; CH_ReadProcessMemory
_TEXT	ENDS
; Function compile flags: /Ogtpy
; File C:\Users\Mahito\Desktop\Night outing\Night-outing\src\xrCore\blackbox\CrashHandler.cpp
_TEXT	SEGMENT
?InitSymEng@@YAXXZ PROC					; InitSymEng

; 1177 : {

$LN5:
	sub	rsp, 40					; 00000028H

; 1178 :     if ( FALSE == g_bSymEngInit )

	cmp	DWORD PTR ?g_bSymEngInit@@3HA, 0
	jne	SHORT $LN2@InitSymEng

; 1179 :     {
; 1180 :         // Set up the symbol engine.
; 1181 :         DWORD dwOpts = SymGetOptions ( ) ;

	call	QWORD PTR __imp_SymGetOptions

; 1182 : 
; 1183 :         // Turn on line loading and deferred loading.
; 1184 :         SymSetOptions ( dwOpts                |

	or	eax, 20
	mov	ecx, eax
	call	QWORD PTR __imp_SymSetOptions

; 1185 :                         SYMOPT_DEFERRED_LOADS |
; 1186 :                         SYMOPT_LOAD_LINES      ) ;
; 1187 : 
; 1188 :         // Force the invade process flag no matter what operating system
; 1189 :         // I'm on.
; 1190 :         HANDLE hPID = (HANDLE)GetCurrentProcessId ( ) ;

	call	QWORD PTR __imp_GetCurrentProcessId
	mov	eax, eax

; 1191 :         VERIFY ( BSUSymInitialize ( (DWORD)hPID ,

	mov	edx, eax
	mov	ecx, eax
	call	BSUSymInitialize

; 1192 :                                     hPID        ,
; 1193 :                                     g_application_path,
; 1194 :                                     TRUE         ) ) ;
; 1195 :         g_bSymEngInit = TRUE ;

	mov	DWORD PTR ?g_bSymEngInit@@3HA, 1
$LN2@InitSymEng:

; 1196 :     }
; 1197 : }

	add	rsp, 40					; 00000028H
	ret	0
?InitSymEng@@YAXXZ ENDP					; InitSymEng
_TEXT	ENDS
; Function compile flags: /Ogtpy
; File C:\Users\Mahito\Desktop\Night outing\Night-outing\src\xrCore\blackbox\CrashHandler.cpp
_TEXT	SEGMENT
?CleanupSymEng@@YAXXZ PROC				; CleanupSymEng

; 1201 : {

$LN5:
	sub	rsp, 40					; 00000028H

; 1202 :     if ( TRUE == g_bSymEngInit )

	cmp	DWORD PTR ?g_bSymEngInit@@3HA, 1
	jne	SHORT $LN2@CleanupSym

; 1203 :     {
; 1204 :         VERIFY ( SymCleanup ( (HANDLE)GetCurrentProcessId ( ) ) ) ;

	call	QWORD PTR __imp_GetCurrentProcessId
	mov	ecx, eax
	call	QWORD PTR __imp_SymCleanup

; 1205 :         g_bSymEngInit = FALSE ;

	mov	DWORD PTR ?g_bSymEngInit@@3HA, 0
$LN2@CleanupSym:

; 1206 :     }
; 1207 : }

	add	rsp, 40					; 00000028H
	ret	0
?CleanupSymEng@@YAXXZ ENDP				; CleanupSymEng
_TEXT	ENDS
END
