; Listing generated by Microsoft (R) Optimizing Compiler Version 19.35.32217.1 

include listing.inc

INCLUDELIB OLDNAMES

PUBLIC	?crc32_init@@YAXXZ				; crc32_init
PUBLIC	?Reflect@@YAIID@Z				; Reflect
PUBLIC	?crc32@@YAIPEBXI@Z				; crc32
?crc32_ready@@3HA DD 01H DUP (?)			; crc32_ready
?crc32_table@@3PAIA DD 0100H DUP (?)			; crc32_table
_BSS	ENDS
pdata	SEGMENT
$pdata$?crc32@@YAIPEBXI@Z DD imagerel $LN12
	DD	imagerel $LN12+102
	DD	imagerel $unwind$?crc32@@YAIPEBXI@Z
xdata	SEGMENT
$unwind$?crc32@@YAIPEBXI@Z DD 040a01H
	DD	06340aH
	DD	07006320aH
; Function compile flags: /Ogtpy
; File C:\Users\Mahito\Desktop\Night outing\Night-outing\src\xrCore\crc32.cpp
_TEXT	SEGMENT
P$ = 48
len$ = 56
?crc32@@YAIPEBXI@Z PROC					; crc32

; 43   : {

$LN12:
	mov	QWORD PTR [rsp+8], rbx
	push	rdi
	sub	rsp, 32					; 00000020H

; 44   : 	if (!crc32_ready)	

	cmp	DWORD PTR ?crc32_ready@@3HA, 0
	mov	ebx, edx
	mov	rdi, rcx
	jne	SHORT $LN4@crc32

; 45   : 	{
; 46   : 		crc32_init	();

	call	?crc32_init@@YAXXZ			; crc32_init

; 47   : 		crc32_ready	= TRUE;

	mov	DWORD PTR ?crc32_ready@@3HA, 1
$LN4@crc32:

; 48   : 	}
; 49   : 
; 50   : 	// Pass a text string to this function and it will return the CRC. 
; 51   : 
; 52   : 	// Once the lookup table has been filled in by the two functions above, 
; 53   : 	// this function creates all CRCs using only the lookup table. 
; 54   : 
; 55   : 	// Be sure to use unsigned variables, 
; 56   : 	// because negative values introduce high bits 
; 57   : 	// where zero bits are required. 
; 58   : 
; 59   : 	// Start out with all bits set high. 
; 60   : 	u32		ulCRC		= 0xffffffff; 

	mov	eax, -1					; ffffffffH

; 61   : 	u8*		buffer		= (u8*)P;
; 62   : 
; 63   : 	// Perform the algorithm on each character 
; 64   : 	// in the string, using the lookup table values. 
; 65   : 	while(len--) 

	test	ebx, ebx
	je	SHORT $LN7@crc32
	lea	r8, OFFSET FLAT:?crc32_table@@3PAIA
	npad	9
$LL2@crc32:

; 66   : 		ulCRC = (ulCRC >> 8) ^ crc32_table[(ulCRC & 0xFF) ^ *buffer++]; 

	movzx	ecx, BYTE PTR [rdi]
	lea	rdi, QWORD PTR [rdi+1]
	movzx	edx, al
	xor	rdx, rcx
	shr	eax, 8
	xor	eax, DWORD PTR [r8+rdx*4]
	add	ebx, -1					; ffffffffH
	jne	SHORT $LL2@crc32
$LN7@crc32:

; 67   : 
; 68   : 	// Exclusive OR the result with the beginning value. 
; 69   : 	return ulCRC ^ 0xffffffff; 
; 70   : } 

	mov	rbx, QWORD PTR [rsp+48]
	not	eax
	add	rsp, 32					; 00000020H
	pop	rdi
	ret	0
?crc32@@YAIPEBXI@Z ENDP					; crc32
_TEXT	ENDS
; Function compile flags: /Ogtpy
; File C:\Users\Mahito\Desktop\Night outing\Night-outing\src\xrCore\crc32.cpp
;	COMDAT ?Reflect@@YAIID@Z
_TEXT	SEGMENT
ref$ = 8
ch$ = 16
?Reflect@@YAIID@Z PROC					; Reflect, COMDAT

; 8    : {

	mov	r8d, ecx

; 9    : 	// Used only by Init_CRC32_Table(). 
; 10   : 
; 11   : 	u32 value(0); 

	xor	r9d, r9d

; 12   : 
; 13   : 	// Swap bit 0 for bit 7 
; 14   : 	// bit 1 for bit 6, etc. 
; 15   : 	for(int i = 1; i < (ch + 1); i++) 

	movsx	ecx, dl
	lea	eax, DWORD PTR [rcx+1]
	cmp	eax, 1
	jle	SHORT $LN11@Reflect
	lea	edx, DWORD PTR [rcx-1]
	mov	eax, ecx
	mov	r10d, 1
	npad	4
$LL4@Reflect:

; 16   : 	{ 
; 17   : 		if(ref & 1) 

	test	r8b, r10b
	je	SHORT $LN5@Reflect

; 18   : 			value |= 1 << (ch - i); 

	shlx	ecx, r10d, edx
	or	r9d, ecx
$LN5@Reflect:

; 19   : 		ref >>= 1; 

	shr	r8d, 1
	dec	edx
	sub	rax, r10
	jne	SHORT $LL4@Reflect
$LN11@Reflect:

; 20   : 	} 
; 21   : 	return value; 
; 22   : } 

	mov	eax, r9d
	ret	0
?Reflect@@YAIID@Z ENDP					; Reflect
_TEXT	ENDS
; Function compile flags: /Ogtpy
; File C:\Users\Mahito\Desktop\Night outing\Night-outing\src\xrCore\crc32.cpp
_TEXT	SEGMENT
?crc32_init@@YAXXZ PROC					; crc32_init

; 26   : 	// Call this function only once to initialize the CRC table. 
; 27   : 
; 28   : 	// This is the official polynomial used by CRC-32 
; 29   : 	// in PKZip, WinZip and Ethernet. 
; 30   : 	u32 ulPolynomial = 0x04c11db7; 

	xor	r9d, r9d
	lea	r10, OFFSET FLAT:?crc32_table@@3PAIA
	mov	r11d, 1
$LL4@crc32_init:

; 19   : 		ref >>= 1; 

	mov	r8d, r9d
	mov	ecx, r9d
	and	ecx, r11d
	shr	r8d, 1
	shl	ecx, 7
	mov	edx, ecx
	or	edx, 64					; 00000040H
	test	r8b, r11b
	cmove	edx, ecx
	shr	r8d, 1
	mov	ecx, edx
	or	ecx, 32					; 00000020H
	test	r8b, r11b
	cmove	ecx, edx
	shr	r8d, 1
	mov	edx, ecx
	or	edx, 16
	test	r8b, r11b
	cmove	edx, ecx
	shr	r8d, 1
	mov	ecx, edx
	or	ecx, 8
	test	r8b, r11b
	cmove	ecx, edx
	shr	r8d, 1
	mov	edx, ecx
	or	edx, 4
	test	r8b, r11b
	cmove	edx, ecx
	shr	r8d, 1
	mov	ecx, edx
	or	ecx, 2
	test	r8b, r11b
	cmove	ecx, edx
	mov	eax, ecx
	or	eax, r11d

; 12   : 
; 13   : 	// Swap bit 0 for bit 7 
; 14   : 	// bit 1 for bit 6, etc. 
; 15   : 	for(int i = 1; i < (ch + 1); i++) 
; 16   : 	{ 
; 17   : 		if(ref & 1) 

	test	r8b, 2
	cmove	eax, ecx

; 34   : 	{ 
; 35   : 		crc32_table[i]=Reflect(i, 8) << 24; 

	shl	eax, 24

; 36   : 		for (int j = 0; j < 8; j++) 
; 37   : 			crc32_table[i] = (crc32_table[i] << 1) ^ (crc32_table[i] & (1 << 31) ? ulPolynomial : 0); 

	mov	ecx, eax
	add	eax, eax
	sar	ecx, 31
	and	ecx, 79764919				; 04c11db7H
	xor	ecx, eax
	mov	edx, ecx
	sar	edx, 31
	and	edx, 79764919				; 04c11db7H
	lea	eax, DWORD PTR [rcx+rcx]
	xor	edx, eax
	mov	ecx, edx
	sar	ecx, 31
	and	ecx, 79764919				; 04c11db7H
	lea	eax, DWORD PTR [rdx+rdx]
	xor	ecx, eax
	mov	edx, ecx
	sar	edx, 31
	and	edx, 79764919				; 04c11db7H
	lea	eax, DWORD PTR [rcx+rcx]
	xor	edx, eax
	mov	ecx, edx
	sar	ecx, 31
	and	ecx, 79764919				; 04c11db7H
	lea	eax, DWORD PTR [rdx+rdx]
	xor	ecx, eax
	mov	edx, ecx
	sar	edx, 31
	and	edx, 79764919				; 04c11db7H
	lea	eax, DWORD PTR [rcx+rcx]
	xor	edx, eax
	mov	ecx, edx
	sar	ecx, 31
	and	ecx, 79764919				; 04c11db7H
	lea	eax, DWORD PTR [rdx+rdx]
	xor	ecx, eax
	mov	eax, ecx
	add	ecx, ecx
	sar	eax, 31
	and	eax, 79764919				; 04c11db7H
	xor	eax, ecx

; 11   : 	u32 value(0); 

	xor	r8d, r8d
	lea	edx, QWORD PTR [r8+30]
$LL12@crc32_init:

; 12   : 
; 13   : 	// Swap bit 0 for bit 7 
; 14   : 	// bit 1 for bit 6, etc. 
; 15   : 	for(int i = 1; i < (ch + 1); i++) 
; 16   : 	{ 
; 17   : 		if(ref & 1) 

	test	al, r11b
	je	SHORT $LN13@crc32_init

; 18   : 			value |= 1 << (ch - i); 

	lea	ecx, DWORD PTR [rdx+1]
	shlx	ecx, r11d, ecx
	or	r8d, ecx
$LN13@crc32_init:

; 19   : 		ref >>= 1; 

	shr	eax, 1
	test	al, r11b
	je	SHORT $LN58@crc32_init

; 18   : 			value |= 1 << (ch - i); 

	shlx	ecx, r11d, edx
	or	r8d, ecx
$LN58@crc32_init:

; 19   : 		ref >>= 1; 

	shr	eax, 1
	sub	edx, 2
	cmp	edx, -2
	jg	SHORT $LL12@crc32_init

; 31   : 
; 32   : 	// 256 values representing ASCII character codes. 
; 33   : 	for(int i = 0; i <= 0xFF; i++) 

	mov	DWORD PTR [r10], r8d
	inc	r9d
	add	r10, 4
	cmp	r9d, 255				; 000000ffH
	jle	$LL4@crc32_init

; 38   : 		crc32_table[i] = Reflect(crc32_table[i], 32); 
; 39   : 	} 
; 40   : } 

	ret	0
?crc32_init@@YAXXZ ENDP					; crc32_init
_TEXT	ENDS
END
