; Listing generated by Microsoft (R) Optimizing Compiler Version 19.35.32217.1 

include listing.inc

INCLUDELIB OLDNAMES

PUBLIC	?construct@CFileStreamReader@@UEAAXPEBDAEBI@Z	; CFileStreamReader::construct
PUBLIC	?destroy@CFileStreamReader@@UEAAXXZ		; CFileStreamReader::destroy
pdata	SEGMENT
$pdata$?construct@CFileStreamReader@@UEAAXPEBDAEBI@Z DD imagerel $LN24
	DD	imagerel $LN24+243
	DD	imagerel $unwind$?construct@CFileStreamReader@@UEAAXPEBDAEBI@Z
$pdata$?destroy@CFileStreamReader@@UEAAXXZ DD imagerel $LN8
	DD	imagerel $LN8+57
	DD	imagerel $unwind$?destroy@CFileStreamReader@@UEAAXXZ
xdata	SEGMENT
$unwind$?construct@CFileStreamReader@@UEAAXPEBDAEBI@Z DD 081401H
	DD	0d6414H
	DD	0c5414H
	DD	0b3414H
	DD	070107214H
$unwind$?destroy@CFileStreamReader@@UEAAXXZ DD 040a01H
	DD	06340aH
	DD	07006320aH
; Function compile flags: /Ogtpy
; File C:\Users\Mahito\Desktop\Night outing\Night-outing\src\xrCore\file_stream_reader.cpp
; File C:\Users\Mahito\Desktop\Night outing\Night-outing\src\xrCore\stream_reader_inline.h
; File C:\Users\Mahito\Desktop\Night outing\Night-outing\src\xrCore\file_stream_reader.cpp
_TEXT	SEGMENT
this$ = 48
?destroy@CFileStreamReader@@UEAAXXZ PROC		; CFileStreamReader::destroy

; 35   : {

$LN8:
	mov	QWORD PTR [rsp+8], rbx
	push	rdi
	sub	rsp, 32					; 00000020H

; 36   : 	HANDLE					file_mapping_handle = this->file_mapping_handle();

	mov	rbx, QWORD PTR [rcx+16]
	mov	rdi, rcx
; File C:\Users\Mahito\Desktop\Night outing\Night-outing\src\xrCore\stream_reader_inline.h

; 30   : 	UnmapViewOfFile	(m_current_map_view_of_file);

	mov	rcx, QWORD PTR [rcx+48]
	call	QWORD PTR __imp_UnmapViewOfFile
; File C:\Users\Mahito\Desktop\Night outing\Night-outing\src\xrCore\file_stream_reader.cpp

; 38   : 	CloseHandle				(file_mapping_handle);

	mov	rcx, rbx
	call	QWORD PTR __imp_CloseHandle

; 39   : 	CloseHandle				(m_file_handle);

	mov	rcx, QWORD PTR [rdi+72]

; 40   : }

	mov	rbx, QWORD PTR [rsp+48]
	add	rsp, 32					; 00000020H
	pop	rdi

; 39   : 	CloseHandle				(m_file_handle);

	rex_jmp	QWORD PTR __imp_CloseHandle
?destroy@CFileStreamReader@@UEAAXXZ ENDP		; CFileStreamReader::destroy
_TEXT	ENDS
; Function compile flags: /Ogtpy
; File C:\Users\Mahito\Desktop\Night outing\Night-outing\src\xrCore\file_stream_reader.cpp
; File C:\Users\Mahito\Desktop\Night outing\Night-outing\src\xrCore\stream_reader.cpp
; File C:\Users\Mahito\Desktop\Night outing\Night-outing\src\xrCore\file_stream_reader.cpp
; File C:\Users\Mahito\Desktop\Night outing\Night-outing\src\xrCore\stream_reader.cpp
; File C:\Users\Mahito\Desktop\Night outing\Night-outing\src\xrCore\_std_extensions.h
; File C:\Users\Mahito\Desktop\Night outing\Night-outing\src\xrCore\stream_reader.cpp
; File C:\Users\Mahito\Desktop\Night outing\Night-outing\src\xrCore\file_stream_reader.cpp
; File C:\Users\Mahito\Desktop\Night outing\Night-outing\src\xrCore\stream_reader.cpp
; File C:\Users\Mahito\Desktop\Night outing\Night-outing\src\xrCore\file_stream_reader.cpp
_TEXT	SEGMENT
tv178 = 80
this$ = 80
file_name$ = 88
window_size$ = 96
?construct@CFileStreamReader@@UEAAXPEBDAEBI@Z PROC	; CFileStreamReader::construct

; 5    : {

$LN24:
	mov	QWORD PTR [rsp+16], rbx
	mov	QWORD PTR [rsp+24], rbp
	mov	QWORD PTR [rsp+32], rsi
	push	rdi
	sub	rsp, 64					; 00000040H

; 6    : 	m_file_handle			=

	xor	ebp, ebp
	mov	rax, rdx
	mov	rbx, r8
	mov	QWORD PTR [rsp+48], rbp
	mov	rsi, rcx
	mov	DWORD PTR [rsp+40], ebp
	xor	r9d, r9d
	mov	DWORD PTR [rsp+32], 3
	lea	r8d, QWORD PTR [rbp+1]
	mov	edx, -2147483648			; 80000000H
	mov	rcx, rax
	call	QWORD PTR __imp_CreateFileA

; 7    : 		CreateFile(
; 8    : 			file_name,
; 9    : 			GENERIC_READ,
; 10   : 			FILE_SHARE_READ,
; 11   : 			0,
; 12   : 			OPEN_EXISTING,
; 13   : 			0,
; 14   : 			0
; 15   : 		);
; 16   : 
; 17   : 	VERIFY					(m_file_handle != INVALID_HANDLE_VALUE);
; 18   : 	u32						file_size = (u32)GetFileSize(m_file_handle,NULL);

	mov	rcx, rax
	mov	QWORD PTR [rsi+72], rax
	xor	edx, edx
	call	QWORD PTR __imp_GetFileSize

; 20   : 	HANDLE					file_mapping_handle =

	mov	rcx, QWORD PTR [rsi+72]
	lea	r8d, QWORD PTR [rbp+2]
	xor	r9d, r9d
	mov	QWORD PTR [rsp+40], rbp
	xor	edx, edx
	mov	DWORD PTR [rsp+32], ebp
	mov	edi, eax
	call	QWORD PTR __imp_CreateFileMappingA
; File C:\Users\Mahito\Desktop\Night outing\Night-outing\src\xrCore\stream_reader.cpp

; 12   : 	m_file_mapping_handle		= file_mapping_handle;

	mov	QWORD PTR [rsi+16], rax
; File C:\Users\Mahito\Desktop\Night outing\Night-outing\src\xrCore\file_stream_reader.cpp

; 20   : 	HANDLE					file_mapping_handle =

	mov	r10, rax
; File C:\Users\Mahito\Desktop\Night outing\Night-outing\src\xrCore\stream_reader.cpp

; 13   : 	m_start_offset				= start_offset;

	mov	DWORD PTR [rsi+24], ebp

; 14   : 	m_file_size					= file_size;

	mov	DWORD PTR [rsi+28], edi

; 15   : 	m_archive_size				= archive_size;

	mov	DWORD PTR [rsi+32], edi

; 16   : 	m_window_size				= _max(window_size,FS.dwAllocGranularity);

	mov	eax, DWORD PTR ds:116
; File C:\Users\Mahito\Desktop\Night outing\Night-outing\src\xrCore\_std_extensions.h

; 105  : template <class T>	IC T		_max	(T a, T b)	{ return a>b?a:b;	}

	cmp	DWORD PTR [rbx], eax
	cmova	eax, DWORD PTR [rbx]
; File C:\Users\Mahito\Desktop\Night outing\Night-outing\src\xrCore\stream_reader.cpp

; 37   : 	u32							pure_end_offset = m_window_size + pure_start_offset;

	xor	edx, edx

; 16   : 	m_window_size				= _max(window_size,FS.dwAllocGranularity);

	mov	DWORD PTR [rsi+36], eax

; 29   : 	m_current_offset_from_start	= new_offset;

	mov	DWORD PTR [rsi+40], ebp

; 30   : 
; 31   : 	u32							granularity = FS.dwAllocGranularity;

	mov	ecx, DWORD PTR ds:116

; 37   : 	u32							pure_end_offset = m_window_size + pure_start_offset;

	div	ecx

; 38   : 	u32							end_offset = pure_end_offset/granularity;
; 39   : 	if (pure_end_offset%granularity)
; 40   : 		++end_offset;
; 41   : 
; 42   : 	end_offset					*= granularity;

	test	edx, edx

; 47   : 	m_current_map_view_of_file	= (u8*)

	lea	edx, QWORD PTR [rbp+4]
	lea	r8d, DWORD PTR [rax+1]
	cmove	r8d, eax
	imul	r8d, ecx
	mov	rcx, r10
	cmp	r8d, edi
	cmova	r8d, edi
	xor	r9d, r9d
	mov	eax, r8d
	mov	DWORD PTR [rsi+44], r8d
	xor	r8d, r8d
	mov	QWORD PTR [rsp+32], rax
	call	QWORD PTR __imp_MapViewOfFile
; File C:\Users\Mahito\Desktop\Night outing\Night-outing\src\xrCore\file_stream_reader.cpp

; 32   : }

	mov	rbx, QWORD PTR [rsp+88]
	mov	rbp, QWORD PTR [rsp+96]
; File C:\Users\Mahito\Desktop\Night outing\Night-outing\src\xrCore\stream_reader.cpp

; 47   : 	m_current_map_view_of_file	= (u8*)

	mov	QWORD PTR [rsi+48], rax

; 48   : 		MapViewOfFile(
; 49   : 			m_file_mapping_handle,
; 50   : 			FILE_MAP_READ,
; 51   : 			0,
; 52   : 			start_offset,
; 53   : 			m_current_window_size
; 54   : 		);
; 55   : 	m_current_pointer			= m_current_map_view_of_file;
; 56   : 
; 57   : 	u32							difference = pure_start_offset - start_offset;
; 58   : 	m_current_window_size		-= difference;
; 59   : 	m_current_pointer			+= difference;

	mov	QWORD PTR [rsi+64], rax

; 60   : 	m_start_pointer				= m_current_pointer;

	mov	QWORD PTR [rsi+56], rax
; File C:\Users\Mahito\Desktop\Night outing\Night-outing\src\xrCore\file_stream_reader.cpp

; 32   : }

	mov	rsi, QWORD PTR [rsp+104]
	add	rsp, 64					; 00000040H
	pop	rdi
	ret	0
?construct@CFileStreamReader@@UEAAXPEBDAEBI@Z ENDP	; CFileStreamReader::construct
_TEXT	ENDS
END
