; Listing generated by Microsoft (R) Optimizing Compiler Version 19.35.32217.1 

include listing.inc

INCLUDELIB OLDNAMES

PUBLIC	?xr_EFS@@3PEAVEFS_Utils@@EA			; xr_EFS
PUBLIC	??_C@_01ODHLEDKK@?$CI@				; `string'
PUBLIC	??_C@_02LEKIGNHI@?$CJ?$HM@			; `string'
PUBLIC	??_C@_01DNKMNLPK@?$HM@				; `string'
PUBLIC	??_C@_0BF@PPANKIFI@All?5files?$CI?$CK?4?$CK?$CJ?$HM?$CK?4?$CK?$HM?$HM@ ; `string'
PUBLIC	??_C@_0M@IAFBEOBH@Open?5a?5File@		; `string'
PUBLIC	??_C@_0BJ@MMJCMIE@Too?5many?5files?5selected?4@	; `string'
PUBLIC	??_C@_05CMMMIEB@buff?$DN@			; `string'
PUBLIC	??_C@_01IHBHIGKO@?0@				; `string'
PUBLIC	??_C@_02DOGDOMPH@?$CK?4@			; `string'
PUBLIC	??_C@_0M@KIPHFBFH@Save?5a?5File@		; `string'
PUBLIC	??_C@_0BI@KCPLAHKE@Too?5many?5file?5selected?4@	; `string'
PUBLIC	??_C@_08DPIBIONE@?$CFs?$CF02d?$CFs@		; `string'
PUBLIC	??_C@_0L@FILKDGJI@?$CFs?$CFs?$CF02d?$CFs@	; `string'
PUBLIC	??_C@_0BI@CFPLBAOH@invalid?5string?5position@	; `string'
PUBLIC	??_R2EFS_Utils@@8				; EFS_Utils::`RTTI Base Class Array'
PUBLIC	??_R1A@?0A@EA@EFS_Utils@@8			; EFS_Utils::`RTTI Base Class Descriptor at (0,-1,0,64)'
PUBLIC	??_R3EFS_Utils@@8				; EFS_Utils::`RTTI Class Hierarchy Descriptor'
PUBLIC	??_R0?AVEFS_Utils@@@8				; EFS_Utils `RTTI Type Descriptor'
PUBLIC	??_R4EFS_Utils@@6B@				; EFS_Utils::`RTTI Complete Object Locator'
PUBLIC	??_7EFS_Utils@@6B@				; EFS_Utils::`vftable'
EXTRN	__imp_?_Xout_of_range@std@@YAXPEBD@Z:PROC
EXTRN	__imp_GetSaveFileNameA:PROC
EXTRN	__imp_CommDlgExtendedError:PROC
EXTRN	__imp_GetOpenFileNameA:PROC
EXTRN	__imp_GetForegroundWindow:PROC
?xr_EFS@@3PEAVEFS_Utils@@EA DQ 01H DUP (?)		; xr_EFS
_BSS	ENDS
;	COMDAT ??_7EFS_Utils@@6B@
CONST	SEGMENT
??_7EFS_Utils@@6B@ DQ FLAT:??_R4EFS_Utils@@6B@		; EFS_Utils::`vftable'
	DQ	FLAT:??_EEFS_Utils@@UEAAPEAXI@Z
CONST	ENDS
;	COMDAT ??_R4EFS_Utils@@6B@
rdata$r	SEGMENT
??_R4EFS_Utils@@6B@ DD 01H				; EFS_Utils::`RTTI Complete Object Locator'
	DD	00H
	DD	00H
	DD	imagerel ??_R0?AVEFS_Utils@@@8
	DD	imagerel ??_R3EFS_Utils@@8
	DD	imagerel ??_R4EFS_Utils@@6B@
rdata$r	ENDS
;	COMDAT ??_R0?AVEFS_Utils@@@8
data$rs	SEGMENT
??_R0?AVEFS_Utils@@@8 DQ FLAT:??_7type_info@@6B@	; EFS_Utils `RTTI Type Descriptor'
	DQ	0000000000000000H
	DB	'.?AVEFS_Utils@@', 00H
data$rs	ENDS
;	COMDAT ??_R3EFS_Utils@@8
rdata$r	SEGMENT
??_R3EFS_Utils@@8 DD 00H				; EFS_Utils::`RTTI Class Hierarchy Descriptor'
	DD	00H
	DD	01H
	DD	imagerel ??_R2EFS_Utils@@8
rdata$r	ENDS
;	COMDAT ??_R1A@?0A@EA@EFS_Utils@@8
rdata$r	SEGMENT
??_R1A@?0A@EA@EFS_Utils@@8 DD imagerel ??_R0?AVEFS_Utils@@@8 ; EFS_Utils::`RTTI Base Class Descriptor at (0,-1,0,64)'
	DD	00H
	DD	00H
	DD	0ffffffffH
	DD	00H
	DD	040H
	DD	imagerel ??_R3EFS_Utils@@8
rdata$r	ENDS
;	COMDAT ??_R2EFS_Utils@@8
rdata$r	SEGMENT
??_R2EFS_Utils@@8 DD imagerel ??_R1A@?0A@EA@EFS_Utils@@8 ; EFS_Utils::`RTTI Base Class Array'
	ORG $+3
rdata$r	ENDS
;	COMDAT ??_C@_0BI@CFPLBAOH@invalid?5string?5position@
CONST	SEGMENT
??_C@_0BI@CFPLBAOH@invalid?5string?5position@ DB 'invalid string position'
	DB	00H						; `string'
CONST	ENDS
;	COMDAT ??_C@_0L@FILKDGJI@?$CFs?$CFs?$CF02d?$CFs@
CONST	SEGMENT
??_C@_0L@FILKDGJI@?$CFs?$CFs?$CF02d?$CFs@ DB '%s%s%02d%s', 00H ; `string'
CONST	ENDS
;	COMDAT ??_C@_08DPIBIONE@?$CFs?$CF02d?$CFs@
CONST	SEGMENT
??_C@_08DPIBIONE@?$CFs?$CF02d?$CFs@ DB '%s%02d%s', 00H	; `string'
CONST	ENDS
;	COMDAT ??_C@_0BI@KCPLAHKE@Too?5many?5file?5selected?4@
CONST	SEGMENT
??_C@_0BI@KCPLAHKE@Too?5many?5file?5selected?4@ DB 'Too many file selecte'
	DB	'd.', 00H					; `string'
CONST	ENDS
;	COMDAT ??_C@_0M@KIPHFBFH@Save?5a?5File@
CONST	SEGMENT
??_C@_0M@KIPHFBFH@Save?5a?5File@ DB 'Save a File', 00H	; `string'
CONST	ENDS
;	COMDAT ??_C@_02DOGDOMPH@?$CK?4@
CONST	SEGMENT
??_C@_02DOGDOMPH@?$CK?4@ DB '*.', 00H			; `string'
CONST	ENDS
;	COMDAT ??_C@_01IHBHIGKO@?0@
CONST	SEGMENT
??_C@_01IHBHIGKO@?0@ DB ',', 00H			; `string'
CONST	ENDS
;	COMDAT ??_C@_05CMMMIEB@buff?$DN@
CONST	SEGMENT
??_C@_05CMMMIEB@buff?$DN@ DB 'buff=', 00H		; `string'
CONST	ENDS
;	COMDAT ??_C@_0BJ@MMJCMIE@Too?5many?5files?5selected?4@
CONST	SEGMENT
??_C@_0BJ@MMJCMIE@Too?5many?5files?5selected?4@ DB 'Too many files select'
	DB	'ed.', 00H					; `string'
CONST	ENDS
;	COMDAT ??_C@_0M@IAFBEOBH@Open?5a?5File@
CONST	SEGMENT
??_C@_0M@IAFBEOBH@Open?5a?5File@ DB 'Open a File', 00H	; `string'
CONST	ENDS
;	COMDAT ??_C@_0BF@PPANKIFI@All?5files?$CI?$CK?4?$CK?$CJ?$HM?$CK?4?$CK?$HM?$HM@
CONST	SEGMENT
??_C@_0BF@PPANKIFI@All?5files?$CI?$CK?4?$CK?$CJ?$HM?$CK?4?$CK?$HM?$HM@ DB 'A'
	DB	'll files(*.*)|*.*||', 00H			; `string'
CONST	ENDS
;	COMDAT ??_C@_01DNKMNLPK@?$HM@
CONST	SEGMENT
??_C@_01DNKMNLPK@?$HM@ DB '|', 00H			; `string'
CONST	ENDS
;	COMDAT ??_C@_02LEKIGNHI@?$CJ?$HM@
CONST	SEGMENT
??_C@_02LEKIGNHI@?$CJ?$HM@ DB ')|', 00H			; `string'
CONST	ENDS
;	COMDAT ??_C@_01ODHLEDKK@?$CI@
CONST	SEGMENT
??_C@_01ODHLEDKK@?$CI@ DB '(', 00H			; `string'
PUBLIC	??1EFS_Utils@@UEAA@XZ				; EFS_Utils::~EFS_Utils
PUBLIC	??_GEFS_Utils@@UEAAPEAXI@Z			; EFS_Utils::`scalar deleting destructor'
EXTRN	??_EEFS_Utils@@UEAAPEAXI@Z:PROC			; EFS_Utils::`vector deleting destructor'
;	COMDAT pdata
pdata	SEGMENT
$pdata$??_GEFS_Utils@@UEAAPEAXI@Z DD imagerel $LN6
	DD	imagerel $LN6+43
	DD	imagerel $unwind$??_GEFS_Utils@@UEAAPEAXI@Z
;	COMDAT xdata
xdata	SEGMENT
$unwind$??_GEFS_Utils@@UEAAPEAXI@Z DD 020601H
	DD	030023206H
; Function compile flags: /Ogtpy
;	COMDAT ??_GEFS_Utils@@UEAAPEAXI@Z
_TEXT	SEGMENT
this$ = 48
__flags$ = 56
??_GEFS_Utils@@UEAAPEAXI@Z PROC				; EFS_Utils::`scalar deleting destructor', COMDAT
$LN6:
	push	rbx
	sub	rsp, 32					; 00000020H
	lea	rax, OFFSET FLAT:??_7EFS_Utils@@6B@
	mov	rbx, rcx
	mov	QWORD PTR [rcx], rax
	test	dl, 1
	je	SHORT $LN4@scalar
	mov	edx, 8
	call	??3@YAXPEAX_K@Z				; operator delete
$LN4@scalar:
	mov	rax, rbx
	add	rsp, 32					; 00000020H
	pop	rbx
	ret	0
??_GEFS_Utils@@UEAAPEAXI@Z ENDP				; EFS_Utils::`scalar deleting destructor'
_TEXT	ENDS
; Function compile flags: /Ogtpy
; File C:\Users\Mahito\Desktop\Night outing\Night-outing\src\xrCore\FileSystem.cpp
_TEXT	SEGMENT
this$ = 8
??1EFS_Utils@@UEAA@XZ PROC				; EFS_Utils::~EFS_Utils

; 19   : {

	lea	rax, OFFSET FLAT:??_7EFS_Utils@@6B@
	mov	QWORD PTR [rcx], rax

; 20   : }

	ret	0
??1EFS_Utils@@UEAA@XZ ENDP				; EFS_Utils::~EFS_Utils
_TEXT	ENDS
END
