; Listing generated by Microsoft (R) Optimizing Compiler Version 19.35.32217.1 

include listing.inc

INCLUDELIB OLDNAMES

PUBLIC	??_C@_0N@NDJPHIGH@FileDownload@			; `string'
PUBLIC	??_C@_0EE@LCHLCEBH@C?3?2Users?2Mahito?2Desktop?2Night?5o@ ; `string'
PUBLIC	??_C@_0BI@HAMOMGIL@can?8t?5read?5from?5file?5?3?5@ ; `string'
PUBLIC	??_C@_0BK@MNNDGOPP@file_size?5?$DN?$DN?5?$CIu32?$CJr_bytes@ ; `string'
PUBLIC	??_C@_0BE@GJGEKJCO@can?8t?5close?5file?5?3?5@	; `string'
PUBLIC	??_C@_0BF@DAMCDPEM@?$CB_close?$CIfile_handle?$CJ@ ; `string'
PUBLIC	??_C@_0BD@CHGGMBHK@can?8t?5open?5file?5?3?5@	; `string'
PUBLIC	??_C@_0DL@KHKLKJPM@file_handle_internal?$CIfile_name?0@ ; `string'
PUBLIC	??_C@_0N@OHMAIPMK@FileCompress@			; `string'
PUBLIC	??_C@_03HBKIKOFI@H?$DO0@			; `string'
PUBLIC	??_C@_0P@MHGIJJCK@FileDecompress@		; `string'
PUBLIC	??_C@_0DK@HIOEDNGA@FATAL?3?5signatures?5doesn?8t?5match@ ; `string'
PUBLIC	??_C@_0BC@MHGJGJKA@strncmp?$CIM?0F?08?$CJ?$DN?$DN0@ ; `string'
PUBLIC	??_C@_0BC@LFPNBCKC@IReader?3?3r_string@		; `string'
PUBLIC	??_C@_0BO@CBOGAODA@Dest?5string?5less?5than?5needed?4@ ; `string'
PUBLIC	??_C@_0O@CCNJDAAG@sz?$DM?$CItgt_sz?91?$CJ@	; `string'
PUBLIC	??_C@_0BN@MALPHFEJ@?$CBIsBadReadPtr?$CI?$CIvoid?$CK?$CJsrc?0sz?$CJ@ ; `string'
PUBLIC	??_C@_0BD@HIDJIKAI@IReader?3?3r_stringZ@	; `string'
PUBLIC	??_C@_09KHGJHDDP@sz?$DMtgt_sz@			; `string'
PUBLIC	??_C@_0BP@JFCPEDIH@CVirtualFileRW?3?3CVirtualFileRW@ ; `string'
PUBLIC	??_C@_04EBKMHHBE@Size@				; `string'
PUBLIC	??_C@_04PJOLNDGD@data@				; `string'
PUBLIC	??_C@_0CH@JKOJKKOC@CVirtualFileReader?3?3CVirtualFil@ ; `string'
PUBLIC	??_R2CVirtualFileReader@@8			; CVirtualFileReader::`RTTI Base Class Array'
PUBLIC	??_R2CCompressedReader@@8			; CCompressedReader::`RTTI Base Class Array'
PUBLIC	??_R2CFileReader@@8				; CFileReader::`RTTI Base Class Array'
PUBLIC	??_R2CVirtualFileRW@@8				; CVirtualFileRW::`RTTI Base Class Array'
PUBLIC	??_R1A@?0A@EA@CVirtualFileReader@@8		; CVirtualFileReader::`RTTI Base Class Descriptor at (0,-1,0,64)'
PUBLIC	??_R1A@?0A@EA@CCompressedReader@@8		; CCompressedReader::`RTTI Base Class Descriptor at (0,-1,0,64)'
PUBLIC	??_R1A@?0A@EA@CFileReader@@8			; CFileReader::`RTTI Base Class Descriptor at (0,-1,0,64)'
PUBLIC	??_R1A@?0A@EA@CVirtualFileRW@@8			; CVirtualFileRW::`RTTI Base Class Descriptor at (0,-1,0,64)'
PUBLIC	??_R3CVirtualFileReader@@8			; CVirtualFileReader::`RTTI Class Hierarchy Descriptor'
PUBLIC	??_R0?AVCVirtualFileReader@@@8			; CVirtualFileReader `RTTI Type Descriptor'
PUBLIC	??_R3CCompressedReader@@8			; CCompressedReader::`RTTI Class Hierarchy Descriptor'
PUBLIC	??_R0?AVCCompressedReader@@@8			; CCompressedReader `RTTI Type Descriptor'
PUBLIC	??_R3CFileReader@@8				; CFileReader::`RTTI Class Hierarchy Descriptor'
PUBLIC	??_R0?AVCFileReader@@@8				; CFileReader `RTTI Type Descriptor'
PUBLIC	??_R3CVirtualFileRW@@8				; CVirtualFileRW::`RTTI Class Hierarchy Descriptor'
PUBLIC	??_R0?AVCVirtualFileRW@@@8			; CVirtualFileRW `RTTI Type Descriptor'
PUBLIC	??_R4CVirtualFileReader@@6B@			; CVirtualFileReader::`RTTI Complete Object Locator'
PUBLIC	??_R4CCompressedReader@@6B@			; CCompressedReader::`RTTI Complete Object Locator'
PUBLIC	??_R4CFileReader@@6B@				; CFileReader::`RTTI Complete Object Locator'
PUBLIC	??_R4CVirtualFileRW@@6B@			; CVirtualFileRW::`RTTI Complete Object Locator'
PUBLIC	??_7CVirtualFileReader@@6B@			; CVirtualFileReader::`vftable'
PUBLIC	??_7CVirtualFileRW@@6B@				; CVirtualFileRW::`vftable'
PUBLIC	??_7CCompressedReader@@6B@			; CCompressedReader::`vftable'
PUBLIC	??_7CFileReader@@6B@				; CFileReader::`vftable'
PUBLIC	??_R0?AVCMemoryWriter@@@8			; CMemoryWriter `RTTI Type Descriptor'
PUBLIC	??_R1A@?0A@EA@CMemoryWriter@@8			; CMemoryWriter::`RTTI Base Class Descriptor at (0,-1,0,64)'
PUBLIC	??_R2CMemoryWriter@@8				; CMemoryWriter::`RTTI Base Class Array'
PUBLIC	??_R3CMemoryWriter@@8				; CMemoryWriter::`RTTI Class Hierarchy Descriptor'
PUBLIC	??_R4CMemoryWriter@@6B@				; CMemoryWriter::`RTTI Complete Object Locator'
PUBLIC	??_7CMemoryWriter@@6B@				; CMemoryWriter::`vftable'
EXTRN	__imp___stdio_common_vsprintf_s:PROC
EXTRN	__imp_filelength:PROC
EXTRN	__imp__write:PROC
EXTRN	__imp_open:PROC
EXTRN	__imp__close:PROC
EXTRN	__imp__read:PROC
EXTRN	__imp__filelength:PROC
EXTRN	__imp__sopen_s:PROC
EXTRN	__imp__mkdir:PROC
;	COMDAT ?ignore_always@?BA@???0CVirtualFileReader@@QEAA@PEBD@Z@4_NA
_BSS	SEGMENT
?ignore_always@?BA@???0CVirtualFileReader@@QEAA@PEBD@Z@4_NA DB 01H DUP (?) ; `CVirtualFileReader::CVirtualFileReader'::`16'::ignore_always
_BSS	ENDS
;	COMDAT ?ignore_always@?M@???0CVirtualFileReader@@QEAA@PEBD@Z@4_NA
_BSS	SEGMENT
?ignore_always@?M@???0CVirtualFileReader@@QEAA@PEBD@Z@4_NA DB 01H DUP (?) ; `CVirtualFileReader::CVirtualFileReader'::`12'::ignore_always
_BSS	ENDS
;	COMDAT ?ignore_always@?7???0CVirtualFileReader@@QEAA@PEBD@Z@4_NA
_BSS	SEGMENT
?ignore_always@?7???0CVirtualFileReader@@QEAA@PEBD@Z@4_NA DB 01H DUP (?) ; `CVirtualFileReader::CVirtualFileReader'::`8'::ignore_always
_BSS	ENDS
;	COMDAT ?ignore_always@?3???0CVirtualFileReader@@QEAA@PEBD@Z@4_NA
_BSS	SEGMENT
?ignore_always@?3???0CVirtualFileReader@@QEAA@PEBD@Z@4_NA DB 01H DUP (?) ; `CVirtualFileReader::CVirtualFileReader'::`4'::ignore_always
_BSS	ENDS
;	COMDAT ?ignore_always@?BA@???0CVirtualFileRW@@QEAA@PEBD@Z@4_NA
_BSS	SEGMENT
?ignore_always@?BA@???0CVirtualFileRW@@QEAA@PEBD@Z@4_NA DB 01H DUP (?) ; `CVirtualFileRW::CVirtualFileRW'::`16'::ignore_always
_BSS	ENDS
;	COMDAT ?ignore_always@?M@???0CVirtualFileRW@@QEAA@PEBD@Z@4_NA
_BSS	SEGMENT
?ignore_always@?M@???0CVirtualFileRW@@QEAA@PEBD@Z@4_NA DB 01H DUP (?) ; `CVirtualFileRW::CVirtualFileRW'::`12'::ignore_always
_BSS	ENDS
;	COMDAT ?ignore_always@?7???0CVirtualFileRW@@QEAA@PEBD@Z@4_NA
_BSS	SEGMENT
?ignore_always@?7???0CVirtualFileRW@@QEAA@PEBD@Z@4_NA DB 01H DUP (?) ; `CVirtualFileRW::CVirtualFileRW'::`8'::ignore_always
_BSS	ENDS
;	COMDAT ?ignore_always@?3???0CVirtualFileRW@@QEAA@PEBD@Z@4_NA
_BSS	SEGMENT
?ignore_always@?3???0CVirtualFileRW@@QEAA@PEBD@Z@4_NA DB 01H DUP (?) ; `CVirtualFileRW::CVirtualFileRW'::`4'::ignore_always
_BSS	ENDS
;	COMDAT ?ignore_always@?3??r_stringZ@IReader@@QEAAXPEADI@Z@4_NA
_BSS	SEGMENT
?ignore_always@?3??r_stringZ@IReader@@QEAAXPEADI@Z@4_NA DB 01H DUP (?) ; `IReader::r_stringZ'::`4'::ignore_always
_BSS	ENDS
;	COMDAT ?ignore_always@?7??r_string@IReader@@QEAAXPEADI@Z@4_NA
_BSS	SEGMENT
?ignore_always@?7??r_string@IReader@@QEAAXPEADI@Z@4_NA DB 01H DUP (?) ; `IReader::r_string'::`8'::ignore_always
_BSS	ENDS
;	COMDAT ?ignore_always@?3??r_string@IReader@@QEAAXPEADI@Z@4_NA
_BSS	SEGMENT
?ignore_always@?3??r_string@IReader@@QEAAXPEADI@Z@4_NA DB 01H DUP (?) ; `IReader::r_string'::`4'::ignore_always
_BSS	ENDS
;	COMDAT ?ignore_always@?L@??FileDecompress@@YAPEAXPEBD0PEAI@Z@4_NA
_BSS	SEGMENT
?ignore_always@?L@??FileDecompress@@YAPEAXPEBD0PEAI@Z@4_NA DB 01H DUP (?) ; `FileDecompress'::`11'::ignore_always
_BSS	ENDS
;	COMDAT ?ignore_always@?3??FileDecompress@@YAPEAXPEBD0PEAI@Z@4_NA
_BSS	SEGMENT
?ignore_always@?3??FileDecompress@@YAPEAXPEBD0PEAI@Z@4_NA DB 01H DUP (?) ; `FileDecompress'::`4'::ignore_always
_BSS	ENDS
;	COMDAT ?ignore_always@?3??FileCompress@@YAXPEBD0PEAXI@Z@4_NA
_BSS	SEGMENT
?ignore_always@?3??FileCompress@@YAXPEBD0PEAXI@Z@4_NA DB 01H DUP (?) ; `FileCompress'::`4'::ignore_always
_BSS	ENDS
;	COMDAT ?ignore_always@?3??FileDownload@@YAPEAXPEBDPEAI@Z@4_NA
_BSS	SEGMENT
?ignore_always@?3??FileDownload@@YAPEAXPEBDPEAI@Z@4_NA DB 01H DUP (?) ; `FileDownload'::`4'::ignore_always
_BSS	ENDS
;	COMDAT ?ignore_always@?7??FileDownload@@YAPEAXPEBDAEBHAEAI@Z@4_NA
_BSS	SEGMENT
?ignore_always@?7??FileDownload@@YAPEAXPEBDAEBHAEAI@Z@4_NA DB 01H DUP (?) ; `FileDownload'::`8'::ignore_always
_BSS	ENDS
;	COMDAT ?ignore_always@?3??FileDownload@@YAPEAXPEBDAEBHAEAI@Z@4_NA
_BSS	SEGMENT
?ignore_always@?3??FileDownload@@YAPEAXPEBDAEBHAEAI@Z@4_NA DB 01H DUP (?) ; `FileDownload'::`4'::ignore_always
_BSS	ENDS
;	COMDAT ??_7CMemoryWriter@@6B@
CONST	SEGMENT
??_7CMemoryWriter@@6B@ DQ FLAT:??_R4CMemoryWriter@@6B@	; CMemoryWriter::`vftable'
	DQ	FLAT:??_ECMemoryWriter@@UEAAPEAXI@Z
	DQ	FLAT:?seek@CMemoryWriter@@UEAAXI@Z
	DQ	FLAT:?tell@CMemoryWriter@@UEAAIXZ
	DQ	FLAT:?w@CMemoryWriter@@UEAAXPEBXI@Z
	DQ	FLAT:?valid@IWriter@@UEAA_NXZ
	DQ	FLAT:?flush@CMemoryWriter@@UEAAXXZ
	DQ	FLAT:?data_encript@CMemoryWriter@@UEAAXXZ
	DQ	FLAT:?enc_tell@CMemoryWriter@@UEAAIXZ
	DQ	FLAT:?w_encrypt@CMemoryWriter@@UEAAXPEBXI@Z
CONST	ENDS
;	COMDAT ??_R4CMemoryWriter@@6B@
rdata$r	SEGMENT
??_R4CMemoryWriter@@6B@ DD 01H				; CMemoryWriter::`RTTI Complete Object Locator'
	DD	00H
	DD	00H
	DD	imagerel ??_R0?AVCMemoryWriter@@@8
	DD	imagerel ??_R3CMemoryWriter@@8
	DD	imagerel ??_R4CMemoryWriter@@6B@
rdata$r	ENDS
;	COMDAT ??_R3CMemoryWriter@@8
rdata$r	SEGMENT
??_R3CMemoryWriter@@8 DD 00H				; CMemoryWriter::`RTTI Class Hierarchy Descriptor'
	DD	00H
	DD	02H
	DD	imagerel ??_R2CMemoryWriter@@8
rdata$r	ENDS
;	COMDAT ??_R2CMemoryWriter@@8
rdata$r	SEGMENT
??_R2CMemoryWriter@@8 DD imagerel ??_R1A@?0A@EA@CMemoryWriter@@8 ; CMemoryWriter::`RTTI Base Class Array'
	DD	imagerel ??_R1A@?0A@EA@IWriter@@8
	ORG $+3
rdata$r	ENDS
;	COMDAT ??_R1A@?0A@EA@CMemoryWriter@@8
rdata$r	SEGMENT
??_R1A@?0A@EA@CMemoryWriter@@8 DD imagerel ??_R0?AVCMemoryWriter@@@8 ; CMemoryWriter::`RTTI Base Class Descriptor at (0,-1,0,64)'
	DD	01H
	DD	00H
	DD	0ffffffffH
	DD	00H
	DD	040H
	DD	imagerel ??_R3CMemoryWriter@@8
rdata$r	ENDS
;	COMDAT ??_R0?AVCMemoryWriter@@@8
data$rs	SEGMENT
??_R0?AVCMemoryWriter@@@8 DQ FLAT:??_7type_info@@6B@	; CMemoryWriter `RTTI Type Descriptor'
	DQ	0000000000000000H
	DB	'.?AVCMemoryWriter@@', 00H
data$rs	ENDS
;	COMDAT ??_7CFileReader@@6B@
CONST	SEGMENT
??_7CFileReader@@6B@ DQ FLAT:??_R4CFileReader@@6B@	; CFileReader::`vftable'
	DQ	FLAT:??_ECFileReader@@UEAAPEAXI@Z
CONST	ENDS
;	COMDAT ??_7CCompressedReader@@6B@
CONST	SEGMENT
??_7CCompressedReader@@6B@ DQ FLAT:??_R4CCompressedReader@@6B@ ; CCompressedReader::`vftable'
	DQ	FLAT:??_ECCompressedReader@@UEAAPEAXI@Z
CONST	ENDS
;	COMDAT ??_7CVirtualFileRW@@6B@
CONST	SEGMENT
??_7CVirtualFileRW@@6B@ DQ FLAT:??_R4CVirtualFileRW@@6B@ ; CVirtualFileRW::`vftable'
	DQ	FLAT:??_ECVirtualFileRW@@UEAAPEAXI@Z
CONST	ENDS
;	COMDAT ??_7CVirtualFileReader@@6B@
CONST	SEGMENT
??_7CVirtualFileReader@@6B@ DQ FLAT:??_R4CVirtualFileReader@@6B@ ; CVirtualFileReader::`vftable'
	DQ	FLAT:??_ECVirtualFileReader@@UEAAPEAXI@Z
CONST	ENDS
;	COMDAT ??_R4CVirtualFileRW@@6B@
rdata$r	SEGMENT
??_R4CVirtualFileRW@@6B@ DD 01H				; CVirtualFileRW::`RTTI Complete Object Locator'
	DD	00H
	DD	00H
	DD	imagerel ??_R0?AVCVirtualFileRW@@@8
	DD	imagerel ??_R3CVirtualFileRW@@8
	DD	imagerel ??_R4CVirtualFileRW@@6B@
rdata$r	ENDS
;	COMDAT ??_R4CFileReader@@6B@
rdata$r	SEGMENT
??_R4CFileReader@@6B@ DD 01H				; CFileReader::`RTTI Complete Object Locator'
	DD	00H
	DD	00H
	DD	imagerel ??_R0?AVCFileReader@@@8
	DD	imagerel ??_R3CFileReader@@8
	DD	imagerel ??_R4CFileReader@@6B@
rdata$r	ENDS
;	COMDAT ??_R4CCompressedReader@@6B@
rdata$r	SEGMENT
??_R4CCompressedReader@@6B@ DD 01H			; CCompressedReader::`RTTI Complete Object Locator'
	DD	00H
	DD	00H
	DD	imagerel ??_R0?AVCCompressedReader@@@8
	DD	imagerel ??_R3CCompressedReader@@8
	DD	imagerel ??_R4CCompressedReader@@6B@
rdata$r	ENDS
;	COMDAT ??_R4CVirtualFileReader@@6B@
rdata$r	SEGMENT
??_R4CVirtualFileReader@@6B@ DD 01H			; CVirtualFileReader::`RTTI Complete Object Locator'
	DD	00H
	DD	00H
	DD	imagerel ??_R0?AVCVirtualFileReader@@@8
	DD	imagerel ??_R3CVirtualFileReader@@8
	DD	imagerel ??_R4CVirtualFileReader@@6B@
rdata$r	ENDS
;	COMDAT ??_R0?AVCVirtualFileRW@@@8
data$rs	SEGMENT
??_R0?AVCVirtualFileRW@@@8 DQ FLAT:??_7type_info@@6B@	; CVirtualFileRW `RTTI Type Descriptor'
	DQ	0000000000000000H
	DB	'.?AVCVirtualFileRW@@', 00H
data$rs	ENDS
;	COMDAT ??_R3CVirtualFileRW@@8
rdata$r	SEGMENT
??_R3CVirtualFileRW@@8 DD 00H				; CVirtualFileRW::`RTTI Class Hierarchy Descriptor'
	DD	00H
	DD	03H
	DD	imagerel ??_R2CVirtualFileRW@@8
rdata$r	ENDS
;	COMDAT ??_R0?AVCFileReader@@@8
data$rs	SEGMENT
??_R0?AVCFileReader@@@8 DQ FLAT:??_7type_info@@6B@	; CFileReader `RTTI Type Descriptor'
	DQ	0000000000000000H
	DB	'.?AVCFileReader@@', 00H
data$rs	ENDS
;	COMDAT ??_R3CFileReader@@8
rdata$r	SEGMENT
??_R3CFileReader@@8 DD 00H				; CFileReader::`RTTI Class Hierarchy Descriptor'
	DD	00H
	DD	03H
	DD	imagerel ??_R2CFileReader@@8
rdata$r	ENDS
;	COMDAT ??_R0?AVCCompressedReader@@@8
data$rs	SEGMENT
??_R0?AVCCompressedReader@@@8 DQ FLAT:??_7type_info@@6B@ ; CCompressedReader `RTTI Type Descriptor'
	DQ	0000000000000000H
	DB	'.?AVCCompressedReader@@', 00H
data$rs	ENDS
;	COMDAT ??_R3CCompressedReader@@8
rdata$r	SEGMENT
??_R3CCompressedReader@@8 DD 00H			; CCompressedReader::`RTTI Class Hierarchy Descriptor'
	DD	00H
	DD	03H
	DD	imagerel ??_R2CCompressedReader@@8
rdata$r	ENDS
;	COMDAT ??_R0?AVCVirtualFileReader@@@8
data$rs	SEGMENT
??_R0?AVCVirtualFileReader@@@8 DQ FLAT:??_7type_info@@6B@ ; CVirtualFileReader `RTTI Type Descriptor'
	DQ	0000000000000000H
	DB	'.?AVCVirtualFileReader@@', 00H
data$rs	ENDS
;	COMDAT ??_R3CVirtualFileReader@@8
rdata$r	SEGMENT
??_R3CVirtualFileReader@@8 DD 00H			; CVirtualFileReader::`RTTI Class Hierarchy Descriptor'
	DD	00H
	DD	03H
	DD	imagerel ??_R2CVirtualFileReader@@8
rdata$r	ENDS
;	COMDAT ??_R1A@?0A@EA@CVirtualFileRW@@8
rdata$r	SEGMENT
??_R1A@?0A@EA@CVirtualFileRW@@8 DD imagerel ??_R0?AVCVirtualFileRW@@@8 ; CVirtualFileRW::`RTTI Base Class Descriptor at (0,-1,0,64)'
	DD	02H
	DD	00H
	DD	0ffffffffH
	DD	00H
	DD	040H
	DD	imagerel ??_R3CVirtualFileRW@@8
rdata$r	ENDS
;	COMDAT ??_R1A@?0A@EA@CFileReader@@8
rdata$r	SEGMENT
??_R1A@?0A@EA@CFileReader@@8 DD imagerel ??_R0?AVCFileReader@@@8 ; CFileReader::`RTTI Base Class Descriptor at (0,-1,0,64)'
	DD	02H
	DD	00H
	DD	0ffffffffH
	DD	00H
	DD	040H
	DD	imagerel ??_R3CFileReader@@8
rdata$r	ENDS
;	COMDAT ??_R1A@?0A@EA@CCompressedReader@@8
rdata$r	SEGMENT
??_R1A@?0A@EA@CCompressedReader@@8 DD imagerel ??_R0?AVCCompressedReader@@@8 ; CCompressedReader::`RTTI Base Class Descriptor at (0,-1,0,64)'
	DD	02H
	DD	00H
	DD	0ffffffffH
	DD	00H
	DD	040H
	DD	imagerel ??_R3CCompressedReader@@8
rdata$r	ENDS
;	COMDAT ??_R1A@?0A@EA@CVirtualFileReader@@8
rdata$r	SEGMENT
??_R1A@?0A@EA@CVirtualFileReader@@8 DD imagerel ??_R0?AVCVirtualFileReader@@@8 ; CVirtualFileReader::`RTTI Base Class Descriptor at (0,-1,0,64)'
	DD	02H
	DD	00H
	DD	0ffffffffH
	DD	00H
	DD	040H
	DD	imagerel ??_R3CVirtualFileReader@@8
rdata$r	ENDS
;	COMDAT ??_R2CVirtualFileRW@@8
rdata$r	SEGMENT
??_R2CVirtualFileRW@@8 DD imagerel ??_R1A@?0A@EA@CVirtualFileRW@@8 ; CVirtualFileRW::`RTTI Base Class Array'
	DD	imagerel ??_R1A@?0A@EA@IReader@@8
	DD	imagerel ??_R1A@?0A@EA@?$IReaderBase@VIReader@@@@8
	ORG $+3
rdata$r	ENDS
;	COMDAT ??_R2CFileReader@@8
rdata$r	SEGMENT
??_R2CFileReader@@8 DD imagerel ??_R1A@?0A@EA@CFileReader@@8 ; CFileReader::`RTTI Base Class Array'
	DD	imagerel ??_R1A@?0A@EA@IReader@@8
	DD	imagerel ??_R1A@?0A@EA@?$IReaderBase@VIReader@@@@8
	ORG $+3
rdata$r	ENDS
;	COMDAT ??_R2CCompressedReader@@8
rdata$r	SEGMENT
??_R2CCompressedReader@@8 DD imagerel ??_R1A@?0A@EA@CCompressedReader@@8 ; CCompressedReader::`RTTI Base Class Array'
	DD	imagerel ??_R1A@?0A@EA@IReader@@8
	DD	imagerel ??_R1A@?0A@EA@?$IReaderBase@VIReader@@@@8
	ORG $+3
rdata$r	ENDS
;	COMDAT ??_R2CVirtualFileReader@@8
rdata$r	SEGMENT
??_R2CVirtualFileReader@@8 DD imagerel ??_R1A@?0A@EA@CVirtualFileReader@@8 ; CVirtualFileReader::`RTTI Base Class Array'
	DD	imagerel ??_R1A@?0A@EA@IReader@@8
	DD	imagerel ??_R1A@?0A@EA@?$IReaderBase@VIReader@@@@8
	ORG $+3
rdata$r	ENDS
;	COMDAT ??_C@_0CH@JKOJKKOC@CVirtualFileReader?3?3CVirtualFil@
CONST	SEGMENT
??_C@_0CH@JKOJKKOC@CVirtualFileReader?3?3CVirtualFil@ DB 'CVirtualFileRea'
	DB	'der::CVirtualFileReader', 00H		; `string'
CONST	ENDS
;	COMDAT ??_C@_04PJOLNDGD@data@
CONST	SEGMENT
??_C@_04PJOLNDGD@data@ DB 'data', 00H			; `string'
CONST	ENDS
;	COMDAT ??_C@_04EBKMHHBE@Size@
CONST	SEGMENT
??_C@_04EBKMHHBE@Size@ DB 'Size', 00H			; `string'
CONST	ENDS
;	COMDAT ??_C@_0BP@JFCPEDIH@CVirtualFileRW?3?3CVirtualFileRW@
CONST	SEGMENT
??_C@_0BP@JFCPEDIH@CVirtualFileRW?3?3CVirtualFileRW@ DB 'CVirtualFileRW::'
	DB	'CVirtualFileRW', 00H			; `string'
CONST	ENDS
;	COMDAT ??_C@_09KHGJHDDP@sz?$DMtgt_sz@
CONST	SEGMENT
??_C@_09KHGJHDDP@sz?$DMtgt_sz@ DB 'sz<tgt_sz', 00H	; `string'
CONST	ENDS
;	COMDAT ??_C@_0BD@HIDJIKAI@IReader?3?3r_stringZ@
CONST	SEGMENT
??_C@_0BD@HIDJIKAI@IReader?3?3r_stringZ@ DB 'IReader::r_stringZ', 00H ; `string'
CONST	ENDS
;	COMDAT ??_C@_0BN@MALPHFEJ@?$CBIsBadReadPtr?$CI?$CIvoid?$CK?$CJsrc?0sz?$CJ@
CONST	SEGMENT
??_C@_0BN@MALPHFEJ@?$CBIsBadReadPtr?$CI?$CIvoid?$CK?$CJsrc?0sz?$CJ@ DB '!'
	DB	'IsBadReadPtr((void*)src,sz)', 00H		; `string'
CONST	ENDS
;	COMDAT ??_C@_0O@CCNJDAAG@sz?$DM?$CItgt_sz?91?$CJ@
CONST	SEGMENT
??_C@_0O@CCNJDAAG@sz?$DM?$CItgt_sz?91?$CJ@ DB 'sz<(tgt_sz-1)', 00H ; `string'
CONST	ENDS
;	COMDAT ??_C@_0BO@CBOGAODA@Dest?5string?5less?5than?5needed?4@
CONST	SEGMENT
??_C@_0BO@CBOGAODA@Dest?5string?5less?5than?5needed?4@ DB 'Dest string le'
	DB	'ss than needed.', 00H			; `string'
CONST	ENDS
;	COMDAT ??_C@_0BC@LFPNBCKC@IReader?3?3r_string@
CONST	SEGMENT
??_C@_0BC@LFPNBCKC@IReader?3?3r_string@ DB 'IReader::r_string', 00H ; `string'
CONST	ENDS
;	COMDAT ??_C@_0BC@MHGJGJKA@strncmp?$CIM?0F?08?$CJ?$DN?$DN0@
CONST	SEGMENT
??_C@_0BC@MHGJGJKA@strncmp?$CIM?0F?08?$CJ?$DN?$DN0@ DB 'strncmp(M,F,8)==0'
	DB	00H						; `string'
CONST	ENDS
;	COMDAT ??_C@_0DK@HIOEDNGA@FATAL?3?5signatures?5doesn?8t?5match@
CONST	SEGMENT
??_C@_0DK@HIOEDNGA@FATAL?3?5signatures?5doesn?8t?5match@ DB 'FATAL: signa'
	DB	'tures doesn''t match, file(%s) / requested(%s)', 00H ; `string'
CONST	ENDS
;	COMDAT ??_C@_0P@MHGIJJCK@FileDecompress@
CONST	SEGMENT
??_C@_0P@MHGIJJCK@FileDecompress@ DB 'FileDecompress', 00H ; `string'
CONST	ENDS
;	COMDAT ??_C@_03HBKIKOFI@H?$DO0@
CONST	SEGMENT
??_C@_03HBKIKOFI@H?$DO0@ DB 'H>0', 00H			; `string'
CONST	ENDS
;	COMDAT ??_C@_0N@OHMAIPMK@FileCompress@
CONST	SEGMENT
??_C@_0N@OHMAIPMK@FileCompress@ DB 'FileCompress', 00H	; `string'
CONST	ENDS
;	COMDAT ??_C@_0DL@KHKLKJPM@file_handle_internal?$CIfile_name?0@
CONST	SEGMENT
??_C@_0DL@KHKLKJPM@file_handle_internal?$CIfile_name?0@ DB 'file_handle_i'
	DB	'nternal(file_name, *buffer_size, file_handle)', 00H ; `string'
CONST	ENDS
;	COMDAT ??_C@_0BD@CHGGMBHK@can?8t?5open?5file?5?3?5@
CONST	SEGMENT
??_C@_0BD@CHGGMBHK@can?8t?5open?5file?5?3?5@ DB 'can''t open file : ', 00H ; `string'
CONST	ENDS
;	COMDAT ??_C@_0BF@DAMCDPEM@?$CB_close?$CIfile_handle?$CJ@
CONST	SEGMENT
??_C@_0BF@DAMCDPEM@?$CB_close?$CIfile_handle?$CJ@ DB '!_close(file_handle'
	DB	')', 00H					; `string'
CONST	ENDS
;	COMDAT ??_C@_0BE@GJGEKJCO@can?8t?5close?5file?5?3?5@
CONST	SEGMENT
??_C@_0BE@GJGEKJCO@can?8t?5close?5file?5?3?5@ DB 'can''t close file : ', 00H ; `string'
CONST	ENDS
;	COMDAT ??_C@_0BK@MNNDGOPP@file_size?5?$DN?$DN?5?$CIu32?$CJr_bytes@
CONST	SEGMENT
??_C@_0BK@MNNDGOPP@file_size?5?$DN?$DN?5?$CIu32?$CJr_bytes@ DB 'file_size'
	DB	' == (u32)r_bytes', 00H			; `string'
CONST	ENDS
;	COMDAT ??_C@_0BI@HAMOMGIL@can?8t?5read?5from?5file?5?3?5@
CONST	SEGMENT
??_C@_0BI@HAMOMGIL@can?8t?5read?5from?5file?5?3?5@ DB 'can''t read from f'
	DB	'ile : ', 00H				; `string'
CONST	ENDS
;	COMDAT ??_C@_0EE@LCHLCEBH@C?3?2Users?2Mahito?2Desktop?2Night?5o@
CONST	SEGMENT
??_C@_0EE@LCHLCEBH@C?3?2Users?2Mahito?2Desktop?2Night?5o@ DB 'C:\Users\Ma'
	DB	'hito\Desktop\Night outing\Night-outing\src\xrCore\FS.cpp', 00H ; `string'
CONST	ENDS
;	COMDAT ??_C@_0N@NDJPHIGH@FileDownload@
CONST	SEGMENT
??_C@_0N@NDJPHIGH@FileDownload@ DB 'FileDownload', 00H	; `string'
PUBLIC	?enc_tell@CMemoryWriter@@UEAAIXZ		; CMemoryWriter::enc_tell
PUBLIC	?flush@CMemoryWriter@@UEAAXXZ			; CMemoryWriter::flush
PUBLIC	?tell@CMemoryWriter@@UEAAIXZ			; CMemoryWriter::tell
PUBLIC	?seek@CMemoryWriter@@UEAAXI@Z			; CMemoryWriter::seek
PUBLIC	??_GCMemoryWriter@@UEAAPEAXI@Z			; CMemoryWriter::`scalar deleting destructor'
PUBLIC	?advance@IReader@@QEAAXH@Z			; IReader::advance
PUBLIC	??0IReader@@QEAA@XZ				; IReader::IReader
PUBLIC	??1?$_Uninitialized_backout_al@V?$xalloc@I@@@std@@QEAA@XZ ; std::_Uninitialized_backout_al<xalloc<unsigned int> >::~_Uninitialized_backout_al<xalloc<unsigned int> >
PUBLIC	??$forward@AEBI@std@@YAAEBIAEBI@Z		; std::forward<unsigned int const &>
PUBLIC	??$xr_delete@VIReader@@@@YAXAEBQEAVIReader@@@Z	; xr_delete<IReader>
PUBLIC	?back@?$vector@IV?$xalloc@I@@@std@@QEAAAEAIXZ	; std::vector<unsigned int,xalloc<unsigned int> >::back
PUBLIC	?impl@?$IReaderBase@VIReader@@@@QEAAAEAVIReader@@XZ ; IReaderBase<IReader>::impl
PUBLIC	?r@?$IReaderBase@VIReader@@@@QEAAXPEAXH@Z	; IReaderBase<IReader>::r
PUBLIC	?top@?$xr_stack@IV?$xr_vector@IV?$xalloc@I@@@@@@QEAAAEAIXZ ; xr_stack<unsigned int,xr_vector<unsigned int,xalloc<unsigned int> > >::top
PUBLIC	?r_u32@?$IReaderBase@VIReader@@@@QEAAIXZ	; IReaderBase<IReader>::r_u32
PUBLIC	??1CVirtualFileReader@@UEAA@XZ			; CVirtualFileReader::~CVirtualFileReader
PUBLIC	??_GCVirtualFileReader@@UEAAPEAXI@Z		; CVirtualFileReader::`scalar deleting destructor'
PUBLIC	??1CVirtualFileRW@@UEAA@XZ			; CVirtualFileRW::~CVirtualFileRW
PUBLIC	??_GCVirtualFileRW@@UEAAPEAXI@Z			; CVirtualFileRW::`scalar deleting destructor'
PUBLIC	??1CCompressedReader@@UEAA@XZ			; CCompressedReader::~CCompressedReader
PUBLIC	??_GCCompressedReader@@UEAAPEAXI@Z		; CCompressedReader::`scalar deleting destructor'
PUBLIC	??1CFileReader@@UEAA@XZ				; CFileReader::~CFileReader
PUBLIC	??_GCFileReader@@UEAAPEAXI@Z			; CFileReader::`scalar deleting destructor'
PUBLIC	?advance_term_string@IReader@@IEAAIXZ		; IReader::advance_term_string
PUBLIC	?is_term@@YAHD@Z				; is_term
PUBLIC	?r@IReader@@QEAAXPEAXH@Z			; IReader::r
PUBLIC	?chunk_size@IWriter@@QEAAIXZ			; IWriter::chunk_size
PUBLIC	?w@CMemoryWriter@@UEAAXPEBXI@Z			; CMemoryWriter::w
PUBLIC	??1CMemoryWriter@@UEAA@XZ			; CMemoryWriter::~CMemoryWriter
PUBLIC	?FileDownload@@YAPEAXPEBDPEAI@Z			; FileDownload
PUBLIC	?VerifyPath@@YAXPEBD@Z				; VerifyPath
PUBLIC	??1CTempReader@@UEAA@XZ				; CTempReader::~CTempReader
PUBLIC	??1CPackReader@@UEAA@XZ				; CPackReader::~CPackReader
PUBLIC	?close@IReader@@QEAAXXZ				; IReader::close
PUBLIC	?file_handle_internal@@YA_NPEBDAEAIAEAH@Z	; file_handle_internal
PUBLIC	?FileDownload@@YAPEAXPEBDAEBHAEAI@Z		; FileDownload
PUBLIC	?r_string@IReader@@QEAAXPEADI@Z			; IReader::r_string
PUBLIC	??0CFileReader@@QEAA@PEBD@Z			; CFileReader::CFileReader
PUBLIC	??0CVirtualFileReader@@QEAA@PEBD@Z		; CVirtualFileReader::CVirtualFileReader
EXTRN	??_ECMemoryWriter@@UEAAPEAXI@Z:PROC		; CMemoryWriter::`vector deleting destructor'
EXTRN	??_ECVirtualFileRW@@UEAAPEAXI@Z:PROC		; CVirtualFileRW::`vector deleting destructor'
EXTRN	??_ECFileReader@@UEAAPEAXI@Z:PROC		; CFileReader::`vector deleting destructor'
EXTRN	??_ECCompressedReader@@UEAAPEAXI@Z:PROC		; CCompressedReader::`vector deleting destructor'
EXTRN	??_ECVirtualFileReader@@UEAAPEAXI@Z:PROC	; CVirtualFileReader::`vector deleting destructor'
;	COMDAT pdata
pdata	SEGMENT
$pdata$??_GCMemoryWriter@@UEAAPEAXI@Z DD imagerel $LN31
	DD	imagerel $LN31+95
	DD	imagerel $unwind$??_GCMemoryWriter@@UEAAPEAXI@Z
pdata	ENDS
;	COMDAT pdata
pdata	SEGMENT
$pdata$?r@?$IReaderBase@VIReader@@@@QEAAXPEAXH@Z DD imagerel $LN16
	DD	imagerel $LN16+68
	DD	imagerel $unwind$?r@?$IReaderBase@VIReader@@@@QEAAXPEAXH@Z
pdata	ENDS
pdata	SEGMENT
$pdata$??1CVirtualFileReader@@UEAA@XZ DD imagerel $LN5
	DD	imagerel $LN5+65
	DD	imagerel $unwind$??1CVirtualFileReader@@UEAA@XZ
pdata	ENDS
;	COMDAT pdata
pdata	SEGMENT
$pdata$??_GCVirtualFileReader@@UEAAPEAXI@Z DD imagerel $LN9
	DD	imagerel $LN9+97
	DD	imagerel $unwind$??_GCVirtualFileReader@@UEAAPEAXI@Z
pdata	ENDS
pdata	SEGMENT
$pdata$??1CVirtualFileRW@@UEAA@XZ DD imagerel $LN5
	DD	imagerel $LN5+65
	DD	imagerel $unwind$??1CVirtualFileRW@@UEAA@XZ
pdata	ENDS
;	COMDAT pdata
pdata	SEGMENT
$pdata$??_GCVirtualFileRW@@UEAAPEAXI@Z DD imagerel $LN9
	DD	imagerel $LN9+97
	DD	imagerel $unwind$??_GCVirtualFileRW@@UEAAPEAXI@Z
pdata	ENDS
pdata	SEGMENT
$pdata$??1CCompressedReader@@UEAA@XZ DD imagerel $LN28
	DD	imagerel $LN28+64
	DD	imagerel $unwind$??1CCompressedReader@@UEAA@XZ
pdata	ENDS
;	COMDAT pdata
pdata	SEGMENT
$pdata$??_GCCompressedReader@@UEAAPEAXI@Z DD imagerel $LN31
	DD	imagerel $LN31+97
	DD	imagerel $unwind$??_GCCompressedReader@@UEAAPEAXI@Z
pdata	ENDS
pdata	SEGMENT
$pdata$??1CFileReader@@UEAA@XZ DD imagerel $LN28
	DD	imagerel $LN28+64
	DD	imagerel $unwind$??1CFileReader@@UEAA@XZ
pdata	ENDS
;	COMDAT pdata
pdata	SEGMENT
$pdata$??_GCFileReader@@UEAAPEAXI@Z DD imagerel $LN31
	DD	imagerel $LN31+97
	DD	imagerel $unwind$??_GCFileReader@@UEAAPEAXI@Z
pdata	ENDS
;	COMDAT pdata
pdata	SEGMENT
$pdata$?advance_term_string@IReader@@IEAAIXZ DD imagerel $LN44
	DD	imagerel $LN44+127
	DD	imagerel $unwind$?advance_term_string@IReader@@IEAAIXZ
pdata	ENDS
pdata	SEGMENT
$pdata$?r@IReader@@QEAAXPEAXH@Z DD imagerel $LN14
	DD	imagerel $LN14+52
	DD	imagerel $unwind$?r@IReader@@QEAAXPEAXH@Z
$pdata$?chunk_size@IWriter@@QEAAIXZ DD imagerel $LN13
	DD	imagerel $LN13+55
	DD	imagerel $unwind$?chunk_size@IWriter@@QEAAIXZ
$pdata$?w@CMemoryWriter@@UEAAXPEBXI@Z DD imagerel $LN202
	DD	imagerel $LN202+9
	DD	imagerel $unwind$?w@CMemoryWriter@@UEAAXPEBXI@Z
$pdata$1$?w@CMemoryWriter@@UEAAXPEBXI@Z DD imagerel $LN202+9
	DD	imagerel $LN202+44
	DD	imagerel $chain$1$?w@CMemoryWriter@@UEAAXPEBXI@Z
$pdata$4$?w@CMemoryWriter@@UEAAXPEBXI@Z DD imagerel $LN202+44
	DD	imagerel $LN202+159
	DD	imagerel $chain$4$?w@CMemoryWriter@@UEAAXPEBXI@Z
$pdata$5$?w@CMemoryWriter@@UEAAXPEBXI@Z DD imagerel $LN202+159
	DD	imagerel $LN202+233
	DD	imagerel $chain$5$?w@CMemoryWriter@@UEAAXPEBXI@Z
$pdata$6$?w@CMemoryWriter@@UEAAXPEBXI@Z DD imagerel $LN202+233
	DD	imagerel $LN202+248
	DD	imagerel $chain$6$?w@CMemoryWriter@@UEAAXPEBXI@Z
$pdata$7$?w@CMemoryWriter@@UEAAXPEBXI@Z DD imagerel $LN202+248
	DD	imagerel $LN202+290
	DD	imagerel $chain$7$?w@CMemoryWriter@@UEAAXPEBXI@Z
$pdata$8$?w@CMemoryWriter@@UEAAXPEBXI@Z DD imagerel $LN202+290
	DD	imagerel $LN202+299
	DD	imagerel $chain$8$?w@CMemoryWriter@@UEAAXPEBXI@Z
$pdata$??1CMemoryWriter@@UEAA@XZ DD imagerel $LN27
	DD	imagerel $LN27+61
	DD	imagerel $unwind$??1CMemoryWriter@@UEAA@XZ
$pdata$?FileDownload@@YAPEAXPEBDPEAI@Z DD imagerel $LN19
	DD	imagerel $LN19+205
	DD	imagerel $unwind$?FileDownload@@YAPEAXPEBDPEAI@Z
$pdata$?open_internal@@YAHPEBDAEAH@Z DD imagerel ?open_internal@@YAHPEBDAEAH@Z
	DD	imagerel ?open_internal@@YAHPEBDAEAH@Z+44
	DD	imagerel $unwind$?open_internal@@YAHPEBDAEAH@Z
$pdata$?VerifyPath@@YAXPEBD@Z DD imagerel $LN13
	DD	imagerel $LN13+27
	DD	imagerel $unwind$?VerifyPath@@YAXPEBD@Z
$pdata$1$?VerifyPath@@YAXPEBD@Z DD imagerel $LN13+27
	DD	imagerel $LN13+117
	DD	imagerel $chain$1$?VerifyPath@@YAXPEBD@Z
$pdata$2$?VerifyPath@@YAXPEBD@Z DD imagerel $LN13+117
	DD	imagerel $LN13+134
	DD	imagerel $chain$2$?VerifyPath@@YAXPEBD@Z
$pdata$??1CTempReader@@UEAA@XZ DD imagerel $LN28
	DD	imagerel $LN28+64
	DD	imagerel $unwind$??1CTempReader@@UEAA@XZ
$pdata$??1CPackReader@@UEAA@XZ DD imagerel $LN5
	DD	imagerel $LN5+45
	DD	imagerel $unwind$??1CPackReader@@UEAA@XZ
$pdata$?file_handle_internal@@YA_NPEBDAEAIAEAH@Z DD imagerel $LN10
	DD	imagerel $LN10+153
	DD	imagerel $unwind$?file_handle_internal@@YA_NPEBDAEAIAEAH@Z
$pdata$?FileDownload@@YAPEAXPEBDAEBHAEAI@Z DD imagerel $LN46
	DD	imagerel $LN46+247
	DD	imagerel $unwind$?FileDownload@@YAPEAXPEBDAEBHAEAI@Z
$pdata$?r_string@IReader@@QEAAXPEADI@Z DD imagerel $LN16
	DD	imagerel $LN16+226
	DD	imagerel $unwind$?r_string@IReader@@QEAAXPEADI@Z
$pdata$??0CFileReader@@QEAA@PEBD@Z DD imagerel $LN26
	DD	imagerel $LN26+247
	DD	imagerel $unwind$??0CFileReader@@QEAA@PEBD@Z
$pdata$??0CVirtualFileReader@@QEAA@PEBD@Z DD imagerel $LN46
	DD	imagerel $LN46+584
	DD	imagerel $unwind$??0CVirtualFileReader@@QEAA@PEBD@Z
;	COMDAT xdata
xdata	SEGMENT
$unwind$?advance_term_string@IReader@@IEAAIXZ DD 040a01H
	DD	02740aH
	DD	013405H
xdata	ENDS
;	COMDAT xdata
xdata	SEGMENT
$unwind$??_GCFileReader@@UEAAPEAXI@Z DD 040a01H
	DD	06340aH
	DD	07006320aH
xdata	ENDS
;	COMDAT xdata
xdata	SEGMENT
$unwind$??_GCCompressedReader@@UEAAPEAXI@Z DD 040a01H
	DD	06340aH
	DD	07006320aH
xdata	ENDS
;	COMDAT xdata
xdata	SEGMENT
$unwind$??_GCVirtualFileRW@@UEAAPEAXI@Z DD 040a01H
	DD	06340aH
	DD	07006320aH
xdata	ENDS
;	COMDAT xdata
xdata	SEGMENT
$unwind$??_GCVirtualFileReader@@UEAAPEAXI@Z DD 040a01H
	DD	06340aH
	DD	07006320aH
xdata	ENDS
xdata	SEGMENT
$unwind$??1CVirtualFileReader@@UEAA@XZ DD 020601H
	DD	030023206H
$unwind$??1CVirtualFileRW@@UEAA@XZ DD 020601H
	DD	030023206H
$unwind$??1CCompressedReader@@UEAA@XZ DD 020601H
	DD	030023206H
$unwind$??1CFileReader@@UEAA@XZ DD 020601H
	DD	030023206H
$unwind$?r@IReader@@QEAAXPEAXH@Z DD 040a01H
	DD	06340aH
	DD	07006320aH
$unwind$?chunk_size@IWriter@@QEAAIXZ DD 031a01H
	DD	04341aH
	DD	04204H
$unwind$?w@CMemoryWriter@@UEAAXPEBXI@Z DD 020601H
	DD	030025206H
$chain$1$?w@CMemoryWriter@@UEAAXPEBXI@Z DD 041321H
	DD	04f413H
	DD	0bc405H
	DD	imagerel $LN202
	DD	imagerel $LN202+9
	DD	imagerel $unwind$?w@CMemoryWriter@@UEAAXPEBXI@Z
$chain$4$?w@CMemoryWriter@@UEAAXPEBXI@Z DD 064621H
	DD	096446H
	DD	0a740dH
	DD	085405H
	DD	imagerel $LN202+9
	DD	imagerel $LN202+44
	DD	imagerel $chain$1$?w@CMemoryWriter@@UEAAXPEBXI@Z
$chain$5$?w@CMemoryWriter@@UEAAXPEBXI@Z DD 020521H
	DD	05e405H
	DD	imagerel $LN202+44
	DD	imagerel $LN202+159
	DD	imagerel $chain$4$?w@CMemoryWriter@@UEAAXPEBXI@Z
$chain$6$?w@CMemoryWriter@@UEAAXPEBXI@Z DD 021H
	DD	imagerel $LN202+44
	DD	imagerel $LN202+159
	DD	imagerel $chain$4$?w@CMemoryWriter@@UEAAXPEBXI@Z
$chain$7$?w@CMemoryWriter@@UEAAXPEBXI@Z DD 021H
	DD	imagerel $LN202+9
	DD	imagerel $LN202+44
	DD	imagerel $chain$1$?w@CMemoryWriter@@UEAAXPEBXI@Z
$chain$8$?w@CMemoryWriter@@UEAAXPEBXI@Z DD 021H
	DD	imagerel $LN202
	DD	imagerel $LN202+9
	DD	imagerel $unwind$?w@CMemoryWriter@@UEAAXPEBXI@Z
$unwind$??1CMemoryWriter@@UEAA@XZ DD 020601H
	DD	030023206H
$unwind$?FileDownload@@YAPEAXPEBDPEAI@Z DD 040a01H
	DD	0c340aH
	DD	07006920aH
$unwind$?open_internal@@YAHPEBDAEAH@Z DD 010401H
	DD	06204H
$unwind$?VerifyPath@@YAXPEBD@Z DD 050f01H
	DD	088340fH
	DD	084010fH
	DD	06008H
$chain$1$?VerifyPath@@YAXPEBD@Z DD 040b21H
	DD	087e40bH
	DD	0867404H
	DD	imagerel $LN13
	DD	imagerel $LN13+27
	DD	imagerel $unwind$?VerifyPath@@YAXPEBD@Z
$chain$2$?VerifyPath@@YAXPEBD@Z DD 021H
	DD	imagerel $LN13
	DD	imagerel $LN13+27
	DD	imagerel $unwind$?VerifyPath@@YAXPEBD@Z
$unwind$??1CTempReader@@UEAA@XZ DD 020601H
	DD	030023206H
$unwind$??1CPackReader@@UEAA@XZ DD 020601H
	DD	030023206H
$unwind$?file_handle_internal@@YA_NPEBDAEAIAEAH@Z DD 060f01H
	DD	09640fH
	DD	08340fH
	DD	0700b520fH
$unwind$?FileDownload@@YAPEAXPEBDAEBHAEAI@Z DD 0a1801H
	DD	0106418H
	DD	0f5418H
	DD	0e3418H
	DD	0f0149218H
	DD	07010e012H
$unwind$?r_string@IReader@@QEAAXPEADI@Z DD 0a1a01H
	DD	0f741aH
	DD	0e641aH
	DD	0d541aH
	DD	0c341aH
	DD	0e016921aH
$unwind$??0CFileReader@@QEAA@PEBD@Z DD 081401H
	DD	0f6414H
	DD	0e5414H
	DD	0d3414H
	DD	070109214H
$unwind$??0CVirtualFileReader@@QEAA@PEBD@Z DD 0a1801H
	DD	0106418H
	DD	0f5418H
	DD	0e3418H
	DD	0f0149218H
	DD	07010e012H
xdata	ENDS
;	COMDAT xdata
xdata	SEGMENT
$unwind$?r@?$IReaderBase@VIReader@@@@QEAAXPEAXH@Z DD 060f01H
	DD	07640fH
	DD	06340fH
	DD	0700b320fH
xdata	ENDS
;	COMDAT xdata
xdata	SEGMENT
$unwind$??_GCMemoryWriter@@UEAAPEAXI@Z DD 040a01H
	DD	06340aH
	DD	07006320aH
; Function compile flags: /Ogtpy
; File C:\Users\Mahito\Desktop\Night outing\Night-outing\src\xrCore\FS.cpp
; File C:\Users\Mahito\Desktop\Night outing\Night-outing\src\xrCore\FS.h
; File C:\Users\Mahito\Desktop\Night outing\Night-outing\src\xrCore\FS.cpp
; File C:\Users\Mahito\Desktop\Night outing\Night-outing\src\xrCore\FS.h
; File C:\Users\Mahito\Desktop\Night outing\Night-outing\src\xrCore\FS.cpp
; File C:\Users\Mahito\Desktop\Night outing\Night-outing\src\xrCore\FS.h
; File C:\Users\Mahito\Desktop\Night outing\Night-outing\src\xrCore\FS.cpp
; File C:\Users\Mahito\Desktop\Night outing\Night-outing\src\xrCore\xrDebugNew.cpp
; File C:\Users\Mahito\Desktop\Night outing\Night-outing\src\xrCore\FS.cpp
; File C:\Users\Mahito\Desktop\Night outing\Night-outing\src\xrCore\xrDebugNew.cpp
; File C:\Users\Mahito\Desktop\Night outing\Night-outing\src\xrCore\FS.cpp
; File C:\Users\Mahito\Desktop\Night outing\Night-outing\src\xrCore\xrDebugNew.cpp
; File C:\Users\Mahito\Desktop\Night outing\Night-outing\src\xrCore\FS.cpp
; File C:\Users\Mahito\Desktop\Night outing\Night-outing\src\xrCore\xrDebugNew.cpp
; File C:\Users\Mahito\Desktop\Night outing\Night-outing\src\xrCore\FS.cpp
_TEXT	SEGMENT
this$ = 112
cFileName$ = 120
??0CVirtualFileReader@@QEAA@PEBD@Z PROC			; CVirtualFileReader::CVirtualFileReader

; 534  : {

$LN46:
	mov	QWORD PTR [rsp+8], rbx
	mov	QWORD PTR [rsp+16], rbp
	mov	QWORD PTR [rsp+24], rsi
	push	rdi
	push	r14
	push	r15
	sub	rsp, 80					; 00000050H
; File C:\Users\Mahito\Desktop\Night outing\Night-outing\src\xrCore\FS.h

; 172  : 	IC				IReaderBase() : m_last_pos(0), m_file_age(0) {}

	xor	esi, esi
; File C:\Users\Mahito\Desktop\Night outing\Night-outing\src\xrCore\FS.cpp

; 534  : {

	lea	rax, OFFSET FLAT:??_7CVirtualFileReader@@6B@
	mov	rdi, rdx
; File C:\Users\Mahito\Desktop\Night outing\Night-outing\src\xrCore\FS.h

; 172  : 	IC				IReaderBase() : m_last_pos(0), m_file_age(0) {}

	mov	QWORD PTR [rcx+8], rsi
; File C:\Users\Mahito\Desktop\Night outing\Night-outing\src\xrCore\FS.cpp

; 534  : {

	mov	rbx, rcx
; File C:\Users\Mahito\Desktop\Night outing\Night-outing\src\xrCore\FS.h

; 267  : 		Pos			= 0;

	mov	DWORD PTR [rcx+24], esi
; File C:\Users\Mahito\Desktop\Night outing\Night-outing\src\xrCore\FS.cpp

; 534  : {

	mov	QWORD PTR [rcx], rax

; 535  : 	// Open the file
; 536  : 	hSrcFile		= CreateFile(cFileName, GENERIC_READ, FILE_SHARE_READ|FILE_SHARE_WRITE, 0, OPEN_EXISTING, 0, 0);

	xor	r9d, r9d
	mov	QWORD PTR [rsp+48], rsi
	lea	r8d, QWORD PTR [rsi+3]
	mov	DWORD PTR [rsp+40], esi
	mov	edx, -2147483648			; 80000000H
	mov	rcx, rdi
	mov	DWORD PTR [rsp+32], 3
	call	QWORD PTR __imp_CreateFileA
	mov	QWORD PTR [rbx+40], rax

; 537  : 	R_ASSERT3		(hSrcFile!=INVALID_HANDLE_VALUE,cFileName,Debug.error2string(GetLastError()));

	lea	rbp, OFFSET FLAT:?desc_storage@?1??error2string@xrDebug@@QEAAPEBDJ@Z@4PADA
	lea	r14, OFFSET FLAT:??_C@_0CH@JKOJKKOC@CVirtualFileReader?3?3CVirtualFil@
	lea	r15, OFFSET FLAT:??_C@_0EE@LCHLCEBH@C?3?2Users?2Mahito?2Desktop?2Night?5o@
	cmp	rax, -1
	jne	SHORT $LN2@CVirtualFi
	call	QWORD PTR __imp_GetLastError
; File C:\Users\Mahito\Desktop\Night outing\Night-outing\src\xrCore\xrDebugNew.cpp

; 369  :         FormatMessage(FORMAT_MESSAGE_FROM_SYSTEM, 0, code, 0, desc_storage, sizeof(desc_storage) - 1, 0);

	mov	QWORD PTR [rsp+48], rsi
	xor	r9d, r9d
	mov	r8d, eax
	mov	DWORD PTR [rsp+40], 1023		; 000003ffH
	xor	edx, edx
	mov	QWORD PTR [rsp+32], rbp
	mov	ecx, 4096				; 00001000H
	call	QWORD PTR __imp_FormatMessageA

; 406  :     backend(e1, e2, e3, 0, file, line, function, ignore_always);

	mov	QWORD PTR [rsp+56], r14
	lea	rdx, OFFSET FLAT:??_C@_0BP@JJGNJHJF@hSrcFile?$CB?$DNINVALID_HANDLE_VALUE@
	mov	DWORD PTR [rsp+48], 537			; 00000219H
	lea	rcx, OFFSET FLAT:?Debug@@3VxrDebug@@A	; Debug
	mov	r9, rbp
	mov	QWORD PTR [rsp+40], r15
	mov	r8, rdi
	call	?backend@xrDebug@@QEAAXPEBD0000H0AEA_N@Z ; xrDebug::backend
$LN2@CVirtualFi:
; File C:\Users\Mahito\Desktop\Night outing\Night-outing\src\xrCore\FS.cpp

; 538  : 	Size			= (int)GetFileSize(hSrcFile, NULL);

	mov	rcx, QWORD PTR [rbx+40]
	xor	edx, edx
	call	QWORD PTR __imp_GetFileSize
	mov	DWORD PTR [rbx+28], eax

; 539  : 	R_ASSERT3		(Size,cFileName,Debug.error2string(GetLastError()));

	test	eax, eax
	jne	SHORT $LN5@CVirtualFi
	call	QWORD PTR __imp_GetLastError
; File C:\Users\Mahito\Desktop\Night outing\Night-outing\src\xrCore\xrDebugNew.cpp

; 369  :         FormatMessage(FORMAT_MESSAGE_FROM_SYSTEM, 0, code, 0, desc_storage, sizeof(desc_storage) - 1, 0);

	mov	QWORD PTR [rsp+48], rsi
	xor	r9d, r9d
	mov	r8d, eax
	mov	DWORD PTR [rsp+40], 1023		; 000003ffH
	xor	edx, edx
	mov	QWORD PTR [rsp+32], rbp
	mov	ecx, 4096				; 00001000H
	call	QWORD PTR __imp_FormatMessageA

; 406  :     backend(e1, e2, e3, 0, file, line, function, ignore_always);

	mov	QWORD PTR [rsp+56], r14
	lea	rdx, OFFSET FLAT:??_C@_04EBKMHHBE@Size@
	mov	DWORD PTR [rsp+48], 539			; 0000021bH
	lea	rcx, OFFSET FLAT:?Debug@@3VxrDebug@@A	; Debug
	mov	r9, rbp
	mov	QWORD PTR [rsp+40], r15
	mov	r8, rdi
	call	?backend@xrDebug@@QEAAXPEBD0000H0AEA_N@Z ; xrDebug::backend
$LN5@CVirtualFi:
; File C:\Users\Mahito\Desktop\Night outing\Night-outing\src\xrCore\FS.cpp

; 541  : 	hSrcMap			= CreateFileMapping (hSrcFile, 0, PAGE_READONLY, 0, 0, 0);

	mov	rcx, QWORD PTR [rbx+40]
	xor	r9d, r9d
	mov	QWORD PTR [rsp+40], rsi
	xor	edx, edx
	mov	DWORD PTR [rsp+32], esi
	lea	r8d, QWORD PTR [r9+2]
	call	QWORD PTR __imp_CreateFileMappingA
	mov	QWORD PTR [rbx+48], rax

; 542  : 	R_ASSERT3		(hSrcMap!=INVALID_HANDLE_VALUE,cFileName,Debug.error2string(GetLastError()));

	cmp	rax, -1
	jne	SHORT $LN8@CVirtualFi
	call	QWORD PTR __imp_GetLastError
; File C:\Users\Mahito\Desktop\Night outing\Night-outing\src\xrCore\xrDebugNew.cpp

; 369  :         FormatMessage(FORMAT_MESSAGE_FROM_SYSTEM, 0, code, 0, desc_storage, sizeof(desc_storage) - 1, 0);

	mov	QWORD PTR [rsp+48], rsi
	xor	r9d, r9d
	mov	r8d, eax
	mov	DWORD PTR [rsp+40], 1023		; 000003ffH
	xor	edx, edx
	mov	QWORD PTR [rsp+32], rbp
	mov	ecx, 4096				; 00001000H
	call	QWORD PTR __imp_FormatMessageA

; 406  :     backend(e1, e2, e3, 0, file, line, function, ignore_always);

	mov	QWORD PTR [rsp+56], r14
	lea	rdx, OFFSET FLAT:??_C@_0BO@DODFDMMA@hSrcMap?$CB?$DNINVALID_HANDLE_VALUE@
	mov	DWORD PTR [rsp+48], 542			; 0000021eH
	lea	rcx, OFFSET FLAT:?Debug@@3VxrDebug@@A	; Debug
	mov	r9, rbp
	mov	QWORD PTR [rsp+40], r15
	mov	r8, rdi
	call	?backend@xrDebug@@QEAAXPEBD0000H0AEA_N@Z ; xrDebug::backend
$LN8@CVirtualFi:
; File C:\Users\Mahito\Desktop\Night outing\Night-outing\src\xrCore\FS.cpp

; 544  : 	data			= (char*)MapViewOfFile (hSrcMap, FILE_MAP_READ, 0, 0, 0);

	mov	rcx, QWORD PTR [rbx+48]
	xor	r9d, r9d
	xor	r8d, r8d
	mov	QWORD PTR [rsp+32], rsi
	lea	edx, QWORD PTR [r9+4]
	call	QWORD PTR __imp_MapViewOfFile
	mov	QWORD PTR [rbx+16], rax

; 545  : 	R_ASSERT3		(data,cFileName,Debug.error2string(GetLastError()));

	test	rax, rax
	jne	SHORT $LN43@CVirtualFi
	call	QWORD PTR __imp_GetLastError
; File C:\Users\Mahito\Desktop\Night outing\Night-outing\src\xrCore\xrDebugNew.cpp

; 369  :         FormatMessage(FORMAT_MESSAGE_FROM_SYSTEM, 0, code, 0, desc_storage, sizeof(desc_storage) - 1, 0);

	mov	QWORD PTR [rsp+48], rsi
	xor	r9d, r9d
	mov	r8d, eax
	mov	DWORD PTR [rsp+40], 1023		; 000003ffH
	xor	edx, edx
	mov	QWORD PTR [rsp+32], rbp
	mov	ecx, 4096				; 00001000H
	call	QWORD PTR __imp_FormatMessageA

; 406  :     backend(e1, e2, e3, 0, file, line, function, ignore_always);

	mov	QWORD PTR [rsp+56], r14
	lea	rdx, OFFSET FLAT:??_C@_04PJOLNDGD@data@
	mov	DWORD PTR [rsp+48], 545			; 00000221H
	lea	rcx, OFFSET FLAT:?Debug@@3VxrDebug@@A	; Debug
	mov	r9, rbp
	mov	QWORD PTR [rsp+40], r15
	mov	r8, rdi
	call	?backend@xrDebug@@QEAAXPEBD0000H0AEA_N@Z ; xrDebug::backend
$LN43@CVirtualFi:
; File C:\Users\Mahito\Desktop\Night outing\Night-outing\src\xrCore\FS.cpp

; 550  : }

	mov	rbp, QWORD PTR [rsp+120]
	mov	rax, rbx
	mov	rbx, QWORD PTR [rsp+112]
	mov	rsi, QWORD PTR [rsp+128]
	add	rsp, 80					; 00000050H
	pop	r15
	pop	r14
	pop	rdi
	ret	0
??0CVirtualFileReader@@QEAA@PEBD@Z ENDP			; CVirtualFileReader::CVirtualFileReader
_TEXT	ENDS
; Function compile flags: /Ogtpy
; File C:\Users\Mahito\Desktop\Night outing\Night-outing\src\xrCore\FS.cpp
; File C:\Users\Mahito\Desktop\Night outing\Night-outing\src\xrCore\FS.h
; File C:\Users\Mahito\Desktop\Night outing\Night-outing\src\xrCore\FS.cpp
; File C:\Users\Mahito\Desktop\Night outing\Night-outing\src\xrCore\FS.h
; File C:\Users\Mahito\Desktop\Night outing\Night-outing\src\xrCore\FS.cpp
; File C:\Users\Mahito\Desktop\Night outing\Night-outing\src\xrCore\FS.h
; File C:\Users\Mahito\Desktop\Night outing\Night-outing\src\xrCore\FS.cpp
; File C:\Users\Mahito\Desktop\Night outing\Night-outing\src\xrCore\xrDebugNew.cpp
; File C:\Users\Mahito\Desktop\Night outing\Night-outing\src\xrCore\FS.cpp
_TEXT	SEGMENT
file_handle$1 = 96
this$ = 96
name$ = 104
??0CFileReader@@QEAA@PEBD@Z PROC			; CFileReader::CFileReader

; 486  : {

$LN26:
	mov	QWORD PTR [rsp+16], rbx
	mov	QWORD PTR [rsp+24], rbp
	mov	QWORD PTR [rsp+32], rsi
	push	rdi
	sub	rsp, 80					; 00000050H
; File C:\Users\Mahito\Desktop\Night outing\Night-outing\src\xrCore\FS.h

; 172  : 	IC				IReaderBase() : m_last_pos(0), m_file_age(0) {}

	xor	ebp, ebp
; File C:\Users\Mahito\Desktop\Night outing\Night-outing\src\xrCore\FS.cpp

; 109  : 	return				(

	mov	DWORD PTR [rsp+32], 256			; 00000100H

; 486  : {

	lea	rax, OFFSET FLAT:??_7CFileReader@@6B@
; File C:\Users\Mahito\Desktop\Night outing\Night-outing\src\xrCore\FS.h

; 172  : 	IC				IReaderBase() : m_last_pos(0), m_file_age(0) {}

	mov	QWORD PTR [rcx+8], rbp
; File C:\Users\Mahito\Desktop\Night outing\Night-outing\src\xrCore\FS.cpp

; 486  : {

	mov	rbx, rcx
; File C:\Users\Mahito\Desktop\Night outing\Night-outing\src\xrCore\FS.h

; 267  : 		Pos			= 0;

	mov	DWORD PTR [rcx+24], ebp
; File C:\Users\Mahito\Desktop\Night outing\Night-outing\src\xrCore\FS.cpp

; 486  : {

	mov	QWORD PTR [rcx], rax

; 109  : 	return				(

	mov	r8d, 32768				; 00008000H
	lea	r9d, QWORD PTR [rbp+64]

; 486  : {

	mov	rdi, rdx

; 109  : 	return				(

	lea	rcx, QWORD PTR file_handle$1[rsp]
	call	QWORD PTR __imp__sopen_s

; 122  : 	if (open_internal(file_name, file_handle)) {

	test	eax, eax
	je	SHORT $LN15@CFileReade

; 123  : 		Sleep			(1);

	lea	ecx, QWORD PTR [rbp+1]
	call	QWORD PTR __imp_Sleep

; 109  : 	return				(

	lea	r9d, QWORD PTR [rbp+64]
	mov	DWORD PTR [rsp+32], 256			; 00000100H
	mov	r8d, 32768				; 00008000H
	lea	rcx, QWORD PTR file_handle$1[rsp]
	mov	rdx, rdi
	call	QWORD PTR __imp__sopen_s

; 124  : 		if (open_internal(file_name, file_handle))

	test	eax, eax
	je	SHORT $LN15@CFileReade
; File C:\Users\Mahito\Desktop\Night outing\Night-outing\src\xrCore\xrDebugNew.cpp

; 406  :     backend(e1, e2, e3, 0, file, line, function, ignore_always);

	lea	rax, OFFSET FLAT:??_C@_0N@NDJPHIGH@FileDownload@
	mov	r9, rdi
	mov	QWORD PTR [rsp+56], rax
	lea	r8, OFFSET FLAT:??_C@_0BD@CHGGMBHK@can?8t?5open?5file?5?3?5@
	lea	rax, OFFSET FLAT:??_C@_0EE@LCHLCEBH@C?3?2Users?2Mahito?2Desktop?2Night?5o@
	mov	DWORD PTR [rsp+48], 169			; 000000a9H
	lea	rdx, OFFSET FLAT:??_C@_0DL@KHKLKJPM@file_handle_internal?$CIfile_name?0@
	mov	QWORD PTR [rsp+40], rax
	lea	rcx, OFFSET FLAT:?Debug@@3VxrDebug@@A	; Debug
	call	?backend@xrDebug@@QEAAXPEBD0000H0AEA_N@Z ; xrDebug::backend
	jmp	SHORT $LN8@CFileReade
$LN15@CFileReade:
; File C:\Users\Mahito\Desktop\Night outing\Night-outing\src\xrCore\FS.cpp

; 128  : 	size				= _filelength(file_handle);

	mov	ecx, DWORD PTR file_handle$1[rsp]
	call	QWORD PTR __imp__filelength
	mov	DWORD PTR [rbx+28], eax
$LN8@CFileReade:

; 171  : 	return				(FileDownload(file_name, file_handle, *buffer_size));

	lea	r8, QWORD PTR [rbx+28]
	mov	rcx, rdi
	lea	rdx, QWORD PTR file_handle$1[rsp]
	call	?FileDownload@@YAPEAXPEBDAEBHAEAI@Z	; FileDownload

; 487  :     data	= (char *)FileDownload(name,(u32 *)&Size);
; 488  :     Pos		= 0;
; 489  : };

	mov	rsi, QWORD PTR [rsp+120]
	mov	QWORD PTR [rbx+16], rax
	mov	rax, rbx
	mov	DWORD PTR [rbx+24], ebp
	mov	rbx, QWORD PTR [rsp+104]
	mov	rbp, QWORD PTR [rsp+112]
	add	rsp, 80					; 00000050H
	pop	rdi
	ret	0
??0CFileReader@@QEAA@PEBD@Z ENDP			; CFileReader::CFileReader
_TEXT	ENDS
; Function compile flags: /Ogtpy
; File C:\Users\Mahito\Desktop\Night outing\Night-outing\src\xrCore\FS.cpp
; File C:\Users\Mahito\Desktop\Night outing\Night-outing\src\xrCore\xrDebugNew.cpp
; File C:\Users\Mahito\Desktop\Night outing\Night-outing\src\xrCore\FS.cpp
; File C:\Users\Mahito\Desktop\Night outing\Night-outing\src\xrCore\xrDebugNew.cpp
; File C:\Users\Mahito\Desktop\Night outing\Night-outing\src\xrCore\FS.cpp
_TEXT	SEGMENT
this$ = 96
dest$ = 104
tgt_sz$dead$ = 112
?r_string@IReader@@QEAAXPEADI@Z PROC			; IReader::r_string

; 423  : {

$LN16:
	mov	QWORD PTR [rsp+8], rbx
	mov	QWORD PTR [rsp+16], rbp
	mov	QWORD PTR [rsp+24], rsi
	mov	QWORD PTR [rsp+32], rdi
	push	r14
	sub	rsp, 80					; 00000050H

; 424  : 	char *src 	= (char *) data+Pos;

	movsxd	rdi, DWORD PTR [rcx+24]
	mov	rsi, rdx
	add	rdi, QWORD PTR [rcx+16]

; 425  : 	u32 sz 		= advance_term_string();

	call	?advance_term_string@IReader@@IEAAIXZ	; IReader::advance_term_string
	mov	ebx, eax

; 426  :     R_ASSERT2(sz<(tgt_sz-1),"Dest string less than needed.");

	lea	rbp, OFFSET FLAT:??_C@_0BC@LFPNBCKC@IReader?3?3r_string@
	lea	r14, OFFSET FLAT:??_C@_0EE@LCHLCEBH@C?3?2Users?2Mahito?2Desktop?2Night?5o@
	cmp	eax, 4095				; 00000fffH
	jb	SHORT $LN2@r_string
; File C:\Users\Mahito\Desktop\Night outing\Night-outing\src\xrCore\xrDebugNew.cpp

; 400  :     backend(e1, e2, 0, 0, file, line, function, ignore_always);

	mov	QWORD PTR [rsp+56], rbp
	lea	r8, OFFSET FLAT:??_C@_0BO@CBOGAODA@Dest?5string?5less?5than?5needed?4@
	mov	DWORD PTR [rsp+48], 426			; 000001aaH
	lea	rdx, OFFSET FLAT:??_C@_0O@CCNJDAAG@sz?$DM?$CItgt_sz?91?$CJ@
	xor	r9d, r9d
	mov	QWORD PTR [rsp+40], r14
	lea	rcx, OFFSET FLAT:?Debug@@3VxrDebug@@A	; Debug
	call	?backend@xrDebug@@QEAAXPEBD0000H0AEA_N@Z ; xrDebug::backend
$LN2@r_string:
; File C:\Users\Mahito\Desktop\Night outing\Night-outing\src\xrCore\FS.cpp

; 427  : 	R_ASSERT	(!IsBadReadPtr((void*)src,sz));

	mov	rdx, rbx
	mov	rcx, rdi
	call	QWORD PTR __imp_IsBadReadPtr
	test	eax, eax
	je	SHORT $LN5@r_string
; File C:\Users\Mahito\Desktop\Night outing\Night-outing\src\xrCore\xrDebugNew.cpp

; 388  :     backend(e1, "assertion failed", 0, 0, file, line, function, ignore_always);

	mov	QWORD PTR [rsp+56], rbp
	lea	r8, OFFSET FLAT:??_C@_0BB@DBHFCHNO@assertion?5failed@
	mov	DWORD PTR [rsp+48], 427			; 000001abH
	lea	rdx, OFFSET FLAT:??_C@_0BN@MALPHFEJ@?$CBIsBadReadPtr?$CI?$CIvoid?$CK?$CJsrc?0sz?$CJ@
	xor	r9d, r9d
	mov	QWORD PTR [rsp+40], r14
	lea	rcx, OFFSET FLAT:?Debug@@3VxrDebug@@A	; Debug
	call	?backend@xrDebug@@QEAAXPEBD0000H0AEA_N@Z ; xrDebug::backend
$LN5@r_string:
; File C:\Users\Mahito\Desktop\Night outing\Night-outing\src\xrCore\FS.cpp

; 432  :     strncpy_s	(dest,tgt_sz, src,sz);

	mov	r9, rbx
	mov	r8, rdi
	mov	edx, 4096				; 00001000H
	mov	rcx, rsi
	call	QWORD PTR __imp_strncpy_s

; 433  : #endif
; 434  :     dest[sz]	= 0;
; 435  : }

	mov	rbp, QWORD PTR [rsp+104]
	mov	rdi, QWORD PTR [rsp+120]
	mov	BYTE PTR [rbx+rsi], 0
	mov	rbx, QWORD PTR [rsp+96]
	mov	rsi, QWORD PTR [rsp+112]
	add	rsp, 80					; 00000050H
	pop	r14
	ret	0
?r_string@IReader@@QEAAXPEADI@Z ENDP			; IReader::r_string
_TEXT	ENDS
; Function compile flags: /Ogtpy
; File C:\Users\Mahito\Desktop\Night outing\Night-outing\src\xrCore\FS.cpp
; File C:\Users\Mahito\Desktop\Night outing\Night-outing\src\xrCore\xrMemory_subst_msvc.cpp
; File C:\Users\Mahito\Desktop\Night outing\Night-outing\src\xrCore\FS.cpp
; File C:\Users\Mahito\Desktop\Night outing\Night-outing\src\xrCore\xrMemory_subst_msvc.cpp
; File C:\Users\Mahito\Desktop\Night outing\Night-outing\src\xrCore\FS.cpp
; File C:\Users\Mahito\Desktop\Night outing\Night-outing\src\xrCore\xrMemory_subst_msvc.cpp
; File C:\Users\Mahito\Desktop\Night outing\Night-outing\src\xrCore\FS.cpp
; File C:\Users\Mahito\Desktop\Night outing\Night-outing\src\xrCore\xrDebugNew.cpp
; File C:\Users\Mahito\Desktop\Night outing\Night-outing\src\xrCore\FS.cpp
; File C:\Users\Mahito\Desktop\Night outing\Night-outing\src\xrCore\xrDebugNew.cpp
; File C:\Users\Mahito\Desktop\Night outing\Night-outing\src\xrCore\FS.cpp
_TEXT	SEGMENT
file_name$ = 112
file_handle$ = 120
file_size$ = 128
?FileDownload@@YAPEAXPEBDAEBHAEAI@Z PROC		; FileDownload

; 134  : {

$LN46:
	mov	QWORD PTR [rsp+8], rbx
	mov	QWORD PTR [rsp+16], rbp
	mov	QWORD PTR [rsp+24], rsi
	push	rdi
	push	r14
	push	r15
	sub	rsp, 80					; 00000050H

; 135  : 	void				*buffer = Memory.mem_alloc	(

	mov	edi, DWORD PTR [r8]
	mov	r14, rdx
; File C:\Users\Mahito\Desktop\Night outing\Night-outing\src\xrCore\xrMemory_subst_msvc.cpp

; 39   : 	stat_calls++;

	inc	DWORD PTR ?Memory@@3VxrMemory@@A
; File C:\Users\Mahito\Desktop\Night outing\Night-outing\src\xrCore\FS.cpp

; 134  : {

	mov	rbp, rcx
; File C:\Users\Mahito\Desktop\Night outing\Night-outing\src\xrCore\xrMemory_subst_msvc.cpp

; 45   : 		void* result = _aligned_malloc(size, PURE_MEMORY_ALIGNMENT);

	mov	ecx, edi
	mov	edx, 16
; File C:\Users\Mahito\Desktop\Night outing\Night-outing\src\xrCore\FS.cpp

; 134  : {

	mov	rsi, r8
; File C:\Users\Mahito\Desktop\Night outing\Night-outing\src\xrCore\xrMemory_subst_msvc.cpp

; 45   : 		void* result = _aligned_malloc(size, PURE_MEMORY_ALIGNMENT);

	call	QWORD PTR __imp__aligned_malloc
	mov	rbx, rax

; 46   : #ifdef PURE_MEMORY_FILL_ZERO
; 47   : 		if (result)

	test	rax, rax
	je	SHORT $LN17@FileDownlo

; 48   : 			memset(result, 0, size);

	mov	r8d, edi
	xor	edx, edx
	mov	rcx, rax
	call	memset
$LN17@FileDownlo:
; File C:\Users\Mahito\Desktop\Night outing\Night-outing\src\xrCore\FS.cpp

; 142  : 	int					r_bytes	= _read(file_handle,buffer,file_size);

	mov	r8d, DWORD PTR [rsi]
	mov	rdx, rbx
	mov	ecx, DWORD PTR [r14]
	call	QWORD PTR __imp__read

; 143  : 	R_ASSERT3			(

	lea	rdi, OFFSET FLAT:??_C@_0N@NDJPHIGH@FileDownload@
	lea	r15, OFFSET FLAT:??_C@_0EE@LCHLCEBH@C?3?2Users?2Mahito?2Desktop?2Night?5o@
	cmp	DWORD PTR [rsi], eax
	je	SHORT $LN2@FileDownlo
; File C:\Users\Mahito\Desktop\Night outing\Night-outing\src\xrCore\xrDebugNew.cpp

; 406  :     backend(e1, e2, e3, 0, file, line, function, ignore_always);

	mov	QWORD PTR [rsp+56], rdi
	lea	r8, OFFSET FLAT:??_C@_0BI@HAMOMGIL@can?8t?5read?5from?5file?5?3?5@
	mov	DWORD PTR [rsp+48], 149			; 00000095H
	lea	rdx, OFFSET FLAT:??_C@_0BK@MNNDGOPP@file_size?5?$DN?$DN?5?$CIu32?$CJr_bytes@
	mov	r9, rbp
	mov	QWORD PTR [rsp+40], r15
	lea	rcx, OFFSET FLAT:?Debug@@3VxrDebug@@A	; Debug
	call	?backend@xrDebug@@QEAAXPEBD0000H0AEA_N@Z ; xrDebug::backend
$LN2@FileDownlo:
; File C:\Users\Mahito\Desktop\Night outing\Night-outing\src\xrCore\FS.cpp

; 153  : 	R_ASSERT3			(

	mov	ecx, DWORD PTR [r14]
	call	QWORD PTR __imp__close
	test	eax, eax
	je	SHORT $LN44@FileDownlo
; File C:\Users\Mahito\Desktop\Night outing\Night-outing\src\xrCore\xrDebugNew.cpp

; 406  :     backend(e1, e2, e3, 0, file, line, function, ignore_always);

	mov	QWORD PTR [rsp+56], rdi
	lea	r8, OFFSET FLAT:??_C@_0BE@GJGEKJCO@can?8t?5close?5file?5?3?5@
	mov	DWORD PTR [rsp+48], 157			; 0000009dH
	lea	rdx, OFFSET FLAT:??_C@_0BF@DAMCDPEM@?$CB_close?$CIfile_handle?$CJ@
	mov	r9, rbp
	mov	QWORD PTR [rsp+40], r15
	lea	rcx, OFFSET FLAT:?Debug@@3VxrDebug@@A	; Debug
	call	?backend@xrDebug@@QEAAXPEBD0000H0AEA_N@Z ; xrDebug::backend
$LN44@FileDownlo:
; File C:\Users\Mahito\Desktop\Night outing\Night-outing\src\xrCore\FS.cpp

; 160  : }

	mov	rbp, QWORD PTR [rsp+120]
	mov	rax, rbx
	mov	rbx, QWORD PTR [rsp+112]
	mov	rsi, QWORD PTR [rsp+128]
	add	rsp, 80					; 00000050H
	pop	r15
	pop	r14
	pop	rdi
	ret	0
?FileDownload@@YAPEAXPEBDAEBHAEAI@Z ENDP		; FileDownload
_TEXT	ENDS
; Function compile flags: /Ogtpy
; File C:\Users\Mahito\Desktop\Night outing\Night-outing\src\xrCore\FS.cpp
_TEXT	SEGMENT
file_name$ = 64
size$ = 72
file_handle$ = 80
?file_handle_internal@@YA_NPEBDAEAIAEAH@Z PROC		; file_handle_internal

; 121  : {

$LN10:
	mov	QWORD PTR [rsp+8], rbx
	mov	QWORD PTR [rsp+16], rsi
	push	rdi
	sub	rsp, 48					; 00000030H
	mov	rbx, r8

; 109  : 	return				(

	mov	DWORD PTR [rsp+32], 256			; 00000100H

; 121  : {

	mov	rdi, rdx
	mov	rsi, rcx

; 109  : 	return				(

	mov	rdx, rcx
	mov	r9d, 64					; 00000040H
	mov	rcx, rbx
	mov	r8d, 32768				; 00008000H
	call	QWORD PTR __imp__sopen_s

; 122  : 	if (open_internal(file_name, file_handle)) {

	test	eax, eax
	je	SHORT $LN3@file_handl

; 123  : 		Sleep			(1);

	mov	ecx, 1
	call	QWORD PTR __imp_Sleep

; 109  : 	return				(

	mov	r9d, 64					; 00000040H
	mov	DWORD PTR [rsp+32], 256			; 00000100H
	mov	r8d, 32768				; 00008000H
	mov	rdx, rsi
	mov	rcx, rbx
	call	QWORD PTR __imp__sopen_s

; 124  : 		if (open_internal(file_name, file_handle))

	test	eax, eax
	je	SHORT $LN3@file_handl

; 125  : 			return		(false);

	xor	al, al

; 129  : 	return				(true);
; 130  : }

	mov	rbx, QWORD PTR [rsp+64]
	mov	rsi, QWORD PTR [rsp+72]
	add	rsp, 48					; 00000030H
	pop	rdi
	ret	0
$LN3@file_handl:

; 126  : 	}
; 127  : 	
; 128  : 	size				= _filelength(file_handle);

	mov	ecx, DWORD PTR [rbx]
	call	QWORD PTR __imp__filelength

; 129  : 	return				(true);
; 130  : }

	mov	rbx, QWORD PTR [rsp+64]
	mov	rsi, QWORD PTR [rsp+72]
	mov	DWORD PTR [rdi], eax
	mov	al, 1
	add	rsp, 48					; 00000030H
	pop	rdi
	ret	0
?file_handle_internal@@YA_NPEBDAEAIAEAH@Z ENDP		; file_handle_internal
_TEXT	ENDS
; Function compile flags: /Ogtpy
; File C:\Users\Mahito\Desktop\Night outing\Night-outing\src\xrCore\FS.cpp
_TEXT	SEGMENT
this$dead$ = 8
?close@IReader@@QEAAXXZ PROC				; IReader::close

; 342  : {	xr_delete((IReader*)this); }

	ret	0
?close@IReader@@QEAAXXZ ENDP				; IReader::close
_TEXT	ENDS
; Function compile flags: /Ogtpy
; File C:\Users\Mahito\Desktop\Night outing\Night-outing\src\xrCore\FS.cpp
_TEXT	SEGMENT
this$ = 48
??1CPackReader@@UEAA@XZ PROC				; CPackReader::~CPackReader

; 476  : {

$LN5:
	push	rbx
	sub	rsp, 32					; 00000020H
	lea	rax, OFFSET FLAT:??_7CPackReader@@6B@
	mov	rbx, rcx
	mov	QWORD PTR [rcx], rax

; 477  : #ifdef FS_DEBUG
; 478  : 	unregister_file_mapping	(base_address,Size);
; 479  : #endif // DEBUG
; 480  : 
; 481  : 	UnmapViewOfFile	(base_address);

	mov	rcx, QWORD PTR [rcx+40]
	call	QWORD PTR __imp_UnmapViewOfFile

; 482  : };

	lea	rax, OFFSET FLAT:??_7?$IReaderBase@VIReader@@@@6B@
	mov	QWORD PTR [rbx], rax
	add	rsp, 32					; 00000020H
	pop	rbx
	ret	0
??1CPackReader@@UEAA@XZ ENDP				; CPackReader::~CPackReader
_TEXT	ENDS
; Function compile flags: /Ogtpy
; File C:\Users\Mahito\Desktop\Night outing\Night-outing\src\xrCore\FS.cpp
; File C:\Users\Mahito\Desktop\Night outing\Night-outing\src\xrCore\xrMemory.h
; File C:\Users\Mahito\Desktop\Night outing\Night-outing\src\xrCore\xrMemory_subst_msvc.cpp
; File C:\Users\Mahito\Desktop\Night outing\Night-outing\src\xrCore\xrMemory.h
; File C:\Users\Mahito\Desktop\Night outing\Night-outing\src\xrCore\FS.cpp
_TEXT	SEGMENT
this$ = 48
??1CTempReader@@UEAA@XZ PROC				; CTempReader::~CTempReader

; 472  : {	xr_free(data);	};

$LN28:
	push	rbx
	sub	rsp, 32					; 00000020H
	lea	rax, OFFSET FLAT:??_7CTempReader@@6B@
	mov	rbx, rcx
	mov	QWORD PTR [rcx], rax
; File C:\Users\Mahito\Desktop\Night outing\Night-outing\src\xrCore\xrMemory.h

; 69   : 	if (P)

	mov	rcx, QWORD PTR [rcx+16]
	test	rcx, rcx
	je	SHORT $LN25@CTempReade
; File C:\Users\Mahito\Desktop\Night outing\Night-outing\src\xrCore\xrMemory_subst_msvc.cpp

; 99   : 	stat_calls++;

	inc	DWORD PTR ?Memory@@3VxrMemory@@A

; 100  : 
; 101  : #ifdef PURE_ALLOC
; 102  : 	if (g_use_pure_alloc)
; 103  : 	{
; 104  : 		//free(P);
; 105  : 		_aligned_free(P);

	call	QWORD PTR __imp__aligned_free
; File C:\Users\Mahito\Desktop\Night outing\Night-outing\src\xrCore\xrMemory.h

; 72   : 		P = NULL;

	mov	QWORD PTR [rbx+16], 0
$LN25@CTempReade:
; File C:\Users\Mahito\Desktop\Night outing\Night-outing\src\xrCore\FS.cpp

; 472  : {	xr_free(data);	};

	lea	rax, OFFSET FLAT:??_7?$IReaderBase@VIReader@@@@6B@
	mov	QWORD PTR [rbx], rax
	add	rsp, 32					; 00000020H
	pop	rbx
	ret	0
??1CTempReader@@UEAA@XZ ENDP				; CTempReader::~CTempReader
_TEXT	ENDS
; Function compile flags: /Ogtpy
; File C:\Users\Mahito\Desktop\Night outing\Night-outing\src\xrCore\FS.cpp
_TEXT	SEGMENT
tmp$ = 32
path$ = 1072
?VerifyPath@@YAXPEBD@Z PROC				; VerifyPath

; 81   : {

$LN13:
	mov	r11, rsp
	mov	QWORD PTR [r11+24], rbx
	push	rsi
	sub	rsp, 1056				; 00000420H

; 82   : 	string1024 tmp;
; 83   : 	for(int i=0;path[i];i++){

	movzx	eax, BYTE PTR [rcx]
	xor	ebx, ebx
	mov	rsi, rcx
	test	al, al
	je	SHORT $LN3@VerifyPath
	mov	QWORD PTR [r11+8], rdi
	mov	rdi, rcx
	mov	QWORD PTR [r11+16], r14
	lea	r14, QWORD PTR tmp$[rsp]
	sub	r14, rcx
	npad	2
$LL4@VerifyPath:

; 84   : 		if( path[i]!='\\' || i==0 )

	cmp	al, 92					; 0000005cH
	jne	SHORT $LN2@VerifyPath
	test	ebx, ebx
	je	SHORT $LN2@VerifyPath

; 85   : 			continue;
; 86   : 		CopyMemory( tmp, path, i );

	movsxd	r8, ebx
	lea	rcx, QWORD PTR tmp$[rsp]
	mov	rdx, rsi
	call	memcpy

; 87   : 		tmp[i] = 0;
; 88   :         _mkdir(tmp);

	lea	rcx, QWORD PTR tmp$[rsp]
	mov	BYTE PTR [r14+rdi], 0
	call	QWORD PTR __imp__mkdir
$LN2@VerifyPath:

; 82   : 	string1024 tmp;
; 83   : 	for(int i=0;path[i];i++){

	movzx	eax, BYTE PTR [rdi+1]
	inc	rdi
	inc	ebx
	test	al, al
	jne	SHORT $LL4@VerifyPath
	mov	r14, QWORD PTR [rsp+1080]
	mov	rdi, QWORD PTR [rsp+1072]
$LN3@VerifyPath:

; 89   : 	}
; 90   : }

	mov	rbx, QWORD PTR [rsp+1088]
	add	rsp, 1056				; 00000420H
	pop	rsi
	ret	0
?VerifyPath@@YAXPEBD@Z ENDP				; VerifyPath
_TEXT	ENDS
; Function compile flags: /Ogtpy
; File C:\Users\Mahito\Desktop\Night outing\Night-outing\src\xrCore\FS.cpp
_TEXT	SEGMENT
fn$ = 64
handle$ = 72
?open_internal@@YAHPEBDAEAH@Z PROC			; open_internal

; 108  : {

	sub	rsp, 56					; 00000038H
	mov	rax, rdx

; 109  : 	return				(

	mov	DWORD PTR [rsp+32], 256			; 00000100H
	mov	rdx, rcx
	mov	r9d, 64					; 00000040H
	mov	rcx, rax
	mov	r8d, 32768				; 00008000H
	call	QWORD PTR __imp__sopen_s

; 110  : 		_sopen_s(
; 111  : 			&handle,
; 112  : 			fn,
; 113  : 			_O_RDONLY | _O_BINARY,
; 114  : 			_SH_DENYNO, 
; 115  :             _S_IREAD
; 116  : 		)
; 117  : 	);
; 118  : }

	add	rsp, 56					; 00000038H
	ret	0
?open_internal@@YAHPEBDAEAH@Z ENDP			; open_internal
_TEXT	ENDS
; Function compile flags: /Ogtpy
; File C:\Users\Mahito\Desktop\Night outing\Night-outing\src\xrCore\FS.cpp
; File C:\Users\Mahito\Desktop\Night outing\Night-outing\src\xrCore\xrDebugNew.cpp
; File C:\Users\Mahito\Desktop\Night outing\Night-outing\src\xrCore\FS.cpp
_TEXT	SEGMENT
file_name$ = 96
buffer_size$ = 104
file_handle$ = 112
?FileDownload@@YAPEAXPEBDPEAI@Z PROC			; FileDownload

; 163  : {

$LN19:
	mov	QWORD PTR [rsp+8], rbx
	push	rdi
	sub	rsp, 80					; 00000050H
	mov	rdi, rdx

; 109  : 	return				(

	mov	DWORD PTR [rsp+32], 256			; 00000100H
	mov	rdx, rcx

; 163  : {

	mov	rbx, rcx

; 109  : 	return				(

	lea	rcx, QWORD PTR file_handle$[rsp]
	mov	r9d, 64					; 00000040H
	mov	r8d, 32768				; 00008000H
	call	QWORD PTR __imp__sopen_s

; 122  : 	if (open_internal(file_name, file_handle)) {

	test	eax, eax
	je	SHORT $LN9@FileDownlo

; 123  : 		Sleep			(1);

	mov	ecx, 1
	call	QWORD PTR __imp_Sleep

; 109  : 	return				(

	mov	r9d, 64					; 00000040H
	mov	DWORD PTR [rsp+32], 256			; 00000100H
	mov	r8d, 32768				; 00008000H
	lea	rcx, QWORD PTR file_handle$[rsp]
	mov	rdx, rbx
	call	QWORD PTR __imp__sopen_s

; 124  : 		if (open_internal(file_name, file_handle))

	test	eax, eax
	je	SHORT $LN9@FileDownlo
; File C:\Users\Mahito\Desktop\Night outing\Night-outing\src\xrCore\xrDebugNew.cpp

; 406  :     backend(e1, e2, e3, 0, file, line, function, ignore_always);

	lea	rax, OFFSET FLAT:??_C@_0N@NDJPHIGH@FileDownload@
	mov	r9, rbx
	mov	QWORD PTR [rsp+56], rax
	lea	r8, OFFSET FLAT:??_C@_0BD@CHGGMBHK@can?8t?5open?5file?5?3?5@
	lea	rax, OFFSET FLAT:??_C@_0EE@LCHLCEBH@C?3?2Users?2Mahito?2Desktop?2Night?5o@
	mov	DWORD PTR [rsp+48], 169			; 000000a9H
	lea	rdx, OFFSET FLAT:??_C@_0DL@KHKLKJPM@file_handle_internal?$CIfile_name?0@
	mov	QWORD PTR [rsp+40], rax
	lea	rcx, OFFSET FLAT:?Debug@@3VxrDebug@@A	; Debug
	call	?backend@xrDebug@@QEAAXPEBD0000H0AEA_N@Z ; xrDebug::backend
	jmp	SHORT $LN2@FileDownlo
$LN9@FileDownlo:
; File C:\Users\Mahito\Desktop\Night outing\Night-outing\src\xrCore\FS.cpp

; 128  : 	size				= _filelength(file_handle);

	mov	ecx, DWORD PTR file_handle$[rsp]
	call	QWORD PTR __imp__filelength
	mov	DWORD PTR [rdi], eax
$LN2@FileDownlo:

; 164  : 	int					file_handle;
; 165  : 	R_ASSERT3			(
; 166  : 		file_handle_internal(file_name, *buffer_size, file_handle),
; 167  : 		"can't open file : ",
; 168  : 		file_name
; 169  : 	);
; 170  : 
; 171  : 	return				(FileDownload(file_name, file_handle, *buffer_size));

	mov	r8, rdi
	lea	rdx, QWORD PTR file_handle$[rsp]
	mov	rcx, rbx
	call	?FileDownload@@YAPEAXPEBDAEBHAEAI@Z	; FileDownload

; 172  : }

	mov	rbx, QWORD PTR [rsp+96]
	add	rsp, 80					; 00000050H
	pop	rdi
	ret	0
?FileDownload@@YAPEAXPEBDPEAI@Z ENDP			; FileDownload
_TEXT	ENDS
; Function compile flags: /Ogtpy
; File C:\Users\Mahito\Desktop\Night outing\Night-outing\src\xrCore\FS.cpp
; File C:\Users\Mahito\Desktop\Night outing\Night-outing\src\xrCore\xrMemory.h
; File C:\Users\Mahito\Desktop\Night outing\Night-outing\src\xrCore\xrMemory_subst_msvc.cpp
; File C:\Users\Mahito\Desktop\Night outing\Night-outing\src\xrCore\xrMemory.h
; File C:\Users\Mahito\Desktop\Night outing\Night-outing\src\xrCore\FS.cpp
_TEXT	SEGMENT
this$ = 48
??1CMemoryWriter@@UEAA@XZ PROC				; CMemoryWriter::~CMemoryWriter

; 214  : {	xr_free(data);	}

$LN27:
	push	rbx
	sub	rsp, 32					; 00000020H
	lea	rax, OFFSET FLAT:??_7CMemoryWriter@@6B@
	mov	rbx, rcx
	mov	QWORD PTR [rcx], rax
; File C:\Users\Mahito\Desktop\Night outing\Night-outing\src\xrCore\xrMemory.h

; 69   : 	if (P)

	mov	rcx, QWORD PTR [rcx+40]
	test	rcx, rcx
	je	SHORT $LN4@CMemoryWri
; File C:\Users\Mahito\Desktop\Night outing\Night-outing\src\xrCore\xrMemory_subst_msvc.cpp

; 99   : 	stat_calls++;

	inc	DWORD PTR ?Memory@@3VxrMemory@@A

; 100  : 
; 101  : #ifdef PURE_ALLOC
; 102  : 	if (g_use_pure_alloc)
; 103  : 	{
; 104  : 		//free(P);
; 105  : 		_aligned_free(P);

	call	QWORD PTR __imp__aligned_free
; File C:\Users\Mahito\Desktop\Night outing\Night-outing\src\xrCore\xrMemory.h

; 72   : 		P = NULL;

	mov	QWORD PTR [rbx+40], 0
$LN4@CMemoryWri:
; File C:\Users\Mahito\Desktop\Night outing\Night-outing\src\xrCore\FS.cpp

; 214  : {	xr_free(data);	}

	mov	rcx, rbx
	add	rsp, 32					; 00000020H
	pop	rbx
	jmp	??1IWriter@@UEAA@XZ			; IWriter::~IWriter
??1CMemoryWriter@@UEAA@XZ ENDP				; CMemoryWriter::~CMemoryWriter
_TEXT	ENDS
; Function compile flags: /Ogtpy
; File C:\Users\Mahito\Desktop\Night outing\Night-outing\src\xrCore\FS.cpp
; File C:\Users\Mahito\Desktop\Night outing\Night-outing\src\xrCore\xrMemory_subst_msvc.cpp
; File C:\Users\Mahito\Desktop\Night outing\Night-outing\src\xrCore\FS.cpp
; File C:\Users\Mahito\Desktop\Night outing\Night-outing\src\xrCore\xrMemory_subst_msvc.cpp
; File C:\Users\Mahito\Desktop\Night outing\Night-outing\src\xrCore\FS.cpp
_TEXT	SEGMENT
this$ = 64
ptr$ = 72
count$ = 80
?w@CMemoryWriter@@UEAAXPEBXI@Z PROC			; CMemoryWriter::w

; 217  : {

$LN202:
	push	rbx
	sub	rsp, 48					; 00000030H
	mov	rbx, rcx
	mov	QWORD PTR [rsp+88], r12

; 218  : 	if (position+count > mem_size) {

	mov	ecx, DWORD PTR [rcx+48]
	mov	r12, rdx
	add	ecx, r8d
	mov	QWORD PTR [rsp+32], r15
	mov	r15d, r8d
	mov	r9d, DWORD PTR [rbx+52]
	cmp	ecx, r9d
	jbe	$LN7@w

; 219  : 		// reallocate
; 220  : 		if (mem_size==0)	mem_size=128;

	mov	QWORD PTR [rsp+64], rbp
	mov	eax, r9d
	mov	QWORD PTR [rsp+80], rdi
	test	r9d, r9d
	jne	SHORT $LN194@w
	mov	r9d, 128				; 00000080H
	mov	DWORD PTR [rbx+52], r9d
	mov	eax, r9d
$LN194@w:

; 221  : 		while (mem_size <= (position+count)) mem_size*=2;

	cmp	r9d, ecx
	ja	SHORT $LN3@w
$LL2@w:
	lea	eax, DWORD PTR [r9+r9]
	mov	r9d, eax
	cmp	eax, ecx
	jbe	SHORT $LL2@w
	mov	DWORD PTR [rbx+52], eax
$LN3@w:

; 222  : 		if (0==data)		data = (BYTE*)	Memory.mem_alloc	(mem_size

	mov	rbp, QWORD PTR [rbx+40]
	mov	edx, 16
	inc	DWORD PTR ?Memory@@3VxrMemory@@A
	mov	QWORD PTR [rsp+72], rsi
	mov	edi, eax
	test	rbp, rbp
	jne	SHORT $LN6@w
; File C:\Users\Mahito\Desktop\Night outing\Night-outing\src\xrCore\xrMemory_subst_msvc.cpp

; 45   : 		void* result = _aligned_malloc(size, PURE_MEMORY_ALIGNMENT);

	mov	ecx, edi
	call	QWORD PTR __imp__aligned_malloc
	mov	rsi, rax

; 46   : #ifdef PURE_MEMORY_FILL_ZERO
; 47   : 		if (result)

	test	rax, rax
	je	SHORT $LN12@w

; 48   : 			memset(result, 0, size);

	mov	r8d, edi
	xor	edx, edx
	mov	rcx, rax
	call	memset
$LN12@w:
; File C:\Users\Mahito\Desktop\Night outing\Night-outing\src\xrCore\FS.cpp

; 222  : 		if (0==data)		data = (BYTE*)	Memory.mem_alloc	(mem_size

	mov	QWORD PTR [rbx+40], rsi
	jmp	SHORT $LN200@w
$LN6@w:
; File C:\Users\Mahito\Desktop\Night outing\Night-outing\src\xrCore\xrMemory_subst_msvc.cpp

; 143  : 		size_t old_size = P ? _aligned_msize(P, PURE_MEMORY_ALIGNMENT, 0) : 0;

	xor	r8d, r8d
	mov	QWORD PTR [rsp+40], r14
	mov	rcx, rbp
	call	QWORD PTR __imp__aligned_msize

; 144  : #endif // PURE_MEMORY_FILL_ZERO
; 145  : 
; 146  : 		//void* result = realloc(P, size);
; 147  : 		void* result = _aligned_realloc(P, size, PURE_MEMORY_ALIGNMENT);

	mov	r8d, 16
	mov	rdx, rdi
	mov	rcx, rbp
	mov	rsi, rax
	call	QWORD PTR __imp__aligned_realloc
	mov	r14, rax

; 148  : 
; 149  : #ifdef PURE_MEMORY_FILL_ZERO
; 150  : 		if (result && size > old_size)

	test	rax, rax
	je	SHORT $LN45@w
	cmp	rdi, rsi
	jbe	SHORT $LN45@w

; 151  : 			memset((u8*)result + old_size, 0, size - old_size);

	sub	rdi, rsi
	lea	rcx, QWORD PTR [rax+rsi]
	mov	r8, rdi
	xor	edx, edx
	call	memset
$LN45@w:
; File C:\Users\Mahito\Desktop\Night outing\Night-outing\src\xrCore\FS.cpp

; 227  : 		else				data = (BYTE*)	Memory.mem_realloc	(data,mem_size

	mov	QWORD PTR [rbx+40], r14
	mov	r14, QWORD PTR [rsp+40]
$LN200@w:
	mov	rsi, QWORD PTR [rsp+72]
	mov	rbp, QWORD PTR [rsp+64]
	mov	rdi, QWORD PTR [rsp+80]
$LN7@w:

; 228  : #ifdef DEBUG_MEMORY_NAME
; 229  : 			,	"CMemoryWriter - storage"
; 230  : #endif // DEBUG_MEMORY_NAME
; 231  : 			);
; 232  : 	}
; 233  : 	CopyMemory	(data+position,ptr,count);

	mov	ecx, DWORD PTR [rbx+48]
	mov	r8, r15
	add	rcx, QWORD PTR [rbx+40]
	mov	rdx, r12
	call	memcpy

; 234  : 	position		+=count;

	mov	ecx, DWORD PTR [rbx+48]
	mov	r12, QWORD PTR [rsp+88]
	add	ecx, r15d
	mov	r15, QWORD PTR [rsp+32]
	mov	DWORD PTR [rbx+48], ecx

; 235  : 	if (position>file_size) file_size=position;

	cmp	ecx, DWORD PTR [rbx+56]
	jbe	SHORT $LN8@w
	mov	DWORD PTR [rbx+56], ecx
$LN8@w:

; 236  : }

	add	rsp, 48					; 00000030H
	pop	rbx
	ret	0
?w@CMemoryWriter@@UEAAXPEBXI@Z ENDP			; CMemoryWriter::w
_TEXT	ENDS
; Function compile flags: /Ogtpy
; File C:\Users\Mahito\Desktop\Night outing\Night-outing\src\xrCore\FS.cpp
; File C:\Program Files\Microsoft Visual Studio\2022\Community\VC\Tools\MSVC\14.35.32215\include\vector
; File C:\Users\Mahito\Desktop\Night outing\Night-outing\src\xrCore\FS.cpp
; File C:\Program Files\Microsoft Visual Studio\2022\Community\VC\Tools\MSVC\14.35.32215\include\vector
; File C:\Users\Mahito\Desktop\Night outing\Night-outing\src\xrCore\FS.cpp
_TEXT	SEGMENT
this$ = 48
?chunk_size@IWriter@@QEAAIXZ PROC			; IWriter::chunk_size

; 268  : {

$LN13:
	sub	rsp, 40					; 00000028H
; File C:\Program Files\Microsoft Visual Studio\2022\Community\VC\Tools\MSVC\14.35.32215\include\vector

; 1927 :         return _My_data._Myfirst == _My_data._Mylast;

	mov	rax, QWORD PTR [rcx+16]
	cmp	QWORD PTR [rcx+8], rax
; File C:\Users\Mahito\Desktop\Night outing\Night-outing\src\xrCore\FS.cpp

; 269  : 	if (chunk_pos.empty())	return 0;

	jne	SHORT $LN2@chunk_size
	xor	eax, eax

; 271  : }

	add	rsp, 40					; 00000028H
	ret	0
$LN2@chunk_size:
	mov	QWORD PTR [rsp+32], rbx
; File C:\Program Files\Microsoft Visual Studio\2022\Community\VC\Tools\MSVC\14.35.32215\include\vector

; 2007 :         return _My_data._Mylast[-1];

	mov	rbx, rax
; File C:\Users\Mahito\Desktop\Night outing\Night-outing\src\xrCore\FS.cpp

; 270  : 	return tell() - chunk_pos.top()-4;

	mov	rax, QWORD PTR [rcx]
	call	QWORD PTR [rax+16]
	mov	ecx, -4					; fffffffcH
	sub	ecx, DWORD PTR [rbx-4]
	mov	rbx, QWORD PTR [rsp+32]
	add	eax, ecx

; 271  : }

	add	rsp, 40					; 00000028H
	ret	0
?chunk_size@IWriter@@QEAAIXZ ENDP			; IWriter::chunk_size
_TEXT	ENDS
; Function compile flags: /Ogtpy
; File C:\Users\Mahito\Desktop\Night outing\Night-outing\src\xrCore\FS.cpp
; File C:\Users\Mahito\Desktop\Night outing\Night-outing\src\xrCore\FS.h
; File C:\Users\Mahito\Desktop\Night outing\Night-outing\src\xrCore\FS.cpp
; File C:\Users\Mahito\Desktop\Night outing\Night-outing\src\xrCore\FS.h
; File C:\Users\Mahito\Desktop\Night outing\Night-outing\src\xrCore\FS.cpp
; File C:\Users\Mahito\Desktop\Night outing\Night-outing\src\xrCore\FS.h
; File C:\Users\Mahito\Desktop\Night outing\Night-outing\src\xrCore\FS.cpp
_TEXT	SEGMENT
this$ = 48
p$ = 56
cnt$ = 64
?r@IReader@@QEAAXPEAXH@Z PROC				; IReader::r

; 391  : {

$LN14:
	mov	QWORD PTR [rsp+8], rbx
	push	rdi
	sub	rsp, 32					; 00000020H
	mov	rax, rdx
	movsxd	rdi, r8d
; File C:\Users\Mahito\Desktop\Night outing\Night-outing\src\xrCore\FS.h

; 295  : 	IC void*		pointer		()	const		{	return &(data[Pos]);	};

	movsxd	rdx, DWORD PTR [rcx+24]
; File C:\Users\Mahito\Desktop\Night outing\Night-outing\src\xrCore\FS.cpp

; 391  : {

	mov	rbx, rcx
; File C:\Users\Mahito\Desktop\Night outing\Night-outing\src\xrCore\FS.h

; 295  : 	IC void*		pointer		()	const		{	return &(data[Pos]);	};

	add	rdx, QWORD PTR [rcx+16]
; File C:\Users\Mahito\Desktop\Night outing\Night-outing\src\xrCore\FS.cpp

; 393  : 	CopyMemory		(p,pointer(),cnt);//

	mov	r8, rdi
	mov	rcx, rax
	call	memcpy
; File C:\Users\Mahito\Desktop\Night outing\Night-outing\src\xrCore\FS.h

; 296  : 	IC void			advance		(int cnt)		{	Pos+=cnt;VERIFY((Pos<=Size) && (Pos>=0));};

	add	DWORD PTR [rbx+24], edi
; File C:\Users\Mahito\Desktop\Night outing\Night-outing\src\xrCore\FS.cpp

; 403  : };

	mov	rbx, QWORD PTR [rsp+48]
	add	rsp, 32					; 00000020H
	pop	rdi
	ret	0
?r@IReader@@QEAAXPEAXH@Z ENDP				; IReader::r
_TEXT	ENDS
; Function compile flags: /Ogtpy
; File C:\Users\Mahito\Desktop\Night outing\Night-outing\src\xrCore\FS.cpp
;	COMDAT ?is_term@@YAHD@Z
_TEXT	SEGMENT
a$ = 8
?is_term@@YAHD@Z PROC					; is_term, COMDAT

; 405  : IC BOOL			is_term		(char a) { return (a==13)||(a==10); };

	cmp	cl, 13
	je	SHORT $LN3@is_term
	cmp	cl, 10
	je	SHORT $LN3@is_term
	xor	eax, eax
	ret	0
$LN3@is_term:
	mov	eax, 1
	ret	0
?is_term@@YAHD@Z ENDP					; is_term
_TEXT	ENDS
; Function compile flags: /Ogtpy
; File C:\Users\Mahito\Desktop\Night outing\Night-outing\src\xrCore\FS.cpp
; File C:\Users\Mahito\Desktop\Night outing\Night-outing\src\xrCore\FS.h
; File C:\Users\Mahito\Desktop\Night outing\Night-outing\src\xrCore\FS.cpp
; File C:\Users\Mahito\Desktop\Night outing\Night-outing\src\xrCore\FS.h
; File C:\Users\Mahito\Desktop\Night outing\Night-outing\src\xrCore\FS.cpp
; File C:\Users\Mahito\Desktop\Night outing\Night-outing\src\xrCore\FS.h
; File C:\Users\Mahito\Desktop\Night outing\Night-outing\src\xrCore\FS.cpp
; File C:\Users\Mahito\Desktop\Night outing\Night-outing\src\xrCore\FS.h
; File C:\Users\Mahito\Desktop\Night outing\Night-outing\src\xrCore\FS.cpp
; File C:\Users\Mahito\Desktop\Night outing\Night-outing\src\xrCore\FS.h
; File C:\Users\Mahito\Desktop\Night outing\Night-outing\src\xrCore\FS.cpp
; File C:\Users\Mahito\Desktop\Night outing\Night-outing\src\xrCore\FS.h
; File C:\Users\Mahito\Desktop\Night outing\Night-outing\src\xrCore\FS.cpp
; File C:\Users\Mahito\Desktop\Night outing\Night-outing\src\xrCore\FS.h
; File C:\Users\Mahito\Desktop\Night outing\Night-outing\src\xrCore\FS.cpp
; File C:\Users\Mahito\Desktop\Night outing\Night-outing\src\xrCore\FS.h
; File C:\Users\Mahito\Desktop\Night outing\Night-outing\src\xrCore\FS.cpp
;	COMDAT ?advance_term_string@IReader@@IEAAIXZ
_TEXT	SEGMENT
this$ = 8
?advance_term_string@IReader@@IEAAIXZ PROC		; IReader::advance_term_string, COMDAT

; 407  : {

$LN44:
	mov	QWORD PTR [rsp+8], rbx
	mov	QWORD PTR [rsp+16], rdi
; File C:\Users\Mahito\Desktop\Night outing\Night-outing\src\xrCore\FS.h

; 291  : 	IC int			elapsed		()	const		{	return Size-Pos;		};

	mov	r8d, DWORD PTR [rcx+28]
; File C:\Users\Mahito\Desktop\Night outing\Night-outing\src\xrCore\FS.cpp

; 408  : 	u32 sz		= 0;

	xor	r9d, r9d
; File C:\Users\Mahito\Desktop\Night outing\Night-outing\src\xrCore\FS.h

; 291  : 	IC int			elapsed		()	const		{	return Size-Pos;		};

	mov	ebx, DWORD PTR [rcx+24]
	mov	edx, r8d
; File C:\Users\Mahito\Desktop\Night outing\Night-outing\src\xrCore\FS.cpp

; 409  : 	char *src 	= (char *) data;

	mov	rdi, QWORD PTR [rcx+16]
; File C:\Users\Mahito\Desktop\Night outing\Night-outing\src\xrCore\FS.h

; 291  : 	IC int			elapsed		()	const		{	return Size-Pos;		};

	sub	edx, ebx
; File C:\Users\Mahito\Desktop\Night outing\Night-outing\src\xrCore\FS.cpp

; 407  : {

	mov	r11, rcx
; File C:\Users\Mahito\Desktop\Night outing\Night-outing\src\xrCore\FS.h

; 181  : 	IC BOOL			eof			()	const		{return impl().elapsed()<=0;	};

	test	edx, edx
; File C:\Users\Mahito\Desktop\Night outing\Night-outing\src\xrCore\FS.cpp

; 410  : 	while (!eof()) {

	jle	SHORT $LN40@advance_te
$LN42@advance_te:

; 411  :         Pos++;

	lea	eax, DWORD PTR [rbx+1]
	dec	edx

; 412  :         sz++;

	inc	r9d
	mov	DWORD PTR [r11+24], eax
	mov	ebx, eax
; File C:\Users\Mahito\Desktop\Night outing\Night-outing\src\xrCore\FS.h

; 181  : 	IC BOOL			eof			()	const		{return impl().elapsed()<=0;	};

	test	edx, edx
; File C:\Users\Mahito\Desktop\Night outing\Night-outing\src\xrCore\FS.cpp

; 413  : 		if (!eof()&&is_term(src[Pos])) 

	jle	SHORT $LN40@advance_te
	movsxd	rcx, eax
	movzx	r10d, BYTE PTR [rcx+rdi]

; 405  : IC BOOL			is_term		(char a) { return (a==13)||(a==10); };

	cmp	r10b, 13
	je	SHORT $LN29@advance_te
	cmp	r10b, 10
	jne	SHORT $LN42@advance_te
$LN29@advance_te:
	sub	r8d, eax
	dec	r8d
$LL4@advance_te:

; 415  :         	while(!eof() && is_term(src[Pos])) 

	movsxd	rcx, eax
	movzx	edx, BYTE PTR [rcx+rdi]

; 405  : IC BOOL			is_term		(char a) { return (a==13)||(a==10); };

	cmp	dl, 13
	je	SHORT $LN35@advance_te
	cmp	dl, 10
	jne	SHORT $LN40@advance_te
$LN35@advance_te:
; File C:\Users\Mahito\Desktop\Night outing\Night-outing\src\xrCore\FS.h

; 291  : 	IC int			elapsed		()	const		{	return Size-Pos;		};

	mov	ecx, r8d
; File C:\Users\Mahito\Desktop\Night outing\Night-outing\src\xrCore\FS.cpp

; 416  : 				Pos++;

	inc	eax
; File C:\Users\Mahito\Desktop\Night outing\Night-outing\src\xrCore\FS.h

; 291  : 	IC int			elapsed		()	const		{	return Size-Pos;		};

	dec	r8d
; File C:\Users\Mahito\Desktop\Night outing\Night-outing\src\xrCore\FS.cpp

; 416  : 				Pos++;

	mov	DWORD PTR [r11+24], eax
; File C:\Users\Mahito\Desktop\Night outing\Night-outing\src\xrCore\FS.h

; 181  : 	IC BOOL			eof			()	const		{return impl().elapsed()<=0;	};

	test	ecx, ecx
; File C:\Users\Mahito\Desktop\Night outing\Night-outing\src\xrCore\FS.cpp

; 415  :         	while(!eof() && is_term(src[Pos])) 

	jg	SHORT $LL4@advance_te
$LN40@advance_te:

; 417  : 			break;
; 418  : 		}
; 419  : 	}
; 420  :     return sz;
; 421  : }

	mov	rbx, QWORD PTR [rsp+8]
	mov	eax, r9d
	mov	rdi, QWORD PTR [rsp+16]
	ret	0
?advance_term_string@IReader@@IEAAIXZ ENDP		; IReader::advance_term_string
_TEXT	ENDS
; Function compile flags: /Ogtpy
; File C:\Users\Mahito\Desktop\Night outing\Night-outing\src\xrCore\FS.cpp
; File C:\Users\Mahito\Desktop\Night outing\Night-outing\src\xrCore\xrMemory.h
; File C:\Users\Mahito\Desktop\Night outing\Night-outing\src\xrCore\xrMemory_subst_msvc.cpp
; File C:\Users\Mahito\Desktop\Night outing\Night-outing\src\xrCore\xrMemory.h
; File C:\Users\Mahito\Desktop\Night outing\Night-outing\src\xrCore\FS.cpp
;	COMDAT ??_GCFileReader@@UEAAPEAXI@Z
_TEXT	SEGMENT
this$ = 48
__flags$ = 56
??_GCFileReader@@UEAAPEAXI@Z PROC			; CFileReader::`scalar deleting destructor', COMDAT
$LN31:
	mov	QWORD PTR [rsp+8], rbx
	push	rdi
	sub	rsp, 32					; 00000020H

; 491  : {	xr_free(data);	};

	lea	rax, OFFSET FLAT:??_7CFileReader@@6B@
	mov	rbx, rcx
	mov	QWORD PTR [rcx], rax
	mov	edi, edx
; File C:\Users\Mahito\Desktop\Night outing\Night-outing\src\xrCore\xrMemory.h

; 69   : 	if (P)

	mov	rcx, QWORD PTR [rcx+16]
	test	rcx, rcx
	je	SHORT $LN7@scalar
; File C:\Users\Mahito\Desktop\Night outing\Night-outing\src\xrCore\xrMemory_subst_msvc.cpp

; 99   : 	stat_calls++;

	inc	DWORD PTR ?Memory@@3VxrMemory@@A

; 100  : 
; 101  : #ifdef PURE_ALLOC
; 102  : 	if (g_use_pure_alloc)
; 103  : 	{
; 104  : 		//free(P);
; 105  : 		_aligned_free(P);

	call	QWORD PTR __imp__aligned_free
; File C:\Users\Mahito\Desktop\Night outing\Night-outing\src\xrCore\xrMemory.h

; 72   : 		P = NULL;

	mov	QWORD PTR [rbx+16], 0
$LN7@scalar:
; File C:\Users\Mahito\Desktop\Night outing\Night-outing\src\xrCore\FS.cpp

; 491  : {	xr_free(data);	};

	lea	rax, OFFSET FLAT:??_7?$IReaderBase@VIReader@@@@6B@
	mov	QWORD PTR [rbx], rax
	test	dil, 1
	je	SHORT $LN28@scalar
	mov	edx, 40					; 00000028H
	mov	rcx, rbx
	call	??3@YAXPEAX_K@Z				; operator delete
$LN28@scalar:
	mov	rax, rbx
	mov	rbx, QWORD PTR [rsp+48]
	add	rsp, 32					; 00000020H
	pop	rdi
	ret	0
??_GCFileReader@@UEAAPEAXI@Z ENDP			; CFileReader::`scalar deleting destructor'
_TEXT	ENDS
; Function compile flags: /Ogtpy
; File C:\Users\Mahito\Desktop\Night outing\Night-outing\src\xrCore\FS.cpp
; File C:\Users\Mahito\Desktop\Night outing\Night-outing\src\xrCore\xrMemory.h
; File C:\Users\Mahito\Desktop\Night outing\Night-outing\src\xrCore\xrMemory_subst_msvc.cpp
; File C:\Users\Mahito\Desktop\Night outing\Night-outing\src\xrCore\xrMemory.h
; File C:\Users\Mahito\Desktop\Night outing\Night-outing\src\xrCore\FS.cpp
_TEXT	SEGMENT
this$ = 48
??1CFileReader@@UEAA@XZ PROC				; CFileReader::~CFileReader

; 491  : {	xr_free(data);	};

$LN28:
	push	rbx
	sub	rsp, 32					; 00000020H
	lea	rax, OFFSET FLAT:??_7CFileReader@@6B@
	mov	rbx, rcx
	mov	QWORD PTR [rcx], rax
; File C:\Users\Mahito\Desktop\Night outing\Night-outing\src\xrCore\xrMemory.h

; 69   : 	if (P)

	mov	rcx, QWORD PTR [rcx+16]
	test	rcx, rcx
	je	SHORT $LN25@CFileReade
; File C:\Users\Mahito\Desktop\Night outing\Night-outing\src\xrCore\xrMemory_subst_msvc.cpp

; 99   : 	stat_calls++;

	inc	DWORD PTR ?Memory@@3VxrMemory@@A

; 100  : 
; 101  : #ifdef PURE_ALLOC
; 102  : 	if (g_use_pure_alloc)
; 103  : 	{
; 104  : 		//free(P);
; 105  : 		_aligned_free(P);

	call	QWORD PTR __imp__aligned_free
; File C:\Users\Mahito\Desktop\Night outing\Night-outing\src\xrCore\xrMemory.h

; 72   : 		P = NULL;

	mov	QWORD PTR [rbx+16], 0
$LN25@CFileReade:
; File C:\Users\Mahito\Desktop\Night outing\Night-outing\src\xrCore\FS.cpp

; 491  : {	xr_free(data);	};

	lea	rax, OFFSET FLAT:??_7?$IReaderBase@VIReader@@@@6B@
	mov	QWORD PTR [rbx], rax
	add	rsp, 32					; 00000020H
	pop	rbx
	ret	0
??1CFileReader@@UEAA@XZ ENDP				; CFileReader::~CFileReader
_TEXT	ENDS
; Function compile flags: /Ogtpy
; File C:\Users\Mahito\Desktop\Night outing\Night-outing\src\xrCore\FS.cpp
; File C:\Users\Mahito\Desktop\Night outing\Night-outing\src\xrCore\xrMemory.h
; File C:\Users\Mahito\Desktop\Night outing\Night-outing\src\xrCore\xrMemory_subst_msvc.cpp
; File C:\Users\Mahito\Desktop\Night outing\Night-outing\src\xrCore\xrMemory.h
; File C:\Users\Mahito\Desktop\Night outing\Night-outing\src\xrCore\FS.cpp
;	COMDAT ??_GCCompressedReader@@UEAAPEAXI@Z
_TEXT	SEGMENT
this$ = 48
__flags$ = 56
??_GCCompressedReader@@UEAAPEAXI@Z PROC			; CCompressedReader::`scalar deleting destructor', COMDAT
$LN31:
	mov	QWORD PTR [rsp+8], rbx
	push	rdi
	sub	rsp, 32					; 00000020H

; 500  : {	xr_free(data);	};

	lea	rax, OFFSET FLAT:??_7CCompressedReader@@6B@
	mov	rbx, rcx
	mov	QWORD PTR [rcx], rax
	mov	edi, edx
; File C:\Users\Mahito\Desktop\Night outing\Night-outing\src\xrCore\xrMemory.h

; 69   : 	if (P)

	mov	rcx, QWORD PTR [rcx+16]
	test	rcx, rcx
	je	SHORT $LN7@scalar
; File C:\Users\Mahito\Desktop\Night outing\Night-outing\src\xrCore\xrMemory_subst_msvc.cpp

; 99   : 	stat_calls++;

	inc	DWORD PTR ?Memory@@3VxrMemory@@A

; 100  : 
; 101  : #ifdef PURE_ALLOC
; 102  : 	if (g_use_pure_alloc)
; 103  : 	{
; 104  : 		//free(P);
; 105  : 		_aligned_free(P);

	call	QWORD PTR __imp__aligned_free
; File C:\Users\Mahito\Desktop\Night outing\Night-outing\src\xrCore\xrMemory.h

; 72   : 		P = NULL;

	mov	QWORD PTR [rbx+16], 0
$LN7@scalar:
; File C:\Users\Mahito\Desktop\Night outing\Night-outing\src\xrCore\FS.cpp

; 500  : {	xr_free(data);	};

	lea	rax, OFFSET FLAT:??_7?$IReaderBase@VIReader@@@@6B@
	mov	QWORD PTR [rbx], rax
	test	dil, 1
	je	SHORT $LN28@scalar
	mov	edx, 40					; 00000028H
	mov	rcx, rbx
	call	??3@YAXPEAX_K@Z				; operator delete
$LN28@scalar:
	mov	rax, rbx
	mov	rbx, QWORD PTR [rsp+48]
	add	rsp, 32					; 00000020H
	pop	rdi
	ret	0
??_GCCompressedReader@@UEAAPEAXI@Z ENDP			; CCompressedReader::`scalar deleting destructor'
_TEXT	ENDS
; Function compile flags: /Ogtpy
; File C:\Users\Mahito\Desktop\Night outing\Night-outing\src\xrCore\FS.cpp
; File C:\Users\Mahito\Desktop\Night outing\Night-outing\src\xrCore\xrMemory.h
; File C:\Users\Mahito\Desktop\Night outing\Night-outing\src\xrCore\xrMemory_subst_msvc.cpp
; File C:\Users\Mahito\Desktop\Night outing\Night-outing\src\xrCore\xrMemory.h
; File C:\Users\Mahito\Desktop\Night outing\Night-outing\src\xrCore\FS.cpp
_TEXT	SEGMENT
this$ = 48
??1CCompressedReader@@UEAA@XZ PROC			; CCompressedReader::~CCompressedReader

; 500  : {	xr_free(data);	};

$LN28:
	push	rbx
	sub	rsp, 32					; 00000020H
	lea	rax, OFFSET FLAT:??_7CCompressedReader@@6B@
	mov	rbx, rcx
	mov	QWORD PTR [rcx], rax
; File C:\Users\Mahito\Desktop\Night outing\Night-outing\src\xrCore\xrMemory.h

; 69   : 	if (P)

	mov	rcx, QWORD PTR [rcx+16]
	test	rcx, rcx
	je	SHORT $LN25@CCompresse
; File C:\Users\Mahito\Desktop\Night outing\Night-outing\src\xrCore\xrMemory_subst_msvc.cpp

; 99   : 	stat_calls++;

	inc	DWORD PTR ?Memory@@3VxrMemory@@A

; 100  : 
; 101  : #ifdef PURE_ALLOC
; 102  : 	if (g_use_pure_alloc)
; 103  : 	{
; 104  : 		//free(P);
; 105  : 		_aligned_free(P);

	call	QWORD PTR __imp__aligned_free
; File C:\Users\Mahito\Desktop\Night outing\Night-outing\src\xrCore\xrMemory.h

; 72   : 		P = NULL;

	mov	QWORD PTR [rbx+16], 0
$LN25@CCompresse:
; File C:\Users\Mahito\Desktop\Night outing\Night-outing\src\xrCore\FS.cpp

; 500  : {	xr_free(data);	};

	lea	rax, OFFSET FLAT:??_7?$IReaderBase@VIReader@@@@6B@
	mov	QWORD PTR [rbx], rax
	add	rsp, 32					; 00000020H
	pop	rbx
	ret	0
??1CCompressedReader@@UEAA@XZ ENDP			; CCompressedReader::~CCompressedReader
_TEXT	ENDS
; Function compile flags: /Ogtpy
; File C:\Users\Mahito\Desktop\Night outing\Night-outing\src\xrCore\FS.cpp
;	COMDAT ??_GCVirtualFileRW@@UEAAPEAXI@Z
_TEXT	SEGMENT
this$ = 48
__flags$ = 56
??_GCVirtualFileRW@@UEAAPEAXI@Z PROC			; CVirtualFileRW::`scalar deleting destructor', COMDAT
$LN9:
	mov	QWORD PTR [rsp+8], rbx
	push	rdi
	sub	rsp, 32					; 00000020H

; 523  : {

	lea	rax, OFFSET FLAT:??_7CVirtualFileRW@@6B@
	mov	rdi, rcx
	mov	QWORD PTR [rcx], rax
	mov	ebx, edx

; 524  : #ifdef FS_DEBUG
; 525  : 	unregister_file_mapping	(data,Size);
; 526  : #endif // DEBUG
; 527  : 
; 528  : 	UnmapViewOfFile ((void*)data);

	mov	rcx, QWORD PTR [rcx+16]
	call	QWORD PTR __imp_UnmapViewOfFile

; 529  : 	CloseHandle		(hSrcMap);

	mov	rcx, QWORD PTR [rdi+48]
	call	QWORD PTR __imp_CloseHandle

; 530  : 	CloseHandle		(hSrcFile);

	mov	rcx, QWORD PTR [rdi+40]
	call	QWORD PTR __imp_CloseHandle

; 531  : }

	lea	rax, OFFSET FLAT:??_7?$IReaderBase@VIReader@@@@6B@
	mov	QWORD PTR [rdi], rax
	test	bl, 1
	je	SHORT $LN6@scalar
	mov	edx, 56					; 00000038H
	mov	rcx, rdi
	call	??3@YAXPEAX_K@Z				; operator delete
$LN6@scalar:
	mov	rbx, QWORD PTR [rsp+48]
	mov	rax, rdi
	add	rsp, 32					; 00000020H
	pop	rdi
	ret	0
??_GCVirtualFileRW@@UEAAPEAXI@Z ENDP			; CVirtualFileRW::`scalar deleting destructor'
_TEXT	ENDS
; Function compile flags: /Ogtpy
; File C:\Users\Mahito\Desktop\Night outing\Night-outing\src\xrCore\FS.cpp
_TEXT	SEGMENT
this$ = 48
??1CVirtualFileRW@@UEAA@XZ PROC				; CVirtualFileRW::~CVirtualFileRW

; 523  : {

$LN5:
	push	rbx
	sub	rsp, 32					; 00000020H
	lea	rax, OFFSET FLAT:??_7CVirtualFileRW@@6B@
	mov	rbx, rcx
	mov	QWORD PTR [rcx], rax

; 524  : #ifdef FS_DEBUG
; 525  : 	unregister_file_mapping	(data,Size);
; 526  : #endif // DEBUG
; 527  : 
; 528  : 	UnmapViewOfFile ((void*)data);

	mov	rcx, QWORD PTR [rcx+16]
	call	QWORD PTR __imp_UnmapViewOfFile

; 529  : 	CloseHandle		(hSrcMap);

	mov	rcx, QWORD PTR [rbx+48]
	call	QWORD PTR __imp_CloseHandle

; 530  : 	CloseHandle		(hSrcFile);

	mov	rcx, QWORD PTR [rbx+40]
	call	QWORD PTR __imp_CloseHandle

; 531  : }

	lea	rax, OFFSET FLAT:??_7?$IReaderBase@VIReader@@@@6B@
	mov	QWORD PTR [rbx], rax
	add	rsp, 32					; 00000020H
	pop	rbx
	ret	0
??1CVirtualFileRW@@UEAA@XZ ENDP				; CVirtualFileRW::~CVirtualFileRW
_TEXT	ENDS
; Function compile flags: /Ogtpy
; File C:\Users\Mahito\Desktop\Night outing\Night-outing\src\xrCore\FS.cpp
;	COMDAT ??_GCVirtualFileReader@@UEAAPEAXI@Z
_TEXT	SEGMENT
this$ = 48
__flags$ = 56
??_GCVirtualFileReader@@UEAAPEAXI@Z PROC		; CVirtualFileReader::`scalar deleting destructor', COMDAT
$LN9:
	mov	QWORD PTR [rsp+8], rbx
	push	rdi
	sub	rsp, 32					; 00000020H

; 553  : {

	lea	rax, OFFSET FLAT:??_7CVirtualFileReader@@6B@
	mov	rdi, rcx
	mov	QWORD PTR [rcx], rax
	mov	ebx, edx

; 554  : #ifdef FS_DEBUG
; 555  : 	unregister_file_mapping	(data,Size);
; 556  : #endif // DEBUG
; 557  : 
; 558  : 	UnmapViewOfFile ((void*)data);

	mov	rcx, QWORD PTR [rcx+16]
	call	QWORD PTR __imp_UnmapViewOfFile

; 559  : 	CloseHandle		(hSrcMap);

	mov	rcx, QWORD PTR [rdi+48]
	call	QWORD PTR __imp_CloseHandle

; 560  : 	CloseHandle		(hSrcFile);

	mov	rcx, QWORD PTR [rdi+40]
	call	QWORD PTR __imp_CloseHandle

; 561  : }

	lea	rax, OFFSET FLAT:??_7?$IReaderBase@VIReader@@@@6B@
	mov	QWORD PTR [rdi], rax
	test	bl, 1
	je	SHORT $LN6@scalar
	mov	edx, 56					; 00000038H
	mov	rcx, rdi
	call	??3@YAXPEAX_K@Z				; operator delete
$LN6@scalar:
	mov	rbx, QWORD PTR [rsp+48]
	mov	rax, rdi
	add	rsp, 32					; 00000020H
	pop	rdi
	ret	0
??_GCVirtualFileReader@@UEAAPEAXI@Z ENDP		; CVirtualFileReader::`scalar deleting destructor'
_TEXT	ENDS
; Function compile flags: /Ogtpy
; File C:\Users\Mahito\Desktop\Night outing\Night-outing\src\xrCore\FS.cpp
_TEXT	SEGMENT
this$ = 48
??1CVirtualFileReader@@UEAA@XZ PROC			; CVirtualFileReader::~CVirtualFileReader

; 553  : {

$LN5:
	push	rbx
	sub	rsp, 32					; 00000020H
	lea	rax, OFFSET FLAT:??_7CVirtualFileReader@@6B@
	mov	rbx, rcx
	mov	QWORD PTR [rcx], rax

; 554  : #ifdef FS_DEBUG
; 555  : 	unregister_file_mapping	(data,Size);
; 556  : #endif // DEBUG
; 557  : 
; 558  : 	UnmapViewOfFile ((void*)data);

	mov	rcx, QWORD PTR [rcx+16]
	call	QWORD PTR __imp_UnmapViewOfFile

; 559  : 	CloseHandle		(hSrcMap);

	mov	rcx, QWORD PTR [rbx+48]
	call	QWORD PTR __imp_CloseHandle

; 560  : 	CloseHandle		(hSrcFile);

	mov	rcx, QWORD PTR [rbx+40]
	call	QWORD PTR __imp_CloseHandle

; 561  : }

	lea	rax, OFFSET FLAT:??_7?$IReaderBase@VIReader@@@@6B@
	mov	QWORD PTR [rbx], rax
	add	rsp, 32					; 00000020H
	pop	rbx
	ret	0
??1CVirtualFileReader@@UEAA@XZ ENDP			; CVirtualFileReader::~CVirtualFileReader
_TEXT	ENDS
; Function compile flags: /Ogtpy
; File C:\Users\Mahito\Desktop\Night outing\Night-outing\src\xrCore\FS.h
; File C:\Users\Mahito\Desktop\Night outing\Night-outing\src\xrCore\FS.cpp
; File C:\Users\Mahito\Desktop\Night outing\Night-outing\src\xrCore\FS.h
; File C:\Users\Mahito\Desktop\Night outing\Night-outing\src\xrCore\FS.cpp
; File C:\Users\Mahito\Desktop\Night outing\Night-outing\src\xrCore\FS.h
;	COMDAT ?r_u32@?$IReaderBase@VIReader@@@@QEAAIXZ
_TEXT	SEGMENT
this$ = 8
?r_u32@?$IReaderBase@VIReader@@@@QEAAIXZ PROC		; IReaderBase<IReader>::r_u32, COMDAT

; 295  : 	IC void*		pointer		()	const		{	return &(data[Pos]);	};

	movsxd	r8, DWORD PTR [rcx+24]
; File C:\Users\Mahito\Desktop\Night outing\Night-outing\src\xrCore\FS.cpp

; 393  : 	CopyMemory		(p,pointer(),cnt);//

	mov	rax, QWORD PTR [rcx+16]
; File C:\Users\Mahito\Desktop\Night outing\Night-outing\src\xrCore\FS.h

; 296  : 	IC void			advance		(int cnt)		{	Pos+=cnt;VERIFY((Pos<=Size) && (Pos>=0));};

	lea	edx, DWORD PTR [r8+4]
; File C:\Users\Mahito\Desktop\Night outing\Night-outing\src\xrCore\FS.cpp

; 393  : 	CopyMemory		(p,pointer(),cnt);//

	mov	eax, DWORD PTR [r8+rax]
; File C:\Users\Mahito\Desktop\Night outing\Night-outing\src\xrCore\FS.h

; 296  : 	IC void			advance		(int cnt)		{	Pos+=cnt;VERIFY((Pos<=Size) && (Pos>=0));};

	mov	DWORD PTR [rcx+24], edx

; 188  : 	IC u32			r_u32		()			{	u32 tmp;	r(&tmp,sizeof(tmp)); return tmp;	};

	ret	0
?r_u32@?$IReaderBase@VIReader@@@@QEAAIXZ ENDP		; IReaderBase<IReader>::r_u32
_TEXT	ENDS
; Function compile flags: /Ogtpy
; File C:\Users\Mahito\Desktop\Night outing\Night-outing\src\xrCore\_stl_extensions.h
; File C:\Program Files\Microsoft Visual Studio\2022\Community\VC\Tools\MSVC\14.35.32215\include\vector
; File C:\Users\Mahito\Desktop\Night outing\Night-outing\src\xrCore\_stl_extensions.h
;	COMDAT ?top@?$xr_stack@IV?$xr_vector@IV?$xalloc@I@@@@@@QEAAAEAIXZ
_TEXT	SEGMENT
this$ = 8
?top@?$xr_stack@IV?$xr_vector@IV?$xalloc@I@@@@@@QEAAAEAIXZ PROC ; xr_stack<unsigned int,xr_vector<unsigned int,xalloc<unsigned int> > >::top, COMDAT
; File C:\Program Files\Microsoft Visual Studio\2022\Community\VC\Tools\MSVC\14.35.32215\include\vector

; 2007 :         return _My_data._Mylast[-1];

	mov	rax, QWORD PTR [rcx+8]
	sub	rax, 4
; File C:\Users\Mahito\Desktop\Night outing\Night-outing\src\xrCore\_stl_extensions.h

; 185  : 	value_type&			top				()									{return (c.back()); }

	ret	0
?top@?$xr_stack@IV?$xr_vector@IV?$xalloc@I@@@@@@QEAAAEAIXZ ENDP ; xr_stack<unsigned int,xr_vector<unsigned int,xalloc<unsigned int> > >::top
_TEXT	ENDS
; Function compile flags: /Ogtpy
; File C:\Users\Mahito\Desktop\Night outing\Night-outing\src\xrCore\FS.h
; File C:\Users\Mahito\Desktop\Night outing\Night-outing\src\xrCore\FS.cpp
; File C:\Users\Mahito\Desktop\Night outing\Night-outing\src\xrCore\FS.h
; File C:\Users\Mahito\Desktop\Night outing\Night-outing\src\xrCore\FS.cpp
; File C:\Users\Mahito\Desktop\Night outing\Night-outing\src\xrCore\FS.h
;	COMDAT ?r@?$IReaderBase@VIReader@@@@QEAAXPEAXH@Z
_TEXT	SEGMENT
this$ = 48
p$ = 56
cnt$ = 64
?r@?$IReaderBase@VIReader@@@@QEAAXPEAXH@Z PROC		; IReaderBase<IReader>::r, COMDAT

; 183  : 	IC void			r			(void *p,int cnt) {impl().r(p,cnt);}

$LN16:
	mov	QWORD PTR [rsp+8], rbx
	mov	QWORD PTR [rsp+16], rsi
	push	rdi
	sub	rsp, 32					; 00000020H

; 295  : 	IC void*		pointer		()	const		{	return &(data[Pos]);	};

	movsxd	rbx, DWORD PTR [rcx+24]

; 183  : 	IC void			r			(void *p,int cnt) {impl().r(p,cnt);}

	mov	rax, rdx
	movsxd	rsi, r8d
	mov	rdi, rcx

; 295  : 	IC void*		pointer		()	const		{	return &(data[Pos]);	};

	mov	rdx, rbx
; File C:\Users\Mahito\Desktop\Night outing\Night-outing\src\xrCore\FS.cpp

; 393  : 	CopyMemory		(p,pointer(),cnt);//

	mov	r8, rsi
; File C:\Users\Mahito\Desktop\Night outing\Night-outing\src\xrCore\FS.h

; 295  : 	IC void*		pointer		()	const		{	return &(data[Pos]);	};

	add	rdx, QWORD PTR [rcx+16]
; File C:\Users\Mahito\Desktop\Night outing\Night-outing\src\xrCore\FS.cpp

; 393  : 	CopyMemory		(p,pointer(),cnt);//

	mov	rcx, rax
	call	memcpy
; File C:\Users\Mahito\Desktop\Night outing\Night-outing\src\xrCore\FS.h

; 296  : 	IC void			advance		(int cnt)		{	Pos+=cnt;VERIFY((Pos<=Size) && (Pos>=0));};

	lea	eax, DWORD PTR [rbx+rsi]

; 183  : 	IC void			r			(void *p,int cnt) {impl().r(p,cnt);}

	mov	rbx, QWORD PTR [rsp+48]
	mov	rsi, QWORD PTR [rsp+56]

; 296  : 	IC void			advance		(int cnt)		{	Pos+=cnt;VERIFY((Pos<=Size) && (Pos>=0));};

	mov	DWORD PTR [rdi+24], eax

; 183  : 	IC void			r			(void *p,int cnt) {impl().r(p,cnt);}

	add	rsp, 32					; 00000020H
	pop	rdi
	ret	0
?r@?$IReaderBase@VIReader@@@@QEAAXPEAXH@Z ENDP		; IReaderBase<IReader>::r
_TEXT	ENDS
; Function compile flags: /Ogtpy
; File C:\Users\Mahito\Desktop\Night outing\Night-outing\src\xrCore\FS.h
;	COMDAT ?impl@?$IReaderBase@VIReader@@@@QEAAAEAVIReader@@XZ
_TEXT	SEGMENT
this$ = 8
?impl@?$IReaderBase@VIReader@@@@QEAAAEAVIReader@@XZ PROC ; IReaderBase<IReader>::impl, COMDAT

; 175  : 	IC implementation_type&impl	()				{return *(implementation_type*)this;}

	mov	rax, rcx
	ret	0
?impl@?$IReaderBase@VIReader@@@@QEAAAEAVIReader@@XZ ENDP ; IReaderBase<IReader>::impl
_TEXT	ENDS
; Function compile flags: /Ogtpy
; File C:\Program Files\Microsoft Visual Studio\2022\Community\VC\Tools\MSVC\14.35.32215\include\vector
;	COMDAT ?back@?$vector@IV?$xalloc@I@@@std@@QEAAAEAIXZ
_TEXT	SEGMENT
this$ = 8
?back@?$vector@IV?$xalloc@I@@@std@@QEAAAEAIXZ PROC	; std::vector<unsigned int,xalloc<unsigned int> >::back, COMDAT

; 2002 :         auto& _My_data = _Mypair._Myval2;
; 2003 : #if _CONTAINER_DEBUG_LEVEL > 0
; 2004 :         _STL_VERIFY(_My_data._Myfirst != _My_data._Mylast, "back() called on empty vector");
; 2005 : #endif // _CONTAINER_DEBUG_LEVEL > 0
; 2006 : 
; 2007 :         return _My_data._Mylast[-1];

	mov	rax, QWORD PTR [rcx+8]
	sub	rax, 4

; 2008 :     }

	ret	0
?back@?$vector@IV?$xalloc@I@@@std@@QEAAAEAIXZ ENDP	; std::vector<unsigned int,xalloc<unsigned int> >::back
_TEXT	ENDS
; Function compile flags: /Ogtpy
; File C:\Users\Mahito\Desktop\Night outing\Night-outing\src\xrCore\xrMemory_subst_msvc.h
;	COMDAT ??$xr_delete@VIReader@@@@YAXAEBQEAVIReader@@@Z
_TEXT	SEGMENT
ptr$dead$ = 8
??$xr_delete@VIReader@@@@YAXAEBQEAVIReader@@@Z PROC	; xr_delete<IReader>, COMDAT

; 49   : 	if (ptr)
; 50   : 	{
; 51   : 		xr_special_free<is_polymorphic<T>::result, T>(ptr);
; 52   : 		reinterpret_cast<T*&>(ptr) = NULL;
; 53   : 	}
; 54   : }

	ret	0
??$xr_delete@VIReader@@@@YAXAEBQEAVIReader@@@Z ENDP	; xr_delete<IReader>
_TEXT	ENDS
; Function compile flags: /Ogtpy
; File C:\Program Files\Microsoft Visual Studio\2022\Community\VC\Tools\MSVC\14.35.32215\include\type_traits
;	COMDAT ??$forward@AEBI@std@@YAAEBIAEBI@Z
_TEXT	SEGMENT
_Arg$ = 8
??$forward@AEBI@std@@YAAEBIAEBI@Z PROC			; std::forward<unsigned int const &>, COMDAT

; 1427 :     return static_cast<_Ty&&>(_Arg);

	mov	rax, rcx

; 1428 : }

	ret	0
??$forward@AEBI@std@@YAAEBIAEBI@Z ENDP			; std::forward<unsigned int const &>
_TEXT	ENDS
; Function compile flags: /Ogtpy
; File C:\Program Files\Microsoft Visual Studio\2022\Community\VC\Tools\MSVC\14.35.32215\include\xmemory
;	COMDAT ??1?$_Uninitialized_backout_al@V?$xalloc@I@@@std@@QEAA@XZ
_TEXT	SEGMENT
this$ = 8
??1?$_Uninitialized_backout_al@V?$xalloc@I@@@std@@QEAA@XZ PROC ; std::_Uninitialized_backout_al<xalloc<unsigned int> >::~_Uninitialized_backout_al<xalloc<unsigned int> >, COMDAT

; 1655 :         _Destroy_range(_First, _Last, _Al);
; 1656 :     }

	ret	0
??1?$_Uninitialized_backout_al@V?$xalloc@I@@@std@@QEAA@XZ ENDP ; std::_Uninitialized_backout_al<xalloc<unsigned int> >::~_Uninitialized_backout_al<xalloc<unsigned int> >
_TEXT	ENDS
; Function compile flags: /Ogtpy
; File C:\Users\Mahito\Desktop\Night outing\Night-outing\src\xrCore\FS.h
;	COMDAT ??0IReader@@QEAA@XZ
_TEXT	SEGMENT
this$ = 8
??0IReader@@QEAA@XZ PROC				; IReader::IReader, COMDAT

; 265  : 	IC				IReader			()

	lea	rax, OFFSET FLAT:??_7IReader@@6B@

; 172  : 	IC				IReaderBase() : m_last_pos(0), m_file_age(0) {}

	xor	edx, edx

; 265  : 	IC				IReader			()

	mov	QWORD PTR [rcx], rax

; 268  : 	}

	mov	rax, rcx

; 172  : 	IC				IReaderBase() : m_last_pos(0), m_file_age(0) {}

	mov	QWORD PTR [rcx+8], rdx

; 266  : 	{
; 267  : 		Pos			= 0;

	mov	DWORD PTR [rcx+24], edx

; 268  : 	}

	ret	0
??0IReader@@QEAA@XZ ENDP				; IReader::IReader
_TEXT	ENDS
; Function compile flags: /Ogtpy
; File C:\Users\Mahito\Desktop\Night outing\Night-outing\src\xrCore\FS.h
;	COMDAT ?advance@IReader@@QEAAXH@Z
_TEXT	SEGMENT
this$ = 8
cnt$ = 16
?advance@IReader@@QEAAXH@Z PROC				; IReader::advance, COMDAT

; 296  : 	IC void			advance		(int cnt)		{	Pos+=cnt;VERIFY((Pos<=Size) && (Pos>=0));};

	add	DWORD PTR [rcx+24], edx
	ret	0
?advance@IReader@@QEAAXH@Z ENDP				; IReader::advance
_TEXT	ENDS
; Function compile flags: /Ogtpy
; File C:\Users\Mahito\Desktop\Night outing\Night-outing\src\xrCore\FS.cpp
; File C:\Users\Mahito\Desktop\Night outing\Night-outing\src\xrCore\xrMemory.h
; File C:\Users\Mahito\Desktop\Night outing\Night-outing\src\xrCore\xrMemory_subst_msvc.cpp
; File C:\Users\Mahito\Desktop\Night outing\Night-outing\src\xrCore\xrMemory.h
; File C:\Users\Mahito\Desktop\Night outing\Night-outing\src\xrCore\FS.cpp
;	COMDAT ??_GCMemoryWriter@@UEAAPEAXI@Z
_TEXT	SEGMENT
this$ = 48
__flags$ = 56
??_GCMemoryWriter@@UEAAPEAXI@Z PROC			; CMemoryWriter::`scalar deleting destructor', COMDAT
$LN31:
	mov	QWORD PTR [rsp+8], rbx
	push	rdi
	sub	rsp, 32					; 00000020H

; 214  : {	xr_free(data);	}

	lea	rax, OFFSET FLAT:??_7CMemoryWriter@@6B@
	mov	rbx, rcx
	mov	QWORD PTR [rcx], rax
	mov	edi, edx
; File C:\Users\Mahito\Desktop\Night outing\Night-outing\src\xrCore\xrMemory.h

; 69   : 	if (P)

	mov	rcx, QWORD PTR [rcx+40]
	test	rcx, rcx
	je	SHORT $LN7@scalar
; File C:\Users\Mahito\Desktop\Night outing\Night-outing\src\xrCore\xrMemory_subst_msvc.cpp

; 99   : 	stat_calls++;

	inc	DWORD PTR ?Memory@@3VxrMemory@@A

; 100  : 
; 101  : #ifdef PURE_ALLOC
; 102  : 	if (g_use_pure_alloc)
; 103  : 	{
; 104  : 		//free(P);
; 105  : 		_aligned_free(P);

	call	QWORD PTR __imp__aligned_free
; File C:\Users\Mahito\Desktop\Night outing\Night-outing\src\xrCore\xrMemory.h

; 72   : 		P = NULL;

	mov	QWORD PTR [rbx+40], 0
$LN7@scalar:
; File C:\Users\Mahito\Desktop\Night outing\Night-outing\src\xrCore\FS.cpp

; 214  : {	xr_free(data);	}

	mov	rcx, rbx
	call	??1IWriter@@UEAA@XZ			; IWriter::~IWriter
	test	dil, 1
	je	SHORT $LN28@scalar
	mov	edx, 64					; 00000040H
	mov	rcx, rbx
	call	??3@YAXPEAX_K@Z				; operator delete
$LN28@scalar:
	mov	rax, rbx
	mov	rbx, QWORD PTR [rsp+48]
	add	rsp, 32					; 00000020H
	pop	rdi
	ret	0
??_GCMemoryWriter@@UEAAPEAXI@Z ENDP			; CMemoryWriter::`scalar deleting destructor'
_TEXT	ENDS
; Function compile flags: /Ogtpy
; File C:\Users\Mahito\Desktop\Night outing\Night-outing\src\xrCore\FS.h
;	COMDAT ?seek@CMemoryWriter@@UEAAXI@Z
_TEXT	SEGMENT
this$ = 8
pos$ = 16
?seek@CMemoryWriter@@UEAAXI@Z PROC			; CMemoryWriter::seek, COMDAT

; 125  : 	virtual void	seek		(u32 pos)	{	position = pos;				}

	mov	DWORD PTR [rcx+48], edx
	ret	0
?seek@CMemoryWriter@@UEAAXI@Z ENDP			; CMemoryWriter::seek
_TEXT	ENDS
; Function compile flags: /Ogtpy
; File C:\Users\Mahito\Desktop\Night outing\Night-outing\src\xrCore\FS.h
;	COMDAT ?tell@CMemoryWriter@@UEAAIXZ
_TEXT	SEGMENT
this$ = 8
?tell@CMemoryWriter@@UEAAIXZ PROC			; CMemoryWriter::tell, COMDAT

; 126  : 	virtual u32		tell		() 			{	return position;			}

	mov	eax, DWORD PTR [rcx+48]
	ret	0
?tell@CMemoryWriter@@UEAAIXZ ENDP			; CMemoryWriter::tell
_TEXT	ENDS
; Function compile flags: /Ogtpy
; File C:\Users\Mahito\Desktop\Night outing\Night-outing\src\xrCore\FS.h
;	COMDAT ?flush@CMemoryWriter@@UEAAXXZ
_TEXT	SEGMENT
this$ = 8
?flush@CMemoryWriter@@UEAAXXZ PROC			; CMemoryWriter::flush, COMDAT

; 137  : 	virtual	void	flush		()			{ };

	ret	0
?flush@CMemoryWriter@@UEAAXXZ ENDP			; CMemoryWriter::flush
_TEXT	ENDS
; Function compile flags: /Ogtpy
; File C:\Users\Mahito\Desktop\Night outing\Night-outing\src\xrCore\FS.h
;	COMDAT ?enc_tell@CMemoryWriter@@UEAAIXZ
_TEXT	SEGMENT
this$ = 8
?enc_tell@CMemoryWriter@@UEAAIXZ PROC			; CMemoryWriter::enc_tell, COMDAT

; 141  : 	virtual u32		enc_tell() { return position; };

	mov	eax, DWORD PTR [rcx+48]
	ret	0
?enc_tell@CMemoryWriter@@UEAAIXZ ENDP			; CMemoryWriter::enc_tell
_TEXT	ENDS
END
