; Listing generated by Microsoft (R) Optimizing Compiler Version 19.35.32217.1 

include listing.inc

INCLUDELIB OLDNAMES

PUBLIC	??$_Voidify_iter@PEAE@std@@YAPEAXPEAE@Z		; std::_Voidify_iter<unsigned char *>
PUBLIC	??$construct@EAEBE@?$_Default_allocator_traits@V?$allocator@E@std@@@std@@SAXAEAV?$allocator@E@1@QEAEAEBE@Z ; std::_Default_allocator_traits<std::allocator<unsigned char> >::construct<unsigned char,unsigned char const &>
PUBLIC	??$_Emplace_back@AEBE@?$_Uninitialized_backout_al@V?$allocator@E@std@@@std@@QEAAXAEBE@Z ; std::_Uninitialized_backout_al<std::allocator<unsigned char> >::_Emplace_back<unsigned char const &>
PUBLIC	??$_To_address@PEAE@std@@YA?A_PAEBQEAE@Z	; std::_To_address<unsigned char *>
PUBLIC	??$_Copy_memmove@PEBEPEAE@std@@YAPEAEPEBE0PEAE@Z ; std::_Copy_memmove<unsigned char const *,unsigned char *>
PUBLIC	??$move@AEAPEBE@std@@YA$$QEAPEBEAEAPEBE@Z	; std::move<unsigned char const * &>
PUBLIC	??0?$_Uninitialized_backout_al@V?$allocator@E@std@@@std@@QEAA@PEAEAEAV?$allocator@E@1@@Z ; std::_Uninitialized_backout_al<std::allocator<unsigned char> >::_Uninitialized_backout_al<std::allocator<unsigned char> >
PUBLIC	??1?$_Uninitialized_backout_al@V?$allocator@E@std@@@std@@QEAA@XZ ; std::_Uninitialized_backout_al<std::allocator<unsigned char> >::~_Uninitialized_backout_al<std::allocator<unsigned char> >
PUBLIC	?_Release@?$_Uninitialized_backout_al@V?$allocator@E@std@@@std@@QEAAPEAEXZ ; std::_Uninitialized_backout_al<std::allocator<unsigned char> >::_Release
PUBLIC	??$_To_address@PEBE@std@@YA?A_PAEBQEBE@Z	; std::_To_address<unsigned char const *>
PUBLIC	??$_Get_unwrapped@PEBE@std@@YA?A_T$$QEAPEBE@Z	; std::_Get_unwrapped<unsigned char const *>
PUBLIC	??$_Uninitialized_copy@PEBEPEBEV?$allocator@E@std@@@std@@YAPEAEPEBE0PEAEAEAV?$allocator@E@0@@Z ; std::_Uninitialized_copy<unsigned char const *,unsigned char const *,std::allocator<unsigned char> >
PUBLIC	??$forward@PEBE@std@@YA$$QEAPEBEAEAPEBE@Z	; std::forward<unsigned char const *>
PUBLIC	??$forward@AEBV?$allocator@E@std@@@std@@YAAEBV?$allocator@E@0@AEBV10@@Z ; std::forward<std::allocator<unsigned char> const &>
PUBLIC	?_Get_first@?$_Compressed_pair@V?$allocator@E@std@@V?$_Vector_val@U?$_Simple_types@E@std@@@2@$00@std@@QEBAAEBV?$allocator@E@2@XZ ; std::_Compressed_pair<std::allocator<unsigned char>,std::_Vector_val<std::_Simple_types<unsigned char> >,1>::_Get_first
PUBLIC	?allocate@?$allocator@E@std@@QEAAPEAE_K@Z	; std::allocator<unsigned char>::allocate
PUBLIC	?max_size@?$_Default_allocator_traits@V?$allocator@E@std@@@std@@SA_KAEBV?$allocator@E@2@@Z ; std::_Default_allocator_traits<std::allocator<unsigned char> >::max_size
PUBLIC	?_Getal@?$vector@EV?$allocator@E@std@@@std@@AEBAAEBV?$allocator@E@2@XZ ; std::vector<unsigned char,std::allocator<unsigned char> >::_Getal
PUBLIC	?max_size@?$vector@EV?$allocator@E@std@@@std@@QEBA_KXZ ; std::vector<unsigned char,std::allocator<unsigned char> >::max_size
PUBLIC	?_Buy_raw@?$vector@EV?$allocator@E@std@@@std@@AEAAX_K@Z ; std::vector<unsigned char,std::allocator<unsigned char> >::_Buy_raw
PUBLIC	?_Xlength@?$vector@EV?$allocator@E@std@@@std@@CAXXZ ; std::vector<unsigned char,std::allocator<unsigned char> >::_Xlength
PUBLIC	?_Buy_nonzero@?$vector@EV?$allocator@E@std@@@std@@AEAAX_K@Z ; std::vector<unsigned char,std::allocator<unsigned char> >::_Buy_nonzero
PUBLIC	??1?$_Tidy_guard@V?$vector@EV?$allocator@E@std@@@std@@@std@@QEAA@XZ ; std::_Tidy_guard<std::vector<unsigned char,std::allocator<unsigned char> > >::~_Tidy_guard<std::vector<unsigned char,std::allocator<unsigned char> > >
PUBLIC	??$_Destroy_range@V?$allocator@E@std@@@std@@YAXPEAEQEAEAEAV?$allocator@E@0@@Z ; std::_Destroy_range<std::allocator<unsigned char> >
PUBLIC	??$_Construct_n@PEBEPEBE@?$vector@EV?$allocator@E@std@@@std@@AEAAX_K$$QEAPEBE1@Z ; std::vector<unsigned char,std::allocator<unsigned char> >::_Construct_n<unsigned char const *,unsigned char const *>
PUBLIC	??$?0AEBV?$allocator@E@std@@$$V@?$_Compressed_pair@V?$allocator@E@std@@V?$_Vector_val@U?$_Simple_types@E@std@@@2@$00@std@@QEAA@U_One_then_variadic_args_t@1@AEBV?$allocator@E@1@@Z ; std::_Compressed_pair<std::allocator<unsigned char>,std::_Vector_val<std::_Simple_types<unsigned char> >,1>::_Compressed_pair<std::allocator<unsigned char>,std::_Vector_val<std::_Simple_types<unsigned char> >,1><std::allocator<unsigned char> const &>
PUBLIC	?_Get_first@?$_Compressed_pair@V?$allocator@E@std@@V?$_Vector_val@U?$_Simple_types@E@std@@@2@$00@std@@QEAAAEAV?$allocator@E@2@XZ ; std::_Compressed_pair<std::allocator<unsigned char>,std::_Vector_val<std::_Simple_types<unsigned char> >,1>::_Get_first
PUBLIC	?deallocate@?$allocator@E@std@@QEAAXQEAE_K@Z	; std::allocator<unsigned char>::deallocate
PUBLIC	?_Getal@?$vector@EV?$allocator@E@std@@@std@@AEAAAEAV?$allocator@E@2@XZ ; std::vector<unsigned char,std::allocator<unsigned char> >::_Getal
PUBLIC	?_Tidy@?$vector@EV?$allocator@E@std@@@std@@AEAAXXZ ; std::vector<unsigned char,std::allocator<unsigned char> >::_Tidy
PUBLIC	?begin@?$initializer_list@E@std@@QEBAPEBEXZ	; std::initializer_list<unsigned char>::begin
PUBLIC	?end@?$initializer_list@E@std@@QEBAPEBEXZ	; std::initializer_list<unsigned char>::end
PUBLIC	?size@?$initializer_list@E@std@@QEBA_KXZ	; std::initializer_list<unsigned char>::size
PUBLIC	??0?$allocator@E@std@@QEAA@XZ			; std::allocator<unsigned char>::allocator<unsigned char>
PUBLIC	??0?$vector@EV?$allocator@E@std@@@std@@QEAA@V?$initializer_list@E@1@AEBV?$allocator@E@1@@Z ; std::vector<unsigned char,std::allocator<unsigned char> >::vector<unsigned char,std::allocator<unsigned char> >
PUBLIC	??1?$vector@EV?$allocator@E@std@@@std@@QEAA@XZ	; std::vector<unsigned char,std::allocator<unsigned char> >::~vector<unsigned char,std::allocator<unsigned char> >
PUBLIC	?size@?$vector@EV?$allocator@E@std@@@std@@QEBA_KXZ ; std::vector<unsigned char,std::allocator<unsigned char> >::size
PUBLIC	??A?$vector@EV?$allocator@E@std@@@std@@QEAAAEAE_K@Z ; std::vector<unsigned char,std::allocator<unsigned char> >::operator[]
PUBLIC	??0?$initializer_list@E@std@@QEAA@PEBE0@Z	; std::initializer_list<unsigned char>::initializer_list<unsigned char>
PUBLIC	?CheckForByte@@YA_NE@Z				; CheckForByte
PUBLIC	?w_encrypt@CMemoryWriter@@UEAAXPEBXI@Z		; CMemoryWriter::w_encrypt
PUBLIC	?data_encript@CMemoryWriter@@UEAAXXZ		; CMemoryWriter::data_encript
PUBLIC	?encryptDecryptXOR@@YAXPEAEI@Z			; encryptDecryptXOR
;	COMDAT pdata
pdata	SEGMENT
$pdata$??$_Copy_memmove@PEBEPEAE@std@@YAPEAEPEBE0PEAE@Z DD imagerel $LN4
	DD	imagerel $LN4+48
	DD	imagerel $unwind$??$_Copy_memmove@PEBEPEAE@std@@YAPEAEPEBE0PEAE@Z
pdata	ENDS
;	COMDAT pdata
pdata	SEGMENT
$pdata$??$_Uninitialized_copy@PEBEPEBEV?$allocator@E@std@@@std@@YAPEAEPEBE0PEAEAEAV?$allocator@E@0@@Z DD imagerel $LN16
	DD	imagerel $LN16+48
	DD	imagerel $unwind$??$_Uninitialized_copy@PEBEPEBEV?$allocator@E@std@@@std@@YAPEAEPEBE0PEAEAEAV?$allocator@E@0@@Z
pdata	ENDS
;	COMDAT pdata
pdata	SEGMENT
$pdata$?_Buy_raw@?$vector@EV?$allocator@E@std@@@std@@AEAAX_K@Z DD imagerel $LN6
	DD	imagerel $LN6+49
	DD	imagerel $unwind$?_Buy_raw@?$vector@EV?$allocator@E@std@@@std@@AEAAX_K@Z
pdata	ENDS
;	COMDAT pdata
pdata	SEGMENT
$pdata$?_Xlength@?$vector@EV?$allocator@E@std@@@std@@CAXXZ DD imagerel $LN4
	DD	imagerel $LN4+18
	DD	imagerel $unwind$?_Xlength@?$vector@EV?$allocator@E@std@@@std@@CAXXZ
pdata	ENDS
;	COMDAT pdata
pdata	SEGMENT
$pdata$?_Buy_nonzero@?$vector@EV?$allocator@E@std@@@std@@AEAAX_K@Z DD imagerel $LN11
	DD	imagerel $LN11+70
	DD	imagerel $unwind$?_Buy_nonzero@?$vector@EV?$allocator@E@std@@@std@@AEAAX_K@Z
pdata	ENDS
;	COMDAT pdata
pdata	SEGMENT
$pdata$??1?$_Tidy_guard@V?$vector@EV?$allocator@E@std@@@std@@@std@@QEAA@XZ DD imagerel $LN28
	DD	imagerel $LN28+93
	DD	imagerel $unwind$??1?$_Tidy_guard@V?$vector@EV?$allocator@E@std@@@std@@@std@@QEAA@XZ
pdata	ENDS
;	COMDAT pdata
pdata	SEGMENT
$pdata$??$_Construct_n@PEBEPEBE@?$vector@EV?$allocator@E@std@@@std@@AEAAX_K$$QEAPEBE1@Z DD imagerel $LN55
	DD	imagerel $LN55+60
	DD	imagerel $unwind$??$_Construct_n@PEBEPEBE@?$vector@EV?$allocator@E@std@@@std@@AEAAX_K$$QEAPEBE1@Z
pdata	ENDS
;	COMDAT pdata
pdata	SEGMENT
$pdata$0$??$_Construct_n@PEBEPEBE@?$vector@EV?$allocator@E@std@@@std@@AEAAX_K$$QEAPEBE1@Z DD imagerel $LN55+60
	DD	imagerel $LN55+142
	DD	imagerel $chain$0$??$_Construct_n@PEBEPEBE@?$vector@EV?$allocator@E@std@@@std@@AEAAX_K$$QEAPEBE1@Z
pdata	ENDS
;	COMDAT pdata
pdata	SEGMENT
$pdata$1$??$_Construct_n@PEBEPEBE@?$vector@EV?$allocator@E@std@@@std@@AEAAX_K$$QEAPEBE1@Z DD imagerel $LN55+142
	DD	imagerel $LN55+149
	DD	imagerel $chain$1$??$_Construct_n@PEBEPEBE@?$vector@EV?$allocator@E@std@@@std@@AEAAX_K$$QEAPEBE1@Z
pdata	ENDS
;	COMDAT pdata
pdata	SEGMENT
$pdata$?deallocate@?$allocator@E@std@@QEAAXQEAE_K@Z DD imagerel $LN20
	DD	imagerel $LN20+62
	DD	imagerel $unwind$?deallocate@?$allocator@E@std@@QEAAXQEAE_K@Z
pdata	ENDS
;	COMDAT pdata
pdata	SEGMENT
$pdata$?_Tidy@?$vector@EV?$allocator@E@std@@@std@@AEAAXXZ DD imagerel $LN24
	DD	imagerel $LN24+88
	DD	imagerel $unwind$?_Tidy@?$vector@EV?$allocator@E@std@@@std@@AEAAXXZ
pdata	ENDS
;	COMDAT pdata
pdata	SEGMENT
$pdata$??0?$vector@EV?$allocator@E@std@@@std@@QEAA@V?$initializer_list@E@1@AEBV?$allocator@E@1@@Z DD imagerel $LN63
	DD	imagerel $LN63+61
	DD	imagerel $unwind$??0?$vector@EV?$allocator@E@std@@@std@@QEAA@V?$initializer_list@E@1@AEBV?$allocator@E@1@@Z
pdata	ENDS
;	COMDAT pdata
pdata	SEGMENT
$pdata$0$??0?$vector@EV?$allocator@E@std@@@std@@QEAA@V?$initializer_list@E@1@AEBV?$allocator@E@1@@Z DD imagerel $LN63+61
	DD	imagerel $LN63+116
	DD	imagerel $chain$0$??0?$vector@EV?$allocator@E@std@@@std@@QEAA@V?$initializer_list@E@1@AEBV?$allocator@E@1@@Z
pdata	ENDS
;	COMDAT pdata
pdata	SEGMENT
$pdata$1$??0?$vector@EV?$allocator@E@std@@@std@@QEAA@V?$initializer_list@E@1@AEBV?$allocator@E@1@@Z DD imagerel $LN63+116
	DD	imagerel $LN63+141
	DD	imagerel $chain$1$??0?$vector@EV?$allocator@E@std@@@std@@QEAA@V?$initializer_list@E@1@AEBV?$allocator@E@1@@Z
pdata	ENDS
;	COMDAT pdata
pdata	SEGMENT
$pdata$??1?$vector@EV?$allocator@E@std@@@std@@QEAA@XZ DD imagerel $LN27
	DD	imagerel $LN27+88
	DD	imagerel $unwind$??1?$vector@EV?$allocator@E@std@@@std@@QEAA@XZ
pdata	ENDS
pdata	SEGMENT
$pdata$?w_encrypt@CMemoryWriter@@UEAAXPEBXI@Z DD imagerel $LN231
	DD	imagerel $LN231+15
	DD	imagerel $unwind$?w_encrypt@CMemoryWriter@@UEAAXPEBXI@Z
$pdata$2$?w_encrypt@CMemoryWriter@@UEAAXPEBXI@Z DD imagerel $LN231+15
	DD	imagerel $LN231+96
	DD	imagerel $chain$2$?w_encrypt@CMemoryWriter@@UEAAXPEBXI@Z
$pdata$5$?w_encrypt@CMemoryWriter@@UEAAXPEBXI@Z DD imagerel $LN231+96
	DD	imagerel $LN231+284
	DD	imagerel $chain$5$?w_encrypt@CMemoryWriter@@UEAAXPEBXI@Z
$pdata$6$?w_encrypt@CMemoryWriter@@UEAAXPEBXI@Z DD imagerel $LN231+284
	DD	imagerel $LN231+330
	DD	imagerel $chain$6$?w_encrypt@CMemoryWriter@@UEAAXPEBXI@Z
$pdata$7$?w_encrypt@CMemoryWriter@@UEAAXPEBXI@Z DD imagerel $LN231+330
	DD	imagerel $LN231+339
	DD	imagerel $chain$7$?w_encrypt@CMemoryWriter@@UEAAXPEBXI@Z
$pdata$?data_encript@CMemoryWriter@@UEAAXXZ DD imagerel $LN26
	DD	imagerel $LN26+27
	DD	imagerel $unwind$?data_encript@CMemoryWriter@@UEAAXXZ
$pdata$0$?data_encript@CMemoryWriter@@UEAAXXZ DD imagerel $LN26+27
	DD	imagerel $LN26+100
	DD	imagerel $chain$0$?data_encript@CMemoryWriter@@UEAAXXZ
$pdata$1$?data_encript@CMemoryWriter@@UEAAXXZ DD imagerel $LN26+100
	DD	imagerel $LN26+146
	DD	imagerel $chain$1$?data_encript@CMemoryWriter@@UEAAXXZ
$pdata$?encryptDecryptXOR@@YAXPEAEI@Z DD imagerel $LN112
	DD	imagerel $LN112+181
	DD	imagerel $unwind$?encryptDecryptXOR@@YAXPEAEI@Z
xdata	SEGMENT
$unwind$?w_encrypt@CMemoryWriter@@UEAAXPEBXI@Z DD 020601H
	DD	030025206H
$chain$2$?w_encrypt@CMemoryWriter@@UEAAXPEBXI@Z DD 061421H
	DD	04f414H
	DD	0bc40fH
	DD	085405H
	DD	imagerel $LN231
	DD	imagerel $LN231+15
	DD	imagerel $unwind$?w_encrypt@CMemoryWriter@@UEAAXPEBXI@Z
$chain$5$?w_encrypt@CMemoryWriter@@UEAAXPEBXI@Z DD 064021H
	DD	096440H
	DD	05e40cH
	DD	0a7405H
	DD	imagerel $LN231+15
	DD	imagerel $LN231+96
	DD	imagerel $chain$2$?w_encrypt@CMemoryWriter@@UEAAXPEBXI@Z
$chain$6$?w_encrypt@CMemoryWriter@@UEAAXPEBXI@Z DD 021H
	DD	imagerel $LN231+15
	DD	imagerel $LN231+96
	DD	imagerel $chain$2$?w_encrypt@CMemoryWriter@@UEAAXPEBXI@Z
$chain$7$?w_encrypt@CMemoryWriter@@UEAAXPEBXI@Z DD 021H
	DD	imagerel $LN231
	DD	imagerel $LN231+15
	DD	imagerel $unwind$?w_encrypt@CMemoryWriter@@UEAAXPEBXI@Z
$unwind$?data_encript@CMemoryWriter@@UEAAXXZ DD 081201H
	DD	0a5412H
	DD	093412H
	DD	0f00e3212H
	DD	0600b700cH
$chain$0$?data_encript@CMemoryWriter@@UEAAXXZ DD 020521H
	DD	08e405H
	DD	imagerel $LN26
	DD	imagerel $LN26+27
	DD	imagerel $unwind$?data_encript@CMemoryWriter@@UEAAXXZ
$chain$1$?data_encript@CMemoryWriter@@UEAAXXZ DD 021H
	DD	imagerel $LN26
	DD	imagerel $LN26+27
	DD	imagerel $unwind$?data_encript@CMemoryWriter@@UEAAXXZ
$unwind$?encryptDecryptXOR@@YAXPEAEI@Z DD 060f01H
	DD	09640fH
	DD	08340fH
	DD	0700b520fH
xdata	ENDS
;	COMDAT xdata
xdata	SEGMENT
$unwind$??1?$vector@EV?$allocator@E@std@@@std@@QEAA@XZ DD 020601H
	DD	030023206H
xdata	ENDS
;	COMDAT xdata
xdata	SEGMENT
$chain$1$??0?$vector@EV?$allocator@E@std@@@std@@QEAA@V?$initializer_list@E@1@AEBV?$allocator@E@1@@Z DD 021H
	DD	imagerel $LN63
	DD	imagerel $LN63+61
	DD	imagerel $unwind$??0?$vector@EV?$allocator@E@std@@@std@@QEAA@V?$initializer_list@E@1@AEBV?$allocator@E@1@@Z
xdata	ENDS
;	COMDAT xdata
xdata	SEGMENT
$chain$0$??0?$vector@EV?$allocator@E@std@@@std@@QEAA@V?$initializer_list@E@1@AEBV?$allocator@E@1@@Z DD 020521H
	DD	063405H
	DD	imagerel $LN63
	DD	imagerel $LN63+61
	DD	imagerel $unwind$??0?$vector@EV?$allocator@E@std@@@std@@QEAA@V?$initializer_list@E@1@AEBV?$allocator@E@1@@Z
xdata	ENDS
;	COMDAT xdata
xdata	SEGMENT
$unwind$??0?$vector@EV?$allocator@E@std@@@std@@QEAA@V?$initializer_list@E@1@AEBV?$allocator@E@1@@Z DD 060f01H
	DD	08640fH
	DD	07540fH
	DD	0700b320fH
xdata	ENDS
;	COMDAT xdata
xdata	SEGMENT
$unwind$?_Tidy@?$vector@EV?$allocator@E@std@@@std@@AEAAXXZ DD 020601H
	DD	030023206H
xdata	ENDS
;	COMDAT xdata
xdata	SEGMENT
$unwind$?deallocate@?$allocator@E@std@@QEAAXQEAE_K@Z DD 010401H
	DD	04204H
xdata	ENDS
;	COMDAT xdata
xdata	SEGMENT
$chain$1$??$_Construct_n@PEBEPEBE@?$vector@EV?$allocator@E@std@@@std@@AEAAX_K$$QEAPEBE1@Z DD 021H
	DD	imagerel $LN55
	DD	imagerel $LN55+60
	DD	imagerel $unwind$??$_Construct_n@PEBEPEBE@?$vector@EV?$allocator@E@std@@@std@@AEAAX_K$$QEAPEBE1@Z
xdata	ENDS
;	COMDAT xdata
xdata	SEGMENT
$chain$0$??$_Construct_n@PEBEPEBE@?$vector@EV?$allocator@E@std@@@std@@AEAAX_K$$QEAPEBE1@Z DD 020521H
	DD	067405H
	DD	imagerel $LN55
	DD	imagerel $LN55+60
	DD	imagerel $unwind$??$_Construct_n@PEBEPEBE@?$vector@EV?$allocator@E@std@@@std@@AEAAX_K$$QEAPEBE1@Z
xdata	ENDS
;	COMDAT xdata
xdata	SEGMENT
$unwind$??$_Construct_n@PEBEPEBE@?$vector@EV?$allocator@E@std@@@std@@AEAAX_K$$QEAPEBE1@Z DD 081e01H
	DD	09e41eH
	DD	08641eH
	DD	07341eH
	DD	0f01a321eH
xdata	ENDS
;	COMDAT xdata
xdata	SEGMENT
$unwind$??1?$_Tidy_guard@V?$vector@EV?$allocator@E@std@@@std@@@std@@QEAA@XZ DD 020601H
	DD	030023206H
xdata	ENDS
;	COMDAT xdata
xdata	SEGMENT
$unwind$?_Buy_nonzero@?$vector@EV?$allocator@E@std@@@std@@AEAAX_K@Z DD 040a01H
	DD	06340aH
	DD	07006320aH
xdata	ENDS
;	COMDAT xdata
xdata	SEGMENT
$unwind$?_Xlength@?$vector@EV?$allocator@E@std@@@std@@CAXXZ DD 010401H
	DD	04204H
xdata	ENDS
;	COMDAT xdata
xdata	SEGMENT
$unwind$?_Buy_raw@?$vector@EV?$allocator@E@std@@@std@@AEAAX_K@Z DD 040a01H
	DD	06340aH
	DD	07006320aH
xdata	ENDS
;	COMDAT xdata
xdata	SEGMENT
$unwind$??$_Uninitialized_copy@PEBEPEBEV?$allocator@E@std@@@std@@YAPEAEPEBE0PEAEAEAV?$allocator@E@0@@Z DD 040a01H
	DD	06340aH
	DD	07006320aH
xdata	ENDS
;	COMDAT xdata
xdata	SEGMENT
$unwind$??$_Copy_memmove@PEBEPEAE@std@@YAPEAEPEBE0PEAE@Z DD 040a01H
	DD	06340aH
	DD	07006320aH
; Function compile flags: /Ogtpy
; File C:\Users\Mahito\Desktop\Night outing\Night-outing\src\xrCore\FS_Encript.cpp
; File C:\Program Files\Microsoft Visual Studio\2022\Community\VC\Tools\MSVC\14.35.32215\include\xmemory
; File C:\Users\Mahito\Desktop\Night outing\Night-outing\src\xrCore\FS_Encript.cpp
; File C:\Program Files\Microsoft Visual Studio\2022\Community\VC\Tools\MSVC\14.35.32215\include\xmemory
; File C:\Program Files\Microsoft Visual Studio\2022\Community\VC\Tools\MSVC\14.35.32215\include\xutility
; File C:\Program Files\Microsoft Visual Studio\2022\Community\VC\Tools\MSVC\14.35.32215\include\xmemory
; File C:\Program Files\Microsoft Visual Studio\2022\Community\VC\Tools\MSVC\14.35.32215\include\xutility
; File C:\Users\Mahito\Desktop\Night outing\Night-outing\src\xrCore\FS_Encript.cpp
; File C:\Program Files\Microsoft Visual Studio\2022\Community\VC\Tools\MSVC\14.35.32215\include\vector
; File C:\Program Files\Microsoft Visual Studio\2022\Community\VC\Tools\MSVC\14.35.32215\include\xmemory
; File C:\Users\Mahito\Desktop\Night outing\Night-outing\src\xrCore\FS_Encript.cpp
_TEXT	SEGMENT
$T1 = 32
data$ = 64
size$ = 72
?encryptDecryptXOR@@YAXPEAEI@Z PROC			; encryptDecryptXOR

; 13   : {

$LN112:
	mov	QWORD PTR [rsp+8], rbx
	mov	QWORD PTR [rsp+16], rsi
	push	rdi
	sub	rsp, 48					; 00000030H
	mov	rsi, rcx
	mov	ebx, edx
; File C:\Program Files\Microsoft Visual Studio\2022\Community\VC\Tools\MSVC\14.35.32215\include\xmemory

; 834  :         return static_cast<_Ty*>(_Allocate<_New_alignof<_Ty>>(_Get_size_of_n<sizeof(_Ty)>(_Count)));

	mov	ecx, 9
; File C:\Users\Mahito\Desktop\Night outing\Night-outing\src\xrCore\FS_Encript.cpp

; 15   : 	std::vector<u8> buffer = { 8, 9, 2, 4, 1, 0, 5, 95, 73 };

	mov	DWORD PTR $T1[rsp], 67242248		; 04020908H
	mov	DWORD PTR $T1[rsp+4], 1594163201	; 5f050001H
	mov	BYTE PTR $T1[rsp+8], 73			; 00000049H
; File C:\Program Files\Microsoft Visual Studio\2022\Community\VC\Tools\MSVC\14.35.32215\include\xmemory

; 834  :         return static_cast<_Ty*>(_Allocate<_New_alignof<_Ty>>(_Get_size_of_n<sizeof(_Ty)>(_Count)));

	call	??$_Allocate@$0BA@U_Default_allocate_traits@std@@$0A@@std@@YAPEAX_K@Z ; std::_Allocate<16,std::_Default_allocate_traits,0>
; File C:\Program Files\Microsoft Visual Studio\2022\Community\VC\Tools\MSVC\14.35.32215\include\xutility

; 4239 :     _CSTD memmove(_Dest_ch, _First_ch, _Count);

	mov	r8d, 9
	lea	rdx, QWORD PTR $T1[rsp]
	mov	rcx, rax
; File C:\Program Files\Microsoft Visual Studio\2022\Community\VC\Tools\MSVC\14.35.32215\include\xmemory

; 834  :         return static_cast<_Ty*>(_Allocate<_New_alignof<_Ty>>(_Get_size_of_n<sizeof(_Ty)>(_Count)));

	mov	rdi, rax
; File C:\Program Files\Microsoft Visual Studio\2022\Community\VC\Tools\MSVC\14.35.32215\include\xutility

; 4239 :     _CSTD memmove(_Dest_ch, _First_ch, _Count);

	call	memmove
; File C:\Users\Mahito\Desktop\Night outing\Night-outing\src\xrCore\FS_Encript.cpp

; 18   : 	for (size_t i = 0; i < size; ++i)

	xor	r8d, r8d
	test	ebx, ebx
	je	SHORT $LN3@encryptDec
	mov	r11, -2049638230412172401		; e38e38e38e38e38fH
	npad	6
$LL4@encryptDec:

; 19   : 	{
; 20   : 		u8 d = u8(data[i]);
; 21   : 		u8 encripted = d ^ buffer[i % buffer.size()];

	mov	rax, r11
	mov	rcx, r8
	mul	r8
	shr	rdx, 3
	lea	rax, QWORD PTR [rdx+rdx*8]
	sub	rcx, rax
	movzx	eax, BYTE PTR [r8+rsi]
	xor	al, BYTE PTR [rcx+rdi]

; 6    : 	if (0x0A == byte)

	cmp	BYTE PTR [r8+rsi], 10
	je	SHORT $LN2@encryptDec
	cmp	al, 10
	je	SHORT $LN2@encryptDec

; 22   : 		
; 23   : 		if (CheckForByte(d) && CheckForByte(encripted) )
; 24   : 			data[i] = encripted;

	mov	BYTE PTR [r8+rsi], al
$LN2@encryptDec:

; 18   : 	for (size_t i = 0; i < size; ++i)

	inc	r8
	cmp	r8, rbx
	jb	SHORT $LL4@encryptDec
$LN3@encryptDec:
; File C:\Program Files\Microsoft Visual Studio\2022\Community\VC\Tools\MSVC\14.35.32215\include\vector

; 2107 :         if (_Myfirst) { // destroy and deallocate old array

	test	rdi, rdi
	je	SHORT $LN18@encryptDec
; File C:\Program Files\Microsoft Visual Studio\2022\Community\VC\Tools\MSVC\14.35.32215\include\xmemory

; 255  :         ::operator delete(_Ptr, _Bytes);

	mov	edx, 9
	mov	rcx, rdi
	call	??3@YAXPEAX_K@Z				; operator delete
$LN18@encryptDec:
; File C:\Users\Mahito\Desktop\Night outing\Night-outing\src\xrCore\FS_Encript.cpp

; 26   : }

	mov	rbx, QWORD PTR [rsp+64]
	mov	rsi, QWORD PTR [rsp+72]
	add	rsp, 48					; 00000030H
	pop	rdi
	ret	0
?encryptDecryptXOR@@YAXPEAEI@Z ENDP			; encryptDecryptXOR
_TEXT	ENDS
; Function compile flags: /Ogtpy
; File C:\Users\Mahito\Desktop\Night outing\Night-outing\src\xrCore\FS_Encript.cpp
; File C:\Program Files\Microsoft Visual Studio\2022\Community\VC\Tools\MSVC\14.35.32215\include\vector
; File C:\Users\Mahito\Desktop\Night outing\Night-outing\src\xrCore\FS_Encript.cpp
; File C:\Program Files\Microsoft Visual Studio\2022\Community\VC\Tools\MSVC\14.35.32215\include\vector
; File C:\Users\Mahito\Desktop\Night outing\Night-outing\src\xrCore\FS.cpp
; File C:\Program Files\Microsoft Visual Studio\2022\Community\VC\Tools\MSVC\14.35.32215\include\vector
; File C:\Users\Mahito\Desktop\Night outing\Night-outing\src\xrCore\FS.cpp
; File C:\Users\Mahito\Desktop\Night outing\Night-outing\src\xrCore\FS_Encript.cpp
; File C:\Program Files\Microsoft Visual Studio\2022\Community\VC\Tools\MSVC\14.35.32215\include\vector
; File C:\Users\Mahito\Desktop\Night outing\Night-outing\src\xrCore\FS_Encript.cpp
; File C:\Program Files\Microsoft Visual Studio\2022\Community\VC\Tools\MSVC\14.35.32215\include\vector
; File C:\Users\Mahito\Desktop\Night outing\Night-outing\src\xrCore\FS.cpp
; File C:\Program Files\Microsoft Visual Studio\2022\Community\VC\Tools\MSVC\14.35.32215\include\vector
; File C:\Users\Mahito\Desktop\Night outing\Night-outing\src\xrCore\FS.cpp
; File C:\Users\Mahito\Desktop\Night outing\Night-outing\src\xrCore\FS_Encript.cpp
_TEXT	SEGMENT
this$ = 64
?data_encript@CMemoryWriter@@UEAAXXZ PROC		; CMemoryWriter::data_encript

; 29   : {

$LN26:
	mov	QWORD PTR [rsp+16], rbx
	mov	QWORD PTR [rsp+24], rbp
	push	rsi
	push	rdi
	push	r15
	sub	rsp, 32					; 00000020H
; File C:\Program Files\Microsoft Visual Studio\2022\Community\VC\Tools\MSVC\14.35.32215\include\vector

; 1927 :         return _My_data._Myfirst == _My_data._Mylast;

	mov	rax, QWORD PTR [rcx+16]
	xor	esi, esi
; File C:\Users\Mahito\Desktop\Night outing\Night-outing\src\xrCore\FS_Encript.cpp

; 29   : {

	mov	rdi, rcx
	mov	QWORD PTR [rsp+64], r14
; File C:\Program Files\Microsoft Visual Studio\2022\Community\VC\Tools\MSVC\14.35.32215\include\vector

; 1927 :         return _My_data._Myfirst == _My_data._Mylast;

	mov	ebp, -4					; fffffffcH
	cmp	QWORD PTR [rcx+8], rax
; File C:\Users\Mahito\Desktop\Night outing\Night-outing\src\xrCore\FS.cpp

; 269  : 	if (chunk_pos.empty())	return 0;

	jne	SHORT $LN4@data_encri
	mov	r14d, esi
	jmp	SHORT $LN3@data_encri
$LN4@data_encri:
; File C:\Program Files\Microsoft Visual Studio\2022\Community\VC\Tools\MSVC\14.35.32215\include\vector

; 2007 :         return _My_data._Mylast[-1];

	mov	rbx, rax
; File C:\Users\Mahito\Desktop\Night outing\Night-outing\src\xrCore\FS.cpp

; 270  : 	return tell() - chunk_pos.top()-4;

	mov	rax, QWORD PTR [rcx]
	call	QWORD PTR [rax+16]
	mov	r14d, ebp
	sub	r14d, DWORD PTR [rbx-4]
	add	r14d, eax
$LN3@data_encri:
; File C:\Users\Mahito\Desktop\Night outing\Night-outing\src\xrCore\FS_Encript.cpp

; 30   :  	u8* ptr = (u8*)tell() - chunk_size();

	mov	rdx, QWORD PTR [rdi]
	mov	rcx, rdi
	call	QWORD PTR [rdx+16]
	mov	r15d, eax
	mov	eax, r14d
; File C:\Program Files\Microsoft Visual Studio\2022\Community\VC\Tools\MSVC\14.35.32215\include\vector

; 1927 :         return _My_data._Myfirst == _My_data._Mylast;

	mov	r14, QWORD PTR [rsp+64]
; File C:\Users\Mahito\Desktop\Night outing\Night-outing\src\xrCore\FS_Encript.cpp

; 30   :  	u8* ptr = (u8*)tell() - chunk_size();

	sub	r15, rax
; File C:\Program Files\Microsoft Visual Studio\2022\Community\VC\Tools\MSVC\14.35.32215\include\vector

; 1927 :         return _My_data._Myfirst == _My_data._Mylast;

	mov	rax, QWORD PTR [rdi+16]
	cmp	QWORD PTR [rdi+8], rax
; File C:\Users\Mahito\Desktop\Night outing\Night-outing\src\xrCore\FS.cpp

; 269  : 	if (chunk_pos.empty())	return 0;

	je	SHORT $LN14@data_encri
; File C:\Program Files\Microsoft Visual Studio\2022\Community\VC\Tools\MSVC\14.35.32215\include\vector

; 2007 :         return _My_data._Mylast[-1];

	mov	rbx, rax
; File C:\Users\Mahito\Desktop\Night outing\Night-outing\src\xrCore\FS.cpp

; 270  : 	return tell() - chunk_pos.top()-4;

	mov	rcx, rdi
	mov	rax, QWORD PTR [rdi]
	call	QWORD PTR [rax+16]
	sub	ebp, DWORD PTR [rbx-4]
	lea	esi, DWORD PTR [rax+rbp]
$LN14@data_encri:
; File C:\Users\Mahito\Desktop\Night outing\Night-outing\src\xrCore\FS_Encript.cpp

; 31   : 	encryptDecryptXOR(ptr, chunk_size());

	mov	edx, esi
	mov	rcx, r15

; 32   : }

	mov	rbx, QWORD PTR [rsp+72]
	mov	rbp, QWORD PTR [rsp+80]
	add	rsp, 32					; 00000020H
	pop	r15
	pop	rdi
	pop	rsi

; 31   : 	encryptDecryptXOR(ptr, chunk_size());

	jmp	?encryptDecryptXOR@@YAXPEAEI@Z		; encryptDecryptXOR
?data_encript@CMemoryWriter@@UEAAXXZ ENDP		; CMemoryWriter::data_encript
_TEXT	ENDS
; Function compile flags: /Ogtpy
; File C:\Users\Mahito\Desktop\Night outing\Night-outing\src\xrCore\FS_Encript.cpp
; File C:\Users\Mahito\Desktop\Night outing\Night-outing\src\xrCore\xrMemory_subst_msvc.cpp
; File C:\Users\Mahito\Desktop\Night outing\Night-outing\src\xrCore\FS_Encript.cpp
; File C:\Users\Mahito\Desktop\Night outing\Night-outing\src\xrCore\xrMemory_subst_msvc.cpp
; File C:\Users\Mahito\Desktop\Night outing\Night-outing\src\xrCore\FS_Encript.cpp
; File C:\Users\Mahito\Desktop\Night outing\Night-outing\src\xrCore\xrMemory_subst_msvc.cpp
; File C:\Users\Mahito\Desktop\Night outing\Night-outing\src\xrCore\FS_Encript.cpp
; File C:\Users\Mahito\Desktop\Night outing\Night-outing\src\xrCore\xrMemory_subst_msvc.cpp
; File C:\Users\Mahito\Desktop\Night outing\Night-outing\src\xrCore\FS_Encript.cpp
; File C:\Users\Mahito\Desktop\Night outing\Night-outing\src\xrCore\xrMemory_subst_msvc.cpp
; File C:\Users\Mahito\Desktop\Night outing\Night-outing\src\xrCore\FS_Encript.cpp
; File C:\Users\Mahito\Desktop\Night outing\Night-outing\src\xrCore\xrMemory_subst_msvc.cpp
; File C:\Users\Mahito\Desktop\Night outing\Night-outing\src\xrCore\FS_Encript.cpp
_TEXT	SEGMENT
this$ = 64
ptr$ = 72
count$ = 80
?w_encrypt@CMemoryWriter@@UEAAXPEBXI@Z PROC		; CMemoryWriter::w_encrypt

; 36   : {

$LN231:
	push	rbx
	sub	rsp, 48					; 00000030H
; File C:\Users\Mahito\Desktop\Night outing\Night-outing\src\xrCore\xrMemory_subst_msvc.cpp

; 39   : 	stat_calls++;

	inc	DWORD PTR ?Memory@@3VxrMemory@@A
; File C:\Users\Mahito\Desktop\Night outing\Night-outing\src\xrCore\FS_Encript.cpp

; 36   : {

	mov	rbx, rcx
	mov	QWORD PTR [rsp+64], rbp
; File C:\Users\Mahito\Desktop\Night outing\Night-outing\src\xrCore\xrMemory_subst_msvc.cpp

; 45   : 		void* result = _aligned_malloc(size, PURE_MEMORY_ALIGNMENT);

	mov	edx, 16
; File C:\Users\Mahito\Desktop\Night outing\Night-outing\src\xrCore\FS_Encript.cpp

; 36   : {

	mov	QWORD PTR [rsp+88], r12
	mov	QWORD PTR [rsp+32], r15
; File C:\Users\Mahito\Desktop\Night outing\Night-outing\src\xrCore\xrMemory_subst_msvc.cpp

; 45   : 		void* result = _aligned_malloc(size, PURE_MEMORY_ALIGNMENT);

	mov	ecx, r8d
; File C:\Users\Mahito\Desktop\Night outing\Night-outing\src\xrCore\FS_Encript.cpp

; 36   : {

	mov	r15d, r8d
; File C:\Users\Mahito\Desktop\Night outing\Night-outing\src\xrCore\xrMemory_subst_msvc.cpp

; 45   : 		void* result = _aligned_malloc(size, PURE_MEMORY_ALIGNMENT);

	call	QWORD PTR __imp__aligned_malloc
	mov	rbp, rax

; 46   : #ifdef PURE_MEMORY_FILL_ZERO
; 47   : 		if (result)

	test	rax, rax
	je	SHORT $LN12@w_encrypt

; 48   : 			memset(result, 0, size);

	mov	r8d, r15d
	xor	edx, edx
	mov	rcx, rax
	call	memset
$LN12@w_encrypt:
; File C:\Users\Mahito\Desktop\Night outing\Night-outing\src\xrCore\FS_Encript.cpp

; 41   : 	encryptDecryptXOR(data_encript, count);

	mov	edx, r15d
	mov	rcx, rbp
	call	?encryptDecryptXOR@@YAXPEAEI@Z		; encryptDecryptXOR

; 42   : 
; 43   : 
; 44   : 	if (position + count > mem_size)

	mov	edx, DWORD PTR [rbx+48]
	mov	ecx, DWORD PTR [rbx+52]
	add	edx, r15d
	cmp	edx, ecx
	jbe	$LN7@w_encrypt

; 45   : 	{
; 46   : 		// reallocate
; 47   : 		if (mem_size == 0)

	mov	QWORD PTR [rsp+80], rdi
	mov	eax, ecx
	mov	QWORD PTR [rsp+40], r14
	test	ecx, ecx
	jne	SHORT $LN223@w_encrypt

; 48   : 			mem_size = 128;

	mov	ecx, 128				; 00000080H
	mov	DWORD PTR [rbx+52], ecx
	mov	eax, ecx
$LN223@w_encrypt:

; 49   : 		while (mem_size <= (position + count))

	cmp	ecx, edx
	ja	SHORT $LN3@w_encrypt
	npad	2
$LL2@w_encrypt:

; 50   : 			mem_size *= 2;

	lea	eax, DWORD PTR [rcx+rcx]
	mov	ecx, eax
	cmp	eax, edx
	jbe	SHORT $LL2@w_encrypt
	mov	DWORD PTR [rbx+52], eax
$LN3@w_encrypt:

; 51   : 
; 52   : 		if (0 == data)

	mov	r14, QWORD PTR [rbx+40]
	mov	edx, 16
	inc	DWORD PTR ?Memory@@3VxrMemory@@A
	mov	QWORD PTR [rsp+72], rsi
	mov	edi, eax
	test	r14, r14
	jne	SHORT $LN6@w_encrypt
; File C:\Users\Mahito\Desktop\Night outing\Night-outing\src\xrCore\xrMemory_subst_msvc.cpp

; 45   : 		void* result = _aligned_malloc(size, PURE_MEMORY_ALIGNMENT);

	mov	ecx, edi
	call	QWORD PTR __imp__aligned_malloc
	mov	rsi, rax

; 46   : #ifdef PURE_MEMORY_FILL_ZERO
; 47   : 		if (result)

	test	rax, rax
	je	SHORT $LN41@w_encrypt

; 48   : 			memset(result, 0, size);

	mov	r8d, edi
	xor	edx, edx
	mov	rcx, rax
	call	memset
$LN41@w_encrypt:
; File C:\Users\Mahito\Desktop\Night outing\Night-outing\src\xrCore\FS_Encript.cpp

; 53   : 			data = (BYTE*)Memory.mem_alloc(mem_size);

	mov	QWORD PTR [rbx+40], rsi
	jmp	SHORT $LN229@w_encrypt
$LN6@w_encrypt:
; File C:\Users\Mahito\Desktop\Night outing\Night-outing\src\xrCore\xrMemory_subst_msvc.cpp

; 143  : 		size_t old_size = P ? _aligned_msize(P, PURE_MEMORY_ALIGNMENT, 0) : 0;

	xor	r8d, r8d
	mov	rcx, r14
	call	QWORD PTR __imp__aligned_msize

; 144  : #endif // PURE_MEMORY_FILL_ZERO
; 145  : 
; 146  : 		//void* result = realloc(P, size);
; 147  : 		void* result = _aligned_realloc(P, size, PURE_MEMORY_ALIGNMENT);

	mov	r8d, 16
	mov	rdx, rdi
	mov	rcx, r14
	mov	rsi, rax
	call	QWORD PTR __imp__aligned_realloc
	mov	r14, rax

; 148  : 
; 149  : #ifdef PURE_MEMORY_FILL_ZERO
; 150  : 		if (result && size > old_size)

	test	rax, rax
	je	SHORT $LN74@w_encrypt
	cmp	rdi, rsi
	jbe	SHORT $LN74@w_encrypt

; 151  : 			memset((u8*)result + old_size, 0, size - old_size);

	sub	rdi, rsi
	lea	rcx, QWORD PTR [rax+rsi]
	mov	r8, rdi
	xor	edx, edx
	call	memset
$LN74@w_encrypt:
; File C:\Users\Mahito\Desktop\Night outing\Night-outing\src\xrCore\FS_Encript.cpp

; 55   : 			data = (BYTE*)Memory.mem_realloc(data, mem_size);

	mov	QWORD PTR [rbx+40], r14
$LN229@w_encrypt:
	mov	rsi, QWORD PTR [rsp+72]
	mov	rdi, QWORD PTR [rsp+80]
	mov	r14, QWORD PTR [rsp+40]
$LN7@w_encrypt:

; 56   : 	}
; 57   : 
; 58   : 	CopyMemory(data_encript + position, data_encript, count);

	mov	ecx, DWORD PTR [rbx+48]
	mov	r8, r15
	add	rcx, rbp
	mov	rdx, rbp
	call	memcpy

; 59   : 	position += count;

	mov	ecx, DWORD PTR [rbx+48]
	mov	r12, QWORD PTR [rsp+88]
	add	ecx, r15d
	mov	r15, QWORD PTR [rsp+32]
	mov	rbp, QWORD PTR [rsp+64]
	mov	DWORD PTR [rbx+48], ecx

; 60   : 	if (position > file_size)

	cmp	ecx, DWORD PTR [rbx+56]
	jbe	SHORT $LN8@w_encrypt

; 61   : 		file_size = position;

	mov	DWORD PTR [rbx+56], ecx
$LN8@w_encrypt:

; 62   : }

	add	rsp, 48					; 00000030H
	pop	rbx
	ret	0
?w_encrypt@CMemoryWriter@@UEAAXPEBXI@Z ENDP		; CMemoryWriter::w_encrypt
_TEXT	ENDS
; Function compile flags: /Ogtpy
; File C:\Users\Mahito\Desktop\Night outing\Night-outing\src\xrCore\FS_Encript.cpp
_TEXT	SEGMENT
byte$ = 8
?CheckForByte@@YA_NE@Z PROC				; CheckForByte

; 6    : 	if (0x0A == byte)

	cmp	cl, 10
	setne	al

; 7    : 		return false;
; 8    : 	else 
; 9    : 		return true;
; 10   : }

	ret	0
?CheckForByte@@YA_NE@Z ENDP				; CheckForByte
_TEXT	ENDS
; Function compile flags: /Ogtpy
; File C:\Program Files\Microsoft Visual Studio\2022\Community\VC\Tools\MSVC\14.35.32215\include\initializer_list
;	COMDAT ??0?$initializer_list@E@std@@QEAA@PEBE0@Z
_TEXT	SEGMENT
this$ = 8
_First_arg$ = 16
_Last_arg$ = 24
??0?$initializer_list@E@std@@QEAA@PEBE0@Z PROC		; std::initializer_list<unsigned char>::initializer_list<unsigned char>, COMDAT

; 35   :         : _First(_First_arg), _Last(_Last_arg) {}

	mov	QWORD PTR [rcx], rdx
	mov	rax, rcx
	mov	QWORD PTR [rcx+8], r8
	ret	0
??0?$initializer_list@E@std@@QEAA@PEBE0@Z ENDP		; std::initializer_list<unsigned char>::initializer_list<unsigned char>
_TEXT	ENDS
; Function compile flags: /Ogtpy
; File C:\Program Files\Microsoft Visual Studio\2022\Community\VC\Tools\MSVC\14.35.32215\include\vector
;	COMDAT ??A?$vector@EV?$allocator@E@std@@@std@@QEAAAEAE_K@Z
_TEXT	SEGMENT
this$ = 8
_Pos$ = 16
??A?$vector@EV?$allocator@E@std@@@std@@QEAAAEAE_K@Z PROC ; std::vector<unsigned char,std::allocator<unsigned char> >::operator[], COMDAT

; 1946 :         auto& _My_data = _Mypair._Myval2;
; 1947 : #if _CONTAINER_DEBUG_LEVEL > 0
; 1948 :         _STL_VERIFY(
; 1949 :             _Pos < static_cast<size_type>(_My_data._Mylast - _My_data._Myfirst), "vector subscript out of range");
; 1950 : #endif // _CONTAINER_DEBUG_LEVEL > 0
; 1951 : 
; 1952 :         return _My_data._Myfirst[_Pos];

	mov	rax, QWORD PTR [rcx]
	add	rax, rdx

; 1953 :     }

	ret	0
??A?$vector@EV?$allocator@E@std@@@std@@QEAAAEAE_K@Z ENDP ; std::vector<unsigned char,std::allocator<unsigned char> >::operator[]
_TEXT	ENDS
; Function compile flags: /Ogtpy
; File C:\Program Files\Microsoft Visual Studio\2022\Community\VC\Tools\MSVC\14.35.32215\include\vector
;	COMDAT ?size@?$vector@EV?$allocator@E@std@@@std@@QEBA_KXZ
_TEXT	SEGMENT
this$ = 8
?size@?$vector@EV?$allocator@E@std@@@std@@QEBA_KXZ PROC	; std::vector<unsigned char,std::allocator<unsigned char> >::size, COMDAT

; 1931 :         auto& _My_data = _Mypair._Myval2;
; 1932 :         return static_cast<size_type>(_My_data._Mylast - _My_data._Myfirst);

	mov	rax, QWORD PTR [rcx+8]
	sub	rax, QWORD PTR [rcx]

; 1933 :     }

	ret	0
?size@?$vector@EV?$allocator@E@std@@@std@@QEBA_KXZ ENDP	; std::vector<unsigned char,std::allocator<unsigned char> >::size
_TEXT	ENDS
; Function compile flags: /Ogtpy
; File C:\Program Files\Microsoft Visual Studio\2022\Community\VC\Tools\MSVC\14.35.32215\include\vector
; File C:\Program Files\Microsoft Visual Studio\2022\Community\VC\Tools\MSVC\14.35.32215\include\xmemory
; File C:\Program Files\Microsoft Visual Studio\2022\Community\VC\Tools\MSVC\14.35.32215\include\vector
; File C:\Program Files\Microsoft Visual Studio\2022\Community\VC\Tools\MSVC\14.35.32215\include\xmemory
; File C:\Program Files\Microsoft Visual Studio\2022\Community\VC\Tools\MSVC\14.35.32215\include\vector
;	COMDAT ??1?$vector@EV?$allocator@E@std@@@std@@QEAA@XZ
_TEXT	SEGMENT
this$ = 48
??1?$vector@EV?$allocator@E@std@@@std@@QEAA@XZ PROC	; std::vector<unsigned char,std::allocator<unsigned char> >::~vector<unsigned char,std::allocator<unsigned char> >, COMDAT

; 829  :     _CONSTEXPR20 ~vector() noexcept {

$LN27:
	push	rbx
	sub	rsp, 32					; 00000020H
	mov	rbx, rcx

; 2107 :         if (_Myfirst) { // destroy and deallocate old array

	mov	rcx, QWORD PTR [rcx]
	test	rcx, rcx
	je	SHORT $LN4@vector

; 2108 :             _Destroy_range(_Myfirst, _Mylast, _Al);
; 2109 :             _ASAN_VECTOR_REMOVE;
; 2110 :             _Al.deallocate(_Myfirst, static_cast<size_type>(_Myend - _Myfirst));

	mov	rdx, QWORD PTR [rbx+16]
	sub	rdx, rcx
; File C:\Program Files\Microsoft Visual Studio\2022\Community\VC\Tools\MSVC\14.35.32215\include\xmemory

; 251  :         if (_Bytes >= _Big_allocation_threshold) { // boost the alignment of big allocations to help autovectorization

	cmp	rdx, 4096				; 00001000H
	jb	SHORT $LN20@vector

; 150  :     const uintptr_t _Ptr_container   = _Ptr_user[-1];

	mov	r8, QWORD PTR [rcx-8]
	add	rdx, 39					; 00000027H

; 151  : 
; 152  :     // If the following asserts, it likely means that we are performing
; 153  :     // an aligned delete on memory coming from an unaligned allocation.
; 154  :     _STL_ASSERT(_Ptr_user[-2] == _Big_allocation_sentinel, "invalid argument");
; 155  : 
; 156  :     // Extra paranoia on aligned allocation/deallocation; ensure _Ptr_container is
; 157  :     // in range [_Min_back_shift, _Non_user_size]
; 158  : #ifdef _DEBUG
; 159  :     constexpr uintptr_t _Min_back_shift = 2 * sizeof(void*);
; 160  : #else // ^^^ _DEBUG ^^^ // vvv !_DEBUG vvv
; 161  :     constexpr uintptr_t _Min_back_shift = sizeof(void*);
; 162  : #endif // _DEBUG
; 163  :     const uintptr_t _Back_shift = reinterpret_cast<uintptr_t>(_Ptr) - _Ptr_container;

	sub	rcx, r8

; 164  :     _STL_VERIFY(_Back_shift >= _Min_back_shift && _Back_shift <= _Non_user_size, "invalid argument");

	lea	rax, QWORD PTR [rcx-8]
	cmp	rax, 31
	ja	SHORT $LN17@vector

; 165  :     _Ptr = reinterpret_cast<void*>(_Ptr_container);

	mov	rcx, r8
$LN20@vector:

; 255  :         ::operator delete(_Ptr, _Bytes);

	call	??3@YAXPEAX_K@Z				; operator delete
; File C:\Program Files\Microsoft Visual Studio\2022\Community\VC\Tools\MSVC\14.35.32215\include\vector

; 2112 :             _Myfirst = nullptr;

	xor	eax, eax
	mov	QWORD PTR [rbx], rax

; 2113 :             _Mylast  = nullptr;

	mov	QWORD PTR [rbx+8], rax

; 2114 :             _Myend   = nullptr;

	mov	QWORD PTR [rbx+16], rax
$LN4@vector:

; 835  :     }

	add	rsp, 32					; 00000020H
	pop	rbx
	ret	0
$LN17@vector:
; File C:\Program Files\Microsoft Visual Studio\2022\Community\VC\Tools\MSVC\14.35.32215\include\xmemory

; 164  :     _STL_VERIFY(_Back_shift >= _Min_back_shift && _Back_shift <= _Non_user_size, "invalid argument");

	call	QWORD PTR __imp__invalid_parameter_noinfo_noreturn
	int	3
$LN25@vector:
??1?$vector@EV?$allocator@E@std@@@std@@QEAA@XZ ENDP	; std::vector<unsigned char,std::allocator<unsigned char> >::~vector<unsigned char,std::allocator<unsigned char> >
_TEXT	ENDS
; Function compile flags: /Ogtpy
; File C:\Program Files\Microsoft Visual Studio\2022\Community\VC\Tools\MSVC\14.35.32215\include\vector
; File C:\Program Files\Microsoft Visual Studio\2022\Community\VC\Tools\MSVC\14.35.32215\include\initializer_list
; File C:\Program Files\Microsoft Visual Studio\2022\Community\VC\Tools\MSVC\14.35.32215\include\vector
; File C:\Program Files\Microsoft Visual Studio\2022\Community\VC\Tools\MSVC\14.35.32215\include\initializer_list
; File C:\Program Files\Microsoft Visual Studio\2022\Community\VC\Tools\MSVC\14.35.32215\include\vector
; File C:\Program Files\Microsoft Visual Studio\2022\Community\VC\Tools\MSVC\14.35.32215\include\initializer_list
; File C:\Program Files\Microsoft Visual Studio\2022\Community\VC\Tools\MSVC\14.35.32215\include\vector
; File C:\Program Files\Microsoft Visual Studio\2022\Community\VC\Tools\MSVC\14.35.32215\include\xmemory
; File C:\Program Files\Microsoft Visual Studio\2022\Community\VC\Tools\MSVC\14.35.32215\include\vector
; File C:\Program Files\Microsoft Visual Studio\2022\Community\VC\Tools\MSVC\14.35.32215\include\xutility
; File C:\Program Files\Microsoft Visual Studio\2022\Community\VC\Tools\MSVC\14.35.32215\include\vector
; File C:\Program Files\Microsoft Visual Studio\2022\Community\VC\Tools\MSVC\14.35.32215\include\xutility
; File C:\Program Files\Microsoft Visual Studio\2022\Community\VC\Tools\MSVC\14.35.32215\include\xmemory
; File C:\Program Files\Microsoft Visual Studio\2022\Community\VC\Tools\MSVC\14.35.32215\include\vector
; File C:\Program Files\Microsoft Visual Studio\2022\Community\VC\Tools\MSVC\14.35.32215\include\xutility
; File C:\Program Files\Microsoft Visual Studio\2022\Community\VC\Tools\MSVC\14.35.32215\include\xmemory
; File C:\Program Files\Microsoft Visual Studio\2022\Community\VC\Tools\MSVC\14.35.32215\include\vector
;	COMDAT ??0?$vector@EV?$allocator@E@std@@@std@@QEAA@V?$initializer_list@E@1@AEBV?$allocator@E@1@@Z
_TEXT	SEGMENT
this$ = 48
_Ilist$ = 56
_Al$dead$ = 64
??0?$vector@EV?$allocator@E@std@@@std@@QEAA@V?$initializer_list@E@1@AEBV?$allocator@E@1@@Z PROC ; std::vector<unsigned char,std::allocator<unsigned char> >::vector<unsigned char,std::allocator<unsigned char> >, COMDAT

; 720  :         : _Mypair(_One_then_variadic_args_t{}, _Al) {

$LN63:
	mov	QWORD PTR [rsp+16], rbp
	mov	QWORD PTR [rsp+24], rsi
	push	rdi
	sub	rsp, 32					; 00000020H
; File C:\Program Files\Microsoft Visual Studio\2022\Community\VC\Tools\MSVC\14.35.32215\include\initializer_list

; 46   :         return static_cast<size_t>(_Last - _First);

	mov	rbp, QWORD PTR [rdx]
; File C:\Program Files\Microsoft Visual Studio\2022\Community\VC\Tools\MSVC\14.35.32215\include\vector

; 390  :     _CONSTEXPR20 _Vector_val() noexcept : _Myfirst(), _Mylast(), _Myend() {}

	xor	eax, eax
; File C:\Program Files\Microsoft Visual Studio\2022\Community\VC\Tools\MSVC\14.35.32215\include\initializer_list

; 46   :         return static_cast<size_t>(_Last - _First);

	mov	rsi, QWORD PTR [rdx+8]
; File C:\Program Files\Microsoft Visual Studio\2022\Community\VC\Tools\MSVC\14.35.32215\include\vector

; 720  :         : _Mypair(_One_then_variadic_args_t{}, _Al) {

	mov	rdi, rcx

; 390  :     _CONSTEXPR20 _Vector_val() noexcept : _Myfirst(), _Mylast(), _Myend() {}

	mov	QWORD PTR [rcx], rax
	mov	QWORD PTR [rcx+8], rax
	mov	QWORD PTR [rcx+16], rax
; File C:\Program Files\Microsoft Visual Studio\2022\Community\VC\Tools\MSVC\14.35.32215\include\initializer_list

; 46   :         return static_cast<size_t>(_Last - _First);

	sub	rsi, rbp
; File C:\Program Files\Microsoft Visual Studio\2022\Community\VC\Tools\MSVC\14.35.32215\include\vector

; 2128 :         if (_Count != 0) {

	je	SHORT $LN37@vector

; 2069 :         if (_Newcapacity > max_size()) {

	mov	rax, 9223372036854775807		; 7fffffffffffffffH
	cmp	rsi, rax
	ja	SHORT $LN61@vector
; File C:\Program Files\Microsoft Visual Studio\2022\Community\VC\Tools\MSVC\14.35.32215\include\xmemory

; 834  :         return static_cast<_Ty*>(_Allocate<_New_alignof<_Ty>>(_Get_size_of_n<sizeof(_Ty)>(_Count)));

	mov	rcx, rsi
	mov	QWORD PTR [rsp+48], rbx
	call	??$_Allocate@$0BA@U_Default_allocate_traits@std@@$0A@@std@@YAPEAX_K@Z ; std::_Allocate<16,std::_Default_allocate_traits,0>
; File C:\Program Files\Microsoft Visual Studio\2022\Community\VC\Tools\MSVC\14.35.32215\include\vector

; 2053 :         _Myfirst           = _Newvec;

	mov	QWORD PTR [rdi], rax
; File C:\Program Files\Microsoft Visual Studio\2022\Community\VC\Tools\MSVC\14.35.32215\include\xutility

; 4239 :     _CSTD memmove(_Dest_ch, _First_ch, _Count);

	mov	r8, rsi
; File C:\Program Files\Microsoft Visual Studio\2022\Community\VC\Tools\MSVC\14.35.32215\include\vector

; 2054 :         _Mylast            = _Newvec;

	mov	QWORD PTR [rdi+8], rax
; File C:\Program Files\Microsoft Visual Studio\2022\Community\VC\Tools\MSVC\14.35.32215\include\xutility

; 4239 :     _CSTD memmove(_Dest_ch, _First_ch, _Count);

	mov	rdx, rbp
; File C:\Program Files\Microsoft Visual Studio\2022\Community\VC\Tools\MSVC\14.35.32215\include\xmemory

; 834  :         return static_cast<_Ty*>(_Allocate<_New_alignof<_Ty>>(_Get_size_of_n<sizeof(_Ty)>(_Count)));

	mov	rbx, rax
; File C:\Program Files\Microsoft Visual Studio\2022\Community\VC\Tools\MSVC\14.35.32215\include\vector

; 2055 :         _Myend             = _Newvec + _Newcapacity;

	lea	rcx, QWORD PTR [rax+rsi]
	mov	QWORD PTR [rdi+16], rcx
; File C:\Program Files\Microsoft Visual Studio\2022\Community\VC\Tools\MSVC\14.35.32215\include\xutility

; 4239 :     _CSTD memmove(_Dest_ch, _First_ch, _Count);

	mov	rcx, rax
	call	memmove
; File C:\Program Files\Microsoft Visual Studio\2022\Community\VC\Tools\MSVC\14.35.32215\include\xmemory

; 1702 :                 _Dest += _ULast - _UFirst;

	lea	rax, QWORD PTR [rsi+rbx]
; File C:\Program Files\Microsoft Visual Studio\2022\Community\VC\Tools\MSVC\14.35.32215\include\vector

; 2137 :                 _My_data._Mylast = _Uninitialized_copy(_STD forward<_Valty>(_Val)..., _My_data._Myfirst, _Al);

	mov	rbx, QWORD PTR [rsp+48]
	mov	QWORD PTR [rdi+8], rax
$LN37@vector:

; 721  :         _Construct_n(_Convert_size<size_type>(_Ilist.size()), _Ilist.begin(), _Ilist.end());
; 722  :     }

	mov	rbp, QWORD PTR [rsp+56]
	mov	rax, rdi
	mov	rsi, QWORD PTR [rsp+64]
	add	rsp, 32					; 00000020H
	pop	rdi
	ret	0
$LN61@vector:

; 2070 :             _Xlength();

	call	?_Xlength@?$vector@EV?$allocator@E@std@@@std@@CAXXZ ; std::vector<unsigned char,std::allocator<unsigned char> >::_Xlength
	int	3
$LN59@vector:
??0?$vector@EV?$allocator@E@std@@@std@@QEAA@V?$initializer_list@E@1@AEBV?$allocator@E@1@@Z ENDP ; std::vector<unsigned char,std::allocator<unsigned char> >::vector<unsigned char,std::allocator<unsigned char> >
_TEXT	ENDS
; Function compile flags: /Ogtpy
; File C:\Program Files\Microsoft Visual Studio\2022\Community\VC\Tools\MSVC\14.35.32215\include\xmemory
;	COMDAT ??0?$allocator@E@std@@QEAA@XZ
_TEXT	SEGMENT
this$ = 8
??0?$allocator@E@std@@QEAA@XZ PROC			; std::allocator<unsigned char>::allocator<unsigned char>, COMDAT

; 818  :     constexpr allocator() noexcept {}

	mov	rax, rcx
	ret	0
??0?$allocator@E@std@@QEAA@XZ ENDP			; std::allocator<unsigned char>::allocator<unsigned char>
_TEXT	ENDS
; Function compile flags: /Ogtpy
; File C:\Program Files\Microsoft Visual Studio\2022\Community\VC\Tools\MSVC\14.35.32215\include\initializer_list
;	COMDAT ?size@?$initializer_list@E@std@@QEBA_KXZ
_TEXT	SEGMENT
this$ = 8
?size@?$initializer_list@E@std@@QEBA_KXZ PROC		; std::initializer_list<unsigned char>::size, COMDAT

; 46   :         return static_cast<size_t>(_Last - _First);

	mov	rax, QWORD PTR [rcx+8]
	sub	rax, QWORD PTR [rcx]

; 47   :     }

	ret	0
?size@?$initializer_list@E@std@@QEBA_KXZ ENDP		; std::initializer_list<unsigned char>::size
_TEXT	ENDS
; Function compile flags: /Ogtpy
; File C:\Program Files\Microsoft Visual Studio\2022\Community\VC\Tools\MSVC\14.35.32215\include\initializer_list
;	COMDAT ?end@?$initializer_list@E@std@@QEBAPEBEXZ
_TEXT	SEGMENT
this$ = 8
?end@?$initializer_list@E@std@@QEBAPEBEXZ PROC		; std::initializer_list<unsigned char>::end, COMDAT

; 42   :         return _Last;

	mov	rax, QWORD PTR [rcx+8]

; 43   :     }

	ret	0
?end@?$initializer_list@E@std@@QEBAPEBEXZ ENDP		; std::initializer_list<unsigned char>::end
_TEXT	ENDS
; Function compile flags: /Ogtpy
; File C:\Program Files\Microsoft Visual Studio\2022\Community\VC\Tools\MSVC\14.35.32215\include\initializer_list
;	COMDAT ?begin@?$initializer_list@E@std@@QEBAPEBEXZ
_TEXT	SEGMENT
this$ = 8
?begin@?$initializer_list@E@std@@QEBAPEBEXZ PROC	; std::initializer_list<unsigned char>::begin, COMDAT

; 38   :         return _First;

	mov	rax, QWORD PTR [rcx]

; 39   :     }

	ret	0
?begin@?$initializer_list@E@std@@QEBAPEBEXZ ENDP	; std::initializer_list<unsigned char>::begin
_TEXT	ENDS
; Function compile flags: /Ogtpy
; File C:\Program Files\Microsoft Visual Studio\2022\Community\VC\Tools\MSVC\14.35.32215\include\vector
; File C:\Program Files\Microsoft Visual Studio\2022\Community\VC\Tools\MSVC\14.35.32215\include\xmemory
; File C:\Program Files\Microsoft Visual Studio\2022\Community\VC\Tools\MSVC\14.35.32215\include\vector
; File C:\Program Files\Microsoft Visual Studio\2022\Community\VC\Tools\MSVC\14.35.32215\include\xmemory
; File C:\Program Files\Microsoft Visual Studio\2022\Community\VC\Tools\MSVC\14.35.32215\include\vector
;	COMDAT ?_Tidy@?$vector@EV?$allocator@E@std@@@std@@AEAAXXZ
_TEXT	SEGMENT
this$ = 48
?_Tidy@?$vector@EV?$allocator@E@std@@@std@@AEAAXXZ PROC	; std::vector<unsigned char,std::allocator<unsigned char> >::_Tidy, COMDAT

; 2098 :     _CONSTEXPR20 void _Tidy() noexcept { // free all storage

$LN24:
	push	rbx
	sub	rsp, 32					; 00000020H
	mov	rbx, rcx

; 2099 :         auto& _Al         = _Getal();
; 2100 :         auto& _My_data    = _Mypair._Myval2;
; 2101 :         pointer& _Myfirst = _My_data._Myfirst;
; 2102 :         pointer& _Mylast  = _My_data._Mylast;
; 2103 :         pointer& _Myend   = _My_data._Myend;
; 2104 : 
; 2105 :         _My_data._Orphan_all();
; 2106 : 
; 2107 :         if (_Myfirst) { // destroy and deallocate old array

	mov	rcx, QWORD PTR [rcx]
	test	rcx, rcx
	je	SHORT $LN2@Tidy

; 2108 :             _Destroy_range(_Myfirst, _Mylast, _Al);
; 2109 :             _ASAN_VECTOR_REMOVE;
; 2110 :             _Al.deallocate(_Myfirst, static_cast<size_type>(_Myend - _Myfirst));

	mov	rdx, QWORD PTR [rbx+16]
	sub	rdx, rcx
; File C:\Program Files\Microsoft Visual Studio\2022\Community\VC\Tools\MSVC\14.35.32215\include\xmemory

; 251  :         if (_Bytes >= _Big_allocation_threshold) { // boost the alignment of big allocations to help autovectorization

	cmp	rdx, 4096				; 00001000H
	jb	SHORT $LN18@Tidy

; 150  :     const uintptr_t _Ptr_container   = _Ptr_user[-1];

	mov	r8, QWORD PTR [rcx-8]
	add	rdx, 39					; 00000027H

; 151  : 
; 152  :     // If the following asserts, it likely means that we are performing
; 153  :     // an aligned delete on memory coming from an unaligned allocation.
; 154  :     _STL_ASSERT(_Ptr_user[-2] == _Big_allocation_sentinel, "invalid argument");
; 155  : 
; 156  :     // Extra paranoia on aligned allocation/deallocation; ensure _Ptr_container is
; 157  :     // in range [_Min_back_shift, _Non_user_size]
; 158  : #ifdef _DEBUG
; 159  :     constexpr uintptr_t _Min_back_shift = 2 * sizeof(void*);
; 160  : #else // ^^^ _DEBUG ^^^ // vvv !_DEBUG vvv
; 161  :     constexpr uintptr_t _Min_back_shift = sizeof(void*);
; 162  : #endif // _DEBUG
; 163  :     const uintptr_t _Back_shift = reinterpret_cast<uintptr_t>(_Ptr) - _Ptr_container;

	sub	rcx, r8

; 164  :     _STL_VERIFY(_Back_shift >= _Min_back_shift && _Back_shift <= _Non_user_size, "invalid argument");

	lea	rax, QWORD PTR [rcx-8]
	cmp	rax, 31
	ja	SHORT $LN15@Tidy

; 165  :     _Ptr = reinterpret_cast<void*>(_Ptr_container);

	mov	rcx, r8
$LN18@Tidy:

; 255  :         ::operator delete(_Ptr, _Bytes);

	call	??3@YAXPEAX_K@Z				; operator delete
; File C:\Program Files\Microsoft Visual Studio\2022\Community\VC\Tools\MSVC\14.35.32215\include\vector

; 2112 :             _Myfirst = nullptr;

	xor	eax, eax
	mov	QWORD PTR [rbx], rax

; 2113 :             _Mylast  = nullptr;

	mov	QWORD PTR [rbx+8], rax

; 2114 :             _Myend   = nullptr;

	mov	QWORD PTR [rbx+16], rax
$LN2@Tidy:

; 2116 :     }

	add	rsp, 32					; 00000020H
	pop	rbx
	ret	0
$LN15@Tidy:
; File C:\Program Files\Microsoft Visual Studio\2022\Community\VC\Tools\MSVC\14.35.32215\include\xmemory

; 164  :     _STL_VERIFY(_Back_shift >= _Min_back_shift && _Back_shift <= _Non_user_size, "invalid argument");

	call	QWORD PTR __imp__invalid_parameter_noinfo_noreturn
	int	3
$LN22@Tidy:
?_Tidy@?$vector@EV?$allocator@E@std@@@std@@AEAAXXZ ENDP	; std::vector<unsigned char,std::allocator<unsigned char> >::_Tidy
_TEXT	ENDS
; Function compile flags: /Ogtpy
; File C:\Program Files\Microsoft Visual Studio\2022\Community\VC\Tools\MSVC\14.35.32215\include\vector
;	COMDAT ?_Getal@?$vector@EV?$allocator@E@std@@@std@@AEAAAEAV?$allocator@E@2@XZ
_TEXT	SEGMENT
this$ = 8
?_Getal@?$vector@EV?$allocator@E@std@@@std@@AEAAAEAV?$allocator@E@2@XZ PROC ; std::vector<unsigned char,std::allocator<unsigned char> >::_Getal, COMDAT

; 2244 :         return _Mypair._Get_first();

	mov	rax, rcx

; 2245 :     }

	ret	0
?_Getal@?$vector@EV?$allocator@E@std@@@std@@AEAAAEAV?$allocator@E@2@XZ ENDP ; std::vector<unsigned char,std::allocator<unsigned char> >::_Getal
_TEXT	ENDS
; Function compile flags: /Ogtpy
; File C:\Program Files\Microsoft Visual Studio\2022\Community\VC\Tools\MSVC\14.35.32215\include\xmemory
;	COMDAT ?deallocate@?$allocator@E@std@@QEAAXQEAE_K@Z
_TEXT	SEGMENT
this$dead$ = 48
_Ptr$ = 56
_Count$ = 64
?deallocate@?$allocator@E@std@@QEAAXQEAE_K@Z PROC	; std::allocator<unsigned char>::deallocate, COMDAT

; 826  :     _CONSTEXPR20 void deallocate(_Ty* const _Ptr, const size_t _Count) {

$LN20:
	sub	rsp, 40					; 00000028H
	mov	rax, rdx

; 251  :         if (_Bytes >= _Big_allocation_threshold) { // boost the alignment of big allocations to help autovectorization

	cmp	r8, 4096				; 00001000H
	jb	SHORT $LN15@deallocate

; 150  :     const uintptr_t _Ptr_container   = _Ptr_user[-1];

	mov	rcx, QWORD PTR [rdx-8]
	add	r8, 39					; 00000027H

; 151  : 
; 152  :     // If the following asserts, it likely means that we are performing
; 153  :     // an aligned delete on memory coming from an unaligned allocation.
; 154  :     _STL_ASSERT(_Ptr_user[-2] == _Big_allocation_sentinel, "invalid argument");
; 155  : 
; 156  :     // Extra paranoia on aligned allocation/deallocation; ensure _Ptr_container is
; 157  :     // in range [_Min_back_shift, _Non_user_size]
; 158  : #ifdef _DEBUG
; 159  :     constexpr uintptr_t _Min_back_shift = 2 * sizeof(void*);
; 160  : #else // ^^^ _DEBUG ^^^ // vvv !_DEBUG vvv
; 161  :     constexpr uintptr_t _Min_back_shift = sizeof(void*);
; 162  : #endif // _DEBUG
; 163  :     const uintptr_t _Back_shift = reinterpret_cast<uintptr_t>(_Ptr) - _Ptr_container;

	sub	rax, rcx

; 164  :     _STL_VERIFY(_Back_shift >= _Min_back_shift && _Back_shift <= _Non_user_size, "invalid argument");

	add	rax, -8
	cmp	rax, 31
	ja	SHORT $LN12@deallocate

; 165  :     _Ptr = reinterpret_cast<void*>(_Ptr_container);

	mov	rax, rcx
$LN15@deallocate:

; 255  :         ::operator delete(_Ptr, _Bytes);

	mov	rdx, r8
	mov	rcx, rax

; 827  :         _STL_ASSERT(_Ptr != nullptr || _Count == 0, "null pointer cannot point to a block of non-zero size");
; 828  :         // no overflow check on the following multiply; we assume _Allocate did that check
; 829  :         _Deallocate<_New_alignof<_Ty>>(_Ptr, sizeof(_Ty) * _Count);
; 830  :     }

	add	rsp, 40					; 00000028H

; 255  :         ::operator delete(_Ptr, _Bytes);

	jmp	??3@YAXPEAX_K@Z				; operator delete
$LN12@deallocate:

; 164  :     _STL_VERIFY(_Back_shift >= _Min_back_shift && _Back_shift <= _Non_user_size, "invalid argument");

	call	QWORD PTR __imp__invalid_parameter_noinfo_noreturn
	int	3
$LN18@deallocate:
?deallocate@?$allocator@E@std@@QEAAXQEAE_K@Z ENDP	; std::allocator<unsigned char>::deallocate
_TEXT	ENDS
; Function compile flags: /Ogtpy
; File C:\Program Files\Microsoft Visual Studio\2022\Community\VC\Tools\MSVC\14.35.32215\include\xmemory
;	COMDAT ?_Get_first@?$_Compressed_pair@V?$allocator@E@std@@V?$_Vector_val@U?$_Simple_types@E@std@@@2@$00@std@@QEAAAEAV?$allocator@E@2@XZ
_TEXT	SEGMENT
this$ = 8
?_Get_first@?$_Compressed_pair@V?$allocator@E@std@@V?$_Vector_val@U?$_Simple_types@E@std@@@2@$00@std@@QEAAAEAV?$allocator@E@2@XZ PROC ; std::_Compressed_pair<std::allocator<unsigned char>,std::_Vector_val<std::_Simple_types<unsigned char> >,1>::_Get_first, COMDAT

; 1383 :         return *this;

	mov	rax, rcx

; 1384 :     }

	ret	0
?_Get_first@?$_Compressed_pair@V?$allocator@E@std@@V?$_Vector_val@U?$_Simple_types@E@std@@@2@$00@std@@QEAAAEAV?$allocator@E@2@XZ ENDP ; std::_Compressed_pair<std::allocator<unsigned char>,std::_Vector_val<std::_Simple_types<unsigned char> >,1>::_Get_first
_TEXT	ENDS
; Function compile flags: /Ogtpy
; File C:\Program Files\Microsoft Visual Studio\2022\Community\VC\Tools\MSVC\14.35.32215\include\xmemory
; File C:\Program Files\Microsoft Visual Studio\2022\Community\VC\Tools\MSVC\14.35.32215\include\vector
; File C:\Program Files\Microsoft Visual Studio\2022\Community\VC\Tools\MSVC\14.35.32215\include\xmemory
;	COMDAT ??$?0AEBV?$allocator@E@std@@$$V@?$_Compressed_pair@V?$allocator@E@std@@V?$_Vector_val@U?$_Simple_types@E@std@@@2@$00@std@@QEAA@U_One_then_variadic_args_t@1@AEBV?$allocator@E@1@@Z
_TEXT	SEGMENT
this$ = 8
__formal$dead$ = 16
_Val1$dead$ = 24
??$?0AEBV?$allocator@E@std@@$$V@?$_Compressed_pair@V?$allocator@E@std@@V?$_Vector_val@U?$_Simple_types@E@std@@@2@$00@std@@QEAA@U_One_then_variadic_args_t@1@AEBV?$allocator@E@1@@Z PROC ; std::_Compressed_pair<std::allocator<unsigned char>,std::_Vector_val<std::_Simple_types<unsigned char> >,1>::_Compressed_pair<std::allocator<unsigned char>,std::_Vector_val<std::_Simple_types<unsigned char> >,1><std::allocator<unsigned char> const &>, COMDAT
; File C:\Program Files\Microsoft Visual Studio\2022\Community\VC\Tools\MSVC\14.35.32215\include\vector

; 390  :     _CONSTEXPR20 _Vector_val() noexcept : _Myfirst(), _Mylast(), _Myend() {}

	xor	eax, eax
	mov	QWORD PTR [rcx], rax
	mov	QWORD PTR [rcx+8], rax
	mov	QWORD PTR [rcx+16], rax
; File C:\Program Files\Microsoft Visual Studio\2022\Community\VC\Tools\MSVC\14.35.32215\include\xmemory

; 1380 :         : _Ty1(_STD forward<_Other1>(_Val1)), _Myval2(_STD forward<_Other2>(_Val2)...) {}

	mov	rax, rcx
	ret	0
??$?0AEBV?$allocator@E@std@@$$V@?$_Compressed_pair@V?$allocator@E@std@@V?$_Vector_val@U?$_Simple_types@E@std@@@2@$00@std@@QEAA@U_One_then_variadic_args_t@1@AEBV?$allocator@E@1@@Z ENDP ; std::_Compressed_pair<std::allocator<unsigned char>,std::_Vector_val<std::_Simple_types<unsigned char> >,1>::_Compressed_pair<std::allocator<unsigned char>,std::_Vector_val<std::_Simple_types<unsigned char> >,1><std::allocator<unsigned char> const &>
_TEXT	ENDS
; Function compile flags: /Ogtpy
; File C:\Program Files\Microsoft Visual Studio\2022\Community\VC\Tools\MSVC\14.35.32215\include\vector
; File C:\Program Files\Microsoft Visual Studio\2022\Community\VC\Tools\MSVC\14.35.32215\include\xmemory
; File C:\Program Files\Microsoft Visual Studio\2022\Community\VC\Tools\MSVC\14.35.32215\include\vector
; File C:\Program Files\Microsoft Visual Studio\2022\Community\VC\Tools\MSVC\14.35.32215\include\xmemory
; File C:\Program Files\Microsoft Visual Studio\2022\Community\VC\Tools\MSVC\14.35.32215\include\vector
; File C:\Program Files\Microsoft Visual Studio\2022\Community\VC\Tools\MSVC\14.35.32215\include\xutility
; File C:\Program Files\Microsoft Visual Studio\2022\Community\VC\Tools\MSVC\14.35.32215\include\vector
; File C:\Program Files\Microsoft Visual Studio\2022\Community\VC\Tools\MSVC\14.35.32215\include\xmemory
; File C:\Program Files\Microsoft Visual Studio\2022\Community\VC\Tools\MSVC\14.35.32215\include\vector
;	COMDAT ??$_Construct_n@PEBEPEBE@?$vector@EV?$allocator@E@std@@@std@@AEAAX_K$$QEAPEBE1@Z
_TEXT	SEGMENT
this$ = 48
_Count$ = 56
<_Val_0>$ = 64
<_Val_1>$ = 72
??$_Construct_n@PEBEPEBE@?$vector@EV?$allocator@E@std@@@std@@AEAAX_K$$QEAPEBE1@Z PROC ; std::vector<unsigned char,std::allocator<unsigned char> >::_Construct_n<unsigned char const *,unsigned char const *>, COMDAT

; 2119 :     _CONSTEXPR20 void _Construct_n(_CRT_GUARDOVERFLOW const size_type _Count, _Valty&&... _Val) {

$LN55:

; 2120 :         // Dispatches between the three sized constructions.
; 2121 :         // 1-arg -> value-construction, e.g. vector(5)
; 2122 :         // 2-arg -> fill, e.g. vector(5, "meow")
; 2123 :         // 3-arg -> sized range construction, e.g. vector{"Hello", "Fluffy", "World"}
; 2124 :         auto& _Al       = _Getal();
; 2125 :         auto&& _Alproxy = _GET_PROXY_ALLOCATOR(_Alty, _Al);
; 2126 :         auto& _My_data  = _Mypair._Myval2;
; 2127 :         _Container_proxy_ptr<_Alty> _Proxy(_Alproxy, _My_data);
; 2128 :         if (_Count != 0) {

	test	rdx, rdx
	je	$LN51@Construct_
	mov	QWORD PTR [rsp+16], rbx
	mov	QWORD PTR [rsp+24], rsi
	mov	QWORD PTR [rsp+32], r14
	push	r15
	sub	rsp, 32					; 00000020H

; 2069 :         if (_Newcapacity > max_size()) {

	mov	rax, 9223372036854775807		; 7fffffffffffffffH

; 2119 :     _CONSTEXPR20 void _Construct_n(_CRT_GUARDOVERFLOW const size_type _Count, _Valty&&... _Val) {

	mov	r14, r9
	mov	r15, r8
	mov	rbx, rdx
	mov	rsi, rcx

; 2069 :         if (_Newcapacity > max_size()) {

	cmp	rdx, rax
	ja	SHORT $LN53@Construct_
; File C:\Program Files\Microsoft Visual Studio\2022\Community\VC\Tools\MSVC\14.35.32215\include\xmemory

; 834  :         return static_cast<_Ty*>(_Allocate<_New_alignof<_Ty>>(_Get_size_of_n<sizeof(_Ty)>(_Count)));

	mov	rcx, rdx
	mov	QWORD PTR [rsp+48], rdi
	call	??$_Allocate@$0BA@U_Default_allocate_traits@std@@$0A@@std@@YAPEAX_K@Z ; std::_Allocate<16,std::_Default_allocate_traits,0>
; File C:\Program Files\Microsoft Visual Studio\2022\Community\VC\Tools\MSVC\14.35.32215\include\vector

; 2053 :         _Myfirst           = _Newvec;

	mov	QWORD PTR [rsi], rax
; File C:\Program Files\Microsoft Visual Studio\2022\Community\VC\Tools\MSVC\14.35.32215\include\xmemory

; 834  :         return static_cast<_Ty*>(_Allocate<_New_alignof<_Ty>>(_Get_size_of_n<sizeof(_Ty)>(_Count)));

	mov	rdi, rax
; File C:\Program Files\Microsoft Visual Studio\2022\Community\VC\Tools\MSVC\14.35.32215\include\vector

; 2054 :         _Mylast            = _Newvec;

	mov	QWORD PTR [rsi+8], rax

; 2055 :         _Myend             = _Newvec + _Newcapacity;

	lea	rcx, QWORD PTR [rax+rbx]
	mov	QWORD PTR [rsi+16], rcx
; File C:\Program Files\Microsoft Visual Studio\2022\Community\VC\Tools\MSVC\14.35.32215\include\xutility

; 4239 :     _CSTD memmove(_Dest_ch, _First_ch, _Count);

	mov	rcx, rax
	mov	rdx, QWORD PTR [r15]
	mov	rbx, QWORD PTR [r14]
	sub	rbx, rdx
	mov	r8, rbx
	call	memmove
; File C:\Program Files\Microsoft Visual Studio\2022\Community\VC\Tools\MSVC\14.35.32215\include\vector

; 2146 :     }

	mov	r14, QWORD PTR [rsp+72]
; File C:\Program Files\Microsoft Visual Studio\2022\Community\VC\Tools\MSVC\14.35.32215\include\xmemory

; 1702 :                 _Dest += _ULast - _UFirst;

	lea	rax, QWORD PTR [rbx+rdi]
; File C:\Program Files\Microsoft Visual Studio\2022\Community\VC\Tools\MSVC\14.35.32215\include\vector

; 2137 :                 _My_data._Mylast = _Uninitialized_copy(_STD forward<_Valty>(_Val)..., _My_data._Myfirst, _Al);

	mov	rdi, QWORD PTR [rsp+48]

; 2146 :     }

	mov	rbx, QWORD PTR [rsp+56]
	mov	QWORD PTR [rsi+8], rax
	mov	rsi, QWORD PTR [rsp+64]
	add	rsp, 32					; 00000020H
	pop	r15
$LN51@Construct_:
	ret	0
$LN53@Construct_:

; 2070 :             _Xlength();

	call	?_Xlength@?$vector@EV?$allocator@E@std@@@std@@CAXXZ ; std::vector<unsigned char,std::allocator<unsigned char> >::_Xlength
	int	3
$LN50@Construct_:
??$_Construct_n@PEBEPEBE@?$vector@EV?$allocator@E@std@@@std@@AEAAX_K$$QEAPEBE1@Z ENDP ; std::vector<unsigned char,std::allocator<unsigned char> >::_Construct_n<unsigned char const *,unsigned char const *>
_TEXT	ENDS
; Function compile flags: /Ogtpy
; File C:\Program Files\Microsoft Visual Studio\2022\Community\VC\Tools\MSVC\14.35.32215\include\xmemory
;	COMDAT ??$_Destroy_range@V?$allocator@E@std@@@std@@YAXPEAEQEAEAEAV?$allocator@E@0@@Z
_TEXT	SEGMENT
_First$dead$ = 8
_Last$dead$ = 16
_Al$dead$ = 24
??$_Destroy_range@V?$allocator@E@std@@@std@@YAXPEAEQEAEAEAV?$allocator@E@0@@Z PROC ; std::_Destroy_range<std::allocator<unsigned char> >, COMDAT

; 943  :     // note that this is an optimization for debug mode codegen; in release mode the BE removes all of this
; 944  :     using _Ty = typename _Alloc::value_type;
; 945  :     if constexpr (!conjunction_v<is_trivially_destructible<_Ty>, _Uses_default_destroy<_Alloc, _Ty*>>) {
; 946  :         for (; _First != _Last; ++_First) {
; 947  :             allocator_traits<_Alloc>::destroy(_Al, _Unfancy(_First));
; 948  :         }
; 949  :     }
; 950  : }

	ret	0
??$_Destroy_range@V?$allocator@E@std@@@std@@YAXPEAEQEAEAEAV?$allocator@E@0@@Z ENDP ; std::_Destroy_range<std::allocator<unsigned char> >
_TEXT	ENDS
; Function compile flags: /Ogtpy
; File C:\Program Files\Microsoft Visual Studio\2022\Community\VC\Tools\MSVC\14.35.32215\include\xmemory
; File C:\Program Files\Microsoft Visual Studio\2022\Community\VC\Tools\MSVC\14.35.32215\include\vector
; File C:\Program Files\Microsoft Visual Studio\2022\Community\VC\Tools\MSVC\14.35.32215\include\xmemory
; File C:\Program Files\Microsoft Visual Studio\2022\Community\VC\Tools\MSVC\14.35.32215\include\vector
; File C:\Program Files\Microsoft Visual Studio\2022\Community\VC\Tools\MSVC\14.35.32215\include\xmemory
;	COMDAT ??1?$_Tidy_guard@V?$vector@EV?$allocator@E@std@@@std@@@std@@QEAA@XZ
_TEXT	SEGMENT
this$ = 48
??1?$_Tidy_guard@V?$vector@EV?$allocator@E@std@@@std@@@std@@QEAA@XZ PROC ; std::_Tidy_guard<std::vector<unsigned char,std::allocator<unsigned char> > >::~_Tidy_guard<std::vector<unsigned char,std::allocator<unsigned char> > >, COMDAT

; 33   :     _CONSTEXPR20 ~_Tidy_guard() {

$LN28:
	push	rbx
	sub	rsp, 32					; 00000020H

; 34   :         if (_Target) {

	mov	rbx, QWORD PTR [rcx]
	test	rbx, rbx
	je	SHORT $LN5@Tidy_guard
; File C:\Program Files\Microsoft Visual Studio\2022\Community\VC\Tools\MSVC\14.35.32215\include\vector

; 2107 :         if (_Myfirst) { // destroy and deallocate old array

	mov	rcx, QWORD PTR [rbx]
	test	rcx, rcx
	je	SHORT $LN5@Tidy_guard

; 2108 :             _Destroy_range(_Myfirst, _Mylast, _Al);
; 2109 :             _ASAN_VECTOR_REMOVE;
; 2110 :             _Al.deallocate(_Myfirst, static_cast<size_type>(_Myend - _Myfirst));

	mov	rdx, QWORD PTR [rbx+16]
	sub	rdx, rcx
; File C:\Program Files\Microsoft Visual Studio\2022\Community\VC\Tools\MSVC\14.35.32215\include\xmemory

; 251  :         if (_Bytes >= _Big_allocation_threshold) { // boost the alignment of big allocations to help autovectorization

	cmp	rdx, 4096				; 00001000H
	jb	SHORT $LN21@Tidy_guard

; 150  :     const uintptr_t _Ptr_container   = _Ptr_user[-1];

	mov	r8, QWORD PTR [rcx-8]
	add	rdx, 39					; 00000027H

; 151  : 
; 152  :     // If the following asserts, it likely means that we are performing
; 153  :     // an aligned delete on memory coming from an unaligned allocation.
; 154  :     _STL_ASSERT(_Ptr_user[-2] == _Big_allocation_sentinel, "invalid argument");
; 155  : 
; 156  :     // Extra paranoia on aligned allocation/deallocation; ensure _Ptr_container is
; 157  :     // in range [_Min_back_shift, _Non_user_size]
; 158  : #ifdef _DEBUG
; 159  :     constexpr uintptr_t _Min_back_shift = 2 * sizeof(void*);
; 160  : #else // ^^^ _DEBUG ^^^ // vvv !_DEBUG vvv
; 161  :     constexpr uintptr_t _Min_back_shift = sizeof(void*);
; 162  : #endif // _DEBUG
; 163  :     const uintptr_t _Back_shift = reinterpret_cast<uintptr_t>(_Ptr) - _Ptr_container;

	sub	rcx, r8

; 164  :     _STL_VERIFY(_Back_shift >= _Min_back_shift && _Back_shift <= _Non_user_size, "invalid argument");

	lea	rax, QWORD PTR [rcx-8]
	cmp	rax, 31
	ja	SHORT $LN18@Tidy_guard

; 165  :     _Ptr = reinterpret_cast<void*>(_Ptr_container);

	mov	rcx, r8
$LN21@Tidy_guard:

; 255  :         ::operator delete(_Ptr, _Bytes);

	call	??3@YAXPEAX_K@Z				; operator delete
; File C:\Program Files\Microsoft Visual Studio\2022\Community\VC\Tools\MSVC\14.35.32215\include\vector

; 2112 :             _Myfirst = nullptr;

	xor	eax, eax
	mov	QWORD PTR [rbx], rax

; 2113 :             _Mylast  = nullptr;

	mov	QWORD PTR [rbx+8], rax

; 2114 :             _Myend   = nullptr;

	mov	QWORD PTR [rbx+16], rax
$LN5@Tidy_guard:
; File C:\Program Files\Microsoft Visual Studio\2022\Community\VC\Tools\MSVC\14.35.32215\include\xmemory

; 37   :     }

	add	rsp, 32					; 00000020H
	pop	rbx
	ret	0
$LN18@Tidy_guard:

; 164  :     _STL_VERIFY(_Back_shift >= _Min_back_shift && _Back_shift <= _Non_user_size, "invalid argument");

	call	QWORD PTR __imp__invalid_parameter_noinfo_noreturn
	int	3
$LN26@Tidy_guard:
??1?$_Tidy_guard@V?$vector@EV?$allocator@E@std@@@std@@@std@@QEAA@XZ ENDP ; std::_Tidy_guard<std::vector<unsigned char,std::allocator<unsigned char> > >::~_Tidy_guard<std::vector<unsigned char,std::allocator<unsigned char> > >
_TEXT	ENDS
; Function compile flags: /Ogtpy
; File C:\Program Files\Microsoft Visual Studio\2022\Community\VC\Tools\MSVC\14.35.32215\include\vector
; File C:\Program Files\Microsoft Visual Studio\2022\Community\VC\Tools\MSVC\14.35.32215\include\xmemory
; File C:\Program Files\Microsoft Visual Studio\2022\Community\VC\Tools\MSVC\14.35.32215\include\vector
;	COMDAT ?_Buy_nonzero@?$vector@EV?$allocator@E@std@@@std@@AEAAX_K@Z
_TEXT	SEGMENT
this$ = 48
_Newcapacity$ = 56
?_Buy_nonzero@?$vector@EV?$allocator@E@std@@@std@@AEAAX_K@Z PROC ; std::vector<unsigned char,std::allocator<unsigned char> >::_Buy_nonzero, COMDAT

; 2058 :     _CONSTEXPR20 void _Buy_nonzero(const size_type _Newcapacity) {

$LN11:
	mov	QWORD PTR [rsp+8], rbx
	push	rdi
	sub	rsp, 32					; 00000020H

; 2059 :         // allocate array with _Newcapacity elements
; 2060 : #ifdef _ENABLE_STL_INTERNAL_CHECK
; 2061 :         auto& _My_data    = _Mypair._Myval2;
; 2062 :         pointer& _Myfirst = _My_data._Myfirst;
; 2063 :         pointer& _Mylast  = _My_data._Mylast;
; 2064 :         pointer& _Myend   = _My_data._Myend;
; 2065 :         _STL_INTERNAL_CHECK(!_Myfirst && !_Mylast && !_Myend); // check that *this is tidy
; 2066 :         _STL_INTERNAL_CHECK(0 < _Newcapacity);
; 2067 : #endif // _ENABLE_STL_INTERNAL_CHECK
; 2068 : 
; 2069 :         if (_Newcapacity > max_size()) {

	mov	rax, 9223372036854775807		; 7fffffffffffffffH
	mov	rbx, rdx
	mov	rdi, rcx
	cmp	rdx, rax
	ja	SHORT $LN10@Buy_nonzer
; File C:\Program Files\Microsoft Visual Studio\2022\Community\VC\Tools\MSVC\14.35.32215\include\xmemory

; 834  :         return static_cast<_Ty*>(_Allocate<_New_alignof<_Ty>>(_Get_size_of_n<sizeof(_Ty)>(_Count)));

	mov	rcx, rdx
	call	??$_Allocate@$0BA@U_Default_allocate_traits@std@@$0A@@std@@YAPEAX_K@Z ; std::_Allocate<16,std::_Default_allocate_traits,0>
; File C:\Program Files\Microsoft Visual Studio\2022\Community\VC\Tools\MSVC\14.35.32215\include\vector

; 2053 :         _Myfirst           = _Newvec;

	mov	QWORD PTR [rdi], rax

; 2054 :         _Mylast            = _Newvec;

	mov	QWORD PTR [rdi+8], rax

; 2055 :         _Myend             = _Newvec + _Newcapacity;

	add	rax, rbx

; 2071 :         }
; 2072 : 
; 2073 :         _Buy_raw(_Newcapacity);
; 2074 :     }

	mov	rbx, QWORD PTR [rsp+48]

; 2055 :         _Myend             = _Newvec + _Newcapacity;

	mov	QWORD PTR [rdi+16], rax

; 2071 :         }
; 2072 : 
; 2073 :         _Buy_raw(_Newcapacity);
; 2074 :     }

	add	rsp, 32					; 00000020H
	pop	rdi
	ret	0
$LN10@Buy_nonzer:

; 2070 :             _Xlength();

	call	?_Xlength@?$vector@EV?$allocator@E@std@@@std@@CAXXZ ; std::vector<unsigned char,std::allocator<unsigned char> >::_Xlength
	int	3
$LN8@Buy_nonzer:
?_Buy_nonzero@?$vector@EV?$allocator@E@std@@@std@@AEAAX_K@Z ENDP ; std::vector<unsigned char,std::allocator<unsigned char> >::_Buy_nonzero
_TEXT	ENDS
; Function compile flags: /Ogtpy
; File C:\Program Files\Microsoft Visual Studio\2022\Community\VC\Tools\MSVC\14.35.32215\include\vector
;	COMDAT ?_Xlength@?$vector@EV?$allocator@E@std@@@std@@CAXXZ
_TEXT	SEGMENT
?_Xlength@?$vector@EV?$allocator@E@std@@@std@@CAXXZ PROC ; std::vector<unsigned char,std::allocator<unsigned char> >::_Xlength, COMDAT

; 2200 :     [[noreturn]] static void _Xlength() {

$LN4:
	sub	rsp, 40					; 00000028H

; 2201 :         _Xlength_error("vector too long");

	lea	rcx, OFFSET FLAT:??_C@_0BA@FOIKENOD@vector?5too?5long@
	call	QWORD PTR __imp_?_Xlength_error@std@@YAXPEBD@Z
	int	3
$LN3@Xlength:
?_Xlength@?$vector@EV?$allocator@E@std@@@std@@CAXXZ ENDP ; std::vector<unsigned char,std::allocator<unsigned char> >::_Xlength
_TEXT	ENDS
; Function compile flags: /Ogtpy
; File C:\Program Files\Microsoft Visual Studio\2022\Community\VC\Tools\MSVC\14.35.32215\include\vector
; File C:\Program Files\Microsoft Visual Studio\2022\Community\VC\Tools\MSVC\14.35.32215\include\xmemory
; File C:\Program Files\Microsoft Visual Studio\2022\Community\VC\Tools\MSVC\14.35.32215\include\vector
;	COMDAT ?_Buy_raw@?$vector@EV?$allocator@E@std@@@std@@AEAAX_K@Z
_TEXT	SEGMENT
this$ = 48
_Newcapacity$ = 56
?_Buy_raw@?$vector@EV?$allocator@E@std@@@std@@AEAAX_K@Z PROC ; std::vector<unsigned char,std::allocator<unsigned char> >::_Buy_raw, COMDAT

; 2042 :     _CONSTEXPR20 void _Buy_raw(const size_type _Newcapacity) {

$LN6:
	mov	QWORD PTR [rsp+8], rbx
	push	rdi
	sub	rsp, 32					; 00000020H
	mov	rdi, rcx
	mov	rbx, rdx
; File C:\Program Files\Microsoft Visual Studio\2022\Community\VC\Tools\MSVC\14.35.32215\include\xmemory

; 834  :         return static_cast<_Ty*>(_Allocate<_New_alignof<_Ty>>(_Get_size_of_n<sizeof(_Ty)>(_Count)));

	mov	rcx, rdx
	call	??$_Allocate@$0BA@U_Default_allocate_traits@std@@$0A@@std@@YAPEAX_K@Z ; std::_Allocate<16,std::_Default_allocate_traits,0>
; File C:\Program Files\Microsoft Visual Studio\2022\Community\VC\Tools\MSVC\14.35.32215\include\vector

; 2053 :         _Myfirst           = _Newvec;

	mov	QWORD PTR [rdi], rax

; 2054 :         _Mylast            = _Newvec;

	mov	QWORD PTR [rdi+8], rax

; 2055 :         _Myend             = _Newvec + _Newcapacity;

	add	rax, rbx

; 2056 :     }

	mov	rbx, QWORD PTR [rsp+48]
	mov	QWORD PTR [rdi+16], rax
	add	rsp, 32					; 00000020H
	pop	rdi
	ret	0
?_Buy_raw@?$vector@EV?$allocator@E@std@@@std@@AEAAX_K@Z ENDP ; std::vector<unsigned char,std::allocator<unsigned char> >::_Buy_raw
_TEXT	ENDS
; Function compile flags: /Ogtpy
; File C:\Program Files\Microsoft Visual Studio\2022\Community\VC\Tools\MSVC\14.35.32215\include\vector
;	COMDAT ?max_size@?$vector@EV?$allocator@E@std@@@std@@QEBA_KXZ
_TEXT	SEGMENT
this$dead$ = 8
?max_size@?$vector@EV?$allocator@E@std@@@std@@QEBA_KXZ PROC ; std::vector<unsigned char,std::allocator<unsigned char> >::max_size, COMDAT

; 1936 :         return (_STD min)(

	mov	rax, 9223372036854775807		; 7fffffffffffffffH

; 1937 :             static_cast<size_type>((numeric_limits<difference_type>::max)()), _Alty_traits::max_size(_Getal()));
; 1938 :     }

	ret	0
?max_size@?$vector@EV?$allocator@E@std@@@std@@QEBA_KXZ ENDP ; std::vector<unsigned char,std::allocator<unsigned char> >::max_size
_TEXT	ENDS
; Function compile flags: /Ogtpy
; File C:\Program Files\Microsoft Visual Studio\2022\Community\VC\Tools\MSVC\14.35.32215\include\vector
;	COMDAT ?_Getal@?$vector@EV?$allocator@E@std@@@std@@AEBAAEBV?$allocator@E@2@XZ
_TEXT	SEGMENT
this$ = 8
?_Getal@?$vector@EV?$allocator@E@std@@@std@@AEBAAEBV?$allocator@E@2@XZ PROC ; std::vector<unsigned char,std::allocator<unsigned char> >::_Getal, COMDAT

; 2248 :         return _Mypair._Get_first();

	mov	rax, rcx

; 2249 :     }

	ret	0
?_Getal@?$vector@EV?$allocator@E@std@@@std@@AEBAAEBV?$allocator@E@2@XZ ENDP ; std::vector<unsigned char,std::allocator<unsigned char> >::_Getal
_TEXT	ENDS
; Function compile flags: /Ogtpy
; File C:\Program Files\Microsoft Visual Studio\2022\Community\VC\Tools\MSVC\14.35.32215\include\xmemory
;	COMDAT ?max_size@?$_Default_allocator_traits@V?$allocator@E@std@@@std@@SA_KAEBV?$allocator@E@2@@Z
_TEXT	SEGMENT
__formal$dead$ = 8
?max_size@?$_Default_allocator_traits@V?$allocator@E@std@@@std@@SA_KAEBV?$allocator@E@2@@Z PROC ; std::_Default_allocator_traits<std::allocator<unsigned char> >::max_size, COMDAT

; 694  :         return static_cast<size_t>(-1) / sizeof(value_type);

	mov	rax, -1

; 695  :     }

	ret	0
?max_size@?$_Default_allocator_traits@V?$allocator@E@std@@@std@@SA_KAEBV?$allocator@E@2@@Z ENDP ; std::_Default_allocator_traits<std::allocator<unsigned char> >::max_size
_TEXT	ENDS
; Function compile flags: /Ogtpy
; File C:\Program Files\Microsoft Visual Studio\2022\Community\VC\Tools\MSVC\14.35.32215\include\xmemory
;	COMDAT ?allocate@?$allocator@E@std@@QEAAPEAE_K@Z
_TEXT	SEGMENT
this$dead$ = 8
_Count$ = 16
?allocate@?$allocator@E@std@@QEAAPEAE_K@Z PROC		; std::allocator<unsigned char>::allocate, COMDAT

; 833  :         static_assert(sizeof(value_type) > 0, "value_type must be complete before calling allocate.");
; 834  :         return static_cast<_Ty*>(_Allocate<_New_alignof<_Ty>>(_Get_size_of_n<sizeof(_Ty)>(_Count)));

	mov	rcx, rdx
	jmp	??$_Allocate@$0BA@U_Default_allocate_traits@std@@$0A@@std@@YAPEAX_K@Z ; std::_Allocate<16,std::_Default_allocate_traits,0>
?allocate@?$allocator@E@std@@QEAAPEAE_K@Z ENDP		; std::allocator<unsigned char>::allocate
_TEXT	ENDS
; Function compile flags: /Ogtpy
; File C:\Program Files\Microsoft Visual Studio\2022\Community\VC\Tools\MSVC\14.35.32215\include\xmemory
;	COMDAT ?_Get_first@?$_Compressed_pair@V?$allocator@E@std@@V?$_Vector_val@U?$_Simple_types@E@std@@@2@$00@std@@QEBAAEBV?$allocator@E@2@XZ
_TEXT	SEGMENT
this$ = 8
?_Get_first@?$_Compressed_pair@V?$allocator@E@std@@V?$_Vector_val@U?$_Simple_types@E@std@@@2@$00@std@@QEBAAEBV?$allocator@E@2@XZ PROC ; std::_Compressed_pair<std::allocator<unsigned char>,std::_Vector_val<std::_Simple_types<unsigned char> >,1>::_Get_first, COMDAT

; 1387 :         return *this;

	mov	rax, rcx

; 1388 :     }

	ret	0
?_Get_first@?$_Compressed_pair@V?$allocator@E@std@@V?$_Vector_val@U?$_Simple_types@E@std@@@2@$00@std@@QEBAAEBV?$allocator@E@2@XZ ENDP ; std::_Compressed_pair<std::allocator<unsigned char>,std::_Vector_val<std::_Simple_types<unsigned char> >,1>::_Get_first
_TEXT	ENDS
; Function compile flags: /Ogtpy
; File C:\Program Files\Microsoft Visual Studio\2022\Community\VC\Tools\MSVC\14.35.32215\include\type_traits
;	COMDAT ??$forward@AEBV?$allocator@E@std@@@std@@YAAEBV?$allocator@E@0@AEBV10@@Z
_TEXT	SEGMENT
_Arg$ = 8
??$forward@AEBV?$allocator@E@std@@@std@@YAAEBV?$allocator@E@0@AEBV10@@Z PROC ; std::forward<std::allocator<unsigned char> const &>, COMDAT

; 1427 :     return static_cast<_Ty&&>(_Arg);

	mov	rax, rcx

; 1428 : }

	ret	0
??$forward@AEBV?$allocator@E@std@@@std@@YAAEBV?$allocator@E@0@AEBV10@@Z ENDP ; std::forward<std::allocator<unsigned char> const &>
_TEXT	ENDS
; Function compile flags: /Ogtpy
; File C:\Program Files\Microsoft Visual Studio\2022\Community\VC\Tools\MSVC\14.35.32215\include\type_traits
;	COMDAT ??$forward@PEBE@std@@YA$$QEAPEBEAEAPEBE@Z
_TEXT	SEGMENT
_Arg$ = 8
??$forward@PEBE@std@@YA$$QEAPEBEAEAPEBE@Z PROC		; std::forward<unsigned char const *>, COMDAT

; 1427 :     return static_cast<_Ty&&>(_Arg);

	mov	rax, rcx

; 1428 : }

	ret	0
??$forward@PEBE@std@@YA$$QEAPEBEAEAPEBE@Z ENDP		; std::forward<unsigned char const *>
_TEXT	ENDS
; Function compile flags: /Ogtpy
; File C:\Program Files\Microsoft Visual Studio\2022\Community\VC\Tools\MSVC\14.35.32215\include\xmemory
; File C:\Program Files\Microsoft Visual Studio\2022\Community\VC\Tools\MSVC\14.35.32215\include\xutility
; File C:\Program Files\Microsoft Visual Studio\2022\Community\VC\Tools\MSVC\14.35.32215\include\xmemory
;	COMDAT ??$_Uninitialized_copy@PEBEPEBEV?$allocator@E@std@@@std@@YAPEAEPEBE0PEAEAEAV?$allocator@E@0@@Z
_TEXT	SEGMENT
_First$ = 48
_Last$ = 56
_Dest$ = 64
_Al$dead$ = 72
??$_Uninitialized_copy@PEBEPEBEV?$allocator@E@std@@@std@@YAPEAEPEBE0PEAEAEAV?$allocator@E@0@@Z PROC ; std::_Uninitialized_copy<unsigned char const *,unsigned char const *,std::allocator<unsigned char> >, COMDAT

; 1677 :     _InIt _First, _Se _Last, _Alloc_ptr_t<_Alloc> _Dest, _Alloc& _Al) {

$LN16:
	mov	QWORD PTR [rsp+8], rbx
	push	rdi
	sub	rsp, 32					; 00000020H
	mov	rbx, rdx
	mov	rdi, r8
; File C:\Program Files\Microsoft Visual Studio\2022\Community\VC\Tools\MSVC\14.35.32215\include\xutility

; 4238 :     const auto _Count           = static_cast<size_t>(_Last_ch - _First_ch);

	sub	rbx, rcx

; 4239 :     _CSTD memmove(_Dest_ch, _First_ch, _Count);

	mov	rdx, rcx
	mov	r8, rbx
	mov	rcx, rdi
	call	memmove
; File C:\Program Files\Microsoft Visual Studio\2022\Community\VC\Tools\MSVC\14.35.32215\include\xmemory

; 1702 :                 _Dest += _ULast - _UFirst;

	lea	rax, QWORD PTR [rbx+rdi]

; 1703 :             } else {
; 1704 :                 const auto _Count = static_cast<size_t>(_ULast - _UFirst);
; 1705 :                 _Copy_memmove_n(_To_address(_UFirst), _Count, _Unfancy(_Dest));
; 1706 :                 _Dest += _Count;
; 1707 :             }
; 1708 :             return _Dest;
; 1709 :         }
; 1710 :     }
; 1711 : 
; 1712 :     _Uninitialized_backout_al<_Alloc> _Backout{_Dest, _Al};
; 1713 :     for (; _UFirst != _ULast; ++_UFirst) {
; 1714 :         _Backout._Emplace_back(*_UFirst);
; 1715 :     }
; 1716 : 
; 1717 :     return _Backout._Release();
; 1718 : }

	mov	rbx, QWORD PTR [rsp+48]
	add	rsp, 32					; 00000020H
	pop	rdi
	ret	0
??$_Uninitialized_copy@PEBEPEBEV?$allocator@E@std@@@std@@YAPEAEPEBE0PEAEAEAV?$allocator@E@0@@Z ENDP ; std::_Uninitialized_copy<unsigned char const *,unsigned char const *,std::allocator<unsigned char> >
_TEXT	ENDS
; Function compile flags: /Ogtpy
; File C:\Program Files\Microsoft Visual Studio\2022\Community\VC\Tools\MSVC\14.35.32215\include\xutility
;	COMDAT ??$_Get_unwrapped@PEBE@std@@YA?A_T$$QEAPEBE@Z
_TEXT	SEGMENT
_It$ = 8
??$_Get_unwrapped@PEBE@std@@YA?A_T$$QEAPEBE@Z PROC	; std::_Get_unwrapped<unsigned char const *>, COMDAT

; 957  :     // unwrap an iterator previously subjected to _Adl_verify_range or otherwise validated
; 958  :     if constexpr (is_pointer_v<decay_t<_Iter>>) { // special-case pointers and arrays
; 959  :         return _It + 0;

	mov	rax, QWORD PTR [rcx]

; 960  :     } else if constexpr (_Unwrappable_v<_Iter>) {
; 961  :         return static_cast<_Iter&&>(_It)._Unwrapped();
; 962  :     } else {
; 963  :         return static_cast<_Iter&&>(_It);
; 964  :     }
; 965  : }

	ret	0
??$_Get_unwrapped@PEBE@std@@YA?A_T$$QEAPEBE@Z ENDP	; std::_Get_unwrapped<unsigned char const *>
_TEXT	ENDS
; Function compile flags: /Ogtpy
; File C:\Program Files\Microsoft Visual Studio\2022\Community\VC\Tools\MSVC\14.35.32215\include\xutility
;	COMDAT ??$_To_address@PEBE@std@@YA?A_PAEBQEBE@Z
_TEXT	SEGMENT
_Val$ = 8
??$_To_address@PEBE@std@@YA?A_PAEBQEBE@Z PROC		; std::_To_address<unsigned char const *>, COMDAT

; 4110 :     _STL_INTERNAL_STATIC_ASSERT(is_pointer_v<_Iter>);
; 4111 :     return _Val;

	mov	rax, QWORD PTR [rcx]

; 4112 : }

	ret	0
??$_To_address@PEBE@std@@YA?A_PAEBQEBE@Z ENDP		; std::_To_address<unsigned char const *>
_TEXT	ENDS
; Function compile flags: /Ogtpy
; File C:\Program Files\Microsoft Visual Studio\2022\Community\VC\Tools\MSVC\14.35.32215\include\xmemory
;	COMDAT ?_Release@?$_Uninitialized_backout_al@V?$allocator@E@std@@@std@@QEAAPEAEXZ
_TEXT	SEGMENT
this$ = 8
?_Release@?$_Uninitialized_backout_al@V?$allocator@E@std@@@std@@QEAAPEAEXZ PROC ; std::_Uninitialized_backout_al<std::allocator<unsigned char> >::_Release, COMDAT

; 1665 :         _First = _Last;

	mov	rax, QWORD PTR [rcx+8]
	mov	QWORD PTR [rcx], rax

; 1666 :         return _Last;
; 1667 :     }

	ret	0
?_Release@?$_Uninitialized_backout_al@V?$allocator@E@std@@@std@@QEAAPEAEXZ ENDP ; std::_Uninitialized_backout_al<std::allocator<unsigned char> >::_Release
_TEXT	ENDS
; Function compile flags: /Ogtpy
; File C:\Program Files\Microsoft Visual Studio\2022\Community\VC\Tools\MSVC\14.35.32215\include\xmemory
;	COMDAT ??1?$_Uninitialized_backout_al@V?$allocator@E@std@@@std@@QEAA@XZ
_TEXT	SEGMENT
this$ = 8
??1?$_Uninitialized_backout_al@V?$allocator@E@std@@@std@@QEAA@XZ PROC ; std::_Uninitialized_backout_al<std::allocator<unsigned char> >::~_Uninitialized_backout_al<std::allocator<unsigned char> >, COMDAT

; 1655 :         _Destroy_range(_First, _Last, _Al);
; 1656 :     }

	ret	0
??1?$_Uninitialized_backout_al@V?$allocator@E@std@@@std@@QEAA@XZ ENDP ; std::_Uninitialized_backout_al<std::allocator<unsigned char> >::~_Uninitialized_backout_al<std::allocator<unsigned char> >
_TEXT	ENDS
; Function compile flags: /Ogtpy
; File C:\Program Files\Microsoft Visual Studio\2022\Community\VC\Tools\MSVC\14.35.32215\include\xmemory
;	COMDAT ??0?$_Uninitialized_backout_al@V?$allocator@E@std@@@std@@QEAA@PEAEAEAV?$allocator@E@1@@Z
_TEXT	SEGMENT
this$ = 8
_Dest$ = 16
_Al_$ = 24
??0?$_Uninitialized_backout_al@V?$allocator@E@std@@@std@@QEAA@PEAEAEAV?$allocator@E@1@@Z PROC ; std::_Uninitialized_backout_al<std::allocator<unsigned char> >::_Uninitialized_backout_al<std::allocator<unsigned char> >, COMDAT

; 1649 :     _CONSTEXPR20 _Uninitialized_backout_al(pointer _Dest, _Alloc& _Al_) : _First(_Dest), _Last(_Dest), _Al(_Al_) {}

	mov	QWORD PTR [rcx], rdx
	mov	rax, rcx
	mov	QWORD PTR [rcx+8], rdx
	mov	QWORD PTR [rcx+16], r8
	ret	0
??0?$_Uninitialized_backout_al@V?$allocator@E@std@@@std@@QEAA@PEAEAEAV?$allocator@E@1@@Z ENDP ; std::_Uninitialized_backout_al<std::allocator<unsigned char> >::_Uninitialized_backout_al<std::allocator<unsigned char> >
_TEXT	ENDS
; Function compile flags: /Ogtpy
; File C:\Program Files\Microsoft Visual Studio\2022\Community\VC\Tools\MSVC\14.35.32215\include\type_traits
;	COMDAT ??$move@AEAPEBE@std@@YA$$QEAPEBEAEAPEBE@Z
_TEXT	SEGMENT
_Arg$ = 8
??$move@AEAPEBE@std@@YA$$QEAPEBEAEAPEBE@Z PROC		; std::move<unsigned char const * &>, COMDAT

; 1438 :     return static_cast<remove_reference_t<_Ty>&&>(_Arg);

	mov	rax, rcx

; 1439 : }

	ret	0
??$move@AEAPEBE@std@@YA$$QEAPEBEAEAPEBE@Z ENDP		; std::move<unsigned char const * &>
_TEXT	ENDS
; Function compile flags: /Ogtpy
; File C:\Program Files\Microsoft Visual Studio\2022\Community\VC\Tools\MSVC\14.35.32215\include\xutility
;	COMDAT ??$_Copy_memmove@PEBEPEAE@std@@YAPEAEPEBE0PEAE@Z
_TEXT	SEGMENT
_First$ = 48
_Last$ = 56
_Dest$ = 64
??$_Copy_memmove@PEBEPEAE@std@@YAPEAEPEBE0PEAE@Z PROC	; std::_Copy_memmove<unsigned char const *,unsigned char *>, COMDAT

; 4231 : _OutCtgIt _Copy_memmove(_CtgIt _First, _CtgIt _Last, _OutCtgIt _Dest) {

$LN4:
	mov	QWORD PTR [rsp+8], rbx
	push	rdi
	sub	rsp, 32					; 00000020H
	mov	rbx, rdx
	mov	rdi, r8

; 4232 :     auto _FirstPtr              = _To_address(_First);
; 4233 :     auto _LastPtr               = _To_address(_Last);
; 4234 :     auto _DestPtr               = _To_address(_Dest);
; 4235 :     const char* const _First_ch = const_cast<const char*>(reinterpret_cast<const volatile char*>(_FirstPtr));
; 4236 :     const char* const _Last_ch  = const_cast<const char*>(reinterpret_cast<const volatile char*>(_LastPtr));
; 4237 :     char* const _Dest_ch        = const_cast<char*>(reinterpret_cast<const volatile char*>(_DestPtr));
; 4238 :     const auto _Count           = static_cast<size_t>(_Last_ch - _First_ch);

	sub	rbx, rcx

; 4239 :     _CSTD memmove(_Dest_ch, _First_ch, _Count);

	mov	rdx, rcx
	mov	r8, rbx
	mov	rcx, rdi
	call	memmove

; 4240 :     if constexpr (is_pointer_v<_OutCtgIt>) {
; 4241 :         return reinterpret_cast<_OutCtgIt>(_Dest_ch + _Count);

	lea	rax, QWORD PTR [rbx+rdi]

; 4242 :     } else {
; 4243 :         return _Dest + (_LastPtr - _FirstPtr);
; 4244 :     }
; 4245 : }

	mov	rbx, QWORD PTR [rsp+48]
	add	rsp, 32					; 00000020H
	pop	rdi
	ret	0
??$_Copy_memmove@PEBEPEAE@std@@YAPEAEPEBE0PEAE@Z ENDP	; std::_Copy_memmove<unsigned char const *,unsigned char *>
_TEXT	ENDS
; Function compile flags: /Ogtpy
; File C:\Program Files\Microsoft Visual Studio\2022\Community\VC\Tools\MSVC\14.35.32215\include\xutility
;	COMDAT ??$_To_address@PEAE@std@@YA?A_PAEBQEAE@Z
_TEXT	SEGMENT
_Val$ = 8
??$_To_address@PEAE@std@@YA?A_PAEBQEAE@Z PROC		; std::_To_address<unsigned char *>, COMDAT

; 4110 :     _STL_INTERNAL_STATIC_ASSERT(is_pointer_v<_Iter>);
; 4111 :     return _Val;

	mov	rax, QWORD PTR [rcx]

; 4112 : }

	ret	0
??$_To_address@PEAE@std@@YA?A_PAEBQEAE@Z ENDP		; std::_To_address<unsigned char *>
_TEXT	ENDS
; Function compile flags: /Ogtpy
; File C:\Program Files\Microsoft Visual Studio\2022\Community\VC\Tools\MSVC\14.35.32215\include\xmemory
;	COMDAT ??$_Emplace_back@AEBE@?$_Uninitialized_backout_al@V?$allocator@E@std@@@std@@QEAAXAEBE@Z
_TEXT	SEGMENT
this$ = 8
<_Vals_0>$ = 16
??$_Emplace_back@AEBE@?$_Uninitialized_backout_al@V?$allocator@E@std@@@std@@QEAAXAEBE@Z PROC ; std::_Uninitialized_backout_al<std::allocator<unsigned char> >::_Emplace_back<unsigned char const &>, COMDAT

; 1660 :         allocator_traits<_Alloc>::construct(_Al, _Unfancy(_Last), _STD forward<_Types>(_Vals)...);

	mov	r8, QWORD PTR [rcx+8]
	movzx	eax, BYTE PTR [rdx]
	mov	BYTE PTR [r8], al

; 1661 :         ++_Last;

	inc	QWORD PTR [rcx+8]

; 1662 :     }

	ret	0
??$_Emplace_back@AEBE@?$_Uninitialized_backout_al@V?$allocator@E@std@@@std@@QEAAXAEBE@Z ENDP ; std::_Uninitialized_backout_al<std::allocator<unsigned char> >::_Emplace_back<unsigned char const &>
_TEXT	ENDS
; Function compile flags: /Ogtpy
; File C:\Program Files\Microsoft Visual Studio\2022\Community\VC\Tools\MSVC\14.35.32215\include\xmemory
;	COMDAT ??$construct@EAEBE@?$_Default_allocator_traits@V?$allocator@E@std@@@std@@SAXAEAV?$allocator@E@1@QEAEAEBE@Z
_TEXT	SEGMENT
__formal$dead$ = 8
_Ptr$ = 16
<_Args_0>$ = 24
??$construct@EAEBE@?$_Default_allocator_traits@V?$allocator@E@std@@@std@@SAXAEAV?$allocator@E@1@QEAEAEBE@Z PROC ; std::_Default_allocator_traits<std::allocator<unsigned char> >::construct<unsigned char,unsigned char const &>, COMDAT

; 674  : #if _HAS_CXX20
; 675  :         if (_STD is_constant_evaluated()) {
; 676  :             _STD construct_at(_Ptr, _STD forward<_Types>(_Args)...);
; 677  :         } else
; 678  : #endif // _HAS_CXX20
; 679  :         {
; 680  :             ::new (_Voidify_iter(_Ptr)) _Objty(_STD forward<_Types>(_Args)...);

	movzx	eax, BYTE PTR [r8]
	mov	BYTE PTR [rdx], al

; 681  :         }
; 682  :     }

	ret	0
??$construct@EAEBE@?$_Default_allocator_traits@V?$allocator@E@std@@@std@@SAXAEAV?$allocator@E@1@QEAEAEBE@Z ENDP ; std::_Default_allocator_traits<std::allocator<unsigned char> >::construct<unsigned char,unsigned char const &>
_TEXT	ENDS
; Function compile flags: /Ogtpy
; File C:\Program Files\Microsoft Visual Studio\2022\Community\VC\Tools\MSVC\14.35.32215\include\xutility
;	COMDAT ??$_Voidify_iter@PEAE@std@@YAPEAXPEAE@Z
_TEXT	SEGMENT
_It$ = 8
??$_Voidify_iter@PEAE@std@@YAPEAXPEAE@Z PROC		; std::_Voidify_iter<unsigned char *>, COMDAT

; 245  :     if constexpr (is_pointer_v<_Iter>) {
; 246  :         return const_cast<void*>(static_cast<const volatile void*>(_It));

	mov	rax, rcx

; 247  :     } else {
; 248  :         return const_cast<void*>(static_cast<const volatile void*>(_STD addressof(*_It)));
; 249  :     }
; 250  : }

	ret	0
??$_Voidify_iter@PEAE@std@@YAPEAXPEAE@Z ENDP		; std::_Voidify_iter<unsigned char *>
_TEXT	ENDS
END
