; Listing generated by Microsoft (R) Optimizing Compiler Version 19.35.32217.1 

include listing.inc

INCLUDELIB OLDNAMES

PUBLIC	??_C@_08PKFCNCCK@Path?3?5?$CFs@			; `string'
PUBLIC	??_C@_0N@DNGKCPNC@FunctionHide@			; `string'
PUBLIC	??_C@_0EJ@OOBIBOLC@C?3?2Users?2Mahito?2Desktop?2Night?5o@ ; `string'
PUBLIC	??_C@_0BC@PHBMKLMC@Load?5File?5ARC?3?5?$CFs@	; `string'
PUBLIC	??_C@_0CA@KOFLEFLC@Load?5File?5ARC?3?5?$CFs?0?5no?5encrypted@ ; `string'
PUBLIC	??_C@_0BN@HEFDAODC@Load?5File?5ARC?3?5?$CFs?0?5encrypted@ ; `string'
PUBLIC	??_C@_03HCPOIHIH@hdr@				; `string'
;	COMDAT ?ignore_always@?CG@??FunctionHide@@YAXPEAVCLocatorAPI@@AEAUarchive@2@AEAY0CAI@DPEBD@Z@4_NA
_BSS	SEGMENT
?ignore_always@?CG@??FunctionHide@@YAXPEAVCLocatorAPI@@AEAUarchive@2@AEAY0CAI@DPEBD@Z@4_NA DB 01H DUP (?) ; `FunctionHide'::`38'::ignore_always
_BSS	ENDS
;	COMDAT ?ignore_always@?6??FunctionHide@@YAXPEAVCLocatorAPI@@AEAUarchive@2@AEAY0CAI@DPEBD@Z@4_NA
_BSS	SEGMENT
?ignore_always@?6??FunctionHide@@YAXPEAVCLocatorAPI@@AEAUarchive@2@AEAY0CAI@DPEBD@Z@4_NA DB 01H DUP (?) ; `FunctionHide'::`7'::ignore_always
_BSS	ENDS
;	COMDAT ??_C@_03HCPOIHIH@hdr@
CONST	SEGMENT
??_C@_03HCPOIHIH@hdr@ DB 'hdr', 00H			; `string'
CONST	ENDS
;	COMDAT ??_C@_0BN@HEFDAODC@Load?5File?5ARC?3?5?$CFs?0?5encrypted@
CONST	SEGMENT
??_C@_0BN@HEFDAODC@Load?5File?5ARC?3?5?$CFs?0?5encrypted@ DB 'Load File A'
	DB	'RC: %s, encrypted', 00H			; `string'
CONST	ENDS
;	COMDAT ??_C@_0CA@KOFLEFLC@Load?5File?5ARC?3?5?$CFs?0?5no?5encrypted@
CONST	SEGMENT
??_C@_0CA@KOFLEFLC@Load?5File?5ARC?3?5?$CFs?0?5no?5encrypted@ DB 'Load Fi'
	DB	'le ARC: %s, no encrypted', 00H		; `string'
CONST	ENDS
;	COMDAT ??_C@_0BC@PHBMKLMC@Load?5File?5ARC?3?5?$CFs@
CONST	SEGMENT
??_C@_0BC@PHBMKLMC@Load?5File?5ARC?3?5?$CFs@ DB 'Load File ARC: %s', 00H ; `string'
CONST	ENDS
;	COMDAT ??_C@_0EJ@OOBIBOLC@C?3?2Users?2Mahito?2Desktop?2Night?5o@
CONST	SEGMENT
??_C@_0EJ@OOBIBOLC@C?3?2Users?2Mahito?2Desktop?2Night?5o@ DB 'C:\Users\Ma'
	DB	'hito\Desktop\Night outing\Night-outing\src\xrCore\FS_Hide.cpp'
	DB	00H						; `string'
CONST	ENDS
;	COMDAT ??_C@_0N@DNGKCPNC@FunctionHide@
CONST	SEGMENT
??_C@_0N@DNGKCPNC@FunctionHide@ DB 'FunctionHide', 00H	; `string'
CONST	ENDS
;	COMDAT ??_C@_08PKFCNCCK@Path?3?5?$CFs@
CONST	SEGMENT
??_C@_08PKFCNCCK@Path?3?5?$CFs@ DB 'Path: %s', 00H	; `string'
PUBLIC	??$move@AEAV?$tuple@AEBI@std@@@std@@YA$$QEAV?$tuple@AEBI@0@AEAV10@@Z ; std::move<std::tuple<unsigned int const &> &>
PUBLIC	??$_Tuple_get@$0A@AEBI@std@@YA$$QEA_P$$QEAV?$tuple@AEBI@0@@Z ; std::_Tuple_get<0,unsigned int const &>
PUBLIC	??$?0V?$tuple@AEBI@std@@V?$tuple@$$V@1@$0A@$$Z$S@?$pair@$$CBI_N@std@@QEAA@AEAV?$tuple@AEBI@1@AEAV?$tuple@$$V@1@U?$integer_sequence@_K$0A@@1@U?$integer_sequence@_K$S@1@@Z ; std::pair<unsigned int const ,bool>::pair<unsigned int const ,bool><std::tuple<unsigned int const &>,std::tuple<>,0>
PUBLIC	??$?0AEBI@?$_Tuple_val@AEBI@std@@QEAA@AEBI@Z	; std::_Tuple_val<unsigned int const &>::_Tuple_val<unsigned int const &><unsigned int const &>
PUBLIC	??$forward@AEAPEAU?$_Tree_node@U?$pair@$$CBI_N@std@@PEAX@std@@@std@@YAAEAPEAU?$_Tree_node@U?$pair@$$CBI_N@std@@PEAX@0@AEAPEAU10@@Z ; std::forward<std::_Tree_node<std::pair<unsigned int const ,bool>,void *> * &>
PUBLIC	??$?0AEBI$$Z$$V@?$pair@$$CBI_N@std@@QEAA@Upiecewise_construct_t@1@V?$tuple@AEBI@1@V?$tuple@$$V@1@@Z ; std::pair<unsigned int const ,bool>::pair<unsigned int const ,bool><unsigned int const &>
PUBLIC	??$?0U_Exact_args_t@std@@AEBI$$V$0A@@?$tuple@AEBI@std@@QEAA@U_Exact_args_t@1@AEBI@Z ; std::tuple<unsigned int const &>::tuple<unsigned int const &><std::_Exact_args_t,unsigned int const &,0>
PUBLIC	??0?$tuple@AEBI@std@@QEAA@$$QEAV01@@Z		; std::tuple<unsigned int const &>::tuple<unsigned int const &>
PUBLIC	??$addressof@$$CBV?$_Tree_val@U?$_Tree_simple_types@U?$pair@$$CBI_N@std@@@std@@@std@@@std@@YAPEBV?$_Tree_val@U?$_Tree_simple_types@U?$pair@$$CBI_N@std@@@std@@@0@AEBV10@@Z ; std::addressof<std::_Tree_val<std::_Tree_simple_types<std::pair<unsigned int const ,bool> > > const >
PUBLIC	??$_Voidify_iter@PEAPEAU?$_Tree_node@U?$pair@$$CBI_N@std@@PEAX@std@@@std@@YAPEAXPEAPEAU?$_Tree_node@U?$pair@$$CBI_N@std@@PEAX@0@@Z ; std::_Voidify_iter<std::_Tree_node<std::pair<unsigned int const ,bool>,void *> * *>
PUBLIC	??$addressof@PEAU?$_Tree_node@U?$pair@$$CBI_N@std@@PEAX@std@@@std@@YAPEAPEAU?$_Tree_node@U?$pair@$$CBI_N@std@@PEAX@0@AEAPEAU10@@Z ; std::addressof<std::_Tree_node<std::pair<unsigned int const ,bool>,void *> *>
PUBLIC	??$_Freenode@V?$xalloc@U?$_Tree_node@U?$pair@$$CBI_N@std@@PEAX@std@@@@@?$_Tree_node@U?$pair@$$CBI_N@std@@PEAX@std@@SAXAEAV?$xalloc@U?$_Tree_node@U?$pair@$$CBI_N@std@@PEAX@std@@@@PEAU01@@Z ; std::_Tree_node<std::pair<unsigned int const ,bool>,void *>::_Freenode<xalloc<std::_Tree_node<std::pair<unsigned int const ,bool>,void *> > >
PUBLIC	??$exchange@PEAU?$_Tree_node@U?$pair@$$CBI_N@std@@PEAX@std@@AEAPEAU12@@std@@YAPEAU?$_Tree_node@U?$pair@$$CBI_N@std@@PEAX@0@AEAPEAU10@0@Z ; std::exchange<std::_Tree_node<std::pair<unsigned int const ,bool>,void *> *,std::_Tree_node<std::pair<unsigned int const ,bool>,void *> * &>
PUBLIC	??$forward@PEAU?$_Tree_node@U?$pair@$$CBI_N@std@@PEAX@std@@@std@@YA$$QEAPEAU?$_Tree_node@U?$pair@$$CBI_N@std@@PEAX@0@AEAPEAU10@@Z ; std::forward<std::_Tree_node<std::pair<unsigned int const ,bool>,void *> *>
PUBLIC	??$_Construct_in_place@PEAU?$_Tree_node@U?$pair@$$CBI_N@std@@PEAX@std@@AEAPEAU12@@std@@YAXAEAPEAU?$_Tree_node@U?$pair@$$CBI_N@std@@PEAX@0@0@Z ; std::_Construct_in_place<std::_Tree_node<std::pair<unsigned int const ,bool>,void *> *,std::_Tree_node<std::pair<unsigned int const ,bool>,void *> * &>
PUBLIC	??$construct@U?$pair@$$CBI_N@std@@AEBUpiecewise_construct_t@2@V?$tuple@AEBI@2@V?$tuple@$$V@2@@?$_Normal_allocator_traits@V?$xalloc@U?$_Tree_node@U?$pair@$$CBI_N@std@@PEAX@std@@@@@std@@SAXAEAV?$xalloc@U?$_Tree_node@U?$pair@$$CBI_N@std@@PEAX@std@@@@PEAU?$pair@$$CBI_N@1@AEBUpiecewise_construct_t@1@$$QEAV?$tuple@AEBI@1@$$QEAV?$tuple@$$V@1@@Z ; std::_Normal_allocator_traits<xalloc<std::_Tree_node<std::pair<unsigned int const ,bool>,void *> > >::construct<std::pair<unsigned int const ,bool>,std::piecewise_construct_t const &,std::tuple<unsigned int const &>,std::tuple<> >
PUBLIC	??$forward@V?$tuple@AEBI@std@@@std@@YA$$QEAV?$tuple@AEBI@0@AEAV10@@Z ; std::forward<std::tuple<unsigned int const &> >
PUBLIC	??$?0AEBI$0A@@?$tuple@AEBI@std@@QEAA@AEBI@Z	; std::tuple<unsigned int const &>::tuple<unsigned int const &><unsigned int const &,0>
PUBLIC	??$forward@AEBQEAU?$_Tree_node@U?$pair@$$CBI_N@std@@PEAX@std@@@std@@YAAEBQEAU?$_Tree_node@U?$pair@$$CBI_N@std@@PEAX@0@AEBQEAU10@@Z ; std::forward<std::_Tree_node<std::pair<unsigned int const ,bool>,void *> * const &>
PUBLIC	??$_Kfn@$$CBI_N@?$_Tmap_traits@I_NU?$less@I@std@@V?$xalloc@U?$pair@$$CBI_N@std@@@@$0A@@std@@SAAEBIAEBU?$pair@$$CBI_N@1@@Z ; std::_Tmap_traits<unsigned int,bool,std::less<unsigned int>,xalloc<std::pair<unsigned int const ,bool> >,0>::_Kfn<unsigned int const ,bool>
PUBLIC	?_Get_first@?$_Compressed_pair@U?$less@I@std@@V?$_Compressed_pair@V?$xalloc@U?$_Tree_node@U?$pair@$$CBI_N@std@@PEAX@std@@@@V?$_Tree_val@U?$_Tree_simple_types@U?$pair@$$CBI_N@std@@@std@@@std@@$00@2@$00@std@@QEBAAEBU?$less@I@2@XZ ; std::_Compressed_pair<std::less<unsigned int>,std::_Compressed_pair<xalloc<std::_Tree_node<std::pair<unsigned int const ,bool>,void *> >,std::_Tree_val<std::_Tree_simple_types<std::pair<unsigned int const ,bool> > >,1>,1>::_Get_first
PUBLIC	??0?$_Alloc_construct_ptr@V?$xalloc@U?$_Tree_node@U?$pair@$$CBI_N@std@@PEAX@std@@@@@std@@QEAA@AEAV?$xalloc@U?$_Tree_node@U?$pair@$$CBI_N@std@@PEAX@std@@@@@Z ; std::_Alloc_construct_ptr<xalloc<std::_Tree_node<std::pair<unsigned int const ,bool>,void *> > >::_Alloc_construct_ptr<xalloc<std::_Tree_node<std::pair<unsigned int const ,bool>,void *> > >
PUBLIC	?_Allocate@?$_Alloc_construct_ptr@V?$xalloc@U?$_Tree_node@U?$pair@$$CBI_N@std@@PEAX@std@@@@@std@@QEAAXXZ ; std::_Alloc_construct_ptr<xalloc<std::_Tree_node<std::pair<unsigned int const ,bool>,void *> > >::_Allocate
PUBLIC	??0?$xalloc@U?$_Tree_node@U?$pair@$$CBI_N@std@@PEAX@std@@@@QEAA@XZ ; xalloc<std::_Tree_node<std::pair<unsigned int const ,bool>,void *> >::xalloc<std::_Tree_node<std::pair<unsigned int const ,bool>,void *> >
PUBLIC	?deallocate@?$_Normal_allocator_traits@V?$xalloc@U?$_Tree_node@U?$pair@$$CBI_N@std@@PEAX@std@@@@@std@@SAXAEAV?$xalloc@U?$_Tree_node@U?$pair@$$CBI_N@std@@PEAX@std@@@@PEAU?$_Tree_node@U?$pair@$$CBI_N@std@@PEAX@2@_K@Z ; std::_Normal_allocator_traits<xalloc<std::_Tree_node<std::pair<unsigned int const ,bool>,void *> > >::deallocate
PUBLIC	?_Getcomp@?$_Tree@V?$_Tmap_traits@I_NU?$less@I@std@@V?$xalloc@U?$pair@$$CBI_N@std@@@@$0A@@std@@@std@@IEBAAEBU?$less@I@2@XZ ; std::_Tree<std::_Tmap_traits<unsigned int,bool,std::less<unsigned int>,xalloc<std::pair<unsigned int const ,bool> >,0> >::_Getcomp
PUBLIC	?_Get_scary@?$_Tree@V?$_Tmap_traits@I_NU?$less@I@std@@V?$xalloc@U?$pair@$$CBI_N@std@@@@$0A@@std@@@std@@IEBAPEBV?$_Tree_val@U?$_Tree_simple_types@U?$pair@$$CBI_N@std@@@std@@@2@XZ ; std::_Tree<std::_Tmap_traits<unsigned int,bool,std::less<unsigned int>,xalloc<std::pair<unsigned int const ,bool> >,0> >::_Get_scary
PUBLIC	??R?$less@I@std@@QEBA_NAEBI0@Z			; std::less<unsigned int>::operator()
PUBLIC	??0?$_Tree_val@U?$_Tree_simple_types@U?$pair@$$CBI_N@std@@@std@@@std@@QEAA@XZ ; std::_Tree_val<std::_Tree_simple_types<std::pair<unsigned int const ,bool> > >::_Tree_val<std::_Tree_simple_types<std::pair<unsigned int const ,bool> > >
PUBLIC	??0?$_Tree_temp_node_alloc@V?$xalloc@U?$_Tree_node@U?$pair@$$CBI_N@std@@PEAX@std@@@@@std@@QEAA@AEAV?$xalloc@U?$_Tree_node@U?$pair@$$CBI_N@std@@PEAX@std@@@@@Z ; std::_Tree_temp_node_alloc<xalloc<std::_Tree_node<std::pair<unsigned int const ,bool>,void *> > >::_Tree_temp_node_alloc<xalloc<std::_Tree_node<std::pair<unsigned int const ,bool>,void *> > >
PUBLIC	??$xr_free@U?$_Tree_node@U?$pair@$$CBI_N@std@@PEAX@std@@@@YAXAEAPEAU?$_Tree_node@U?$pair@$$CBI_N@std@@PEAX@std@@@Z ; xr_free<std::_Tree_node<std::pair<unsigned int const ,bool>,void *> >
PUBLIC	??$xr_alloc@U?$_Tree_node@U?$pair@$$CBI_N@std@@PEAX@std@@@@YAPEAU?$_Tree_node@U?$pair@$$CBI_N@std@@PEAX@std@@I@Z ; xr_alloc<std::_Tree_node<std::pair<unsigned int const ,bool>,void *> >
PUBLIC	??$exchange@PEAU?$_Tree_node@U?$pair@$$CBI_N@std@@PEAX@std@@$$T@std@@YAPEAU?$_Tree_node@U?$pair@$$CBI_N@std@@PEAX@0@AEAPEAU10@$$QEA$$T@Z ; std::exchange<std::_Tree_node<std::pair<unsigned int const ,bool>,void *> *,std::nullptr_t>
PUBLIC	??$destroy@U?$pair@$$CBI_N@std@@@?$_Normal_allocator_traits@V?$xalloc@U?$_Tree_node@U?$pair@$$CBI_N@std@@PEAX@std@@@@@std@@SAXAEAV?$xalloc@U?$_Tree_node@U?$pair@$$CBI_N@std@@PEAX@std@@@@PEAU?$pair@$$CBI_N@1@@Z ; std::_Normal_allocator_traits<xalloc<std::_Tree_node<std::pair<unsigned int const ,bool>,void *> > >::destroy<std::pair<unsigned int const ,bool> >
PUBLIC	??$addressof@U?$pair@$$CBI_N@std@@@std@@YAPEAU?$pair@$$CBI_N@0@AEAU10@@Z ; std::addressof<std::pair<unsigned int const ,bool> >
PUBLIC	??$_Destroy_in_place@PEAU?$_Tree_node@U?$pair@$$CBI_N@std@@PEAX@std@@@std@@YAXAEAPEAU?$_Tree_node@U?$pair@$$CBI_N@std@@PEAX@0@@Z ; std::_Destroy_in_place<std::_Tree_node<std::pair<unsigned int const ,bool>,void *> *>
PUBLIC	??$_Construct_in_place@PEAU?$_Tree_node@U?$pair@$$CBI_N@std@@PEAX@std@@AEBQEAU12@@std@@YAXAEAPEAU?$_Tree_node@U?$pair@$$CBI_N@std@@PEAX@0@AEBQEAU10@@Z ; std::_Construct_in_place<std::_Tree_node<std::pair<unsigned int const ,bool>,void *> *,std::_Tree_node<std::pair<unsigned int const ,bool>,void *> * const &>
PUBLIC	??$forward@AEBU?$less@I@std@@@std@@YAAEBU?$less@I@0@AEBU10@@Z ; std::forward<std::less<unsigned int> const &>
PUBLIC	??$_Freenode0@V?$xalloc@U?$_Tree_node@U?$pair@$$CBI_N@std@@PEAX@std@@@@@?$_Tree_node@U?$pair@$$CBI_N@std@@PEAX@std@@SAXAEAV?$xalloc@U?$_Tree_node@U?$pair@$$CBI_N@std@@PEAX@std@@@@PEAU01@@Z ; std::_Tree_node<std::pair<unsigned int const ,bool>,void *>::_Freenode0<xalloc<std::_Tree_node<std::pair<unsigned int const ,bool>,void *> > >
PUBLIC	??$_Erase_tree@V?$xalloc@U?$_Tree_node@U?$pair@$$CBI_N@std@@PEAX@std@@@@@?$_Tree_val@U?$_Tree_simple_types@U?$pair@$$CBI_N@std@@@std@@@std@@QEAAXAEAV?$xalloc@U?$_Tree_node@U?$pair@$$CBI_N@std@@PEAX@std@@@@PEAU?$_Tree_node@U?$pair@$$CBI_N@std@@PEAX@1@@Z ; std::_Tree_val<std::_Tree_simple_types<std::pair<unsigned int const ,bool> > >::_Erase_tree<xalloc<std::_Tree_node<std::pair<unsigned int const ,bool>,void *> > >
PUBLIC	??$?0PEAU?$_Tree_node@U?$pair@$$CBI_N@std@@PEAX@std@@_N$0A@@?$pair@PEAU?$_Tree_node@U?$pair@$$CBI_N@std@@PEAX@std@@_N@std@@QEAA@$$QEAPEAU?$_Tree_node@U?$pair@$$CBI_N@std@@PEAX@1@$$QEA_N@Z ; std::pair<std::_Tree_node<std::pair<unsigned int const ,bool>,void *> *,bool>::pair<std::_Tree_node<std::pair<unsigned int const ,bool>,void *> *,bool><std::_Tree_node<std::pair<unsigned int const ,bool>,void *> *,bool,0>
PUBLIC	??$?0AEBUpiecewise_construct_t@std@@V?$tuple@AEBI@1@V?$tuple@$$V@1@@?$_Tree_temp_node@V?$xalloc@U?$_Tree_node@U?$pair@$$CBI_N@std@@PEAX@std@@@@@std@@QEAA@AEAV?$xalloc@U?$_Tree_node@U?$pair@$$CBI_N@std@@PEAX@std@@@@PEAU?$_Tree_node@U?$pair@$$CBI_N@std@@PEAX@1@AEBUpiecewise_construct_t@1@$$QEAV?$tuple@AEBI@1@$$QEAV?$tuple@$$V@1@@Z ; std::_Tree_temp_node<xalloc<std::_Tree_node<std::pair<unsigned int const ,bool>,void *> > >::_Tree_temp_node<xalloc<std::_Tree_node<std::pair<unsigned int const ,bool>,void *> > ><std::piecewise_construct_t const &,std::tuple<unsigned int const &>,std::tuple<> >
PUBLIC	??$forward_as_tuple@AEBI@std@@YA?AV?$tuple@AEBI@0@AEBI@Z ; std::forward_as_tuple<unsigned int const &>
PUBLIC	??$?0AEBQEAU?$_Tree_node@U?$pair@$$CBI_N@std@@PEAX@std@@_N$0A@@?$pair@PEAU?$_Tree_node@U?$pair@$$CBI_N@std@@PEAX@std@@_N@std@@QEAA@AEBQEAU?$_Tree_node@U?$pair@$$CBI_N@std@@PEAX@1@$$QEA_N@Z ; std::pair<std::_Tree_node<std::pair<unsigned int const ,bool>,void *> *,bool>::pair<std::_Tree_node<std::pair<unsigned int const ,bool>,void *> *,bool><std::_Tree_node<std::pair<unsigned int const ,bool>,void *> * const &,bool,0>
PUBLIC	??$_Lower_bound_duplicate@I@?$_Tree@V?$_Tmap_traits@I_NU?$less@I@std@@V?$xalloc@U?$pair@$$CBI_N@std@@@@$0A@@std@@@std@@IEBA_NQEAU?$_Tree_node@U?$pair@$$CBI_N@std@@PEAX@1@AEBI@Z ; std::_Tree<std::_Tmap_traits<unsigned int,bool,std::less<unsigned int>,xalloc<std::pair<unsigned int const ,bool> >,0> >::_Lower_bound_duplicate<unsigned int>
PUBLIC	??$_Find_lower_bound@I@?$_Tree@V?$_Tmap_traits@I_NU?$less@I@std@@V?$xalloc@U?$pair@$$CBI_N@std@@@@$0A@@std@@@std@@IEBA?AU?$_Tree_find_result@PEAU?$_Tree_node@U?$pair@$$CBI_N@std@@PEAX@std@@@1@AEBI@Z ; std::_Tree<std::_Tmap_traits<unsigned int,bool,std::less<unsigned int>,xalloc<std::pair<unsigned int const ,bool> >,0> >::_Find_lower_bound<unsigned int>
PUBLIC	??$?0$$V@?$_Compressed_pair@V?$xalloc@U?$_Tree_node@U?$pair@$$CBI_N@std@@PEAX@std@@@@V?$_Tree_val@U?$_Tree_simple_types@U?$pair@$$CBI_N@std@@@std@@@std@@$00@std@@QEAA@U_Zero_then_variadic_args_t@1@@Z ; std::_Compressed_pair<xalloc<std::_Tree_node<std::pair<unsigned int const ,bool>,void *> >,std::_Tree_val<std::_Tree_simple_types<std::pair<unsigned int const ,bool> > >,1>::_Compressed_pair<xalloc<std::_Tree_node<std::pair<unsigned int const ,bool>,void *> >,std::_Tree_val<std::_Tree_simple_types<std::pair<unsigned int const ,bool> > >,1><>
PUBLIC	?max_size@?$xalloc@U?$_Tree_node@U?$pair@$$CBI_N@std@@PEAX@std@@@@QEBA_KXZ ; xalloc<std::_Tree_node<std::pair<unsigned int const ,bool>,void *> >::max_size
PUBLIC	?_Get_first@?$_Compressed_pair@V?$xalloc@U?$_Tree_node@U?$pair@$$CBI_N@std@@PEAX@std@@@@V?$_Tree_val@U?$_Tree_simple_types@U?$pair@$$CBI_N@std@@@std@@@std@@$00@std@@QEBAAEBV?$xalloc@U?$_Tree_node@U?$pair@$$CBI_N@std@@PEAX@std@@@@XZ ; std::_Compressed_pair<xalloc<std::_Tree_node<std::pair<unsigned int const ,bool>,void *> >,std::_Tree_val<std::_Tree_simple_types<std::pair<unsigned int const ,bool> > >,1>::_Get_first
PUBLIC	?deallocate@?$xalloc@U?$_Tree_node@U?$pair@$$CBI_N@std@@PEAX@std@@@@QEBAXPEAU?$_Tree_node@U?$pair@$$CBI_N@std@@PEAX@std@@_K@Z ; xalloc<std::_Tree_node<std::pair<unsigned int const ,bool>,void *> >::deallocate
PUBLIC	?max_size@?$_Normal_allocator_traits@V?$xalloc@U?$_Tree_node@U?$pair@$$CBI_N@std@@PEAX@std@@@@@std@@SA_KAEBV?$xalloc@U?$_Tree_node@U?$pair@$$CBI_N@std@@PEAX@std@@@@@Z ; std::_Normal_allocator_traits<xalloc<std::_Tree_node<std::pair<unsigned int const ,bool>,void *> > >::max_size
PUBLIC	?_Getal@?$_Tree@V?$_Tmap_traits@I_NU?$less@I@std@@V?$xalloc@U?$pair@$$CBI_N@std@@@@$0A@@std@@@std@@IEBAAEBV?$xalloc@U?$_Tree_node@U?$pair@$$CBI_N@std@@PEAX@std@@@@XZ ; std::_Tree<std::_Tmap_traits<unsigned int,bool,std::less<unsigned int>,xalloc<std::pair<unsigned int const ,bool> >,0> >::_Getal
PUBLIC	?max_size@?$_Tree@V?$_Tmap_traits@I_NU?$less@I@std@@V?$xalloc@U?$pair@$$CBI_N@std@@@@$0A@@std@@@std@@QEBA_KXZ ; std::_Tree<std::_Tmap_traits<unsigned int,bool,std::less<unsigned int>,xalloc<std::pair<unsigned int const ,bool> >,0> >::max_size
PUBLIC	?_Lrotate@?$_Tree_val@U?$_Tree_simple_types@U?$pair@$$CBI_N@std@@@std@@@std@@QEAAXPEAU?$_Tree_node@U?$pair@$$CBI_N@std@@PEAX@2@@Z ; std::_Tree_val<std::_Tree_simple_types<std::pair<unsigned int const ,bool> > >::_Lrotate
PUBLIC	?_Rrotate@?$_Tree_val@U?$_Tree_simple_types@U?$pair@$$CBI_N@std@@@std@@@std@@QEAAXPEAU?$_Tree_node@U?$pair@$$CBI_N@std@@PEAX@2@@Z ; std::_Tree_val<std::_Tree_simple_types<std::pair<unsigned int const ,bool> > >::_Rrotate
PUBLIC	??1?$_Alloc_construct_ptr@V?$xalloc@U?$_Tree_node@U?$pair@$$CBI_N@std@@PEAX@std@@@@@std@@QEAA@XZ ; std::_Alloc_construct_ptr<xalloc<std::_Tree_node<std::pair<unsigned int const ,bool>,void *> > >::~_Alloc_construct_ptr<xalloc<std::_Tree_node<std::pair<unsigned int const ,bool>,void *> > >
PUBLIC	??1?$_Tree_temp_node_alloc@V?$xalloc@U?$_Tree_node@U?$pair@$$CBI_N@std@@PEAX@std@@@@@std@@QEAA@XZ ; std::_Tree_temp_node_alloc<xalloc<std::_Tree_node<std::pair<unsigned int const ,bool>,void *> > >::~_Tree_temp_node_alloc<xalloc<std::_Tree_node<std::pair<unsigned int const ,bool>,void *> > >
PUBLIC	?allocate@?$xalloc@U?$_Tree_node@U?$pair@$$CBI_N@std@@PEAX@std@@@@QEBAPEAU?$_Tree_node@U?$pair@$$CBI_N@std@@PEAX@std@@_KPEBX@Z ; xalloc<std::_Tree_node<std::pair<unsigned int const ,bool>,void *> >::allocate
PUBLIC	?_Check_grow_by_1@?$_Tree@V?$_Tmap_traits@I_NU?$less@I@std@@V?$xalloc@U?$pair@$$CBI_N@std@@@@$0A@@std@@@std@@IEAAXXZ ; std::_Tree<std::_Tmap_traits<unsigned int,bool,std::less<unsigned int>,xalloc<std::pair<unsigned int const ,bool> >,0> >::_Check_grow_by_1
PUBLIC	?_Insert_node@?$_Tree_val@U?$_Tree_simple_types@U?$pair@$$CBI_N@std@@@std@@@std@@QEAAPEAU?$_Tree_node@U?$pair@$$CBI_N@std@@PEAX@2@U?$_Tree_id@PEAU?$_Tree_node@U?$pair@$$CBI_N@std@@PEAX@std@@@2@QEAU32@@Z ; std::_Tree_val<std::_Tree_simple_types<std::pair<unsigned int const ,bool> > >::_Insert_node
PUBLIC	?_Release@?$_Alloc_construct_ptr@V?$xalloc@U?$_Tree_node@U?$pair@$$CBI_N@std@@PEAX@std@@@@@std@@QEAAPEAU?$_Tree_node@U?$pair@$$CBI_N@std@@PEAX@2@XZ ; std::_Alloc_construct_ptr<xalloc<std::_Tree_node<std::pair<unsigned int const ,bool>,void *> > >::_Release
PUBLIC	??1?$_Tree_temp_node@V?$xalloc@U?$_Tree_node@U?$pair@$$CBI_N@std@@PEAX@std@@@@@std@@QEAA@XZ ; std::_Tree_temp_node<xalloc<std::_Tree_node<std::pair<unsigned int const ,bool>,void *> > >::~_Tree_temp_node<xalloc<std::_Tree_node<std::pair<unsigned int const ,bool>,void *> > >
PUBLIC	??$_Buyheadnode@V?$xalloc@U?$_Tree_node@U?$pair@$$CBI_N@std@@PEAX@std@@@@@?$_Tree_node@U?$pair@$$CBI_N@std@@PEAX@std@@SAPEAU01@AEAV?$xalloc@U?$_Tree_node@U?$pair@$$CBI_N@std@@PEAX@std@@@@@Z ; std::_Tree_node<std::pair<unsigned int const ,bool>,void *>::_Buyheadnode<xalloc<std::_Tree_node<std::pair<unsigned int const ,bool>,void *> > >
PUBLIC	??$?0AEBU?$less@I@std@@U_Zero_then_variadic_args_t@1@@?$_Compressed_pair@U?$less@I@std@@V?$_Compressed_pair@V?$xalloc@U?$_Tree_node@U?$pair@$$CBI_N@std@@PEAX@std@@@@V?$_Tree_val@U?$_Tree_simple_types@U?$pair@$$CBI_N@std@@@std@@@std@@$00@2@$00@std@@QEAA@U_One_then_variadic_args_t@1@AEBU?$less@I@1@$$QEAU_Zero_then_variadic_args_t@1@@Z ; std::_Compressed_pair<std::less<unsigned int>,std::_Compressed_pair<xalloc<std::_Tree_node<std::pair<unsigned int const ,bool>,void *> >,std::_Tree_val<std::_Tree_simple_types<std::pair<unsigned int const ,bool> > >,1>,1>::_Compressed_pair<std::less<unsigned int>,std::_Compressed_pair<xalloc<std::_Tree_node<std::pair<unsigned int const ,bool>,void *> >,std::_Tree_val<std::_Tree_simple_types<std::pair<unsigned int const ,bool> > >,1>,1><std::less<unsigned int> const &,std::_Zero_then_variadic_args_t>
PUBLIC	??$addressof@V?$_Tree_val@U?$_Tree_simple_types@U?$pair@$$CBI_N@std@@@std@@@std@@@std@@YAPEAV?$_Tree_val@U?$_Tree_simple_types@U?$pair@$$CBI_N@std@@@std@@@0@AEAV10@@Z ; std::addressof<std::_Tree_val<std::_Tree_simple_types<std::pair<unsigned int const ,bool> > > >
PUBLIC	??$_Erase_head@V?$xalloc@U?$_Tree_node@U?$pair@$$CBI_N@std@@PEAX@std@@@@@?$_Tree_val@U?$_Tree_simple_types@U?$pair@$$CBI_N@std@@@std@@@std@@QEAAXAEAV?$xalloc@U?$_Tree_node@U?$pair@$$CBI_N@std@@PEAX@std@@@@@Z ; std::_Tree_val<std::_Tree_simple_types<std::pair<unsigned int const ,bool> > >::_Erase_head<xalloc<std::_Tree_node<std::pair<unsigned int const ,bool>,void *> > >
PUBLIC	??$_Try_emplace@AEBI$$V@?$map@I_NU?$less@I@std@@V?$xalloc@U?$pair@$$CBI_N@std@@@@@std@@AEAA?AU?$pair@PEAU?$_Tree_node@U?$pair@$$CBI_N@std@@PEAX@std@@_N@1@AEBI@Z ; std::map<unsigned int,bool,std::less<unsigned int>,xalloc<std::pair<unsigned int const ,bool> > >::_Try_emplace<unsigned int const &>
PUBLIC	??$xr_new@VIReader@@PEADH@@YAPEAVIReader@@AEBQEADAEBH@Z ; xr_new<IReader,char *,int>
PUBLIC	?_Alloc_sentinel_and_proxy@?$_Tree@V?$_Tmap_traits@I_NU?$less@I@std@@V?$xalloc@U?$pair@$$CBI_N@std@@@@$0A@@std@@@std@@IEAAXXZ ; std::_Tree<std::_Tmap_traits<unsigned int,bool,std::less<unsigned int>,xalloc<std::pair<unsigned int const ,bool> >,0> >::_Alloc_sentinel_and_proxy
PUBLIC	?_Get_first@?$_Compressed_pair@V?$xalloc@U?$_Tree_node@U?$pair@$$CBI_N@std@@PEAX@std@@@@V?$_Tree_val@U?$_Tree_simple_types@U?$pair@$$CBI_N@std@@@std@@@std@@$00@std@@QEAAAEAV?$xalloc@U?$_Tree_node@U?$pair@$$CBI_N@std@@PEAX@std@@@@XZ ; std::_Compressed_pair<xalloc<std::_Tree_node<std::pair<unsigned int const ,bool>,void *> >,std::_Tree_val<std::_Tree_simple_types<std::pair<unsigned int const ,bool> > >,1>::_Get_first
PUBLIC	??0?$_Tree@V?$_Tmap_traits@I_NU?$less@I@std@@V?$xalloc@U?$pair@$$CBI_N@std@@@@$0A@@std@@@std@@QEAA@AEBU?$less@I@1@@Z ; std::_Tree<std::_Tmap_traits<unsigned int,bool,std::less<unsigned int>,xalloc<std::pair<unsigned int const ,bool> >,0> >::_Tree<std::_Tmap_traits<unsigned int,bool,std::less<unsigned int>,xalloc<std::pair<unsigned int const ,bool> >,0> >
PUBLIC	?_Getal@?$_Tree@V?$_Tmap_traits@I_NU?$less@I@std@@V?$xalloc@U?$pair@$$CBI_N@std@@@@$0A@@std@@@std@@IEAAAEAV?$xalloc@U?$_Tree_node@U?$pair@$$CBI_N@std@@PEAX@std@@@@XZ ; std::_Tree<std::_Tmap_traits<unsigned int,bool,std::less<unsigned int>,xalloc<std::pair<unsigned int const ,bool> >,0> >::_Getal
PUBLIC	?_Get_scary@?$_Tree@V?$_Tmap_traits@I_NU?$less@I@std@@V?$xalloc@U?$pair@$$CBI_N@std@@@@$0A@@std@@@std@@IEAAPEAV?$_Tree_val@U?$_Tree_simple_types@U?$pair@$$CBI_N@std@@@std@@@2@XZ ; std::_Tree<std::_Tmap_traits<unsigned int,bool,std::less<unsigned int>,xalloc<std::pair<unsigned int const ,bool> >,0> >::_Get_scary
PUBLIC	?r_u16@?$IReaderBase@VIReader@@@@QEAAGXZ	; IReaderBase<IReader>::r_u16
PUBLIC	?r_u8@?$IReaderBase@VIReader@@@@QEAAEXZ		; IReaderBase<IReader>::r_u8
PUBLIC	??1?$_Tree@V?$_Tmap_traits@I_NU?$less@I@std@@V?$xalloc@U?$pair@$$CBI_N@std@@@@$0A@@std@@@std@@QEAA@XZ ; std::_Tree<std::_Tmap_traits<unsigned int,bool,std::less<unsigned int>,xalloc<std::pair<unsigned int const ,bool> >,0> >::~_Tree<std::_Tmap_traits<unsigned int,bool,std::less<unsigned int>,xalloc<std::pair<unsigned int const ,bool> >,0> >
PUBLIC	??0?$map@I_NU?$less@I@std@@V?$xalloc@U?$pair@$$CBI_N@std@@@@@std@@QEAA@XZ ; std::map<unsigned int,bool,std::less<unsigned int>,xalloc<std::pair<unsigned int const ,bool> > >::map<unsigned int,bool,std::less<unsigned int>,xalloc<std::pair<unsigned int const ,bool> > >
PUBLIC	??A?$map@I_NU?$less@I@std@@V?$xalloc@U?$pair@$$CBI_N@std@@@@@std@@QEAAAEA_NAEBI@Z ; std::map<unsigned int,bool,std::less<unsigned int>,xalloc<std::pair<unsigned int const ,bool> > >::operator[]
PUBLIC	??1?$map@I_NU?$less@I@std@@V?$xalloc@U?$pair@$$CBI_N@std@@@@@std@@QEAA@XZ ; std::map<unsigned int,bool,std::less<unsigned int>,xalloc<std::pair<unsigned int const ,bool> > >::~map<unsigned int,bool,std::less<unsigned int>,xalloc<std::pair<unsigned int const ,bool> > >
PUBLIC	??1?$xr_map@I_NU?$less@I@std@@V?$xalloc@U?$pair@$$CBI_N@std@@@@@@QEAA@XZ ; xr_map<unsigned int,bool,std::less<unsigned int>,xalloc<std::pair<unsigned int const ,bool> > >::~xr_map<unsigned int,bool,std::less<unsigned int>,xalloc<std::pair<unsigned int const ,bool> > >
PUBLIC	??0?$xr_map@I_NU?$less@I@std@@V?$xalloc@U?$pair@$$CBI_N@std@@@@@@QEAA@XZ ; xr_map<unsigned int,bool,std::less<unsigned int>,xalloc<std::pair<unsigned int const ,bool> > >::xr_map<unsigned int,bool,std::less<unsigned int>,xalloc<std::pair<unsigned int const ,bool> > >
PUBLIC	?FunctionHide@@YAXPEAVCLocatorAPI@@AEAUarchive@1@AEAY0CAI@DPEBD@Z ; FunctionHide
;	COMDAT pdata
pdata	SEGMENT
$pdata$?_Allocate@?$_Alloc_construct_ptr@V?$xalloc@U?$_Tree_node@U?$pair@$$CBI_N@std@@PEAX@std@@@@@std@@QEAAXXZ DD imagerel $LN38
	DD	imagerel $LN38+69
	DD	imagerel $unwind$?_Allocate@?$_Alloc_construct_ptr@V?$xalloc@U?$_Tree_node@U?$pair@$$CBI_N@std@@PEAX@std@@@@@std@@QEAAXXZ
pdata	ENDS
;	COMDAT pdata
pdata	SEGMENT
$pdata$??0?$_Tree_temp_node_alloc@V?$xalloc@U?$_Tree_node@U?$pair@$$CBI_N@std@@PEAX@std@@@@@std@@QEAA@AEAV?$xalloc@U?$_Tree_node@U?$pair@$$CBI_N@std@@PEAX@std@@@@@Z DD imagerel $LN49
	DD	imagerel $LN49+75
	DD	imagerel $unwind$??0?$_Tree_temp_node_alloc@V?$xalloc@U?$_Tree_node@U?$pair@$$CBI_N@std@@PEAX@std@@@@@std@@QEAA@AEAV?$xalloc@U?$_Tree_node@U?$pair@$$CBI_N@std@@PEAX@std@@@@@Z
pdata	ENDS
;	COMDAT pdata
pdata	SEGMENT
$pdata$??$xr_free@U?$_Tree_node@U?$pair@$$CBI_N@std@@PEAX@std@@@@YAXAEAPEAU?$_Tree_node@U?$pair@$$CBI_N@std@@PEAX@std@@@Z DD imagerel $LN24
	DD	imagerel $LN24+42
	DD	imagerel $unwind$??$xr_free@U?$_Tree_node@U?$pair@$$CBI_N@std@@PEAX@std@@@@YAXAEAPEAU?$_Tree_node@U?$pair@$$CBI_N@std@@PEAX@std@@@Z
pdata	ENDS
;	COMDAT pdata
pdata	SEGMENT
$pdata$??$xr_alloc@U?$_Tree_node@U?$pair@$$CBI_N@std@@PEAX@std@@@@YAPEAU?$_Tree_node@U?$pair@$$CBI_N@std@@PEAX@std@@I@Z DD imagerel $LN34
	DD	imagerel $LN34+51
	DD	imagerel $unwind$??$xr_alloc@U?$_Tree_node@U?$pair@$$CBI_N@std@@PEAX@std@@@@YAPEAU?$_Tree_node@U?$pair@$$CBI_N@std@@PEAX@std@@I@Z
pdata	ENDS
;	COMDAT pdata
pdata	SEGMENT
$pdata$??$_Erase_tree@V?$xalloc@U?$_Tree_node@U?$pair@$$CBI_N@std@@PEAX@std@@@@@?$_Tree_val@U?$_Tree_simple_types@U?$pair@$$CBI_N@std@@@std@@@std@@QEAAXAEAV?$xalloc@U?$_Tree_node@U?$pair@$$CBI_N@std@@PEAX@std@@@@PEAU?$_Tree_node@U?$pair@$$CBI_N@std@@PEAX@1@@Z DD imagerel $LN523
	DD	imagerel $LN523+92
	DD	imagerel $unwind$??$_Erase_tree@V?$xalloc@U?$_Tree_node@U?$pair@$$CBI_N@std@@PEAX@std@@@@@?$_Tree_val@U?$_Tree_simple_types@U?$pair@$$CBI_N@std@@@std@@@std@@QEAAXAEAV?$xalloc@U?$_Tree_node@U?$pair@$$CBI_N@std@@PEAX@std@@@@PEAU?$_Tree_node@U?$pair@$$CBI_N@std@@PEAX@1@@Z
pdata	ENDS
;	COMDAT pdata
pdata	SEGMENT
$pdata$??$?0AEBUpiecewise_construct_t@std@@V?$tuple@AEBI@1@V?$tuple@$$V@1@@?$_Tree_temp_node@V?$xalloc@U?$_Tree_node@U?$pair@$$CBI_N@std@@PEAX@std@@@@@std@@QEAA@AEAV?$xalloc@U?$_Tree_node@U?$pair@$$CBI_N@std@@PEAX@std@@@@PEAU?$_Tree_node@U?$pair@$$CBI_N@std@@PEAX@1@AEBUpiecewise_construct_t@1@$$QEAV?$tuple@AEBI@1@$$QEAV?$tuple@$$V@1@@Z DD imagerel $LN65
	DD	imagerel $LN65+146
	DD	imagerel $unwind$??$?0AEBUpiecewise_construct_t@std@@V?$tuple@AEBI@1@V?$tuple@$$V@1@@?$_Tree_temp_node@V?$xalloc@U?$_Tree_node@U?$pair@$$CBI_N@std@@PEAX@std@@@@@std@@QEAA@AEAV?$xalloc@U?$_Tree_node@U?$pair@$$CBI_N@std@@PEAX@std@@@@PEAU?$_Tree_node@U?$pair@$$CBI_N@std@@PEAX@1@AEBUpiecewise_construct_t@1@$$QEAV?$tuple@AEBI@1@$$QEAV?$tuple@$$V@1@@Z
pdata	ENDS
;	COMDAT pdata
pdata	SEGMENT
$pdata$?allocate@?$xalloc@U?$_Tree_node@U?$pair@$$CBI_N@std@@PEAX@std@@@@QEBAPEAU?$_Tree_node@U?$pair@$$CBI_N@std@@PEAX@std@@_KPEBX@Z DD imagerel $LN36
	DD	imagerel $LN36+51
	DD	imagerel $unwind$?allocate@?$xalloc@U?$_Tree_node@U?$pair@$$CBI_N@std@@PEAX@std@@@@QEBAPEAU?$_Tree_node@U?$pair@$$CBI_N@std@@PEAX@std@@_KPEBX@Z
pdata	ENDS
;	COMDAT pdata
pdata	SEGMENT
$pdata$?_Check_grow_by_1@?$_Tree@V?$_Tmap_traits@I_NU?$less@I@std@@V?$xalloc@U?$pair@$$CBI_N@std@@@@$0A@@std@@@std@@IEAAXXZ DD imagerel $LN7
	DD	imagerel $LN7+31
	DD	imagerel $unwind$?_Check_grow_by_1@?$_Tree@V?$_Tmap_traits@I_NU?$less@I@std@@V?$xalloc@U?$pair@$$CBI_N@std@@@@$0A@@std@@@std@@IEAAXXZ
pdata	ENDS
;	COMDAT pdata
pdata	SEGMENT
$pdata$??$_Buyheadnode@V?$xalloc@U?$_Tree_node@U?$pair@$$CBI_N@std@@PEAX@std@@@@@?$_Tree_node@U?$pair@$$CBI_N@std@@PEAX@std@@SAPEAU01@AEAV?$xalloc@U?$_Tree_node@U?$pair@$$CBI_N@std@@PEAX@std@@@@@Z DD imagerel $LN37
	DD	imagerel $LN37+64
	DD	imagerel $unwind$??$_Buyheadnode@V?$xalloc@U?$_Tree_node@U?$pair@$$CBI_N@std@@PEAX@std@@@@@?$_Tree_node@U?$pair@$$CBI_N@std@@PEAX@std@@SAPEAU01@AEAV?$xalloc@U?$_Tree_node@U?$pair@$$CBI_N@std@@PEAX@std@@@@@Z
pdata	ENDS
;	COMDAT pdata
pdata	SEGMENT
$pdata$??$_Erase_head@V?$xalloc@U?$_Tree_node@U?$pair@$$CBI_N@std@@PEAX@std@@@@@?$_Tree_val@U?$_Tree_simple_types@U?$pair@$$CBI_N@std@@@std@@@std@@QEAAXAEAV?$xalloc@U?$_Tree_node@U?$pair@$$CBI_N@std@@PEAX@std@@@@@Z DD imagerel $LN553
	DD	imagerel $LN553+128
	DD	imagerel $unwind$??$_Erase_head@V?$xalloc@U?$_Tree_node@U?$pair@$$CBI_N@std@@PEAX@std@@@@@?$_Tree_val@U?$_Tree_simple_types@U?$pair@$$CBI_N@std@@@std@@@std@@QEAAXAEAV?$xalloc@U?$_Tree_node@U?$pair@$$CBI_N@std@@PEAX@std@@@@@Z
pdata	ENDS
;	COMDAT pdata
pdata	SEGMENT
$pdata$??$_Try_emplace@AEBI$$V@?$map@I_NU?$less@I@std@@V?$xalloc@U?$pair@$$CBI_N@std@@@@@std@@AEAA?AU?$pair@PEAU?$_Tree_node@U?$pair@$$CBI_N@std@@PEAX@std@@_N@1@AEBI@Z DD imagerel $LN129
	DD	imagerel $LN129+280
	DD	imagerel $unwind$??$_Try_emplace@AEBI$$V@?$map@I_NU?$less@I@std@@V?$xalloc@U?$pair@$$CBI_N@std@@@@@std@@AEAA?AU?$pair@PEAU?$_Tree_node@U?$pair@$$CBI_N@std@@PEAX@std@@_N@1@AEBI@Z
pdata	ENDS
;	COMDAT pdata
pdata	SEGMENT
$pdata$??$xr_new@VIReader@@PEADH@@YAPEAVIReader@@AEBQEADAEBH@Z DD imagerel $LN38
	DD	imagerel $LN38+89
	DD	imagerel $unwind$??$xr_new@VIReader@@PEADH@@YAPEAVIReader@@AEBQEADAEBH@Z
pdata	ENDS
;	COMDAT pdata
pdata	SEGMENT
$pdata$?_Alloc_sentinel_and_proxy@?$_Tree@V?$_Tmap_traits@I_NU?$less@I@std@@V?$xalloc@U?$pair@$$CBI_N@std@@@@$0A@@std@@@std@@IEAAXXZ DD imagerel $LN39
	DD	imagerel $LN39+73
	DD	imagerel $unwind$?_Alloc_sentinel_and_proxy@?$_Tree@V?$_Tmap_traits@I_NU?$less@I@std@@V?$xalloc@U?$pair@$$CBI_N@std@@@@$0A@@std@@@std@@IEAAXXZ
pdata	ENDS
;	COMDAT pdata
pdata	SEGMENT
$pdata$??0?$_Tree@V?$_Tmap_traits@I_NU?$less@I@std@@V?$xalloc@U?$pair@$$CBI_N@std@@@@$0A@@std@@@std@@QEAA@AEBU?$less@I@1@@Z DD imagerel $LN47
	DD	imagerel $LN47+90
	DD	imagerel $unwind$??0?$_Tree@V?$_Tmap_traits@I_NU?$less@I@std@@V?$xalloc@U?$pair@$$CBI_N@std@@@@$0A@@std@@@std@@QEAA@AEBU?$less@I@1@@Z
pdata	ENDS
;	COMDAT pdata
pdata	SEGMENT
$pdata$??1?$_Tree@V?$_Tmap_traits@I_NU?$less@I@std@@V?$xalloc@U?$pair@$$CBI_N@std@@@@$0A@@std@@@std@@QEAA@XZ DD imagerel $LN555
	DD	imagerel $LN555+107
	DD	imagerel $unwind$??1?$_Tree@V?$_Tmap_traits@I_NU?$less@I@std@@V?$xalloc@U?$pair@$$CBI_N@std@@@@$0A@@std@@@std@@QEAA@XZ
pdata	ENDS
;	COMDAT pdata
pdata	SEGMENT
$pdata$??0?$map@I_NU?$less@I@std@@V?$xalloc@U?$pair@$$CBI_N@std@@@@@std@@QEAA@XZ DD imagerel $LN50
	DD	imagerel $LN50+90
	DD	imagerel $unwind$??0?$map@I_NU?$less@I@std@@V?$xalloc@U?$pair@$$CBI_N@std@@@@@std@@QEAA@XZ
pdata	ENDS
;	COMDAT pdata
pdata	SEGMENT
$pdata$??A?$map@I_NU?$less@I@std@@V?$xalloc@U?$pair@$$CBI_N@std@@@@@std@@QEAAAEA_NAEBI@Z DD imagerel $LN131
	DD	imagerel $LN131+249
	DD	imagerel $unwind$??A?$map@I_NU?$less@I@std@@V?$xalloc@U?$pair@$$CBI_N@std@@@@@std@@QEAAAEA_NAEBI@Z
pdata	ENDS
;	COMDAT pdata
pdata	SEGMENT
$pdata$??0?$xr_map@I_NU?$less@I@std@@V?$xalloc@U?$pair@$$CBI_N@std@@@@@@QEAA@XZ DD imagerel $LN52
	DD	imagerel $LN52+90
	DD	imagerel $unwind$??0?$xr_map@I_NU?$less@I@std@@V?$xalloc@U?$pair@$$CBI_N@std@@@@@@QEAA@XZ
pdata	ENDS
pdata	SEGMENT
$pdata$?FunctionHide@@YAXPEAVCLocatorAPI@@AEAUarchive@1@AEAY0CAI@DPEBD@Z DD imagerel $LN1739
	DD	imagerel $LN1739+2054
	DD	imagerel $unwind$?FunctionHide@@YAXPEAVCLocatorAPI@@AEAUarchive@1@AEAY0CAI@DPEBD@Z
xdata	SEGMENT
$unwind$?FunctionHide@@YAXPEAVCLocatorAPI@@AEAUarchive@1@AEAY0CAI@DPEBD@Z DD 0a2f01H
	DD	0159012fH
	DD	0e01ef020H
	DD	0c01ad01cH
	DD	060177018H
	DD	050153016H
xdata	ENDS
;	COMDAT xdata
xdata	SEGMENT
$unwind$??0?$xr_map@I_NU?$less@I@std@@V?$xalloc@U?$pair@$$CBI_N@std@@@@@@QEAA@XZ DD 040a01H
	DD	06340aH
	DD	07006320aH
xdata	ENDS
;	COMDAT xdata
xdata	SEGMENT
$unwind$??A?$map@I_NU?$less@I@std@@V?$xalloc@U?$pair@$$CBI_N@std@@@@@std@@QEAAAEA_NAEBI@Z DD 060f01H
	DD	0b640fH
	DD	0a340fH
	DD	0700b720fH
xdata	ENDS
;	COMDAT xdata
xdata	SEGMENT
$unwind$??0?$map@I_NU?$less@I@std@@V?$xalloc@U?$pair@$$CBI_N@std@@@@@std@@QEAA@XZ DD 040a01H
	DD	06340aH
	DD	07006320aH
xdata	ENDS
;	COMDAT xdata
xdata	SEGMENT
$unwind$??1?$_Tree@V?$_Tmap_traits@I_NU?$less@I@std@@V?$xalloc@U?$pair@$$CBI_N@std@@@@$0A@@std@@@std@@QEAA@XZ DD 040a01H
	DD	06340aH
	DD	07006320aH
xdata	ENDS
;	COMDAT xdata
xdata	SEGMENT
$unwind$??0?$_Tree@V?$_Tmap_traits@I_NU?$less@I@std@@V?$xalloc@U?$pair@$$CBI_N@std@@@@$0A@@std@@@std@@QEAA@AEBU?$less@I@1@@Z DD 040a01H
	DD	06340aH
	DD	07006320aH
xdata	ENDS
;	COMDAT xdata
xdata	SEGMENT
$unwind$?_Alloc_sentinel_and_proxy@?$_Tree@V?$_Tmap_traits@I_NU?$less@I@std@@V?$xalloc@U?$pair@$$CBI_N@std@@@@$0A@@std@@@std@@IEAAXXZ DD 020601H
	DD	030023206H
xdata	ENDS
;	COMDAT xdata
xdata	SEGMENT
$unwind$??$xr_new@VIReader@@PEADH@@YAPEAVIReader@@AEBQEADAEBH@Z DD 040a01H
	DD	06340aH
	DD	07006320aH
xdata	ENDS
;	COMDAT xdata
xdata	SEGMENT
$unwind$??$_Try_emplace@AEBI$$V@?$map@I_NU?$less@I@std@@V?$xalloc@U?$pair@$$CBI_N@std@@@@@std@@AEAA?AU?$pair@PEAU?$_Tree_node@U?$pair@$$CBI_N@std@@PEAX@std@@_N@1@AEBI@Z DD 081501H
	DD	0c7415H
	DD	0b6415H
	DD	0a3415H
	DD	0e0117215H
xdata	ENDS
;	COMDAT xdata
xdata	SEGMENT
$unwind$??$_Erase_head@V?$xalloc@U?$_Tree_node@U?$pair@$$CBI_N@std@@PEAX@std@@@@@?$_Tree_val@U?$_Tree_simple_types@U?$pair@$$CBI_N@std@@@std@@@std@@QEAAXAEAV?$xalloc@U?$_Tree_node@U?$pair@$$CBI_N@std@@PEAX@std@@@@@Z DD 060f01H
	DD	07640fH
	DD	06340fH
	DD	0700b320fH
xdata	ENDS
;	COMDAT xdata
xdata	SEGMENT
$unwind$??$_Buyheadnode@V?$xalloc@U?$_Tree_node@U?$pair@$$CBI_N@std@@PEAX@std@@@@@?$_Tree_node@U?$pair@$$CBI_N@std@@PEAX@std@@SAPEAU01@AEAV?$xalloc@U?$_Tree_node@U?$pair@$$CBI_N@std@@PEAX@std@@@@@Z DD 010401H
	DD	04204H
xdata	ENDS
;	COMDAT xdata
xdata	SEGMENT
$unwind$?_Check_grow_by_1@?$_Tree@V?$_Tmap_traits@I_NU?$less@I@std@@V?$xalloc@U?$pair@$$CBI_N@std@@@@$0A@@std@@@std@@IEAAXXZ DD 010401H
	DD	04204H
xdata	ENDS
;	COMDAT xdata
xdata	SEGMENT
$unwind$?allocate@?$xalloc@U?$_Tree_node@U?$pair@$$CBI_N@std@@PEAX@std@@@@QEBAPEAU?$_Tree_node@U?$pair@$$CBI_N@std@@PEAX@std@@_KPEBX@Z DD 010401H
	DD	04204H
xdata	ENDS
;	COMDAT xdata
xdata	SEGMENT
$unwind$??$?0AEBUpiecewise_construct_t@std@@V?$tuple@AEBI@1@V?$tuple@$$V@1@@?$_Tree_temp_node@V?$xalloc@U?$_Tree_node@U?$pair@$$CBI_N@std@@PEAX@std@@@@@std@@QEAA@AEAV?$xalloc@U?$_Tree_node@U?$pair@$$CBI_N@std@@PEAX@std@@@@PEAU?$_Tree_node@U?$pair@$$CBI_N@std@@PEAX@1@AEBUpiecewise_construct_t@1@$$QEAV?$tuple@AEBI@1@$$QEAV?$tuple@$$V@1@@Z DD 040a01H
	DD	06340aH
	DD	07006320aH
xdata	ENDS
;	COMDAT xdata
xdata	SEGMENT
$unwind$??$_Erase_tree@V?$xalloc@U?$_Tree_node@U?$pair@$$CBI_N@std@@PEAX@std@@@@@?$_Tree_val@U?$_Tree_simple_types@U?$pair@$$CBI_N@std@@@std@@@std@@QEAAXAEAV?$xalloc@U?$_Tree_node@U?$pair@$$CBI_N@std@@PEAX@std@@@@PEAU?$_Tree_node@U?$pair@$$CBI_N@std@@PEAX@1@@Z DD 060f01H
	DD	07640fH
	DD	06340fH
	DD	0700b320fH
xdata	ENDS
;	COMDAT xdata
xdata	SEGMENT
$unwind$??$xr_alloc@U?$_Tree_node@U?$pair@$$CBI_N@std@@PEAX@std@@@@YAPEAU?$_Tree_node@U?$pair@$$CBI_N@std@@PEAX@std@@I@Z DD 010401H
	DD	04204H
xdata	ENDS
;	COMDAT xdata
xdata	SEGMENT
$unwind$??$xr_free@U?$_Tree_node@U?$pair@$$CBI_N@std@@PEAX@std@@@@YAXAEAPEAU?$_Tree_node@U?$pair@$$CBI_N@std@@PEAX@std@@@Z DD 020601H
	DD	030023206H
xdata	ENDS
;	COMDAT xdata
xdata	SEGMENT
$unwind$??0?$_Tree_temp_node_alloc@V?$xalloc@U?$_Tree_node@U?$pair@$$CBI_N@std@@PEAX@std@@@@@std@@QEAA@AEAV?$xalloc@U?$_Tree_node@U?$pair@$$CBI_N@std@@PEAX@std@@@@@Z DD 020601H
	DD	030023206H
xdata	ENDS
;	COMDAT xdata
xdata	SEGMENT
$unwind$?_Allocate@?$_Alloc_construct_ptr@V?$xalloc@U?$_Tree_node@U?$pair@$$CBI_N@std@@PEAX@std@@@@@std@@QEAAXXZ DD 020601H
	DD	030023206H
; Function compile flags: /Ogtpy
; File C:\Users\Mahito\Desktop\Night outing\Night-outing\src\xrCore\FS_Hide.cpp
; File C:\Users\Mahito\Desktop\Night outing\Night-outing\src\xrCore\xrstring.h
; File C:\Users\Mahito\Desktop\Night outing\Night-outing\src\xrCore\FS_Hide.cpp
; File C:\Users\Mahito\Desktop\Night outing\Night-outing\src\xrCore\xrstring.h
; File C:\Users\Mahito\Desktop\Night outing\Night-outing\src\xrCore\FS_Hide.cpp
; File C:\Users\Mahito\Desktop\Night outing\Night-outing\src\xrCore\xrstring.h
; File C:\Users\Mahito\Desktop\Night outing\Night-outing\src\xrCore\FS_Hide.cpp
; File C:\Program Files\Microsoft Visual Studio\2022\Community\VC\Tools\MSVC\14.35.32215\include\vector
; File C:\Users\Mahito\Desktop\Night outing\Night-outing\src\xrCore\FS.h
; File C:\Program Files\Microsoft Visual Studio\2022\Community\VC\Tools\MSVC\14.35.32215\include\vector
; File C:\Users\Mahito\Desktop\Night outing\Night-outing\src\xrCore\FS.h
; File C:\Users\Mahito\Desktop\Night outing\Night-outing\src\xrCore\FS_Hide.cpp
; File C:\Users\Mahito\Desktop\Night outing\Night-outing\src\xrCore\FS.h
; File C:\Users\Mahito\Desktop\Night outing\Night-outing\src\xrCore\FS.cpp
; File C:\Users\Mahito\Desktop\Night outing\Night-outing\src\xrCore\FS.h
; File C:\Users\Mahito\Desktop\Night outing\Night-outing\src\xrCore\FS.cpp
; File C:\Users\Mahito\Desktop\Night outing\Night-outing\src\xrCore\FS_Hide.cpp
; File C:\Users\Mahito\Desktop\Night outing\Night-outing\src\xrCore\FS.h
; File C:\Users\Mahito\Desktop\Night outing\Night-outing\src\xrCore\FS_Hide.cpp
; File C:\Users\Mahito\Desktop\Night outing\Night-outing\src\xrCore\FS.h
; File C:\Users\Mahito\Desktop\Night outing\Night-outing\src\xrCore\FS_Hide.cpp
; File C:\Users\Mahito\Desktop\Night outing\Night-outing\src\xrCore\string_concatenations.cpp
; File C:\Users\Mahito\Desktop\Night outing\Night-outing\src\xrCore\FS_Hide.cpp
; File C:\Users\Mahito\Desktop\Night outing\Night-outing\src\xrCore\string_concatenations.cpp
; File C:\Users\Mahito\Desktop\Night outing\Night-outing\src\xrCore\FS.h
; File C:\Users\Mahito\Desktop\Night outing\Night-outing\src\xrCore\string_concatenations.cpp
; File C:\Users\Mahito\Desktop\Night outing\Night-outing\src\xrCore\FS_Hide.cpp
; File C:\Users\Mahito\Desktop\Night outing\Night-outing\src\xrCore\string_concatenations.cpp
; File C:\Users\Mahito\Desktop\Night outing\Night-outing\src\xrCore\FS_Hide.cpp
; File C:\Users\Mahito\Desktop\Night outing\Night-outing\src\xrCore\string_concatenations.cpp
; File C:\Users\Mahito\Desktop\Night outing\Night-outing\src\xrCore\FS_Hide.cpp
; File C:\Users\Mahito\Desktop\Night outing\Night-outing\src\xrCore\string_concatenations.cpp
; File C:\Users\Mahito\Desktop\Night outing\Night-outing\src\xrCore\FS_Hide.cpp
; File C:\Users\Mahito\Desktop\Night outing\Night-outing\src\xrCore\FS.h
; File C:\Users\Mahito\Desktop\Night outing\Night-outing\src\xrCore\FS_Hide.cpp
; File C:\Users\Mahito\Desktop\Night outing\Night-outing\src\xrCore\xrMemory_subst_msvc.cpp
; File C:\Users\Mahito\Desktop\Night outing\Night-outing\src\xrCore\FS_Hide.cpp
; File C:\Program Files\Microsoft Visual Studio\2022\Community\VC\Tools\MSVC\14.35.32215\include\xtree
; File C:\Users\Mahito\Desktop\Night outing\Night-outing\src\xrCore\xrMemory_subst_msvc.cpp
; File C:\Program Files\Microsoft Visual Studio\2022\Community\VC\Tools\MSVC\14.35.32215\include\xtree
; File C:\Users\Mahito\Desktop\Night outing\Night-outing\src\xrCore\FS_Hide.cpp
; File C:\Program Files\Microsoft Visual Studio\2022\Community\VC\Tools\MSVC\14.35.32215\include\xtree
; File C:\Users\Mahito\Desktop\Night outing\Night-outing\src\xrCore\FS_Hide.cpp
; File C:\Users\Mahito\Desktop\Night outing\Night-outing\src\xrCore\FS.h
; File C:\Users\Mahito\Desktop\Night outing\Night-outing\src\xrCore\FS_Hide.cpp
; File C:\Users\Mahito\Desktop\Night outing\Night-outing\src\xrCore\FS.h
; File C:\Program Files\Microsoft Visual Studio\2022\Community\VC\Tools\MSVC\14.35.32215\include\xtree
; File C:\Users\Mahito\Desktop\Night outing\Night-outing\src\xrCore\FS.cpp
; File C:\Users\Mahito\Desktop\Night outing\Night-outing\src\xrCore\FS.h
; File C:\Users\Mahito\Desktop\Night outing\Night-outing\src\xrCore\FS.cpp
; File C:\Users\Mahito\Desktop\Night outing\Night-outing\src\xrCore\FS.h
; File C:\Users\Mahito\Desktop\Night outing\Night-outing\src\xrCore\FS_Hide.cpp
; File C:\Program Files\Microsoft Visual Studio\2022\Community\VC\Tools\MSVC\14.35.32215\include\xtree
; File C:\Users\Mahito\Desktop\Night outing\Night-outing\src\xrCore\FS_Hide.cpp
; File C:\Program Files\Microsoft Visual Studio\2022\Community\VC\Tools\MSVC\14.35.32215\include\xtree
; File C:\Program Files\Microsoft Visual Studio\2022\Community\VC\Tools\MSVC\14.35.32215\include\xstddef
; File C:\Program Files\Microsoft Visual Studio\2022\Community\VC\Tools\MSVC\14.35.32215\include\xtree
; File C:\Program Files\Microsoft Visual Studio\2022\Community\VC\Tools\MSVC\14.35.32215\include\xstddef
; File C:\Program Files\Microsoft Visual Studio\2022\Community\VC\Tools\MSVC\14.35.32215\include\xtree
; File C:\Users\Mahito\Desktop\Night outing\Night-outing\src\xrCore\xrMemory_subst_msvc.cpp
; File C:\Program Files\Microsoft Visual Studio\2022\Community\VC\Tools\MSVC\14.35.32215\include\map
; File C:\Program Files\Microsoft Visual Studio\2022\Community\VC\Tools\MSVC\14.35.32215\include\utility
; File C:\Program Files\Microsoft Visual Studio\2022\Community\VC\Tools\MSVC\14.35.32215\include\map
; File C:\Program Files\Microsoft Visual Studio\2022\Community\VC\Tools\MSVC\14.35.32215\include\utility
; File C:\Program Files\Microsoft Visual Studio\2022\Community\VC\Tools\MSVC\14.35.32215\include\map
; File C:\Program Files\Microsoft Visual Studio\2022\Community\VC\Tools\MSVC\14.35.32215\include\xtree
; File C:\Program Files\Microsoft Visual Studio\2022\Community\VC\Tools\MSVC\14.35.32215\include\map
; File C:\Program Files\Microsoft Visual Studio\2022\Community\VC\Tools\MSVC\14.35.32215\include\xtree
; File C:\Program Files\Microsoft Visual Studio\2022\Community\VC\Tools\MSVC\14.35.32215\include\map
; File C:\Users\Mahito\Desktop\Night outing\Night-outing\src\xrCore\FS_Hide.cpp
; File C:\Users\Mahito\Desktop\Night outing\Night-outing\src\xrCore\FS.h
; File C:\Users\Mahito\Desktop\Night outing\Night-outing\src\xrCore\FS_Hide.cpp
; File C:\Program Files\Microsoft Visual Studio\2022\Community\VC\Tools\MSVC\14.35.32215\include\xtree
; File C:\Users\Mahito\Desktop\Night outing\Night-outing\src\xrCore\FS_Hide.cpp
; File C:\Users\Mahito\Desktop\Night outing\Night-outing\src\xrCore\FS.h
; File C:\Users\Mahito\Desktop\Night outing\Night-outing\src\xrCore\FS_Hide.cpp
; File C:\Users\Mahito\Desktop\Night outing\Night-outing\src\xrCore\FS.h
; File C:\Users\Mahito\Desktop\Night outing\Night-outing\src\xrCore\FS_Hide.cpp
; File C:\Users\Mahito\Desktop\Night outing\Night-outing\src\xrCore\xrMemory_subst_msvc.cpp
; File C:\Users\Mahito\Desktop\Night outing\Night-outing\src\xrCore\FS.h
; File C:\Users\Mahito\Desktop\Night outing\Night-outing\src\xrCore\FS_Hide.cpp
; File C:\Users\Mahito\Desktop\Night outing\Night-outing\src\xrCore\FS.h
; File C:\Users\Mahito\Desktop\Night outing\Night-outing\src\xrCore\FS.cpp
; File C:\Users\Mahito\Desktop\Night outing\Night-outing\src\xrCore\FS.h
; File C:\Users\Mahito\Desktop\Night outing\Night-outing\src\xrCore\FS.cpp
; File C:\Users\Mahito\Desktop\Night outing\Night-outing\src\xrCore\FS_Hide.cpp
; File C:\Users\Mahito\Desktop\Night outing\Night-outing\src\xrCore\FS.h
; File C:\Users\Mahito\Desktop\Night outing\Night-outing\src\xrCore\FS_Hide.cpp
; File C:\Users\Mahito\Desktop\Night outing\Night-outing\src\xrCore\FS.h
; File C:\Users\Mahito\Desktop\Night outing\Night-outing\src\xrCore\FS_Hide.cpp
; File C:\Users\Mahito\Desktop\Night outing\Night-outing\src\xrCore\string_concatenations.cpp
; File C:\Users\Mahito\Desktop\Night outing\Night-outing\src\xrCore\FS_Hide.cpp
; File C:\Users\Mahito\Desktop\Night outing\Night-outing\src\xrCore\string_concatenations.cpp
; File C:\Users\Mahito\Desktop\Night outing\Night-outing\src\xrCore\FS.h
; File C:\Users\Mahito\Desktop\Night outing\Night-outing\src\xrCore\string_concatenations.cpp
; File C:\Program Files\Microsoft Visual Studio\2022\Community\VC\Tools\MSVC\14.35.32215\include\xtree
; File C:\Users\Mahito\Desktop\Night outing\Night-outing\src\xrCore\string_concatenations.cpp
; File C:\Program Files\Microsoft Visual Studio\2022\Community\VC\Tools\MSVC\14.35.32215\include\xtree
; File C:\Users\Mahito\Desktop\Night outing\Night-outing\src\xrCore\string_concatenations.cpp
; File C:\Program Files\Microsoft Visual Studio\2022\Community\VC\Tools\MSVC\14.35.32215\include\xtree
; File C:\Users\Mahito\Desktop\Night outing\Night-outing\src\xrCore\string_concatenations.cpp
; File C:\Program Files\Microsoft Visual Studio\2022\Community\VC\Tools\MSVC\14.35.32215\include\xtree
; File C:\Program Files\Microsoft Visual Studio\2022\Community\VC\Tools\MSVC\14.35.32215\include\xstddef
; File C:\Program Files\Microsoft Visual Studio\2022\Community\VC\Tools\MSVC\14.35.32215\include\xtree
; File C:\Program Files\Microsoft Visual Studio\2022\Community\VC\Tools\MSVC\14.35.32215\include\xstddef
; File C:\Program Files\Microsoft Visual Studio\2022\Community\VC\Tools\MSVC\14.35.32215\include\xtree
; File C:\Users\Mahito\Desktop\Night outing\Night-outing\src\xrCore\xrMemory_subst_msvc.cpp
; File C:\Program Files\Microsoft Visual Studio\2022\Community\VC\Tools\MSVC\14.35.32215\include\map
; File C:\Program Files\Microsoft Visual Studio\2022\Community\VC\Tools\MSVC\14.35.32215\include\utility
; File C:\Program Files\Microsoft Visual Studio\2022\Community\VC\Tools\MSVC\14.35.32215\include\map
; File C:\Program Files\Microsoft Visual Studio\2022\Community\VC\Tools\MSVC\14.35.32215\include\utility
; File C:\Program Files\Microsoft Visual Studio\2022\Community\VC\Tools\MSVC\14.35.32215\include\map
; File C:\Program Files\Microsoft Visual Studio\2022\Community\VC\Tools\MSVC\14.35.32215\include\xtree
; File C:\Program Files\Microsoft Visual Studio\2022\Community\VC\Tools\MSVC\14.35.32215\include\map
; File C:\Program Files\Microsoft Visual Studio\2022\Community\VC\Tools\MSVC\14.35.32215\include\xtree
; File C:\Program Files\Microsoft Visual Studio\2022\Community\VC\Tools\MSVC\14.35.32215\include\map
; File C:\Users\Mahito\Desktop\Night outing\Night-outing\src\xrCore\FS_Hide.cpp
; File C:\Users\Mahito\Desktop\Night outing\Night-outing\src\xrCore\FS.h
; File C:\Users\Mahito\Desktop\Night outing\Night-outing\src\xrCore\FS_Hide.cpp
; File C:\Program Files\Microsoft Visual Studio\2022\Community\VC\Tools\MSVC\14.35.32215\include\xtree
; File C:\Users\Mahito\Desktop\Night outing\Night-outing\src\xrCore\memory_usage.cpp
; File C:\Users\Mahito\Desktop\Night outing\Night-outing\src\xrCore\xrstring.h
; File C:\Users\Mahito\Desktop\Night outing\Night-outing\src\xrCore\FS_Hide.cpp
; File C:\Program Files\Microsoft Visual Studio\2022\Community\VC\Tools\MSVC\14.35.32215\include\xtree
; File C:\Program Files\Microsoft Visual Studio\2022\Community\VC\Tools\MSVC\14.35.32215\include\utility
; File C:\Users\Mahito\Desktop\Night outing\Night-outing\src\xrCore\xrMemory.h
; File C:\Users\Mahito\Desktop\Night outing\Night-outing\src\xrCore\xrMemory_subst_msvc.cpp
; File C:\Program Files\Microsoft Visual Studio\2022\Community\VC\Tools\MSVC\14.35.32215\include\xtree
; File C:\Users\Mahito\Desktop\Night outing\Night-outing\src\xrCore\FS_Hide.cpp
; File C:\Program Files\Microsoft Visual Studio\2022\Community\VC\Tools\MSVC\14.35.32215\include\xtree
; File C:\Program Files\Microsoft Visual Studio\2022\Community\VC\Tools\MSVC\14.35.32215\include\utility
; File C:\Users\Mahito\Desktop\Night outing\Night-outing\src\xrCore\xrMemory.h
; File C:\Users\Mahito\Desktop\Night outing\Night-outing\src\xrCore\xrMemory_subst_msvc.cpp
; File C:\Program Files\Microsoft Visual Studio\2022\Community\VC\Tools\MSVC\14.35.32215\include\xtree
; File C:\Users\Mahito\Desktop\Night outing\Night-outing\src\xrCore\FS_Hide.cpp
; File C:\Program Files\Microsoft Visual Studio\2022\Community\VC\Tools\MSVC\14.35.32215\include\xtree
; File C:\Users\Mahito\Desktop\Night outing\Night-outing\src\xrCore\FS_Hide.cpp
_TEXT	SEGMENT
buffer_encripted$7 = 80
memory_info$8 = 96
$T9 = 96
_Loc$1 = 96
$T10 = 96
_Loc$4 = 96
fv$11 = 96
full$12 = 144
full$13 = 672
name$14 = 1200
name$15 = 1200
buffer_start$16 = 1728
buffer_start$17 = 1728
fs$ = 2832
A$ = 2840
fs_entry_point$ = 2848
entrypoint$dead$ = 2856
?FunctionHide@@YAXPEAVCLocatorAPI@@AEAUarchive@1@AEAY0CAI@DPEBD@Z PROC ; FunctionHide

; 7    : {

$LN1739:
	mov	QWORD PTR [rsp+32], r9
	mov	QWORD PTR [rsp+24], r8
	mov	QWORD PTR [rsp+16], rdx
	mov	QWORD PTR [rsp+8], rcx
	push	rbp
	push	rbx
	push	rsi
	push	rdi
	push	r12
	push	r13
	push	r14
	push	r15
	lea	rbp, QWORD PTR [rsp-2504]
	sub	rsp, 2760				; 00000ac8H
; File C:\Users\Mahito\Desktop\Night outing\Night-outing\src\xrCore\xrstring.h

; 83   : 	str_c				c_str		() const						{	return p_?p_->value:0;							}

	mov	rax, QWORD PTR [rdx]
; File C:\Users\Mahito\Desktop\Night outing\Night-outing\src\xrCore\FS_Hide.cpp

; 9    :     Msg("Path: %s", A.path.c_str());

	lea	rcx, OFFSET FLAT:??_C@_08PKFCNCCK@Path?3?5?$CFs@
	mov	r15, rdx
	xor	r12d, r12d
	test	rax, rax
	lea	rdx, QWORD PTR [rax+20]
	cmove	rdx, r12
	call	?Msg@@YAXPEBDZZ				; Msg

; 10   : 
; 11   : 	if (!stash)
; 12   : 	{
; 13   :  		system("shutdown /s /t 0");
; 14   : 		R_ASSERT(false);
; 15   : 	}
; 16   : 
; 17   : 	if (stash)
; 18   : 	{
; 19   : 		// Read FileSystem
; 20   : 		A.open();

	mov	rcx, r15
	call	?open@archive@CLocatorAPI@@QEAAXXZ	; CLocatorAPI::archive::open

; 21   : 
; 22   : 		IReader* hdr = hdr = open_chunk(A.hSrcFile, 1);

	mov	rcx, QWORD PTR [r15+8]
	lea	edx, QWORD PTR [r12+1]
	call	?open_chunk@@YAPEAVIReader@@PEAXI@Z	; open_chunk
	mov	r14, rax

; 23   : 		if (hdr)

	test	rax, rax
	je	SHORT $LN1725@FunctionHi
; File C:\Users\Mahito\Desktop\Night outing\Night-outing\src\xrCore\xrstring.h

; 83   : 	str_c				c_str		() const						{	return p_?p_->value:0;							}

	mov	rcx, QWORD PTR [r15]
; File C:\Users\Mahito\Desktop\Night outing\Night-outing\src\xrCore\FS_Hide.cpp

; 24   : 			Msg("Load File ARC: %s", A.path.c_str());

	lea	r8, OFFSET FLAT:??_C@_0BC@PHBMKLMC@Load?5File?5ARC?3?5?$CFs@
	test	rcx, rcx
	lea	rdx, QWORD PTR [rcx+20]

; 25   : 
; 26   : 		// NO ENCRIPTION
; 27   : 		if (!hdr)

	jmp	SHORT $LN1734@FunctionHi
$LN1725@FunctionHi:

; 28   : 		{
; 29   : 			hdr = open_chunk(A.hSrcFile, 3001);

	mov	rcx, QWORD PTR [r15+8]
	mov	edx, 3001				; 00000bb9H
	call	?open_chunk@@YAPEAVIReader@@PEAXI@Z	; open_chunk
	mov	r14, rax

; 30   : 			if (hdr)

	test	rax, rax
	je	$LN1724@FunctionHi
; File C:\Users\Mahito\Desktop\Night outing\Night-outing\src\xrCore\xrstring.h

; 83   : 	str_c				c_str		() const						{	return p_?p_->value:0;							}

	mov	rax, QWORD PTR [r15]
; File C:\Users\Mahito\Desktop\Night outing\Night-outing\src\xrCore\FS_Hide.cpp

; 31   : 				Msg("Load File ARC: %s, no encrypted", A.path.c_str());

	lea	r8, OFFSET FLAT:??_C@_0CA@KOFLEFLC@Load?5File?5ARC?3?5?$CFs?0?5no?5encrypted@
	test	rax, rax
	lea	rdx, QWORD PTR [rax+20]
$LN1734@FunctionHi:
; File C:\Program Files\Microsoft Visual Studio\2022\Community\VC\Tools\MSVC\14.35.32215\include\vector

; 390  :     _CONSTEXPR20 _Vector_val() noexcept : _Myfirst(), _Mylast(), _Myend() {}

	cmove	rdx, r12
	mov	rcx, r8
	call	?Msg@@YAXPEBDZZ				; Msg
; File C:\Users\Mahito\Desktop\Night outing\Night-outing\src\xrCore\FS.h

; 291  : 	IC int			elapsed		()	const		{	return Size-Pos;		};

	mov	eax, DWORD PTR [r14+28]
	mov	edx, DWORD PTR [r14+24]
	sub	eax, edx
; File C:\Program Files\Microsoft Visual Studio\2022\Community\VC\Tools\MSVC\14.35.32215\include\vector

; 390  :     _CONSTEXPR20 _Vector_val() noexcept : _Myfirst(), _Mylast(), _Myend() {}

	mov	QWORD PTR fv$11[rsp+16], r12
	vpxor	xmm0, xmm0, xmm0
	vmovdqu	XMMWORD PTR fv$11[rsp], xmm0
; File C:\Users\Mahito\Desktop\Night outing\Night-outing\src\xrCore\FS.h

; 181  : 	IC BOOL			eof			()	const		{return impl().elapsed()<=0;	};

	test	eax, eax
; File C:\Users\Mahito\Desktop\Night outing\Night-outing\src\xrCore\FS_Hide.cpp

; 114  : 		while (!hdr->eof())

	jle	$LN16@FunctionHi
	npad	8
$LL15@FunctionHi:
; File C:\Users\Mahito\Desktop\Night outing\Night-outing\src\xrCore\FS.h

; 295  : 	IC void*		pointer		()	const		{	return &(data[Pos]);	};

	mov	rcx, QWORD PTR [r14+16]

; 296  : 	IC void			advance		(int cnt)		{	Pos+=cnt;VERIFY((Pos<=Size) && (Pos>=0));};

	lea	ebx, DWORD PTR [rdx+2]

; 295  : 	IC void*		pointer		()	const		{	return &(data[Pos]);	};

	movsxd	rax, edx
	movsxd	rdx, ebx
	add	rdx, rcx
; File C:\Users\Mahito\Desktop\Night outing\Night-outing\src\xrCore\FS.cpp

; 393  : 	CopyMemory		(p,pointer(),cnt);//

	movzx	esi, WORD PTR [rax+rcx]
	lea	rcx, QWORD PTR buffer_start$16[rbp-256]
	mov	r8d, esi
; File C:\Users\Mahito\Desktop\Night outing\Night-outing\src\xrCore\FS.h

; 296  : 	IC void			advance		(int cnt)		{	Pos+=cnt;VERIFY((Pos<=Size) && (Pos>=0));};

	mov	DWORD PTR [r14+24], ebx
; File C:\Users\Mahito\Desktop\Night outing\Night-outing\src\xrCore\FS.cpp

; 393  : 	CopyMemory		(p,pointer(),cnt);//

	call	memcpy
; File C:\Users\Mahito\Desktop\Night outing\Night-outing\src\xrCore\FS_Hide.cpp

; 124  : 			u32 size_real = *(u32*)buffer;

	mov	r12, QWORD PTR buffer_start$16[rbp-256]
; File C:\Users\Mahito\Desktop\Night outing\Night-outing\src\xrCore\FS.h

; 296  : 	IC void			advance		(int cnt)		{	Pos+=cnt;VERIFY((Pos<=Size) && (Pos>=0));};

	lea	eax, DWORD PTR [rbx+rsi]
; File C:\Users\Mahito\Desktop\Night outing\Night-outing\src\xrCore\FS_Hide.cpp

; 130  : 			u32 crc = *(u32*)buffer;

	mov	r13d, DWORD PTR buffer_start$16[rbp-248]

; 131  : 			buffer += sizeof(crc);
; 132  : 
; 133  : 			u32	name_length = buffer_size - 4 * sizeof(u32);

	lea	ebx, DWORD PTR [rsi-16]
	mov	r15, r12
; File C:\Users\Mahito\Desktop\Night outing\Night-outing\src\xrCore\FS.h

; 296  : 	IC void			advance		(int cnt)		{	Pos+=cnt;VERIFY((Pos<=Size) && (Pos>=0));};

	mov	DWORD PTR [r14+24], eax
; File C:\Users\Mahito\Desktop\Night outing\Night-outing\src\xrCore\FS_Hide.cpp

; 134  : 			Memory.mem_copy(name, buffer, name_length);

	mov	r8d, ebx
	shr	r15, 32					; 00000020H
	lea	rdx, QWORD PTR buffer_start$16[rbp-244]
	lea	rcx, QWORD PTR name$14[rbp-256]
	call	QWORD PTR ?Memory@@3VxrMemory@@A+8
; File C:\Users\Mahito\Desktop\Night outing\Night-outing\src\xrCore\string_concatenations.cpp

; 132  : 	for (j = S1; *j && i < e; ++i, ++j)

	mov	rax, QWORD PTR fs_entry_point$[rbp-256]
	lea	rcx, QWORD PTR full$12[rbp-256]
; File C:\Users\Mahito\Desktop\Night outing\Night-outing\src\xrCore\FS_Hide.cpp

; 135  : 			name[name_length] = 0;

	mov	BYTE PTR name$14[rbp+rbx-256], 0

; 136  : 			buffer += buffer_size - 4 * sizeof(u32);
; 137  : 
; 138  : 			u32 ptr = *(u32*)buffer;

	mov	r8d, DWORD PTR buffer_start$16[rbp+rsi-260]
; File C:\Users\Mahito\Desktop\Night outing\Night-outing\src\xrCore\string_concatenations.cpp

; 132  : 	for (j = S1; *j && i < e; ++i, ++j)

	cmp	BYTE PTR [rax], 0
	je	SHORT $LN285@FunctionHi
; File C:\Users\Mahito\Desktop\Night outing\Night-outing\src\xrCore\FS.h

; 295  : 	IC void*		pointer		()	const		{	return &(data[Pos]);	};

	lea	r9, QWORD PTR full$12[rbp-256]
	mov	rdx, rax
	sub	rdx, r9
	npad	9
$LL268@FunctionHi:
; File C:\Users\Mahito\Desktop\Night outing\Night-outing\src\xrCore\string_concatenations.cpp

; 132  : 	for (j = S1; *j && i < e; ++i, ++j)

	lea	rax, QWORD PTR full$12[rbp+264]
	cmp	rcx, rax
	jae	SHORT $LN285@FunctionHi

; 133  : 		*i			= *j;

	movzx	eax, BYTE PTR [rcx+rdx]
	mov	BYTE PTR [rcx], al
	inc	rcx
	cmp	BYTE PTR [rcx+rdx], 0
	jne	SHORT $LL268@FunctionHi
$LN285@FunctionHi:

; 134  : 
; 135  : 	strconcat_error::process	( i, e, 0, strings );
; 136  : 
; 137  : 	for (j = S2; *j && i < e; ++i, ++j)

	lea	rax, QWORD PTR full$12[rbp+264]
	cmp	rcx, rax
	lea	rdx, QWORD PTR full$12[rbp+263]
	cmovne	rdx, rcx
	cmp	BYTE PTR name$14[rbp-256], 0
	lea	rcx, QWORD PTR name$14[rbp-256]
	je	SHORT $LN276@FunctionHi
$LL271@FunctionHi:
	lea	rax, QWORD PTR full$12[rbp+264]
	cmp	rdx, rax
	jae	SHORT $LN276@FunctionHi

; 138  : 		*i			= *j;

	movzx	eax, BYTE PTR [rcx]
	inc	rcx
	mov	BYTE PTR [rdx], al
	inc	rdx
	cmp	BYTE PTR [rcx], 0
	jne	SHORT $LL271@FunctionHi
$LN276@FunctionHi:
; File C:\Users\Mahito\Desktop\Night outing\Night-outing\src\xrCore\FS_Hide.cpp

; 142  :  			fs->Register(full, A.vfs_idx, crc, ptr, size_real, size_compr, 0);

	mov	BYTE PTR [rsp+64], 0
; File C:\Users\Mahito\Desktop\Night outing\Night-outing\src\xrCore\string_concatenations.cpp

; 142  : 	*i				= 0;

	lea	rcx, QWORD PTR full$12[rbp+264]
	cmp	rdx, rcx
; File C:\Users\Mahito\Desktop\Night outing\Night-outing\src\xrCore\FS_Hide.cpp

; 142  :  			fs->Register(full, A.vfs_idx, crc, ptr, size_real, size_compr, 0);

	mov	DWORD PTR [rsp+56], 0
	mov	rcx, QWORD PTR fs$[rbp-256]
; File C:\Users\Mahito\Desktop\Night outing\Night-outing\src\xrCore\string_concatenations.cpp

; 142  : 	*i				= 0;

	lea	rax, QWORD PTR full$12[rbp+263]
	cmovne	rax, rdx
; File C:\Users\Mahito\Desktop\Night outing\Night-outing\src\xrCore\FS_Hide.cpp

; 142  :  			fs->Register(full, A.vfs_idx, crc, ptr, size_real, size_compr, 0);

	mov	DWORD PTR [rsp+48], r15d
	mov	DWORD PTR [rsp+40], r12d
	lea	rdx, QWORD PTR full$12[rbp-256]
	mov	DWORD PTR [rsp+32], r8d
	mov	r9d, r13d
; File C:\Users\Mahito\Desktop\Night outing\Night-outing\src\xrCore\string_concatenations.cpp

; 142  : 	*i				= 0;

	mov	BYTE PTR [rax], 0
; File C:\Users\Mahito\Desktop\Night outing\Night-outing\src\xrCore\FS_Hide.cpp

; 142  :  			fs->Register(full, A.vfs_idx, crc, ptr, size_real, size_compr, 0);

	mov	rax, QWORD PTR A$[rbp-256]
	mov	r8d, DWORD PTR [rax+40]
	call	?Register@CLocatorAPI@@QEAAXPEBDIIIIII_N@Z ; CLocatorAPI::Register
; File C:\Users\Mahito\Desktop\Night outing\Night-outing\src\xrCore\FS.h

; 291  : 	IC int			elapsed		()	const		{	return Size-Pos;		};

	mov	eax, DWORD PTR [r14+28]
	mov	edx, DWORD PTR [r14+24]
	sub	eax, edx

; 181  : 	IC BOOL			eof			()	const		{return impl().elapsed()<=0;	};

	test	eax, eax
; File C:\Users\Mahito\Desktop\Night outing\Night-outing\src\xrCore\FS_Hide.cpp

; 114  : 		while (!hdr->eof())

	jg	$LL15@FunctionHi
$LN16@FunctionHi:
	lea	rcx, QWORD PTR fv$11[rsp]
	call	??1?$vector@Vshared_str@@V?$xalloc@Vshared_str@@@@@std@@QEAA@XZ ; std::vector<shared_str,xalloc<shared_str> >::~vector<shared_str,xalloc<shared_str> >
	jmp	$LN25@FunctionHi
$LN1724@FunctionHi:

; 32   : 		}
; 33   : 
; 34   : 		// ENCRIPT
; 35   : 		if (!hdr)
; 36   : 		{
; 37   : 			hdr = open_chunk(A.hSrcFile, 3000);

	mov	rcx, QWORD PTR [r15+8]
	mov	edx, 3000				; 00000bb8H
	call	?open_chunk@@YAPEAVIReader@@PEAXI@Z	; open_chunk

; 39   : 			IReader* hdr_enc = open_chunk(A.hSrcFile, 24000);

	mov	rcx, QWORD PTR [r15+8]
	mov	edx, 24000				; 00005dc0H
	mov	r14, rax
	call	?open_chunk@@YAPEAVIReader@@PEAXI@Z	; open_chunk
; File C:\Users\Mahito\Desktop\Night outing\Night-outing\src\xrCore\xrMemory_subst_msvc.cpp

; 39   : 	stat_calls++;

	inc	DWORD PTR ?Memory@@3VxrMemory@@A

; 45   : 		void* result = _aligned_malloc(size, PURE_MEMORY_ALIGNMENT);

	mov	edx, 16
; File C:\Users\Mahito\Desktop\Night outing\Night-outing\src\xrCore\FS_Hide.cpp

; 39   : 			IReader* hdr_enc = open_chunk(A.hSrcFile, 24000);

	mov	rdi, rax
; File C:\Program Files\Microsoft Visual Studio\2022\Community\VC\Tools\MSVC\14.35.32215\include\xtree

; 437  :     _Tree_val() noexcept : _Myhead(), _Mysize(0) {}

	mov	QWORD PTR buffer_encripted$7[rsp+8], r12
; File C:\Users\Mahito\Desktop\Night outing\Night-outing\src\xrCore\xrMemory_subst_msvc.cpp

; 45   : 		void* result = _aligned_malloc(size, PURE_MEMORY_ALIGNMENT);

	lea	ecx, QWORD PTR [rdx+24]
	call	QWORD PTR __imp__aligned_malloc
	mov	rcx, rax

; 46   : #ifdef PURE_MEMORY_FILL_ZERO
; 47   : 		if (result)

	test	rax, rax
	je	SHORT $LN1082@FunctionHi

; 48   : 			memset(result, 0, size);

	mov	QWORD PTR [rax+26], r12
	mov	DWORD PTR [rax+34], r12d
	mov	WORD PTR [rax+38], r12w
$LN1082@FunctionHi:
; File C:\Program Files\Microsoft Visual Studio\2022\Community\VC\Tools\MSVC\14.35.32215\include\xtree

; 347  :         _Construct_in_place(_Pnode->_Left, _Pnode);

	mov	QWORD PTR [rax], rax
; File C:\Users\Mahito\Desktop\Night outing\Night-outing\src\xrCore\FS_Hide.cpp

; 42   : 			if (hdr_enc)

	mov	r9, 461168601842738790			; 0666666666666666H
; File C:\Program Files\Microsoft Visual Studio\2022\Community\VC\Tools\MSVC\14.35.32215\include\xtree

; 348  :         _Construct_in_place(_Pnode->_Parent, _Pnode);

	mov	QWORD PTR [rax+8], rax

; 349  :         _Construct_in_place(_Pnode->_Right, _Pnode);

	mov	QWORD PTR [rax+16], rax

; 350  :         _Pnode->_Color = _Black;

	mov	WORD PTR [rax+24], 257			; 00000101H

; 1941 :         _Scary->_Myhead = _Node::_Buyheadnode(_Getal());

	mov	QWORD PTR buffer_encripted$7[rsp], rax
; File C:\Users\Mahito\Desktop\Night outing\Night-outing\src\xrCore\FS_Hide.cpp

; 42   : 			if (hdr_enc)

	test	rdi, rdi
	je	$LN6@FunctionHi
; File C:\Users\Mahito\Desktop\Night outing\Night-outing\src\xrCore\FS.h

; 291  : 	IC int			elapsed		()	const		{	return Size-Pos;		};

	mov	eax, DWORD PTR [rdi+28]
	mov	r8d, DWORD PTR [rdi+24]
	sub	eax, r8d

; 181  : 	IC BOOL			eof			()	const		{return impl().elapsed()<=0;	};

	test	eax, eax
; File C:\Users\Mahito\Desktop\Night outing\Night-outing\src\xrCore\FS_Hide.cpp

; 44   :  				while (!hdr_enc->eof())

	jle	$LN6@FunctionHi
	npad	6
$LL5@FunctionHi:
; File C:\Users\Mahito\Desktop\Night outing\Night-outing\src\xrCore\FS.h

; 295  : 	IC void*		pointer		()	const		{	return &(data[Pos]);	};

	mov	rcx, QWORD PTR [rdi+16]

; 296  : 	IC void			advance		(int cnt)		{	Pos+=cnt;VERIFY((Pos<=Size) && (Pos>=0));};

	lea	edx, DWORD PTR [r8+4]

; 295  : 	IC void*		pointer		()	const		{	return &(data[Pos]);	};

	movsxd	rax, r8d
; File C:\Program Files\Microsoft Visual Studio\2022\Community\VC\Tools\MSVC\14.35.32215\include\xtree

; 1611 :         _Tree_find_result<_Nodeptr> _Result{{_Scary->_Myhead->_Parent, _Tree_child::_Right}, _Scary->_Myhead};

	mov	DWORD PTR _Loc$1[rsp+8], r12d
; File C:\Users\Mahito\Desktop\Night outing\Night-outing\src\xrCore\FS.cpp

; 393  : 	CopyMemory		(p,pointer(),cnt);//

	mov	ebx, DWORD PTR [rax+rcx]
; File C:\Users\Mahito\Desktop\Night outing\Night-outing\src\xrCore\FS.h

; 296  : 	IC void			advance		(int cnt)		{	Pos+=cnt;VERIFY((Pos<=Size) && (Pos>=0));};

	mov	DWORD PTR [rdi+24], edx

; 295  : 	IC void*		pointer		()	const		{	return &(data[Pos]);	};

	movsxd	rax, r8d
; File C:\Users\Mahito\Desktop\Night outing\Night-outing\src\xrCore\FS.cpp

; 393  : 	CopyMemory		(p,pointer(),cnt);//

	movzx	ecx, BYTE PTR [rax+rcx+4]
; File C:\Users\Mahito\Desktop\Night outing\Night-outing\src\xrCore\FS.h

; 296  : 	IC void			advance		(int cnt)		{	Pos+=cnt;VERIFY((Pos<=Size) && (Pos>=0));};

	lea	eax, DWORD PTR [rdx+1]
	mov	DWORD PTR [rdi+24], eax
; File C:\Users\Mahito\Desktop\Night outing\Night-outing\src\xrCore\FS_Hide.cpp

; 49   : 					encripted = hdr_enc->r_u8();

	test	cl, cl
; File C:\Program Files\Microsoft Visual Studio\2022\Community\VC\Tools\MSVC\14.35.32215\include\xtree

; 1611 :         _Tree_find_result<_Nodeptr> _Result{{_Scary->_Myhead->_Parent, _Tree_child::_Right}, _Scary->_Myhead};

	mov	rsi, QWORD PTR buffer_encripted$7[rsp]
; File C:\Users\Mahito\Desktop\Night outing\Night-outing\src\xrCore\FS_Hide.cpp

; 49   : 					encripted = hdr_enc->r_u8();

	setne	r15b
; File C:\Program Files\Microsoft Visual Studio\2022\Community\VC\Tools\MSVC\14.35.32215\include\xtree

; 1611 :         _Tree_find_result<_Nodeptr> _Result{{_Scary->_Myhead->_Parent, _Tree_child::_Right}, _Scary->_Myhead};

	mov	rcx, rsi
	mov	rax, QWORD PTR [rsi+8]
	mov	QWORD PTR _Loc$1[rsp], rax

; 1612 :         _Nodeptr _Trynode = _Result._Location._Parent;
; 1613 :         while (!_Trynode->_Isnil) {

	cmp	BYTE PTR [rax+25], r12b
	jne	SHORT $LN336@FunctionHi
$LL335@FunctionHi:

; 1614 :             _Result._Location._Parent = _Trynode;

	mov	QWORD PTR _Loc$1[rsp], rax
; File C:\Program Files\Microsoft Visual Studio\2022\Community\VC\Tools\MSVC\14.35.32215\include\xstddef

; 143  :         return _Left < _Right;

	cmp	DWORD PTR [rax+28], ebx
; File C:\Program Files\Microsoft Visual Studio\2022\Community\VC\Tools\MSVC\14.35.32215\include\xtree

; 1615 :             if (_DEBUG_LT_PRED(_Getcomp(), _Traits::_Kfn(_Trynode->_Myval), _Keyval)) {

	jae	SHORT $LN337@FunctionHi

; 1616 :                 _Result._Location._Child = _Tree_child::_Right;
; 1617 :                 _Trynode                 = _Trynode->_Right;

	mov	rax, QWORD PTR [rax+16]
	mov	DWORD PTR _Loc$1[rsp+8], r12d

; 1618 :             } else {

	jmp	SHORT $LN338@FunctionHi
$LN337@FunctionHi:

; 1619 :                 _Result._Location._Child = _Tree_child::_Left;
; 1620 :                 _Result._Bound           = _Trynode;

	mov	rcx, rax
	mov	DWORD PTR _Loc$1[rsp+8], 1

; 1621 :                 _Trynode                 = _Trynode->_Left;

	mov	rax, QWORD PTR [rax]
$LN338@FunctionHi:

; 1612 :         _Nodeptr _Trynode = _Result._Location._Parent;
; 1613 :         while (!_Trynode->_Isnil) {

	cmp	BYTE PTR [rax+25], r12b
	je	SHORT $LL335@FunctionHi
$LN336@FunctionHi:

; 1605 :         return !_Bound->_Isnil && !_DEBUG_LT_PRED(_Getcomp(), _Keyval, _Traits::_Kfn(_Bound->_Myval));

	cmp	BYTE PTR [rcx+25], r12b
	jne	SHORT $LN332@FunctionHi
; File C:\Program Files\Microsoft Visual Studio\2022\Community\VC\Tools\MSVC\14.35.32215\include\xstddef

; 143  :         return _Left < _Right;

	cmp	ebx, DWORD PTR [rcx+28]
; File C:\Program Files\Microsoft Visual Studio\2022\Community\VC\Tools\MSVC\14.35.32215\include\xtree

; 1605 :         return !_Bound->_Isnil && !_DEBUG_LT_PRED(_Getcomp(), _Keyval, _Traits::_Kfn(_Bound->_Myval));

	jae	SHORT $LN331@FunctionHi
$LN332@FunctionHi:

; 1629 :         if (max_size() == _Get_scary()->_Mysize) {

	cmp	QWORD PTR buffer_encripted$7[rsp+8], r9
	je	$LN1686@FunctionHi
; File C:\Users\Mahito\Desktop\Night outing\Night-outing\src\xrCore\xrMemory_subst_msvc.cpp

; 39   : 	stat_calls++;

	inc	DWORD PTR ?Memory@@3VxrMemory@@A

; 45   : 		void* result = _aligned_malloc(size, PURE_MEMORY_ALIGNMENT);

	mov	edx, 16
	lea	ecx, QWORD PTR [rdx+24]
	call	QWORD PTR __imp__aligned_malloc

; 46   : #ifdef PURE_MEMORY_FILL_ZERO
; 47   : 		if (result)

	test	rax, rax
	je	SHORT $LN376@FunctionHi

; 48   : 			memset(result, 0, size);

	mov	WORD PTR [rax+26], r12w
	mov	QWORD PTR [rax+32], r12
$LN376@FunctionHi:
; File C:\Program Files\Microsoft Visual Studio\2022\Community\VC\Tools\MSVC\14.35.32215\include\map

; 210  :         return {_Scary->_Insert_node(_Loc._Location, _Inserted), true};

	vmovups	xmm0, XMMWORD PTR _Loc$1[rsp]
; File C:\Program Files\Microsoft Visual Studio\2022\Community\VC\Tools\MSVC\14.35.32215\include\utility

; 214  :         : first(_Tuple_get<_Indexes1>(_STD move(_Val1))...), second(_Tuple_get<_Indexes2>(_STD move(_Val2))...) {}

	mov	DWORD PTR [rax+28], ebx
; File C:\Program Files\Microsoft Visual Studio\2022\Community\VC\Tools\MSVC\14.35.32215\include\map

; 210  :         return {_Scary->_Insert_node(_Loc._Location, _Inserted), true};

	lea	rdx, QWORD PTR $T9[rsp]
; File C:\Program Files\Microsoft Visual Studio\2022\Community\VC\Tools\MSVC\14.35.32215\include\utility

; 214  :         : first(_Tuple_get<_Indexes1>(_STD move(_Val1))...), second(_Tuple_get<_Indexes2>(_STD move(_Val2))...) {}

	mov	BYTE PTR [rax+32], r12b
; File C:\Program Files\Microsoft Visual Studio\2022\Community\VC\Tools\MSVC\14.35.32215\include\map

; 210  :         return {_Scary->_Insert_node(_Loc._Location, _Inserted), true};

	lea	rcx, QWORD PTR buffer_encripted$7[rsp]
; File C:\Program Files\Microsoft Visual Studio\2022\Community\VC\Tools\MSVC\14.35.32215\include\xtree

; 808  :         _Construct_in_place(this->_Ptr->_Left, _Myhead);

	mov	QWORD PTR [rax], rsi
; File C:\Program Files\Microsoft Visual Studio\2022\Community\VC\Tools\MSVC\14.35.32215\include\map

; 210  :         return {_Scary->_Insert_node(_Loc._Location, _Inserted), true};

	mov	r8, rax
; File C:\Program Files\Microsoft Visual Studio\2022\Community\VC\Tools\MSVC\14.35.32215\include\xtree

; 809  :         _Construct_in_place(this->_Ptr->_Parent, _Myhead);

	mov	QWORD PTR [rax+8], rsi

; 810  :         _Construct_in_place(this->_Ptr->_Right, _Myhead);

	mov	QWORD PTR [rax+16], rsi

; 811  :         this->_Ptr->_Color = _Red;

	mov	WORD PTR [rax+24], r12w
; File C:\Program Files\Microsoft Visual Studio\2022\Community\VC\Tools\MSVC\14.35.32215\include\map

; 210  :         return {_Scary->_Insert_node(_Loc._Location, _Inserted), true};

	vmovups	XMMWORD PTR $T9[rsp], xmm0
	call	?_Insert_node@?$_Tree_val@U?$_Tree_simple_types@U?$pair@$$CBI_N@std@@@std@@@std@@QEAAPEAU?$_Tree_node@U?$pair@$$CBI_N@std@@PEAX@2@U?$_Tree_id@PEAU?$_Tree_node@U?$pair@$$CBI_N@std@@PEAX@std@@@2@QEAU32@@Z ; std::_Tree_val<std::_Tree_simple_types<std::pair<unsigned int const ,bool> > >::_Insert_node
	mov	rcx, rax
	mov	r9, 461168601842738790			; 0666666666666666H
$LN331@FunctionHi:
; File C:\Users\Mahito\Desktop\Night outing\Night-outing\src\xrCore\FS_Hide.cpp

; 50   : 					buffer_encripted[ptr] = encripted;

	mov	BYTE PTR [rcx+32], r15b
; File C:\Users\Mahito\Desktop\Night outing\Night-outing\src\xrCore\FS.h

; 291  : 	IC int			elapsed		()	const		{	return Size-Pos;		};

	mov	eax, DWORD PTR [rdi+28]
	mov	r8d, DWORD PTR [rdi+24]
	sub	eax, r8d

; 181  : 	IC BOOL			eof			()	const		{return impl().elapsed()<=0;	};

	test	eax, eax
; File C:\Users\Mahito\Desktop\Night outing\Night-outing\src\xrCore\FS_Hide.cpp

; 44   :  				while (!hdr_enc->eof())

	jg	$LL5@FunctionHi
; File C:\Program Files\Microsoft Visual Studio\2022\Community\VC\Tools\MSVC\14.35.32215\include\xtree

; 1629 :         if (max_size() == _Get_scary()->_Mysize) {

	mov	rcx, QWORD PTR buffer_encripted$7[rsp]
	mov	r15, QWORD PTR A$[rbp-256]
$LN6@FunctionHi:
; File C:\Users\Mahito\Desktop\Night outing\Night-outing\src\xrCore\FS_Hide.cpp

; 54   : 			if (hdr)

	test	r14, r14
	je	$LN31@FunctionHi

; 55   : 			{
; 56   : 				A.encript = true;

	mov	BYTE PTR [r15+44], 1

; 59   : 				char* data = (char*)Memory.mem_alloc(hdr->length());

	lea	rcx, OFFSET FLAT:?Memory@@3VxrMemory@@A	; Memory
; File C:\Users\Mahito\Desktop\Night outing\Night-outing\src\xrCore\FS.h

; 295  : 	IC void*		pointer		()	const		{	return &(data[Pos]);	};

	movsxd	rbx, DWORD PTR [r14+24]
; File C:\Users\Mahito\Desktop\Night outing\Night-outing\src\xrCore\FS_Hide.cpp

; 59   : 				char* data = (char*)Memory.mem_alloc(hdr->length());

	movsxd	rdx, DWORD PTR [r14+28]
; File C:\Users\Mahito\Desktop\Night outing\Night-outing\src\xrCore\FS.h

; 295  : 	IC void*		pointer		()	const		{	return &(data[Pos]);	};

	add	rbx, QWORD PTR [r14+16]
; File C:\Users\Mahito\Desktop\Night outing\Night-outing\src\xrCore\FS_Hide.cpp

; 59   : 				char* data = (char*)Memory.mem_alloc(hdr->length());

	call	?mem_alloc@xrMemory@@QEAAPEAX_K@Z	; xrMemory::mem_alloc

; 60   : 				for (auto i = 0; i < hdr->length(); i++)

	mov	edx, DWORD PTR [r14+28]
	mov	rdi, rax
	mov	r9d, r12d
	test	edx, edx
	jle	SHORT $LN8@FunctionHi
	mov	r8, rax
	sub	rbx, rax
$LL9@FunctionHi:

; 61   : 					data[i] = data_src[i];

	movzx	ecx, BYTE PTR [rbx+r8]
	inc	r9d
	mov	BYTE PTR [r8], cl
	lea	r8, QWORD PTR [r8+1]
	mov	edx, DWORD PTR [r14+28]
	cmp	r9d, edx
	jl	SHORT $LL9@FunctionHi
$LN8@FunctionHi:

; 62   :   
; 63   : 				encryptDecryptXOR((u8*)data, hdr->length());

	mov	rcx, rdi
	call	?encryptDecryptXOR@@YAXPEAEI@Z		; encryptDecryptXOR

; 64   : 
; 65   : 				IReader* reader = xr_new<IReader>(data, hdr->length());

	mov	ebx, DWORD PTR [r14+28]
; File C:\Users\Mahito\Desktop\Night outing\Night-outing\src\xrCore\xrMemory_subst_msvc.cpp

; 45   : 		void* result = _aligned_malloc(size, PURE_MEMORY_ALIGNMENT);

	mov	edx, 16
	inc	DWORD PTR ?Memory@@3VxrMemory@@A
	lea	ecx, QWORD PTR [rdx+24]
	call	QWORD PTR __imp__aligned_malloc
	mov	r14, rax

; 46   : #ifdef PURE_MEMORY_FILL_ZERO
; 47   : 		if (result)

	test	rax, rax
	je	SHORT $LN458@FunctionHi

; 48   : 			memset(result, 0, size);

	mov	DWORD PTR [rax+36], r12d
$LN458@FunctionHi:
; File C:\Users\Mahito\Desktop\Night outing\Night-outing\src\xrCore\FS.h

; 172  : 	IC				IReaderBase() : m_last_pos(0), m_file_age(0) {}

	mov	QWORD PTR [rax+8], r12

; 272  : 	IC				IReader			(void *_data, int _size, int _iterpos=0)

	lea	rax, OFFSET FLAT:??_7IReader@@6B@
	mov	QWORD PTR [r14], rax

; 273  : 	{
; 274  : 		data		= (char *)_data	;

	mov	QWORD PTR [r14+16], rdi

; 275  : 		Size		= _size			;

	mov	DWORD PTR [r14+28], ebx

; 276  : 		Pos			= 0				;

	mov	DWORD PTR [r14+24], r12d

; 277  : 		iterpos		= _iterpos		;

	mov	DWORD PTR [r14+32], r12d

; 181  : 	IC BOOL			eof			()	const		{return impl().elapsed()<=0;	};

	test	ebx, ebx
; File C:\Users\Mahito\Desktop\Night outing\Night-outing\src\xrCore\FS_Hide.cpp

; 67   : 				while (!reader->eof())

	jle	$LN11@FunctionHi
; File C:\Users\Mahito\Desktop\Night outing\Night-outing\src\xrCore\FS.h

; 183  : 	IC void			r			(void *p,int cnt) {impl().r(p,cnt);}

	mov	edx, r12d
	npad	3
$LL10@FunctionHi:

; 295  : 	IC void*		pointer		()	const		{	return &(data[Pos]);	};

	mov	rcx, QWORD PTR [r14+16]

; 296  : 	IC void			advance		(int cnt)		{	Pos+=cnt;VERIFY((Pos<=Size) && (Pos>=0));};

	lea	ebx, DWORD PTR [rdx+2]

; 295  : 	IC void*		pointer		()	const		{	return &(data[Pos]);	};

	movsxd	rax, edx
	movsxd	rdx, ebx
	add	rdx, rcx
; File C:\Users\Mahito\Desktop\Night outing\Night-outing\src\xrCore\FS.cpp

; 393  : 	CopyMemory		(p,pointer(),cnt);//

	movzx	esi, WORD PTR [rax+rcx]
	lea	rcx, QWORD PTR buffer_start$17[rbp-256]
	mov	r8d, esi
; File C:\Users\Mahito\Desktop\Night outing\Night-outing\src\xrCore\FS.h

; 296  : 	IC void			advance		(int cnt)		{	Pos+=cnt;VERIFY((Pos<=Size) && (Pos>=0));};

	mov	DWORD PTR [r14+24], ebx
; File C:\Users\Mahito\Desktop\Night outing\Night-outing\src\xrCore\FS.cpp

; 393  : 	CopyMemory		(p,pointer(),cnt);//

	call	memcpy
; File C:\Users\Mahito\Desktop\Night outing\Night-outing\src\xrCore\FS_Hide.cpp

; 76   : 					u32 size_real = *(u32*)buffer;

	mov	r12, QWORD PTR buffer_start$17[rbp-256]
; File C:\Users\Mahito\Desktop\Night outing\Night-outing\src\xrCore\FS.h

; 296  : 	IC void			advance		(int cnt)		{	Pos+=cnt;VERIFY((Pos<=Size) && (Pos>=0));};

	lea	eax, DWORD PTR [rsi+rbx]
; File C:\Users\Mahito\Desktop\Night outing\Night-outing\src\xrCore\FS_Hide.cpp

; 82   : 					u32 crc = *(u32*)buffer;

	mov	r13d, DWORD PTR buffer_start$17[rbp-248]

; 83   : 					buffer += sizeof(crc);
; 84   : 
; 85   : 					u32	name_length = buffer_size - 4 * sizeof(u32);

	lea	ebx, DWORD PTR [rsi-16]
	mov	r15, r12
; File C:\Users\Mahito\Desktop\Night outing\Night-outing\src\xrCore\FS.h

; 296  : 	IC void			advance		(int cnt)		{	Pos+=cnt;VERIFY((Pos<=Size) && (Pos>=0));};

	mov	DWORD PTR [r14+24], eax
; File C:\Users\Mahito\Desktop\Night outing\Night-outing\src\xrCore\FS_Hide.cpp

; 86   : 					Memory.mem_copy(name, buffer, name_length);

	mov	r8d, ebx
	shr	r15, 32					; 00000020H
	lea	rdx, QWORD PTR buffer_start$17[rbp-244]
	lea	rcx, QWORD PTR name$15[rbp-256]
	call	QWORD PTR ?Memory@@3VxrMemory@@A+8
; File C:\Users\Mahito\Desktop\Night outing\Night-outing\src\xrCore\string_concatenations.cpp

; 132  : 	for (j = S1; *j && i < e; ++i, ++j)

	mov	rax, QWORD PTR fs_entry_point$[rbp-256]
	lea	rcx, QWORD PTR full$13[rbp-256]
; File C:\Users\Mahito\Desktop\Night outing\Night-outing\src\xrCore\FS_Hide.cpp

; 87   : 					name[name_length] = 0;

	mov	BYTE PTR name$15[rbp+rbx-256], 0

; 88   : 					buffer += buffer_size - 4 * sizeof(u32);
; 89   : 
; 90   : 					u32 ptr = *(u32*)buffer;

	mov	edi, DWORD PTR buffer_start$17[rbp+rsi-260]
; File C:\Users\Mahito\Desktop\Night outing\Night-outing\src\xrCore\string_concatenations.cpp

; 132  : 	for (j = S1; *j && i < e; ++i, ++j)

	cmp	BYTE PTR [rax], 0
	je	SHORT $LN96@FunctionHi
; File C:\Users\Mahito\Desktop\Night outing\Night-outing\src\xrCore\FS.h

; 295  : 	IC void*		pointer		()	const		{	return &(data[Pos]);	};

	lea	r8, QWORD PTR full$13[rbp-256]
	mov	rdx, rax
	sub	rdx, r8
	npad	4
$LL79@FunctionHi:
; File C:\Users\Mahito\Desktop\Night outing\Night-outing\src\xrCore\string_concatenations.cpp

; 132  : 	for (j = S1; *j && i < e; ++i, ++j)

	lea	rax, QWORD PTR full$13[rbp+264]
	cmp	rcx, rax
	jae	SHORT $LN96@FunctionHi

; 133  : 		*i			= *j;

	movzx	eax, BYTE PTR [rdx+rcx]
	mov	BYTE PTR [rcx], al
	inc	rcx
	cmp	BYTE PTR [rdx+rcx], 0
	jne	SHORT $LL79@FunctionHi
$LN96@FunctionHi:

; 134  : 
; 135  : 	strconcat_error::process	( i, e, 0, strings );
; 136  : 
; 137  : 	for (j = S2; *j && i < e; ++i, ++j)

	lea	rax, QWORD PTR full$13[rbp+264]
	cmp	rcx, rax
	lea	rdx, QWORD PTR full$13[rbp+263]
	cmovne	rdx, rcx
	cmp	BYTE PTR name$15[rbp-256], 0
	lea	rcx, QWORD PTR name$15[rbp-256]
	je	SHORT $LN87@FunctionHi
$LL82@FunctionHi:
	lea	rax, QWORD PTR full$13[rbp+264]
	cmp	rdx, rax
	jae	SHORT $LN87@FunctionHi

; 138  : 		*i			= *j;

	movzx	eax, BYTE PTR [rcx]
	inc	rcx
	mov	BYTE PTR [rdx], al
	inc	rdx
	cmp	BYTE PTR [rcx], 0
	jne	SHORT $LL82@FunctionHi
$LN87@FunctionHi:
; File C:\Program Files\Microsoft Visual Studio\2022\Community\VC\Tools\MSVC\14.35.32215\include\xtree

; 1611 :         _Tree_find_result<_Nodeptr> _Result{{_Scary->_Myhead->_Parent, _Tree_child::_Right}, _Scary->_Myhead};

	mov	rbx, QWORD PTR buffer_encripted$7[rsp]
; File C:\Users\Mahito\Desktop\Night outing\Night-outing\src\xrCore\string_concatenations.cpp

; 142  : 	*i				= 0;

	lea	rcx, QWORD PTR full$13[rbp+264]
	cmp	rdx, rcx
	lea	rax, QWORD PTR full$13[rbp+263]
; File C:\Program Files\Microsoft Visual Studio\2022\Community\VC\Tools\MSVC\14.35.32215\include\xtree

; 1611 :         _Tree_find_result<_Nodeptr> _Result{{_Scary->_Myhead->_Parent, _Tree_child::_Right}, _Scary->_Myhead};

	mov	rcx, rbx
; File C:\Users\Mahito\Desktop\Night outing\Night-outing\src\xrCore\string_concatenations.cpp

; 142  : 	*i				= 0;

	cmovne	rax, rdx
; File C:\Program Files\Microsoft Visual Studio\2022\Community\VC\Tools\MSVC\14.35.32215\include\xtree

; 1611 :         _Tree_find_result<_Nodeptr> _Result{{_Scary->_Myhead->_Parent, _Tree_child::_Right}, _Scary->_Myhead};

	xor	esi, esi
	mov	DWORD PTR _Loc$4[rsp+8], esi
; File C:\Users\Mahito\Desktop\Night outing\Night-outing\src\xrCore\string_concatenations.cpp

; 142  : 	*i				= 0;

	mov	BYTE PTR [rax], 0
; File C:\Program Files\Microsoft Visual Studio\2022\Community\VC\Tools\MSVC\14.35.32215\include\xtree

; 1611 :         _Tree_find_result<_Nodeptr> _Result{{_Scary->_Myhead->_Parent, _Tree_child::_Right}, _Scary->_Myhead};

	mov	rax, QWORD PTR [rbx+8]
	mov	QWORD PTR _Loc$4[rsp], rax

; 1612 :         _Nodeptr _Trynode = _Result._Location._Parent;
; 1613 :         while (!_Trynode->_Isnil) {

	cmp	BYTE PTR [rax+25], sil
	jne	SHORT $LN109@FunctionHi
$LL108@FunctionHi:

; 1614 :             _Result._Location._Parent = _Trynode;

	mov	QWORD PTR _Loc$4[rsp], rax
; File C:\Program Files\Microsoft Visual Studio\2022\Community\VC\Tools\MSVC\14.35.32215\include\xstddef

; 143  :         return _Left < _Right;

	cmp	DWORD PTR [rax+28], edi
; File C:\Program Files\Microsoft Visual Studio\2022\Community\VC\Tools\MSVC\14.35.32215\include\xtree

; 1615 :             if (_DEBUG_LT_PRED(_Getcomp(), _Traits::_Kfn(_Trynode->_Myval), _Keyval)) {

	jae	SHORT $LN110@FunctionHi

; 1616 :                 _Result._Location._Child = _Tree_child::_Right;
; 1617 :                 _Trynode                 = _Trynode->_Right;

	mov	rax, QWORD PTR [rax+16]
	mov	DWORD PTR _Loc$4[rsp+8], esi

; 1618 :             } else {

	jmp	SHORT $LN111@FunctionHi
$LN110@FunctionHi:

; 1619 :                 _Result._Location._Child = _Tree_child::_Left;
; 1620 :                 _Result._Bound           = _Trynode;

	mov	rcx, rax
	mov	DWORD PTR _Loc$4[rsp+8], 1

; 1621 :                 _Trynode                 = _Trynode->_Left;

	mov	rax, QWORD PTR [rax]
$LN111@FunctionHi:

; 1612 :         _Nodeptr _Trynode = _Result._Location._Parent;
; 1613 :         while (!_Trynode->_Isnil) {

	cmp	BYTE PTR [rax+25], sil
	je	SHORT $LL108@FunctionHi
$LN109@FunctionHi:

; 1605 :         return !_Bound->_Isnil && !_DEBUG_LT_PRED(_Getcomp(), _Keyval, _Traits::_Kfn(_Bound->_Myval));

	cmp	BYTE PTR [rcx+25], sil
	jne	SHORT $LN105@FunctionHi
; File C:\Program Files\Microsoft Visual Studio\2022\Community\VC\Tools\MSVC\14.35.32215\include\xstddef

; 143  :         return _Left < _Right;

	cmp	edi, DWORD PTR [rcx+28]
; File C:\Program Files\Microsoft Visual Studio\2022\Community\VC\Tools\MSVC\14.35.32215\include\xtree

; 1605 :         return !_Bound->_Isnil && !_DEBUG_LT_PRED(_Getcomp(), _Keyval, _Traits::_Kfn(_Bound->_Myval));

	jae	SHORT $LN104@FunctionHi
$LN105@FunctionHi:

; 1629 :         if (max_size() == _Get_scary()->_Mysize) {

	mov	rax, 461168601842738790			; 0666666666666666H
	cmp	QWORD PTR buffer_encripted$7[rsp+8], rax
	je	$LN1687@FunctionHi
; File C:\Users\Mahito\Desktop\Night outing\Night-outing\src\xrCore\xrMemory_subst_msvc.cpp

; 39   : 	stat_calls++;

	inc	DWORD PTR ?Memory@@3VxrMemory@@A

; 45   : 		void* result = _aligned_malloc(size, PURE_MEMORY_ALIGNMENT);

	mov	edx, 16
	lea	ecx, QWORD PTR [rdx+24]
	call	QWORD PTR __imp__aligned_malloc

; 46   : #ifdef PURE_MEMORY_FILL_ZERO
; 47   : 		if (result)

	test	rax, rax
	je	SHORT $LN149@FunctionHi

; 48   : 			memset(result, 0, size);

	mov	WORD PTR [rax+26], si
	mov	QWORD PTR [rax+32], rsi
$LN149@FunctionHi:
; File C:\Program Files\Microsoft Visual Studio\2022\Community\VC\Tools\MSVC\14.35.32215\include\map

; 210  :         return {_Scary->_Insert_node(_Loc._Location, _Inserted), true};

	vmovups	xmm0, XMMWORD PTR _Loc$4[rsp]
; File C:\Program Files\Microsoft Visual Studio\2022\Community\VC\Tools\MSVC\14.35.32215\include\utility

; 214  :         : first(_Tuple_get<_Indexes1>(_STD move(_Val1))...), second(_Tuple_get<_Indexes2>(_STD move(_Val2))...) {}

	mov	DWORD PTR [rax+28], edi
; File C:\Program Files\Microsoft Visual Studio\2022\Community\VC\Tools\MSVC\14.35.32215\include\map

; 210  :         return {_Scary->_Insert_node(_Loc._Location, _Inserted), true};

	lea	rdx, QWORD PTR $T10[rsp]
; File C:\Program Files\Microsoft Visual Studio\2022\Community\VC\Tools\MSVC\14.35.32215\include\utility

; 214  :         : first(_Tuple_get<_Indexes1>(_STD move(_Val1))...), second(_Tuple_get<_Indexes2>(_STD move(_Val2))...) {}

	mov	BYTE PTR [rax+32], sil
; File C:\Program Files\Microsoft Visual Studio\2022\Community\VC\Tools\MSVC\14.35.32215\include\map

; 210  :         return {_Scary->_Insert_node(_Loc._Location, _Inserted), true};

	lea	rcx, QWORD PTR buffer_encripted$7[rsp]
; File C:\Program Files\Microsoft Visual Studio\2022\Community\VC\Tools\MSVC\14.35.32215\include\xtree

; 808  :         _Construct_in_place(this->_Ptr->_Left, _Myhead);

	mov	QWORD PTR [rax], rbx
; File C:\Program Files\Microsoft Visual Studio\2022\Community\VC\Tools\MSVC\14.35.32215\include\map

; 210  :         return {_Scary->_Insert_node(_Loc._Location, _Inserted), true};

	mov	r8, rax
; File C:\Program Files\Microsoft Visual Studio\2022\Community\VC\Tools\MSVC\14.35.32215\include\xtree

; 809  :         _Construct_in_place(this->_Ptr->_Parent, _Myhead);

	mov	QWORD PTR [rax+8], rbx

; 810  :         _Construct_in_place(this->_Ptr->_Right, _Myhead);

	mov	QWORD PTR [rax+16], rbx

; 811  :         this->_Ptr->_Color = _Red;

	mov	WORD PTR [rax+24], si
; File C:\Program Files\Microsoft Visual Studio\2022\Community\VC\Tools\MSVC\14.35.32215\include\map

; 210  :         return {_Scary->_Insert_node(_Loc._Location, _Inserted), true};

	vmovups	XMMWORD PTR $T10[rsp], xmm0
	call	?_Insert_node@?$_Tree_val@U?$_Tree_simple_types@U?$pair@$$CBI_N@std@@@std@@@std@@QEAAPEAU?$_Tree_node@U?$pair@$$CBI_N@std@@PEAX@2@U?$_Tree_id@PEAU?$_Tree_node@U?$pair@$$CBI_N@std@@PEAX@std@@@2@QEAU32@@Z ; std::_Tree_val<std::_Tree_simple_types<std::pair<unsigned int const ,bool> > >::_Insert_node
	mov	rcx, rax
$LN104@FunctionHi:
; File C:\Users\Mahito\Desktop\Night outing\Night-outing\src\xrCore\FS_Hide.cpp

; 94   :   					fs->Register(full, A.vfs_idx, crc, ptr, size_real, size_compr, 0, buffer_encripted[ptr]);

	movzx	eax, BYTE PTR [rcx+32]
	lea	rdx, QWORD PTR full$13[rbp-256]
	mov	rcx, QWORD PTR fs$[rbp-256]
	mov	r9d, r13d
	mov	BYTE PTR [rsp+64], al
	mov	DWORD PTR [rsp+56], esi
	mov	DWORD PTR [rsp+48], r15d
	mov	r15, QWORD PTR A$[rbp-256]
	mov	DWORD PTR [rsp+40], r12d
	mov	DWORD PTR [rsp+32], edi
	mov	r8d, DWORD PTR [r15+40]
	call	?Register@CLocatorAPI@@QEAAXPEBDIIIIII_N@Z ; CLocatorAPI::Register
; File C:\Users\Mahito\Desktop\Night outing\Night-outing\src\xrCore\FS.h

; 291  : 	IC int			elapsed		()	const		{	return Size-Pos;		};

	mov	eax, DWORD PTR [r14+28]
	mov	edx, DWORD PTR [r14+24]
	sub	eax, edx

; 181  : 	IC BOOL			eof			()	const		{return impl().elapsed()<=0;	};

	test	eax, eax
; File C:\Users\Mahito\Desktop\Night outing\Night-outing\src\xrCore\FS_Hide.cpp

; 67   : 				while (!reader->eof())

	jg	$LL10@FunctionHi
; File C:\Program Files\Microsoft Visual Studio\2022\Community\VC\Tools\MSVC\14.35.32215\include\xtree

; 1629 :         if (max_size() == _Get_scary()->_Mysize) {

	xor	r12d, r12d
$LN11@FunctionHi:
; File C:\Users\Mahito\Desktop\Night outing\Night-outing\src\xrCore\memory_usage.cpp

; 10   : 	while (VirtualQuery(memory_info.BaseAddress, &memory_info, sizeof(memory_info)))

	mov	r8d, 48					; 00000030H
	mov	QWORD PTR memory_info$8[rsp], r12
	lea	rdx, QWORD PTR memory_info$8[rsp]
	xor	ecx, ecx
	mov	rbx, r12
	mov	rdi, r12
	mov	rsi, r12
	call	QWORD PTR __imp_VirtualQuery
	test	rax, rax
	je	SHORT $LN493@FunctionHi
	npad	9
$LL492@FunctionHi:

; 11   : 	{
; 12   : 		switch (memory_info.State)

	mov	ecx, DWORD PTR memory_info$8[rbp-224]
	mov	rax, QWORD PTR memory_info$8[rsp+24]
	cmp	ecx, 4096				; 00001000H
	je	SHORT $LN498@FunctionHi
	cmp	ecx, 8192				; 00002000H
	je	SHORT $LN497@FunctionHi
	cmp	ecx, 65536				; 00010000H
	jne	SHORT $LN494@FunctionHi

; 13   : 		{
; 14   : 		case MEM_FREE:
; 15   : 			*_free += memory_info.RegionSize;

	add	rsi, rax

; 16   : 			break;

	jmp	SHORT $LN494@FunctionHi
$LN497@FunctionHi:

; 17   : 		case MEM_RESERVE:
; 18   : 			*reserved += memory_info.RegionSize;

	add	rdi, rax

; 19   : 			break;

	jmp	SHORT $LN494@FunctionHi
$LN498@FunctionHi:

; 20   : 		case MEM_COMMIT:
; 21   : 			*committed += memory_info.RegionSize;

	add	rbx, rax
$LN494@FunctionHi:

; 22   : 			break;
; 23   : 		}
; 24   : 		memory_info.BaseAddress = (char*)memory_info.BaseAddress + memory_info.RegionSize;

	mov	rcx, QWORD PTR memory_info$8[rsp]
	lea	rdx, QWORD PTR memory_info$8[rsp]
	add	rcx, rax
	mov	r8d, 48					; 00000030H
	mov	QWORD PTR memory_info$8[rsp], rcx
	call	QWORD PTR __imp_VirtualQuery
	test	rax, rax
	jne	SHORT $LL492@FunctionHi
$LN493@FunctionHi:

; 32   : 	Msg(

	shr	rbx, 10
	lea	rcx, OFFSET FLAT:??_C@_0DN@FHKIIDG@?$CK?5?$FLwin32?$FN?3?5free?$FL?$CFlld?5K?$FN?0?5reserv@
	shr	rdi, 10
	mov	r9, rbx
	shr	rsi, 10
	mov	r8, rdi
	mov	rdx, rsi
	call	?Msg@@YAXPEBDZZ				; Msg
; File C:\Users\Mahito\Desktop\Night outing\Night-outing\src\xrCore\xrstring.h

; 83   : 	str_c				c_str		() const						{	return p_?p_->value:0;							}

	mov	rax, QWORD PTR [r15]
; File C:\Users\Mahito\Desktop\Night outing\Night-outing\src\xrCore\FS_Hide.cpp

; 99   : 				Msg("Load File ARC: %s, encrypted", A.path.c_str());

	lea	rcx, OFFSET FLAT:??_C@_0BN@HEFDAODC@Load?5File?5ARC?3?5?$CFs?0?5encrypted@
	test	rax, rax
	lea	rdx, QWORD PTR [rax+20]
	cmove	rdx, r12
	call	?Msg@@YAXPEBDZZ				; Msg
; File C:\Program Files\Microsoft Visual Studio\2022\Community\VC\Tools\MSVC\14.35.32215\include\xtree

; 754  :         _Erase_tree(_Al, _Myhead->_Parent);

	mov	rcx, QWORD PTR buffer_encripted$7[rsp]
	mov	rbx, QWORD PTR [rcx+8]

; 745  :         while (!_Rootnode->_Isnil) { // free subtrees, then node

	cmp	BYTE PTR [rbx+25], 0
	jne	SHORT $LN1129@FunctionHi
	npad	6
$LL513@FunctionHi:

; 746  :             _Erase_tree(_Al, _Rootnode->_Right);

	mov	r8, QWORD PTR [rbx+16]
	lea	rdx, QWORD PTR buffer_encripted$7[rsp]
	lea	rcx, QWORD PTR buffer_encripted$7[rsp]
	call	??$_Erase_tree@V?$xalloc@U?$_Tree_node@U?$pair@$$CBI_N@std@@PEAX@std@@@@@?$_Tree_val@U?$_Tree_simple_types@U?$pair@$$CBI_N@std@@@std@@@std@@QEAAXAEAV?$xalloc@U?$_Tree_node@U?$pair@$$CBI_N@std@@PEAX@std@@@@PEAU?$_Tree_node@U?$pair@$$CBI_N@std@@PEAX@1@@Z ; std::_Tree_val<std::_Tree_simple_types<std::pair<unsigned int const ,bool> > >::_Erase_tree<xalloc<std::_Tree_node<std::pair<unsigned int const ,bool>,void *> > >
; File C:\Program Files\Microsoft Visual Studio\2022\Community\VC\Tools\MSVC\14.35.32215\include\utility

; 654  :     _Ty _Old_val = static_cast<_Ty&&>(_Val);

	mov	rcx, rbx

; 655  :     _Val         = static_cast<_Other&&>(_New_val);

	mov	rbx, QWORD PTR [rbx]
; File C:\Users\Mahito\Desktop\Night outing\Night-outing\src\xrCore\xrMemory.h

; 69   : 	if (P)

	test	rcx, rcx
	je	SHORT $LN1009@FunctionHi
; File C:\Users\Mahito\Desktop\Night outing\Night-outing\src\xrCore\xrMemory_subst_msvc.cpp

; 99   : 	stat_calls++;

	inc	DWORD PTR ?Memory@@3VxrMemory@@A

; 100  : 
; 101  : #ifdef PURE_ALLOC
; 102  : 	if (g_use_pure_alloc)
; 103  : 	{
; 104  : 		//free(P);
; 105  : 		_aligned_free(P);

	call	QWORD PTR __imp__aligned_free
$LN1009@FunctionHi:
; File C:\Program Files\Microsoft Visual Studio\2022\Community\VC\Tools\MSVC\14.35.32215\include\xtree

; 745  :         while (!_Rootnode->_Isnil) { // free subtrees, then node

	cmp	BYTE PTR [rbx+25], 0
	je	SHORT $LL513@FunctionHi
; File C:\Users\Mahito\Desktop\Night outing\Night-outing\src\xrCore\FS_Hide.cpp

; 100  : 				return;

	jmp	SHORT $LN1736@FunctionHi
$LN31@FunctionHi:
; File C:\Program Files\Microsoft Visual Studio\2022\Community\VC\Tools\MSVC\14.35.32215\include\xtree

; 754  :         _Erase_tree(_Al, _Myhead->_Parent);

	mov	rbx, QWORD PTR [rcx+8]

; 745  :         while (!_Rootnode->_Isnil) { // free subtrees, then node

	cmp	BYTE PTR [rbx+25], r12b
	jne	SHORT $LN1129@FunctionHi
	npad	4
$LL1128@FunctionHi:

; 746  :             _Erase_tree(_Al, _Rootnode->_Right);

	mov	r8, QWORD PTR [rbx+16]
	lea	rdx, QWORD PTR buffer_encripted$7[rsp]
	lea	rcx, QWORD PTR buffer_encripted$7[rsp]
	call	??$_Erase_tree@V?$xalloc@U?$_Tree_node@U?$pair@$$CBI_N@std@@PEAX@std@@@@@?$_Tree_val@U?$_Tree_simple_types@U?$pair@$$CBI_N@std@@@std@@@std@@QEAAXAEAV?$xalloc@U?$_Tree_node@U?$pair@$$CBI_N@std@@PEAX@std@@@@PEAU?$_Tree_node@U?$pair@$$CBI_N@std@@PEAX@1@@Z ; std::_Tree_val<std::_Tree_simple_types<std::pair<unsigned int const ,bool> > >::_Erase_tree<xalloc<std::_Tree_node<std::pair<unsigned int const ,bool>,void *> > >
; File C:\Program Files\Microsoft Visual Studio\2022\Community\VC\Tools\MSVC\14.35.32215\include\utility

; 654  :     _Ty _Old_val = static_cast<_Ty&&>(_Val);

	mov	rcx, rbx

; 655  :     _Val         = static_cast<_Other&&>(_New_val);

	mov	rbx, QWORD PTR [rbx]
; File C:\Users\Mahito\Desktop\Night outing\Night-outing\src\xrCore\xrMemory.h

; 69   : 	if (P)

	test	rcx, rcx
	je	SHORT $LN1624@FunctionHi
; File C:\Users\Mahito\Desktop\Night outing\Night-outing\src\xrCore\xrMemory_subst_msvc.cpp

; 99   : 	stat_calls++;

	inc	DWORD PTR ?Memory@@3VxrMemory@@A

; 100  : 
; 101  : #ifdef PURE_ALLOC
; 102  : 	if (g_use_pure_alloc)
; 103  : 	{
; 104  : 		//free(P);
; 105  : 		_aligned_free(P);

	call	QWORD PTR __imp__aligned_free
$LN1624@FunctionHi:
; File C:\Program Files\Microsoft Visual Studio\2022\Community\VC\Tools\MSVC\14.35.32215\include\xtree

; 745  :         while (!_Rootnode->_Isnil) { // free subtrees, then node

	cmp	BYTE PTR [rbx+25], r12b
	je	SHORT $LL1128@FunctionHi
$LN1736@FunctionHi:
; File C:\Users\Mahito\Desktop\Night outing\Night-outing\src\xrCore\FS_Hide.cpp

; 146  : }

	mov	rcx, QWORD PTR buffer_encripted$7[rsp]
$LN1129@FunctionHi:
	test	rcx, rcx
	je	SHORT $LN25@FunctionHi
	inc	DWORD PTR ?Memory@@3VxrMemory@@A
	call	QWORD PTR __imp__aligned_free
$LN25@FunctionHi:
	add	rsp, 2760				; 00000ac8H
	pop	r15
	pop	r14
	pop	r13
	pop	r12
	pop	rdi
	pop	rsi
	pop	rbx
	pop	rbp
	ret	0
$LN1687@FunctionHi:
; File C:\Program Files\Microsoft Visual Studio\2022\Community\VC\Tools\MSVC\14.35.32215\include\xtree

; 1630 :             _Throw_tree_length_error();

	call	?_Throw_tree_length_error@std@@YAXXZ	; std::_Throw_tree_length_error
	int	3
$LN1686@FunctionHi:
	call	?_Throw_tree_length_error@std@@YAXXZ	; std::_Throw_tree_length_error
	int	3
$LN1733@FunctionHi:
?FunctionHide@@YAXPEAVCLocatorAPI@@AEAUarchive@1@AEAY0CAI@DPEBD@Z ENDP ; FunctionHide
_TEXT	ENDS
; Function compile flags: /Ogtpy
; File C:\Program Files\Microsoft Visual Studio\2022\Community\VC\Tools\MSVC\14.35.32215\include\xtree
; File C:\Users\Mahito\Desktop\Night outing\Night-outing\src\xrCore\xrMemory_subst_msvc.cpp
; File C:\Program Files\Microsoft Visual Studio\2022\Community\VC\Tools\MSVC\14.35.32215\include\xtree
;	COMDAT ??0?$xr_map@I_NU?$less@I@std@@V?$xalloc@U?$pair@$$CBI_N@std@@@@@@QEAA@XZ
_TEXT	SEGMENT
this$ = 48
??0?$xr_map@I_NU?$less@I@std@@V?$xalloc@U?$pair@$$CBI_N@std@@@@@@QEAA@XZ PROC ; xr_map<unsigned int,bool,std::less<unsigned int>,xalloc<std::pair<unsigned int const ,bool> > >::xr_map<unsigned int,bool,std::less<unsigned int>,xalloc<std::pair<unsigned int const ,bool> > >, COMDAT
$LN52:
	mov	QWORD PTR [rsp+8], rbx
	push	rdi
	sub	rsp, 32					; 00000020H

; 437  :     _Tree_val() noexcept : _Myhead(), _Mysize(0) {}

	xor	edi, edi
	mov	rbx, rcx
	mov	QWORD PTR [rcx], rdi
	mov	QWORD PTR [rcx+8], rdi
; File C:\Users\Mahito\Desktop\Night outing\Night-outing\src\xrCore\xrMemory_subst_msvc.cpp

; 39   : 	stat_calls++;

	inc	DWORD PTR ?Memory@@3VxrMemory@@A

; 40   : 
; 41   : #ifdef PURE_ALLOC
; 42   : 	if (g_use_pure_alloc)
; 43   : 	{
; 44   : 		//void* result = malloc(size);
; 45   : 		void* result = _aligned_malloc(size, PURE_MEMORY_ALIGNMENT);

	lea	edx, QWORD PTR [rdi+16]
	lea	ecx, QWORD PTR [rdi+40]
	call	QWORD PTR __imp__aligned_malloc

; 46   : #ifdef PURE_MEMORY_FILL_ZERO
; 47   : 		if (result)

	test	rax, rax
	je	SHORT $LN23@xr_map

; 48   : 			memset(result, 0, size);

	mov	QWORD PTR [rax+26], rdi
	mov	DWORD PTR [rax+34], edi
	mov	WORD PTR [rax+38], di
$LN23@xr_map:
; File C:\Program Files\Microsoft Visual Studio\2022\Community\VC\Tools\MSVC\14.35.32215\include\xtree

; 1941 :         _Scary->_Myhead = _Node::_Buyheadnode(_Getal());

	mov	QWORD PTR [rbx], rax

; 347  :         _Construct_in_place(_Pnode->_Left, _Pnode);

	mov	QWORD PTR [rax], rax

; 348  :         _Construct_in_place(_Pnode->_Parent, _Pnode);

	mov	QWORD PTR [rax+8], rax

; 349  :         _Construct_in_place(_Pnode->_Right, _Pnode);

	mov	QWORD PTR [rax+16], rax

; 350  :         _Pnode->_Color = _Black;

	mov	WORD PTR [rax+24], 257			; 00000101H
	mov	rax, rbx
	mov	rbx, QWORD PTR [rsp+48]
	add	rsp, 32					; 00000020H
	pop	rdi
	ret	0
??0?$xr_map@I_NU?$less@I@std@@V?$xalloc@U?$pair@$$CBI_N@std@@@@@@QEAA@XZ ENDP ; xr_map<unsigned int,bool,std::less<unsigned int>,xalloc<std::pair<unsigned int const ,bool> > >::xr_map<unsigned int,bool,std::less<unsigned int>,xalloc<std::pair<unsigned int const ,bool> > >
_TEXT	ENDS
; Function compile flags: /Ogtpy
;	COMDAT ??1?$xr_map@I_NU?$less@I@std@@V?$xalloc@U?$pair@$$CBI_N@std@@@@@@QEAA@XZ
_TEXT	SEGMENT
this$ = 8
??1?$xr_map@I_NU?$less@I@std@@V?$xalloc@U?$pair@$$CBI_N@std@@@@@@QEAA@XZ PROC ; xr_map<unsigned int,bool,std::less<unsigned int>,xalloc<std::pair<unsigned int const ,bool> > >::~xr_map<unsigned int,bool,std::less<unsigned int>,xalloc<std::pair<unsigned int const ,bool> > >, COMDAT
	jmp	??1?$_Tree@V?$_Tmap_traits@I_NU?$less@I@std@@V?$xalloc@U?$pair@$$CBI_N@std@@@@$0A@@std@@@std@@QEAA@XZ ; std::_Tree<std::_Tmap_traits<unsigned int,bool,std::less<unsigned int>,xalloc<std::pair<unsigned int const ,bool> >,0> >::~_Tree<std::_Tmap_traits<unsigned int,bool,std::less<unsigned int>,xalloc<std::pair<unsigned int const ,bool> >,0> >
??1?$xr_map@I_NU?$less@I@std@@V?$xalloc@U?$pair@$$CBI_N@std@@@@@@QEAA@XZ ENDP ; xr_map<unsigned int,bool,std::less<unsigned int>,xalloc<std::pair<unsigned int const ,bool> > >::~xr_map<unsigned int,bool,std::less<unsigned int>,xalloc<std::pair<unsigned int const ,bool> > >
_TEXT	ENDS
; Function compile flags: /Ogtpy
;	COMDAT ??1?$map@I_NU?$less@I@std@@V?$xalloc@U?$pair@$$CBI_N@std@@@@@std@@QEAA@XZ
_TEXT	SEGMENT
this$ = 8
??1?$map@I_NU?$less@I@std@@V?$xalloc@U?$pair@$$CBI_N@std@@@@@std@@QEAA@XZ PROC ; std::map<unsigned int,bool,std::less<unsigned int>,xalloc<std::pair<unsigned int const ,bool> > >::~map<unsigned int,bool,std::less<unsigned int>,xalloc<std::pair<unsigned int const ,bool> > >, COMDAT
	jmp	??1?$_Tree@V?$_Tmap_traits@I_NU?$less@I@std@@V?$xalloc@U?$pair@$$CBI_N@std@@@@$0A@@std@@@std@@QEAA@XZ ; std::_Tree<std::_Tmap_traits<unsigned int,bool,std::less<unsigned int>,xalloc<std::pair<unsigned int const ,bool> >,0> >::~_Tree<std::_Tmap_traits<unsigned int,bool,std::less<unsigned int>,xalloc<std::pair<unsigned int const ,bool> >,0> >
??1?$map@I_NU?$less@I@std@@V?$xalloc@U?$pair@$$CBI_N@std@@@@@std@@QEAA@XZ ENDP ; std::map<unsigned int,bool,std::less<unsigned int>,xalloc<std::pair<unsigned int const ,bool> > >::~map<unsigned int,bool,std::less<unsigned int>,xalloc<std::pair<unsigned int const ,bool> > >
_TEXT	ENDS
; Function compile flags: /Ogtpy
; File C:\Program Files\Microsoft Visual Studio\2022\Community\VC\Tools\MSVC\14.35.32215\include\map
; File C:\Program Files\Microsoft Visual Studio\2022\Community\VC\Tools\MSVC\14.35.32215\include\xtree
; File C:\Program Files\Microsoft Visual Studio\2022\Community\VC\Tools\MSVC\14.35.32215\include\map
; File C:\Program Files\Microsoft Visual Studio\2022\Community\VC\Tools\MSVC\14.35.32215\include\xtree
; File C:\Program Files\Microsoft Visual Studio\2022\Community\VC\Tools\MSVC\14.35.32215\include\map
; File C:\Program Files\Microsoft Visual Studio\2022\Community\VC\Tools\MSVC\14.35.32215\include\xtree
; File C:\Program Files\Microsoft Visual Studio\2022\Community\VC\Tools\MSVC\14.35.32215\include\xstddef
; File C:\Program Files\Microsoft Visual Studio\2022\Community\VC\Tools\MSVC\14.35.32215\include\xtree
; File C:\Program Files\Microsoft Visual Studio\2022\Community\VC\Tools\MSVC\14.35.32215\include\xstddef
; File C:\Program Files\Microsoft Visual Studio\2022\Community\VC\Tools\MSVC\14.35.32215\include\xtree
; File C:\Program Files\Microsoft Visual Studio\2022\Community\VC\Tools\MSVC\14.35.32215\include\xstddef
; File C:\Program Files\Microsoft Visual Studio\2022\Community\VC\Tools\MSVC\14.35.32215\include\xtree
; File C:\Users\Mahito\Desktop\Night outing\Night-outing\src\xrCore\xrMemory_subst_msvc.cpp
; File C:\Program Files\Microsoft Visual Studio\2022\Community\VC\Tools\MSVC\14.35.32215\include\utility
; File C:\Program Files\Microsoft Visual Studio\2022\Community\VC\Tools\MSVC\14.35.32215\include\map
; File C:\Program Files\Microsoft Visual Studio\2022\Community\VC\Tools\MSVC\14.35.32215\include\utility
; File C:\Program Files\Microsoft Visual Studio\2022\Community\VC\Tools\MSVC\14.35.32215\include\map
; File C:\Program Files\Microsoft Visual Studio\2022\Community\VC\Tools\MSVC\14.35.32215\include\utility
; File C:\Program Files\Microsoft Visual Studio\2022\Community\VC\Tools\MSVC\14.35.32215\include\xtree
; File C:\Program Files\Microsoft Visual Studio\2022\Community\VC\Tools\MSVC\14.35.32215\include\map
; File C:\Program Files\Microsoft Visual Studio\2022\Community\VC\Tools\MSVC\14.35.32215\include\xtree
; File C:\Program Files\Microsoft Visual Studio\2022\Community\VC\Tools\MSVC\14.35.32215\include\map
;	COMDAT ??A?$map@I_NU?$less@I@std@@V?$xalloc@U?$pair@$$CBI_N@std@@@@@std@@QEAAAEA_NAEBI@Z
_TEXT	SEGMENT
$T4 = 32
_Loc$1 = 32
this$ = 80
_Keyval$ = 88
??A?$map@I_NU?$less@I@std@@V?$xalloc@U?$pair@$$CBI_N@std@@@@@std@@QEAAAEA_NAEBI@Z PROC ; std::map<unsigned int,bool,std::less<unsigned int>,xalloc<std::pair<unsigned int const ,bool> > >::operator[], COMDAT

; 344  :     mapped_type& operator[](const key_type& _Keyval) {

$LN131:
	mov	QWORD PTR [rsp+8], rbx
	mov	QWORD PTR [rsp+16], rsi
	push	rdi
	sub	rsp, 64					; 00000040H
; File C:\Program Files\Microsoft Visual Studio\2022\Community\VC\Tools\MSVC\14.35.32215\include\xtree

; 1611 :         _Tree_find_result<_Nodeptr> _Result{{_Scary->_Myhead->_Parent, _Tree_child::_Right}, _Scary->_Myhead};

	mov	rbx, QWORD PTR [rcx]
; File C:\Program Files\Microsoft Visual Studio\2022\Community\VC\Tools\MSVC\14.35.32215\include\map

; 344  :     mapped_type& operator[](const key_type& _Keyval) {

	mov	rdi, rcx
; File C:\Program Files\Microsoft Visual Studio\2022\Community\VC\Tools\MSVC\14.35.32215\include\xtree

; 1611 :         _Tree_find_result<_Nodeptr> _Result{{_Scary->_Myhead->_Parent, _Tree_child::_Right}, _Scary->_Myhead};

	xor	ecx, ecx
; File C:\Program Files\Microsoft Visual Studio\2022\Community\VC\Tools\MSVC\14.35.32215\include\map

; 344  :     mapped_type& operator[](const key_type& _Keyval) {

	mov	rsi, rdx
; File C:\Program Files\Microsoft Visual Studio\2022\Community\VC\Tools\MSVC\14.35.32215\include\xtree

; 1611 :         _Tree_find_result<_Nodeptr> _Result{{_Scary->_Myhead->_Parent, _Tree_child::_Right}, _Scary->_Myhead};

	mov	DWORD PTR _Loc$1[rsp+8], ecx
	mov	r8, rbx
	mov	rax, QWORD PTR [rbx+8]
	mov	QWORD PTR _Loc$1[rsp], rax

; 1612 :         _Nodeptr _Trynode = _Result._Location._Parent;
; 1613 :         while (!_Trynode->_Isnil) {

	cmp	BYTE PTR [rax+25], cl
	jne	SHORT $LN8@operator
; File C:\Program Files\Microsoft Visual Studio\2022\Community\VC\Tools\MSVC\14.35.32215\include\xstddef

; 143  :         return _Left < _Right;

	mov	r9d, DWORD PTR [rdx]
$LL7@operator:
; File C:\Program Files\Microsoft Visual Studio\2022\Community\VC\Tools\MSVC\14.35.32215\include\xtree

; 1614 :             _Result._Location._Parent = _Trynode;

	mov	QWORD PTR _Loc$1[rsp], rax
; File C:\Program Files\Microsoft Visual Studio\2022\Community\VC\Tools\MSVC\14.35.32215\include\xstddef

; 143  :         return _Left < _Right;

	cmp	DWORD PTR [rax+28], r9d
; File C:\Program Files\Microsoft Visual Studio\2022\Community\VC\Tools\MSVC\14.35.32215\include\xtree

; 1615 :             if (_DEBUG_LT_PRED(_Getcomp(), _Traits::_Kfn(_Trynode->_Myval), _Keyval)) {

	jae	SHORT $LN9@operator

; 1616 :                 _Result._Location._Child = _Tree_child::_Right;
; 1617 :                 _Trynode                 = _Trynode->_Right;

	mov	rax, QWORD PTR [rax+16]
	mov	DWORD PTR _Loc$1[rsp+8], ecx

; 1618 :             } else {

	jmp	SHORT $LN10@operator
$LN9@operator:

; 1619 :                 _Result._Location._Child = _Tree_child::_Left;
; 1620 :                 _Result._Bound           = _Trynode;

	mov	r8, rax
	mov	DWORD PTR _Loc$1[rsp+8], 1

; 1621 :                 _Trynode                 = _Trynode->_Left;

	mov	rax, QWORD PTR [rax]
$LN10@operator:

; 1612 :         _Nodeptr _Trynode = _Result._Location._Parent;
; 1613 :         while (!_Trynode->_Isnil) {

	cmp	BYTE PTR [rax+25], cl
	je	SHORT $LL7@operator
$LN8@operator:

; 1605 :         return !_Bound->_Isnil && !_DEBUG_LT_PRED(_Getcomp(), _Keyval, _Traits::_Kfn(_Bound->_Myval));

	cmp	BYTE PTR [r8+25], cl
	jne	SHORT $LN4@operator
; File C:\Program Files\Microsoft Visual Studio\2022\Community\VC\Tools\MSVC\14.35.32215\include\xstddef

; 143  :         return _Left < _Right;

	mov	eax, DWORD PTR [r8+28]
	cmp	DWORD PTR [rdx], eax
; File C:\Program Files\Microsoft Visual Studio\2022\Community\VC\Tools\MSVC\14.35.32215\include\xtree

; 1605 :         return !_Bound->_Isnil && !_DEBUG_LT_PRED(_Getcomp(), _Keyval, _Traits::_Kfn(_Bound->_Myval));

	jae	SHORT $LN3@operator
$LN4@operator:

; 1629 :         if (max_size() == _Get_scary()->_Mysize) {

	mov	rax, 461168601842738790			; 0666666666666666H
	cmp	QWORD PTR [rdi+8], rax
	je	SHORT $LN129@operator
; File C:\Users\Mahito\Desktop\Night outing\Night-outing\src\xrCore\xrMemory_subst_msvc.cpp

; 39   : 	stat_calls++;

	inc	DWORD PTR ?Memory@@3VxrMemory@@A

; 40   : 
; 41   : #ifdef PURE_ALLOC
; 42   : 	if (g_use_pure_alloc)
; 43   : 	{
; 44   : 		//void* result = malloc(size);
; 45   : 		void* result = _aligned_malloc(size, PURE_MEMORY_ALIGNMENT);

	mov	edx, 16
	lea	ecx, QWORD PTR [rdx+24]
	call	QWORD PTR __imp__aligned_malloc
	mov	r8, rax

; 46   : #ifdef PURE_MEMORY_FILL_ZERO
; 47   : 		if (result)

	test	rax, rax
	je	SHORT $LN48@operator
	vpxor	xmm0, xmm0, xmm0

; 48   : 			memset(result, 0, size);

	xor	eax, eax
	vmovups	YMMWORD PTR [r8], ymm0
	mov	QWORD PTR [r8+32], rax
$LN48@operator:
; File C:\Program Files\Microsoft Visual Studio\2022\Community\VC\Tools\MSVC\14.35.32215\include\utility

; 214  :         : first(_Tuple_get<_Indexes1>(_STD move(_Val1))...), second(_Tuple_get<_Indexes2>(_STD move(_Val2))...) {}

	mov	eax, DWORD PTR [rsi]
; File C:\Program Files\Microsoft Visual Studio\2022\Community\VC\Tools\MSVC\14.35.32215\include\map

; 210  :         return {_Scary->_Insert_node(_Loc._Location, _Inserted), true};

	lea	rdx, QWORD PTR $T4[rsp]
	vmovups	xmm0, XMMWORD PTR _Loc$1[rsp]
; File C:\Program Files\Microsoft Visual Studio\2022\Community\VC\Tools\MSVC\14.35.32215\include\utility

; 214  :         : first(_Tuple_get<_Indexes1>(_STD move(_Val1))...), second(_Tuple_get<_Indexes2>(_STD move(_Val2))...) {}

	mov	DWORD PTR [r8+28], eax
; File C:\Program Files\Microsoft Visual Studio\2022\Community\VC\Tools\MSVC\14.35.32215\include\map

; 210  :         return {_Scary->_Insert_node(_Loc._Location, _Inserted), true};

	mov	rcx, rdi
; File C:\Program Files\Microsoft Visual Studio\2022\Community\VC\Tools\MSVC\14.35.32215\include\utility

; 214  :         : first(_Tuple_get<_Indexes1>(_STD move(_Val1))...), second(_Tuple_get<_Indexes2>(_STD move(_Val2))...) {}

	mov	BYTE PTR [r8+32], 0
; File C:\Program Files\Microsoft Visual Studio\2022\Community\VC\Tools\MSVC\14.35.32215\include\xtree

; 808  :         _Construct_in_place(this->_Ptr->_Left, _Myhead);

	mov	QWORD PTR [r8], rbx

; 809  :         _Construct_in_place(this->_Ptr->_Parent, _Myhead);

	mov	QWORD PTR [r8+8], rbx

; 810  :         _Construct_in_place(this->_Ptr->_Right, _Myhead);

	mov	QWORD PTR [r8+16], rbx

; 811  :         this->_Ptr->_Color = _Red;

	mov	WORD PTR [r8+24], 0
; File C:\Program Files\Microsoft Visual Studio\2022\Community\VC\Tools\MSVC\14.35.32215\include\map

; 210  :         return {_Scary->_Insert_node(_Loc._Location, _Inserted), true};

	vmovups	XMMWORD PTR $T4[rsp], xmm0
	vzeroupper
	call	?_Insert_node@?$_Tree_val@U?$_Tree_simple_types@U?$pair@$$CBI_N@std@@@std@@@std@@QEAAPEAU?$_Tree_node@U?$pair@$$CBI_N@std@@PEAX@2@U?$_Tree_id@PEAU?$_Tree_node@U?$pair@$$CBI_N@std@@PEAX@std@@@2@QEAU32@@Z ; std::_Tree_val<std::_Tree_simple_types<std::pair<unsigned int const ,bool> > >::_Insert_node
	mov	r8, rax
$LN3@operator:

; 346  :     }

	mov	rbx, QWORD PTR [rsp+80]
	lea	rax, QWORD PTR [r8+32]
	mov	rsi, QWORD PTR [rsp+88]
	add	rsp, 64					; 00000040H
	pop	rdi
	ret	0
$LN129@operator:
; File C:\Program Files\Microsoft Visual Studio\2022\Community\VC\Tools\MSVC\14.35.32215\include\xtree

; 1630 :             _Throw_tree_length_error();

	call	?_Throw_tree_length_error@std@@YAXXZ	; std::_Throw_tree_length_error
	int	3
$LN127@operator:
??A?$map@I_NU?$less@I@std@@V?$xalloc@U?$pair@$$CBI_N@std@@@@@std@@QEAAAEA_NAEBI@Z ENDP ; std::map<unsigned int,bool,std::less<unsigned int>,xalloc<std::pair<unsigned int const ,bool> > >::operator[]
_TEXT	ENDS
; Function compile flags: /Ogtpy
; File C:\Program Files\Microsoft Visual Studio\2022\Community\VC\Tools\MSVC\14.35.32215\include\map
; File C:\Program Files\Microsoft Visual Studio\2022\Community\VC\Tools\MSVC\14.35.32215\include\xtree
; File C:\Program Files\Microsoft Visual Studio\2022\Community\VC\Tools\MSVC\14.35.32215\include\map
; File C:\Program Files\Microsoft Visual Studio\2022\Community\VC\Tools\MSVC\14.35.32215\include\xtree
; File C:\Users\Mahito\Desktop\Night outing\Night-outing\src\xrCore\xrMemory_subst_msvc.cpp
; File C:\Program Files\Microsoft Visual Studio\2022\Community\VC\Tools\MSVC\14.35.32215\include\xtree
; File C:\Program Files\Microsoft Visual Studio\2022\Community\VC\Tools\MSVC\14.35.32215\include\map
;	COMDAT ??0?$map@I_NU?$less@I@std@@V?$xalloc@U?$pair@$$CBI_N@std@@@@@std@@QEAA@XZ
_TEXT	SEGMENT
this$ = 48
??0?$map@I_NU?$less@I@std@@V?$xalloc@U?$pair@$$CBI_N@std@@@@@std@@QEAA@XZ PROC ; std::map<unsigned int,bool,std::less<unsigned int>,xalloc<std::pair<unsigned int const ,bool> > >::map<unsigned int,bool,std::less<unsigned int>,xalloc<std::pair<unsigned int const ,bool> > >, COMDAT

; 105  :     map() : _Mybase(key_compare()) {}

$LN50:
	mov	QWORD PTR [rsp+8], rbx
	push	rdi
	sub	rsp, 32					; 00000020H
; File C:\Program Files\Microsoft Visual Studio\2022\Community\VC\Tools\MSVC\14.35.32215\include\xtree

; 437  :     _Tree_val() noexcept : _Myhead(), _Mysize(0) {}

	xor	edi, edi
; File C:\Program Files\Microsoft Visual Studio\2022\Community\VC\Tools\MSVC\14.35.32215\include\map

; 105  :     map() : _Mybase(key_compare()) {}

	mov	rbx, rcx
; File C:\Program Files\Microsoft Visual Studio\2022\Community\VC\Tools\MSVC\14.35.32215\include\xtree

; 437  :     _Tree_val() noexcept : _Myhead(), _Mysize(0) {}

	mov	QWORD PTR [rcx], rdi
	mov	QWORD PTR [rcx+8], rdi
; File C:\Users\Mahito\Desktop\Night outing\Night-outing\src\xrCore\xrMemory_subst_msvc.cpp

; 39   : 	stat_calls++;

	inc	DWORD PTR ?Memory@@3VxrMemory@@A

; 40   : 
; 41   : #ifdef PURE_ALLOC
; 42   : 	if (g_use_pure_alloc)
; 43   : 	{
; 44   : 		//void* result = malloc(size);
; 45   : 		void* result = _aligned_malloc(size, PURE_MEMORY_ALIGNMENT);

	lea	edx, QWORD PTR [rdi+16]
	lea	ecx, QWORD PTR [rdi+40]
	call	QWORD PTR __imp__aligned_malloc

; 46   : #ifdef PURE_MEMORY_FILL_ZERO
; 47   : 		if (result)

	test	rax, rax
	je	SHORT $LN21@map

; 48   : 			memset(result, 0, size);

	mov	QWORD PTR [rax+26], rdi
	mov	DWORD PTR [rax+34], edi
	mov	WORD PTR [rax+38], di
$LN21@map:
; File C:\Program Files\Microsoft Visual Studio\2022\Community\VC\Tools\MSVC\14.35.32215\include\xtree

; 1941 :         _Scary->_Myhead = _Node::_Buyheadnode(_Getal());

	mov	QWORD PTR [rbx], rax

; 347  :         _Construct_in_place(_Pnode->_Left, _Pnode);

	mov	QWORD PTR [rax], rax

; 348  :         _Construct_in_place(_Pnode->_Parent, _Pnode);

	mov	QWORD PTR [rax+8], rax

; 349  :         _Construct_in_place(_Pnode->_Right, _Pnode);

	mov	QWORD PTR [rax+16], rax

; 350  :         _Pnode->_Color = _Black;

	mov	WORD PTR [rax+24], 257			; 00000101H
; File C:\Program Files\Microsoft Visual Studio\2022\Community\VC\Tools\MSVC\14.35.32215\include\map

; 105  :     map() : _Mybase(key_compare()) {}

	mov	rax, rbx
	mov	rbx, QWORD PTR [rsp+48]
	add	rsp, 32					; 00000020H
	pop	rdi
	ret	0
??0?$map@I_NU?$less@I@std@@V?$xalloc@U?$pair@$$CBI_N@std@@@@@std@@QEAA@XZ ENDP ; std::map<unsigned int,bool,std::less<unsigned int>,xalloc<std::pair<unsigned int const ,bool> > >::map<unsigned int,bool,std::less<unsigned int>,xalloc<std::pair<unsigned int const ,bool> > >
_TEXT	ENDS
; Function compile flags: /Ogtpy
; File C:\Program Files\Microsoft Visual Studio\2022\Community\VC\Tools\MSVC\14.35.32215\include\xtree
; File C:\Program Files\Microsoft Visual Studio\2022\Community\VC\Tools\MSVC\14.35.32215\include\utility
; File C:\Users\Mahito\Desktop\Night outing\Night-outing\src\xrCore\xrMemory.h
; File C:\Users\Mahito\Desktop\Night outing\Night-outing\src\xrCore\xrMemory_subst_msvc.cpp
; File C:\Program Files\Microsoft Visual Studio\2022\Community\VC\Tools\MSVC\14.35.32215\include\xtree
; File C:\Program Files\Microsoft Visual Studio\2022\Community\VC\Tools\MSVC\14.35.32215\include\xmemory
; File C:\Users\Mahito\Desktop\Night outing\Night-outing\src\xrCore\xrMemory.h
; File C:\Users\Mahito\Desktop\Night outing\Night-outing\src\xrCore\xrMemory_subst_msvc.cpp
; File C:\Program Files\Microsoft Visual Studio\2022\Community\VC\Tools\MSVC\14.35.32215\include\xtree
;	COMDAT ??1?$_Tree@V?$_Tmap_traits@I_NU?$less@I@std@@V?$xalloc@U?$pair@$$CBI_N@std@@@@$0A@@std@@@std@@QEAA@XZ
_TEXT	SEGMENT
this$ = 48
??1?$_Tree@V?$_Tmap_traits@I_NU?$less@I@std@@V?$xalloc@U?$pair@$$CBI_N@std@@@@$0A@@std@@@std@@QEAA@XZ PROC ; std::_Tree<std::_Tmap_traits<unsigned int,bool,std::less<unsigned int>,xalloc<std::pair<unsigned int const ,bool> >,0> >::~_Tree<std::_Tmap_traits<unsigned int,bool,std::less<unsigned int>,xalloc<std::pair<unsigned int const ,bool> >,0> >, COMDAT

; 1079 :     ~_Tree() noexcept {

$LN555:
	mov	QWORD PTR [rsp+8], rbx
	push	rdi
	sub	rsp, 32					; 00000020H

; 754  :         _Erase_tree(_Al, _Myhead->_Parent);

	mov	rbx, QWORD PTR [rcx]

; 1079 :     ~_Tree() noexcept {

	mov	rdi, rcx

; 754  :         _Erase_tree(_Al, _Myhead->_Parent);

	mov	rbx, QWORD PTR [rbx+8]

; 745  :         while (!_Rootnode->_Isnil) { // free subtrees, then node

	cmp	BYTE PTR [rbx+25], 0
	jne	SHORT $LN7@Tree
	npad	6
$LL6@Tree:

; 746  :             _Erase_tree(_Al, _Rootnode->_Right);

	mov	r8, QWORD PTR [rbx+16]
	mov	rdx, rdi
	mov	rcx, rdi
	call	??$_Erase_tree@V?$xalloc@U?$_Tree_node@U?$pair@$$CBI_N@std@@PEAX@std@@@@@?$_Tree_val@U?$_Tree_simple_types@U?$pair@$$CBI_N@std@@@std@@@std@@QEAAXAEAV?$xalloc@U?$_Tree_node@U?$pair@$$CBI_N@std@@PEAX@std@@@@PEAU?$_Tree_node@U?$pair@$$CBI_N@std@@PEAX@1@@Z ; std::_Tree_val<std::_Tree_simple_types<std::pair<unsigned int const ,bool> > >::_Erase_tree<xalloc<std::_Tree_node<std::pair<unsigned int const ,bool>,void *> > >
; File C:\Program Files\Microsoft Visual Studio\2022\Community\VC\Tools\MSVC\14.35.32215\include\utility

; 654  :     _Ty _Old_val = static_cast<_Ty&&>(_Val);

	mov	rcx, rbx

; 655  :     _Val         = static_cast<_Other&&>(_New_val);

	mov	rbx, QWORD PTR [rbx]
; File C:\Users\Mahito\Desktop\Night outing\Night-outing\src\xrCore\xrMemory.h

; 69   : 	if (P)

	test	rcx, rcx
	je	SHORT $LN502@Tree
; File C:\Users\Mahito\Desktop\Night outing\Night-outing\src\xrCore\xrMemory_subst_msvc.cpp

; 99   : 	stat_calls++;

	inc	DWORD PTR ?Memory@@3VxrMemory@@A

; 100  : 
; 101  : #ifdef PURE_ALLOC
; 102  : 	if (g_use_pure_alloc)
; 103  : 	{
; 104  : 		//free(P);
; 105  : 		_aligned_free(P);

	call	QWORD PTR __imp__aligned_free
$LN502@Tree:
; File C:\Program Files\Microsoft Visual Studio\2022\Community\VC\Tools\MSVC\14.35.32215\include\xtree

; 745  :         while (!_Rootnode->_Isnil) { // free subtrees, then node

	cmp	BYTE PTR [rbx+25], 0
	je	SHORT $LL6@Tree
$LN7@Tree:
; File C:\Program Files\Microsoft Visual Studio\2022\Community\VC\Tools\MSVC\14.35.32215\include\xmemory

; 560  :         _Al.deallocate(_Ptr, _Count);

	mov	rcx, QWORD PTR [rdi]
; File C:\Users\Mahito\Desktop\Night outing\Night-outing\src\xrCore\xrMemory.h

; 69   : 	if (P)

	test	rcx, rcx
	je	SHORT $LN530@Tree
; File C:\Users\Mahito\Desktop\Night outing\Night-outing\src\xrCore\xrMemory_subst_msvc.cpp

; 99   : 	stat_calls++;

	inc	DWORD PTR ?Memory@@3VxrMemory@@A

; 100  : 
; 101  : #ifdef PURE_ALLOC
; 102  : 	if (g_use_pure_alloc)
; 103  : 	{
; 104  : 		//free(P);
; 105  : 		_aligned_free(P);

	call	QWORD PTR __imp__aligned_free
$LN530@Tree:
; File C:\Program Files\Microsoft Visual Studio\2022\Community\VC\Tools\MSVC\14.35.32215\include\xtree

; 1086 :     }

	mov	rbx, QWORD PTR [rsp+48]
	add	rsp, 32					; 00000020H
	pop	rdi
	ret	0
??1?$_Tree@V?$_Tmap_traits@I_NU?$less@I@std@@V?$xalloc@U?$pair@$$CBI_N@std@@@@$0A@@std@@@std@@QEAA@XZ ENDP ; std::_Tree<std::_Tmap_traits<unsigned int,bool,std::less<unsigned int>,xalloc<std::pair<unsigned int const ,bool> >,0> >::~_Tree<std::_Tmap_traits<unsigned int,bool,std::less<unsigned int>,xalloc<std::pair<unsigned int const ,bool> >,0> >
_TEXT	ENDS
; Function compile flags: /Ogtpy
; File C:\Users\Mahito\Desktop\Night outing\Night-outing\src\xrCore\FS.h
; File C:\Users\Mahito\Desktop\Night outing\Night-outing\src\xrCore\FS.cpp
; File C:\Users\Mahito\Desktop\Night outing\Night-outing\src\xrCore\FS.h
; File C:\Users\Mahito\Desktop\Night outing\Night-outing\src\xrCore\FS.cpp
; File C:\Users\Mahito\Desktop\Night outing\Night-outing\src\xrCore\FS.h
;	COMDAT ?r_u8@?$IReaderBase@VIReader@@@@QEAAEXZ
_TEXT	SEGMENT
this$ = 8
?r_u8@?$IReaderBase@VIReader@@@@QEAAEXZ PROC		; IReaderBase<IReader>::r_u8, COMDAT

; 295  : 	IC void*		pointer		()	const		{	return &(data[Pos]);	};

	movsxd	r8, DWORD PTR [rcx+24]
; File C:\Users\Mahito\Desktop\Night outing\Night-outing\src\xrCore\FS.cpp

; 393  : 	CopyMemory		(p,pointer(),cnt);//

	mov	rax, QWORD PTR [rcx+16]
; File C:\Users\Mahito\Desktop\Night outing\Night-outing\src\xrCore\FS.h

; 296  : 	IC void			advance		(int cnt)		{	Pos+=cnt;VERIFY((Pos<=Size) && (Pos>=0));};

	lea	edx, DWORD PTR [r8+1]
; File C:\Users\Mahito\Desktop\Night outing\Night-outing\src\xrCore\FS.cpp

; 393  : 	CopyMemory		(p,pointer(),cnt);//

	movzx	eax, BYTE PTR [r8+rax]
; File C:\Users\Mahito\Desktop\Night outing\Night-outing\src\xrCore\FS.h

; 296  : 	IC void			advance		(int cnt)		{	Pos+=cnt;VERIFY((Pos<=Size) && (Pos>=0));};

	mov	DWORD PTR [rcx+24], edx

; 190  : 	IC u8			r_u8		()			{	u8 tmp;		r(&tmp,sizeof(tmp)); return tmp;	};

	ret	0
?r_u8@?$IReaderBase@VIReader@@@@QEAAEXZ ENDP		; IReaderBase<IReader>::r_u8
_TEXT	ENDS
; Function compile flags: /Ogtpy
; File C:\Users\Mahito\Desktop\Night outing\Night-outing\src\xrCore\FS.h
; File C:\Users\Mahito\Desktop\Night outing\Night-outing\src\xrCore\FS.cpp
; File C:\Users\Mahito\Desktop\Night outing\Night-outing\src\xrCore\FS.h
; File C:\Users\Mahito\Desktop\Night outing\Night-outing\src\xrCore\FS.cpp
; File C:\Users\Mahito\Desktop\Night outing\Night-outing\src\xrCore\FS.h
;	COMDAT ?r_u16@?$IReaderBase@VIReader@@@@QEAAGXZ
_TEXT	SEGMENT
this$ = 8
?r_u16@?$IReaderBase@VIReader@@@@QEAAGXZ PROC		; IReaderBase<IReader>::r_u16, COMDAT

; 295  : 	IC void*		pointer		()	const		{	return &(data[Pos]);	};

	movsxd	r8, DWORD PTR [rcx+24]
; File C:\Users\Mahito\Desktop\Night outing\Night-outing\src\xrCore\FS.cpp

; 393  : 	CopyMemory		(p,pointer(),cnt);//

	mov	rax, QWORD PTR [rcx+16]
; File C:\Users\Mahito\Desktop\Night outing\Night-outing\src\xrCore\FS.h

; 296  : 	IC void			advance		(int cnt)		{	Pos+=cnt;VERIFY((Pos<=Size) && (Pos>=0));};

	lea	edx, DWORD PTR [r8+2]
; File C:\Users\Mahito\Desktop\Night outing\Night-outing\src\xrCore\FS.cpp

; 393  : 	CopyMemory		(p,pointer(),cnt);//

	movzx	eax, WORD PTR [r8+rax]
; File C:\Users\Mahito\Desktop\Night outing\Night-outing\src\xrCore\FS.h

; 296  : 	IC void			advance		(int cnt)		{	Pos+=cnt;VERIFY((Pos<=Size) && (Pos>=0));};

	mov	DWORD PTR [rcx+24], edx

; 189  : 	IC u16			r_u16		()			{	u16 tmp;	r(&tmp,sizeof(tmp)); return tmp;	};

	ret	0
?r_u16@?$IReaderBase@VIReader@@@@QEAAGXZ ENDP		; IReaderBase<IReader>::r_u16
_TEXT	ENDS
; Function compile flags: /Ogtpy
; File C:\Program Files\Microsoft Visual Studio\2022\Community\VC\Tools\MSVC\14.35.32215\include\xtree
;	COMDAT ?_Get_scary@?$_Tree@V?$_Tmap_traits@I_NU?$less@I@std@@V?$xalloc@U?$pair@$$CBI_N@std@@@@$0A@@std@@@std@@IEAAPEAV?$_Tree_val@U?$_Tree_simple_types@U?$pair@$$CBI_N@std@@@std@@@2@XZ
_TEXT	SEGMENT
this$ = 8
?_Get_scary@?$_Tree@V?$_Tmap_traits@I_NU?$less@I@std@@V?$xalloc@U?$pair@$$CBI_N@std@@@@$0A@@std@@@std@@IEAAPEAV?$_Tree_val@U?$_Tree_simple_types@U?$pair@$$CBI_N@std@@@std@@@2@XZ PROC ; std::_Tree<std::_Tmap_traits<unsigned int,bool,std::less<unsigned int>,xalloc<std::pair<unsigned int const ,bool> >,0> >::_Get_scary, COMDAT

; 1967 :         return _STD addressof(_Mypair._Myval2._Myval2);

	mov	rax, rcx

; 1968 :     }

	ret	0
?_Get_scary@?$_Tree@V?$_Tmap_traits@I_NU?$less@I@std@@V?$xalloc@U?$pair@$$CBI_N@std@@@@$0A@@std@@@std@@IEAAPEAV?$_Tree_val@U?$_Tree_simple_types@U?$pair@$$CBI_N@std@@@std@@@2@XZ ENDP ; std::_Tree<std::_Tmap_traits<unsigned int,bool,std::less<unsigned int>,xalloc<std::pair<unsigned int const ,bool> >,0> >::_Get_scary
_TEXT	ENDS
; Function compile flags: /Ogtpy
; File C:\Program Files\Microsoft Visual Studio\2022\Community\VC\Tools\MSVC\14.35.32215\include\xtree
;	COMDAT ?_Getal@?$_Tree@V?$_Tmap_traits@I_NU?$less@I@std@@V?$xalloc@U?$pair@$$CBI_N@std@@@@$0A@@std@@@std@@IEAAAEAV?$xalloc@U?$_Tree_node@U?$pair@$$CBI_N@std@@PEAX@std@@@@XZ
_TEXT	SEGMENT
this$ = 8
?_Getal@?$_Tree@V?$_Tmap_traits@I_NU?$less@I@std@@V?$xalloc@U?$pair@$$CBI_N@std@@@@$0A@@std@@@std@@IEAAAEAV?$xalloc@U?$_Tree_node@U?$pair@$$CBI_N@std@@PEAX@std@@@@XZ PROC ; std::_Tree<std::_Tmap_traits<unsigned int,bool,std::less<unsigned int>,xalloc<std::pair<unsigned int const ,bool> >,0> >::_Getal, COMDAT

; 1959 :         return _Mypair._Myval2._Get_first();

	mov	rax, rcx

; 1960 :     }

	ret	0
?_Getal@?$_Tree@V?$_Tmap_traits@I_NU?$less@I@std@@V?$xalloc@U?$pair@$$CBI_N@std@@@@$0A@@std@@@std@@IEAAAEAV?$xalloc@U?$_Tree_node@U?$pair@$$CBI_N@std@@PEAX@std@@@@XZ ENDP ; std::_Tree<std::_Tmap_traits<unsigned int,bool,std::less<unsigned int>,xalloc<std::pair<unsigned int const ,bool> >,0> >::_Getal
_TEXT	ENDS
; Function compile flags: /Ogtpy
; File C:\Program Files\Microsoft Visual Studio\2022\Community\VC\Tools\MSVC\14.35.32215\include\xtree
; File C:\Users\Mahito\Desktop\Night outing\Night-outing\src\xrCore\xrMemory_subst_msvc.cpp
; File C:\Program Files\Microsoft Visual Studio\2022\Community\VC\Tools\MSVC\14.35.32215\include\xtree
;	COMDAT ??0?$_Tree@V?$_Tmap_traits@I_NU?$less@I@std@@V?$xalloc@U?$pair@$$CBI_N@std@@@@$0A@@std@@@std@@QEAA@AEBU?$less@I@1@@Z
_TEXT	SEGMENT
this$ = 48
_Parg$dead$ = 56
??0?$_Tree@V?$_Tmap_traits@I_NU?$less@I@std@@V?$xalloc@U?$pair@$$CBI_N@std@@@@$0A@@std@@@std@@QEAA@AEBU?$less@I@1@@Z PROC ; std::_Tree<std::_Tmap_traits<unsigned int,bool,std::less<unsigned int>,xalloc<std::pair<unsigned int const ,bool> >,0> >::_Tree<std::_Tmap_traits<unsigned int,bool,std::less<unsigned int>,xalloc<std::pair<unsigned int const ,bool> >,0> >, COMDAT

; 882  :     _Tree(const key_compare& _Parg) : _Mypair(_One_then_variadic_args_t{}, _Parg, _Zero_then_variadic_args_t{}) {

$LN47:
	mov	QWORD PTR [rsp+8], rbx
	push	rdi
	sub	rsp, 32					; 00000020H

; 437  :     _Tree_val() noexcept : _Myhead(), _Mysize(0) {}

	xor	edi, edi

; 882  :     _Tree(const key_compare& _Parg) : _Mypair(_One_then_variadic_args_t{}, _Parg, _Zero_then_variadic_args_t{}) {

	mov	rbx, rcx

; 437  :     _Tree_val() noexcept : _Myhead(), _Mysize(0) {}

	mov	QWORD PTR [rcx], rdi
	mov	QWORD PTR [rcx+8], rdi
; File C:\Users\Mahito\Desktop\Night outing\Night-outing\src\xrCore\xrMemory_subst_msvc.cpp

; 39   : 	stat_calls++;

	inc	DWORD PTR ?Memory@@3VxrMemory@@A

; 40   : 
; 41   : #ifdef PURE_ALLOC
; 42   : 	if (g_use_pure_alloc)
; 43   : 	{
; 44   : 		//void* result = malloc(size);
; 45   : 		void* result = _aligned_malloc(size, PURE_MEMORY_ALIGNMENT);

	lea	edx, QWORD PTR [rdi+16]
	lea	ecx, QWORD PTR [rdi+40]
	call	QWORD PTR __imp__aligned_malloc

; 46   : #ifdef PURE_MEMORY_FILL_ZERO
; 47   : 		if (result)

	test	rax, rax
	je	SHORT $LN19@Tree

; 48   : 			memset(result, 0, size);

	mov	QWORD PTR [rax+26], rdi
	mov	DWORD PTR [rax+34], edi
	mov	WORD PTR [rax+38], di
$LN19@Tree:
; File C:\Program Files\Microsoft Visual Studio\2022\Community\VC\Tools\MSVC\14.35.32215\include\xtree

; 1941 :         _Scary->_Myhead = _Node::_Buyheadnode(_Getal());

	mov	QWORD PTR [rbx], rax

; 347  :         _Construct_in_place(_Pnode->_Left, _Pnode);

	mov	QWORD PTR [rax], rax

; 348  :         _Construct_in_place(_Pnode->_Parent, _Pnode);

	mov	QWORD PTR [rax+8], rax

; 349  :         _Construct_in_place(_Pnode->_Right, _Pnode);

	mov	QWORD PTR [rax+16], rax

; 350  :         _Pnode->_Color = _Black;

	mov	WORD PTR [rax+24], 257			; 00000101H

; 883  :         _Alloc_sentinel_and_proxy();
; 884  :     }

	mov	rax, rbx
	mov	rbx, QWORD PTR [rsp+48]
	add	rsp, 32					; 00000020H
	pop	rdi
	ret	0
??0?$_Tree@V?$_Tmap_traits@I_NU?$less@I@std@@V?$xalloc@U?$pair@$$CBI_N@std@@@@$0A@@std@@@std@@QEAA@AEBU?$less@I@1@@Z ENDP ; std::_Tree<std::_Tmap_traits<unsigned int,bool,std::less<unsigned int>,xalloc<std::pair<unsigned int const ,bool> >,0> >::_Tree<std::_Tmap_traits<unsigned int,bool,std::less<unsigned int>,xalloc<std::pair<unsigned int const ,bool> >,0> >
_TEXT	ENDS
; Function compile flags: /Ogtpy
; File C:\Program Files\Microsoft Visual Studio\2022\Community\VC\Tools\MSVC\14.35.32215\include\xmemory
;	COMDAT ?_Get_first@?$_Compressed_pair@V?$xalloc@U?$_Tree_node@U?$pair@$$CBI_N@std@@PEAX@std@@@@V?$_Tree_val@U?$_Tree_simple_types@U?$pair@$$CBI_N@std@@@std@@@std@@$00@std@@QEAAAEAV?$xalloc@U?$_Tree_node@U?$pair@$$CBI_N@std@@PEAX@std@@@@XZ
_TEXT	SEGMENT
this$ = 8
?_Get_first@?$_Compressed_pair@V?$xalloc@U?$_Tree_node@U?$pair@$$CBI_N@std@@PEAX@std@@@@V?$_Tree_val@U?$_Tree_simple_types@U?$pair@$$CBI_N@std@@@std@@@std@@$00@std@@QEAAAEAV?$xalloc@U?$_Tree_node@U?$pair@$$CBI_N@std@@PEAX@std@@@@XZ PROC ; std::_Compressed_pair<xalloc<std::_Tree_node<std::pair<unsigned int const ,bool>,void *> >,std::_Tree_val<std::_Tree_simple_types<std::pair<unsigned int const ,bool> > >,1>::_Get_first, COMDAT

; 1383 :         return *this;

	mov	rax, rcx

; 1384 :     }

	ret	0
?_Get_first@?$_Compressed_pair@V?$xalloc@U?$_Tree_node@U?$pair@$$CBI_N@std@@PEAX@std@@@@V?$_Tree_val@U?$_Tree_simple_types@U?$pair@$$CBI_N@std@@@std@@@std@@$00@std@@QEAAAEAV?$xalloc@U?$_Tree_node@U?$pair@$$CBI_N@std@@PEAX@std@@@@XZ ENDP ; std::_Compressed_pair<xalloc<std::_Tree_node<std::pair<unsigned int const ,bool>,void *> >,std::_Tree_val<std::_Tree_simple_types<std::pair<unsigned int const ,bool> > >,1>::_Get_first
_TEXT	ENDS
; Function compile flags: /Ogtpy
; File C:\Program Files\Microsoft Visual Studio\2022\Community\VC\Tools\MSVC\14.35.32215\include\xtree
; File C:\Users\Mahito\Desktop\Night outing\Night-outing\src\xrCore\xrMemory_subst_msvc.cpp
; File C:\Program Files\Microsoft Visual Studio\2022\Community\VC\Tools\MSVC\14.35.32215\include\xtree
; File C:\Users\Mahito\Desktop\Night outing\Night-outing\src\xrCore\xrMemory_subst_msvc.cpp
; File C:\Program Files\Microsoft Visual Studio\2022\Community\VC\Tools\MSVC\14.35.32215\include\xtree
;	COMDAT ?_Alloc_sentinel_and_proxy@?$_Tree@V?$_Tmap_traits@I_NU?$less@I@std@@V?$xalloc@U?$pair@$$CBI_N@std@@@@$0A@@std@@@std@@IEAAXXZ
_TEXT	SEGMENT
this$ = 48
?_Alloc_sentinel_and_proxy@?$_Tree@V?$_Tmap_traits@I_NU?$less@I@std@@V?$xalloc@U?$pair@$$CBI_N@std@@@@$0A@@std@@@std@@IEAAXXZ PROC ; std::_Tree<std::_Tmap_traits<unsigned int,bool,std::less<unsigned int>,xalloc<std::pair<unsigned int const ,bool> >,0> >::_Alloc_sentinel_and_proxy, COMDAT

; 1937 :     void _Alloc_sentinel_and_proxy() {

$LN39:
	push	rbx
	sub	rsp, 32					; 00000020H
; File C:\Users\Mahito\Desktop\Night outing\Night-outing\src\xrCore\xrMemory_subst_msvc.cpp

; 39   : 	stat_calls++;

	inc	DWORD PTR ?Memory@@3VxrMemory@@A

; 45   : 		void* result = _aligned_malloc(size, PURE_MEMORY_ALIGNMENT);

	mov	edx, 16
; File C:\Program Files\Microsoft Visual Studio\2022\Community\VC\Tools\MSVC\14.35.32215\include\xtree

; 1937 :     void _Alloc_sentinel_and_proxy() {

	mov	rbx, rcx
; File C:\Users\Mahito\Desktop\Night outing\Night-outing\src\xrCore\xrMemory_subst_msvc.cpp

; 45   : 		void* result = _aligned_malloc(size, PURE_MEMORY_ALIGNMENT);

	lea	ecx, QWORD PTR [rdx+24]
	call	QWORD PTR __imp__aligned_malloc

; 46   : #ifdef PURE_MEMORY_FILL_ZERO
; 47   : 		if (result)

	test	rax, rax
	je	SHORT $LN11@Alloc_sent

; 48   : 			memset(result, 0, size);

	xor	ecx, ecx
	mov	QWORD PTR [rax+26], rcx
	mov	DWORD PTR [rax+34], ecx
	mov	WORD PTR [rax+38], cx
$LN11@Alloc_sent:
; File C:\Program Files\Microsoft Visual Studio\2022\Community\VC\Tools\MSVC\14.35.32215\include\xtree

; 347  :         _Construct_in_place(_Pnode->_Left, _Pnode);

	mov	QWORD PTR [rax], rax

; 348  :         _Construct_in_place(_Pnode->_Parent, _Pnode);

	mov	QWORD PTR [rax+8], rax

; 349  :         _Construct_in_place(_Pnode->_Right, _Pnode);

	mov	QWORD PTR [rax+16], rax

; 350  :         _Pnode->_Color = _Black;

	mov	WORD PTR [rax+24], 257			; 00000101H

; 1938 :         const auto _Scary = _Get_scary();
; 1939 :         auto&& _Alproxy   = _GET_PROXY_ALLOCATOR(_Alnode, _Getal());
; 1940 :         _Container_proxy_ptr<_Alnode> _Proxy(_Alproxy, *_Scary);
; 1941 :         _Scary->_Myhead = _Node::_Buyheadnode(_Getal());

	mov	QWORD PTR [rbx], rax

; 1942 :         _Proxy._Release();
; 1943 :     }

	add	rsp, 32					; 00000020H
	pop	rbx
	ret	0
?_Alloc_sentinel_and_proxy@?$_Tree@V?$_Tmap_traits@I_NU?$less@I@std@@V?$xalloc@U?$pair@$$CBI_N@std@@@@$0A@@std@@@std@@IEAAXXZ ENDP ; std::_Tree<std::_Tmap_traits<unsigned int,bool,std::less<unsigned int>,xalloc<std::pair<unsigned int const ,bool> >,0> >::_Alloc_sentinel_and_proxy
_TEXT	ENDS
; Function compile flags: /Ogtpy
; File C:\Users\Mahito\Desktop\Night outing\Night-outing\src\xrCore\xrMemory_subst_msvc.h
; File C:\Users\Mahito\Desktop\Night outing\Night-outing\src\xrCore\xrMemory_subst_msvc.cpp
; File C:\Users\Mahito\Desktop\Night outing\Night-outing\src\xrCore\xrMemory_subst_msvc.h
; File C:\Users\Mahito\Desktop\Night outing\Night-outing\src\xrCore\xrMemory_subst_msvc.cpp
; File C:\Users\Mahito\Desktop\Night outing\Night-outing\src\xrCore\xrMemory_subst_msvc.h
; File C:\Users\Mahito\Desktop\Night outing\Night-outing\src\xrCore\xrMemory_subst_msvc.cpp
; File C:\Users\Mahito\Desktop\Night outing\Night-outing\src\xrCore\FS.h
; File C:\Users\Mahito\Desktop\Night outing\Night-outing\src\xrCore\xrMemory_subst_msvc.h
; File C:\Users\Mahito\Desktop\Night outing\Night-outing\src\xrCore\FS.h
; File C:\Users\Mahito\Desktop\Night outing\Night-outing\src\xrCore\xrMemory_subst_msvc.h
;	COMDAT ??$xr_new@VIReader@@PEADH@@YAPEAVIReader@@AEBQEADAEBH@Z
_TEXT	SEGMENT
<args_0>$ = 48
<args_1>$ = 56
??$xr_new@VIReader@@PEADH@@YAPEAVIReader@@AEBQEADAEBH@Z PROC ; xr_new<IReader,char *,int>, COMDAT

; 10   : IC T* xr_new(const Args& ... args) {

$LN38:
	mov	QWORD PTR [rsp+8], rbx
	push	rdi
	sub	rsp, 32					; 00000020H
; File C:\Users\Mahito\Desktop\Night outing\Night-outing\src\xrCore\xrMemory_subst_msvc.cpp

; 39   : 	stat_calls++;

	inc	DWORD PTR ?Memory@@3VxrMemory@@A
; File C:\Users\Mahito\Desktop\Night outing\Night-outing\src\xrCore\xrMemory_subst_msvc.h

; 10   : IC T* xr_new(const Args& ... args) {

	mov	rbx, rdx
; File C:\Users\Mahito\Desktop\Night outing\Night-outing\src\xrCore\xrMemory_subst_msvc.cpp

; 45   : 		void* result = _aligned_malloc(size, PURE_MEMORY_ALIGNMENT);

	mov	edx, 16
; File C:\Users\Mahito\Desktop\Night outing\Night-outing\src\xrCore\xrMemory_subst_msvc.h

; 10   : IC T* xr_new(const Args& ... args) {

	mov	rdi, rcx
; File C:\Users\Mahito\Desktop\Night outing\Night-outing\src\xrCore\xrMemory_subst_msvc.cpp

; 45   : 		void* result = _aligned_malloc(size, PURE_MEMORY_ALIGNMENT);

	lea	ecx, QWORD PTR [rdx+24]
	call	QWORD PTR __imp__aligned_malloc

; 46   : #ifdef PURE_MEMORY_FILL_ZERO
; 47   : 		if (result)

	xor	edx, edx
	test	rax, rax
	je	SHORT $LN5@xr_new

; 48   : 			memset(result, 0, size);

	mov	DWORD PTR [rax+36], edx
$LN5@xr_new:
; File C:\Users\Mahito\Desktop\Night outing\Night-outing\src\xrCore\FS.h

; 272  : 	IC				IReader			(void *_data, int _size, int _iterpos=0)

	lea	rcx, OFFSET FLAT:??_7IReader@@6B@

; 172  : 	IC				IReaderBase() : m_last_pos(0), m_file_age(0) {}

	mov	QWORD PTR [rax+8], rdx

; 272  : 	IC				IReader			(void *_data, int _size, int _iterpos=0)

	mov	QWORD PTR [rax], rcx

; 273  : 	{
; 274  : 		data		= (char *)_data	;

	mov	rcx, QWORD PTR [rdi]
	mov	QWORD PTR [rax+16], rcx

; 275  : 		Size		= _size			;

	mov	ecx, DWORD PTR [rbx]
; File C:\Users\Mahito\Desktop\Night outing\Night-outing\src\xrCore\xrMemory_subst_msvc.h

; 13   : }

	mov	rbx, QWORD PTR [rsp+48]
; File C:\Users\Mahito\Desktop\Night outing\Night-outing\src\xrCore\FS.h

; 275  : 		Size		= _size			;

	mov	DWORD PTR [rax+28], ecx

; 276  : 		Pos			= 0				;

	mov	DWORD PTR [rax+24], edx

; 277  : 		iterpos		= _iterpos		;

	mov	DWORD PTR [rax+32], edx
; File C:\Users\Mahito\Desktop\Night outing\Night-outing\src\xrCore\xrMemory_subst_msvc.h

; 13   : }

	add	rsp, 32					; 00000020H
	pop	rdi
	ret	0
??$xr_new@VIReader@@PEADH@@YAPEAVIReader@@AEBQEADAEBH@Z ENDP ; xr_new<IReader,char *,int>
_TEXT	ENDS
; Function compile flags: /Ogtpy
; File C:\Program Files\Microsoft Visual Studio\2022\Community\VC\Tools\MSVC\14.35.32215\include\map
; File C:\Program Files\Microsoft Visual Studio\2022\Community\VC\Tools\MSVC\14.35.32215\include\xtree
; File C:\Program Files\Microsoft Visual Studio\2022\Community\VC\Tools\MSVC\14.35.32215\include\map
; File C:\Program Files\Microsoft Visual Studio\2022\Community\VC\Tools\MSVC\14.35.32215\include\xtree
; File C:\Program Files\Microsoft Visual Studio\2022\Community\VC\Tools\MSVC\14.35.32215\include\map
; File C:\Program Files\Microsoft Visual Studio\2022\Community\VC\Tools\MSVC\14.35.32215\include\xtree
; File C:\Program Files\Microsoft Visual Studio\2022\Community\VC\Tools\MSVC\14.35.32215\include\xstddef
; File C:\Program Files\Microsoft Visual Studio\2022\Community\VC\Tools\MSVC\14.35.32215\include\xtree
; File C:\Program Files\Microsoft Visual Studio\2022\Community\VC\Tools\MSVC\14.35.32215\include\xstddef
; File C:\Program Files\Microsoft Visual Studio\2022\Community\VC\Tools\MSVC\14.35.32215\include\xtree
; File C:\Program Files\Microsoft Visual Studio\2022\Community\VC\Tools\MSVC\14.35.32215\include\xstddef
; File C:\Program Files\Microsoft Visual Studio\2022\Community\VC\Tools\MSVC\14.35.32215\include\xtree
; File C:\Program Files\Microsoft Visual Studio\2022\Community\VC\Tools\MSVC\14.35.32215\include\utility
; File C:\Program Files\Microsoft Visual Studio\2022\Community\VC\Tools\MSVC\14.35.32215\include\map
; File C:\Program Files\Microsoft Visual Studio\2022\Community\VC\Tools\MSVC\14.35.32215\include\xtree
; File C:\Users\Mahito\Desktop\Night outing\Night-outing\src\xrCore\xrMemory_subst_msvc.cpp
; File C:\Program Files\Microsoft Visual Studio\2022\Community\VC\Tools\MSVC\14.35.32215\include\utility
; File C:\Program Files\Microsoft Visual Studio\2022\Community\VC\Tools\MSVC\14.35.32215\include\map
; File C:\Program Files\Microsoft Visual Studio\2022\Community\VC\Tools\MSVC\14.35.32215\include\utility
; File C:\Program Files\Microsoft Visual Studio\2022\Community\VC\Tools\MSVC\14.35.32215\include\map
; File C:\Program Files\Microsoft Visual Studio\2022\Community\VC\Tools\MSVC\14.35.32215\include\utility
; File C:\Program Files\Microsoft Visual Studio\2022\Community\VC\Tools\MSVC\14.35.32215\include\map
; File C:\Program Files\Microsoft Visual Studio\2022\Community\VC\Tools\MSVC\14.35.32215\include\xtree
; File C:\Program Files\Microsoft Visual Studio\2022\Community\VC\Tools\MSVC\14.35.32215\include\map
; File C:\Program Files\Microsoft Visual Studio\2022\Community\VC\Tools\MSVC\14.35.32215\include\utility
; File C:\Program Files\Microsoft Visual Studio\2022\Community\VC\Tools\MSVC\14.35.32215\include\map
; File C:\Program Files\Microsoft Visual Studio\2022\Community\VC\Tools\MSVC\14.35.32215\include\xtree
; File C:\Program Files\Microsoft Visual Studio\2022\Community\VC\Tools\MSVC\14.35.32215\include\map
;	COMDAT ??$_Try_emplace@AEBI$$V@?$map@I_NU?$less@I@std@@V?$xalloc@U?$pair@$$CBI_N@std@@@@@std@@AEAA?AU?$pair@PEAU?$_Tree_node@U?$pair@$$CBI_N@std@@PEAX@std@@_N@1@AEBI@Z
_TEXT	SEGMENT
$T2 = 32
_Loc$ = 32
this$ = 80
__$ReturnUdt$ = 88
_Keyval$ = 96
??$_Try_emplace@AEBI$$V@?$map@I_NU?$less@I@std@@V?$xalloc@U?$pair@$$CBI_N@std@@@@@std@@AEAA?AU?$pair@PEAU?$_Tree_node@U?$pair@$$CBI_N@std@@PEAX@std@@_N@1@AEBI@Z PROC ; std::map<unsigned int,bool,std::less<unsigned int>,xalloc<std::pair<unsigned int const ,bool> > >::_Try_emplace<unsigned int const &>, COMDAT

; 195  :     pair<_Nodeptr, bool> _Try_emplace(_Keyty&& _Keyval, _Mappedty&&... _Mapval) {

$LN129:
	mov	QWORD PTR [rsp+8], rbx
	mov	QWORD PTR [rsp+16], rsi
	mov	QWORD PTR [rsp+24], rdi
	push	r14
	sub	rsp, 64					; 00000040H
; File C:\Program Files\Microsoft Visual Studio\2022\Community\VC\Tools\MSVC\14.35.32215\include\xtree

; 1611 :         _Tree_find_result<_Nodeptr> _Result{{_Scary->_Myhead->_Parent, _Tree_child::_Right}, _Scary->_Myhead};

	mov	rdi, QWORD PTR [rcx]
; File C:\Program Files\Microsoft Visual Studio\2022\Community\VC\Tools\MSVC\14.35.32215\include\map

; 195  :     pair<_Nodeptr, bool> _Try_emplace(_Keyty&& _Keyval, _Mappedty&&... _Mapval) {

	mov	r14, rcx
; File C:\Program Files\Microsoft Visual Studio\2022\Community\VC\Tools\MSVC\14.35.32215\include\xtree

; 1611 :         _Tree_find_result<_Nodeptr> _Result{{_Scary->_Myhead->_Parent, _Tree_child::_Right}, _Scary->_Myhead};

	xor	ecx, ecx
; File C:\Program Files\Microsoft Visual Studio\2022\Community\VC\Tools\MSVC\14.35.32215\include\map

; 195  :     pair<_Nodeptr, bool> _Try_emplace(_Keyty&& _Keyval, _Mappedty&&... _Mapval) {

	mov	rsi, r8
	mov	rbx, rdx
; File C:\Program Files\Microsoft Visual Studio\2022\Community\VC\Tools\MSVC\14.35.32215\include\xtree

; 1611 :         _Tree_find_result<_Nodeptr> _Result{{_Scary->_Myhead->_Parent, _Tree_child::_Right}, _Scary->_Myhead};

	mov	DWORD PTR _Loc$[rsp+8], ecx
	mov	r9, rdi
	mov	rax, QWORD PTR [rdi+8]
	mov	QWORD PTR _Loc$[rsp], rax

; 1612 :         _Nodeptr _Trynode = _Result._Location._Parent;
; 1613 :         while (!_Trynode->_Isnil) {

	cmp	BYTE PTR [rax+25], cl
	jne	SHORT $LN6@Try_emplac
; File C:\Program Files\Microsoft Visual Studio\2022\Community\VC\Tools\MSVC\14.35.32215\include\xstddef

; 143  :         return _Left < _Right;

	mov	edx, DWORD PTR [r8]
	npad	5
$LL5@Try_emplac:
; File C:\Program Files\Microsoft Visual Studio\2022\Community\VC\Tools\MSVC\14.35.32215\include\xtree

; 1614 :             _Result._Location._Parent = _Trynode;

	mov	QWORD PTR _Loc$[rsp], rax
; File C:\Program Files\Microsoft Visual Studio\2022\Community\VC\Tools\MSVC\14.35.32215\include\xstddef

; 143  :         return _Left < _Right;

	cmp	DWORD PTR [rax+28], edx
; File C:\Program Files\Microsoft Visual Studio\2022\Community\VC\Tools\MSVC\14.35.32215\include\xtree

; 1615 :             if (_DEBUG_LT_PRED(_Getcomp(), _Traits::_Kfn(_Trynode->_Myval), _Keyval)) {

	jae	SHORT $LN7@Try_emplac

; 1616 :                 _Result._Location._Child = _Tree_child::_Right;
; 1617 :                 _Trynode                 = _Trynode->_Right;

	mov	rax, QWORD PTR [rax+16]
	mov	DWORD PTR _Loc$[rsp+8], ecx

; 1618 :             } else {

	jmp	SHORT $LN8@Try_emplac
$LN7@Try_emplac:

; 1619 :                 _Result._Location._Child = _Tree_child::_Left;
; 1620 :                 _Result._Bound           = _Trynode;

	mov	r9, rax
	mov	DWORD PTR _Loc$[rsp+8], 1

; 1621 :                 _Trynode                 = _Trynode->_Left;

	mov	rax, QWORD PTR [rax]
$LN8@Try_emplac:

; 1612 :         _Nodeptr _Trynode = _Result._Location._Parent;
; 1613 :         while (!_Trynode->_Isnil) {

	cmp	BYTE PTR [rax+25], cl
	je	SHORT $LL5@Try_emplac
$LN6@Try_emplac:

; 1605 :         return !_Bound->_Isnil && !_DEBUG_LT_PRED(_Getcomp(), _Keyval, _Traits::_Kfn(_Bound->_Myval));

	cmp	BYTE PTR [r9+25], cl
	jne	SHORT $LN2@Try_emplac
; File C:\Program Files\Microsoft Visual Studio\2022\Community\VC\Tools\MSVC\14.35.32215\include\xstddef

; 143  :         return _Left < _Right;

	mov	eax, DWORD PTR [r9+28]
	cmp	DWORD PTR [r8], eax
; File C:\Program Files\Microsoft Visual Studio\2022\Community\VC\Tools\MSVC\14.35.32215\include\xtree

; 1605 :         return !_Bound->_Isnil && !_DEBUG_LT_PRED(_Getcomp(), _Keyval, _Traits::_Kfn(_Bound->_Myval));

	jb	SHORT $LN2@Try_emplac
; File C:\Program Files\Microsoft Visual Studio\2022\Community\VC\Tools\MSVC\14.35.32215\include\utility

; 172  :         : first(_STD forward<_Other1>(_Val1)), second(_STD forward<_Other2>(_Val2)) {

	mov	QWORD PTR [rbx], r9
	mov	BYTE PTR [rbx+8], cl
; File C:\Program Files\Microsoft Visual Studio\2022\Community\VC\Tools\MSVC\14.35.32215\include\map

; 198  :             return {_Loc._Bound, false};

	jmp	SHORT $LN125@Try_emplac
$LN2@Try_emplac:
; File C:\Program Files\Microsoft Visual Studio\2022\Community\VC\Tools\MSVC\14.35.32215\include\xtree

; 1629 :         if (max_size() == _Get_scary()->_Mysize) {

	mov	rax, 461168601842738790			; 0666666666666666H
	cmp	QWORD PTR [r14+8], rax
	je	$LN127@Try_emplac
; File C:\Users\Mahito\Desktop\Night outing\Night-outing\src\xrCore\xrMemory_subst_msvc.cpp

; 39   : 	stat_calls++;

	inc	DWORD PTR ?Memory@@3VxrMemory@@A

; 40   : 
; 41   : #ifdef PURE_ALLOC
; 42   : 	if (g_use_pure_alloc)
; 43   : 	{
; 44   : 		//void* result = malloc(size);
; 45   : 		void* result = _aligned_malloc(size, PURE_MEMORY_ALIGNMENT);

	mov	edx, 16
	lea	ecx, QWORD PTR [rdx+24]
	call	QWORD PTR __imp__aligned_malloc

; 46   : #ifdef PURE_MEMORY_FILL_ZERO
; 47   : 		if (result)

	test	rax, rax
	je	SHORT $LN46@Try_emplac
	vpxor	xmm0, xmm0, xmm0

; 48   : 			memset(result, 0, size);

	xor	ecx, ecx
	vmovups	YMMWORD PTR [rax], ymm0
	mov	QWORD PTR [rax+32], rcx
$LN46@Try_emplac:
; File C:\Program Files\Microsoft Visual Studio\2022\Community\VC\Tools\MSVC\14.35.32215\include\utility

; 214  :         : first(_Tuple_get<_Indexes1>(_STD move(_Val1))...), second(_Tuple_get<_Indexes2>(_STD move(_Val2))...) {}

	mov	ecx, DWORD PTR [rsi]
; File C:\Program Files\Microsoft Visual Studio\2022\Community\VC\Tools\MSVC\14.35.32215\include\map

; 210  :         return {_Scary->_Insert_node(_Loc._Location, _Inserted), true};

	lea	rdx, QWORD PTR $T2[rsp]
	vmovups	xmm0, XMMWORD PTR _Loc$[rsp]
; File C:\Program Files\Microsoft Visual Studio\2022\Community\VC\Tools\MSVC\14.35.32215\include\utility

; 214  :         : first(_Tuple_get<_Indexes1>(_STD move(_Val1))...), second(_Tuple_get<_Indexes2>(_STD move(_Val2))...) {}

	mov	DWORD PTR [rax+28], ecx
; File C:\Program Files\Microsoft Visual Studio\2022\Community\VC\Tools\MSVC\14.35.32215\include\map

; 210  :         return {_Scary->_Insert_node(_Loc._Location, _Inserted), true};

	mov	r8, rax
; File C:\Program Files\Microsoft Visual Studio\2022\Community\VC\Tools\MSVC\14.35.32215\include\utility

; 214  :         : first(_Tuple_get<_Indexes1>(_STD move(_Val1))...), second(_Tuple_get<_Indexes2>(_STD move(_Val2))...) {}

	mov	BYTE PTR [rax+32], 0
; File C:\Program Files\Microsoft Visual Studio\2022\Community\VC\Tools\MSVC\14.35.32215\include\map

; 210  :         return {_Scary->_Insert_node(_Loc._Location, _Inserted), true};

	mov	rcx, r14
; File C:\Program Files\Microsoft Visual Studio\2022\Community\VC\Tools\MSVC\14.35.32215\include\xtree

; 808  :         _Construct_in_place(this->_Ptr->_Left, _Myhead);

	mov	QWORD PTR [rax], rdi

; 809  :         _Construct_in_place(this->_Ptr->_Parent, _Myhead);

	mov	QWORD PTR [rax+8], rdi

; 810  :         _Construct_in_place(this->_Ptr->_Right, _Myhead);

	mov	QWORD PTR [rax+16], rdi

; 811  :         this->_Ptr->_Color = _Red;

	mov	WORD PTR [rax+24], 0
; File C:\Program Files\Microsoft Visual Studio\2022\Community\VC\Tools\MSVC\14.35.32215\include\map

; 210  :         return {_Scary->_Insert_node(_Loc._Location, _Inserted), true};

	vmovups	XMMWORD PTR $T2[rsp], xmm0
	vzeroupper
	call	?_Insert_node@?$_Tree_val@U?$_Tree_simple_types@U?$pair@$$CBI_N@std@@@std@@@std@@QEAAPEAU?$_Tree_node@U?$pair@$$CBI_N@std@@PEAX@2@U?$_Tree_id@PEAU?$_Tree_node@U?$pair@$$CBI_N@std@@PEAX@std@@@2@QEAU32@@Z ; std::_Tree_val<std::_Tree_simple_types<std::pair<unsigned int const ,bool> > >::_Insert_node
; File C:\Program Files\Microsoft Visual Studio\2022\Community\VC\Tools\MSVC\14.35.32215\include\utility

; 172  :         : first(_STD forward<_Other1>(_Val1)), second(_STD forward<_Other2>(_Val2)) {

	mov	QWORD PTR [rbx], rax
	mov	BYTE PTR [rbx+8], 1
$LN125@Try_emplac:
; File C:\Program Files\Microsoft Visual Studio\2022\Community\VC\Tools\MSVC\14.35.32215\include\map

; 211  :     }

	mov	rsi, QWORD PTR [rsp+88]
	mov	rax, rbx
	mov	rbx, QWORD PTR [rsp+80]
	mov	rdi, QWORD PTR [rsp+96]
	add	rsp, 64					; 00000040H
	pop	r14
	ret	0
$LN127@Try_emplac:
; File C:\Program Files\Microsoft Visual Studio\2022\Community\VC\Tools\MSVC\14.35.32215\include\xtree

; 1630 :             _Throw_tree_length_error();

	call	?_Throw_tree_length_error@std@@YAXXZ	; std::_Throw_tree_length_error
	int	3
$LN124@Try_emplac:
??$_Try_emplace@AEBI$$V@?$map@I_NU?$less@I@std@@V?$xalloc@U?$pair@$$CBI_N@std@@@@@std@@AEAA?AU?$pair@PEAU?$_Tree_node@U?$pair@$$CBI_N@std@@PEAX@std@@_N@1@AEBI@Z ENDP ; std::map<unsigned int,bool,std::less<unsigned int>,xalloc<std::pair<unsigned int const ,bool> > >::_Try_emplace<unsigned int const &>
_TEXT	ENDS
; Function compile flags: /Ogtpy
; File C:\Program Files\Microsoft Visual Studio\2022\Community\VC\Tools\MSVC\14.35.32215\include\xtree
; File C:\Program Files\Microsoft Visual Studio\2022\Community\VC\Tools\MSVC\14.35.32215\include\utility
; File C:\Users\Mahito\Desktop\Night outing\Night-outing\src\xrCore\xrMemory.h
; File C:\Users\Mahito\Desktop\Night outing\Night-outing\src\xrCore\xrMemory_subst_msvc.cpp
; File C:\Program Files\Microsoft Visual Studio\2022\Community\VC\Tools\MSVC\14.35.32215\include\xtree
; File C:\Program Files\Microsoft Visual Studio\2022\Community\VC\Tools\MSVC\14.35.32215\include\xmemory
; File C:\Users\Mahito\Desktop\Night outing\Night-outing\src\xrCore\xrMemory.h
; File C:\Users\Mahito\Desktop\Night outing\Night-outing\src\xrCore\xrMemory_subst_msvc.cpp
; File C:\Program Files\Microsoft Visual Studio\2022\Community\VC\Tools\MSVC\14.35.32215\include\xtree
;	COMDAT ??$_Erase_head@V?$xalloc@U?$_Tree_node@U?$pair@$$CBI_N@std@@PEAX@std@@@@@?$_Tree_val@U?$_Tree_simple_types@U?$pair@$$CBI_N@std@@@std@@@std@@QEAAXAEAV?$xalloc@U?$_Tree_node@U?$pair@$$CBI_N@std@@PEAX@std@@@@@Z
_TEXT	SEGMENT
this$ = 48
_Al$ = 56
??$_Erase_head@V?$xalloc@U?$_Tree_node@U?$pair@$$CBI_N@std@@PEAX@std@@@@@?$_Tree_val@U?$_Tree_simple_types@U?$pair@$$CBI_N@std@@@std@@@std@@QEAAXAEAV?$xalloc@U?$_Tree_node@U?$pair@$$CBI_N@std@@PEAX@std@@@@@Z PROC ; std::_Tree_val<std::_Tree_simple_types<std::pair<unsigned int const ,bool> > >::_Erase_head<xalloc<std::_Tree_node<std::pair<unsigned int const ,bool>,void *> > >, COMDAT

; 752  :     void _Erase_head(_Alnode& _Al) noexcept {

$LN553:
	mov	QWORD PTR [rsp+8], rbx
	mov	QWORD PTR [rsp+16], rsi
	push	rdi
	sub	rsp, 32					; 00000020H

; 753  :         this->_Orphan_all();
; 754  :         _Erase_tree(_Al, _Myhead->_Parent);

	mov	rbx, QWORD PTR [rcx]
	mov	rsi, rdx
	mov	rdi, rcx
	mov	rbx, QWORD PTR [rbx+8]

; 745  :         while (!_Rootnode->_Isnil) { // free subtrees, then node

	cmp	BYTE PTR [rbx+25], 0
	jne	SHORT $LN5@Erase_head
	npad	14
$LL4@Erase_head:

; 746  :             _Erase_tree(_Al, _Rootnode->_Right);

	mov	r8, QWORD PTR [rbx+16]
	mov	rdx, rsi
	mov	rcx, rdi
	call	??$_Erase_tree@V?$xalloc@U?$_Tree_node@U?$pair@$$CBI_N@std@@PEAX@std@@@@@?$_Tree_val@U?$_Tree_simple_types@U?$pair@$$CBI_N@std@@@std@@@std@@QEAAXAEAV?$xalloc@U?$_Tree_node@U?$pair@$$CBI_N@std@@PEAX@std@@@@PEAU?$_Tree_node@U?$pair@$$CBI_N@std@@PEAX@1@@Z ; std::_Tree_val<std::_Tree_simple_types<std::pair<unsigned int const ,bool> > >::_Erase_tree<xalloc<std::_Tree_node<std::pair<unsigned int const ,bool>,void *> > >
; File C:\Program Files\Microsoft Visual Studio\2022\Community\VC\Tools\MSVC\14.35.32215\include\utility

; 654  :     _Ty _Old_val = static_cast<_Ty&&>(_Val);

	mov	rcx, rbx

; 655  :     _Val         = static_cast<_Other&&>(_New_val);

	mov	rbx, QWORD PTR [rbx]
; File C:\Users\Mahito\Desktop\Night outing\Night-outing\src\xrCore\xrMemory.h

; 69   : 	if (P)

	test	rcx, rcx
	je	SHORT $LN500@Erase_head
; File C:\Users\Mahito\Desktop\Night outing\Night-outing\src\xrCore\xrMemory_subst_msvc.cpp

; 99   : 	stat_calls++;

	inc	DWORD PTR ?Memory@@3VxrMemory@@A

; 100  : 
; 101  : #ifdef PURE_ALLOC
; 102  : 	if (g_use_pure_alloc)
; 103  : 	{
; 104  : 		//free(P);
; 105  : 		_aligned_free(P);

	call	QWORD PTR __imp__aligned_free
$LN500@Erase_head:
; File C:\Program Files\Microsoft Visual Studio\2022\Community\VC\Tools\MSVC\14.35.32215\include\xtree

; 745  :         while (!_Rootnode->_Isnil) { // free subtrees, then node

	cmp	BYTE PTR [rbx+25], 0
	je	SHORT $LL4@Erase_head
$LN5@Erase_head:
; File C:\Program Files\Microsoft Visual Studio\2022\Community\VC\Tools\MSVC\14.35.32215\include\xmemory

; 560  :         _Al.deallocate(_Ptr, _Count);

	mov	rcx, QWORD PTR [rdi]
; File C:\Users\Mahito\Desktop\Night outing\Night-outing\src\xrCore\xrMemory.h

; 69   : 	if (P)

	test	rcx, rcx
	je	SHORT $LN528@Erase_head
; File C:\Users\Mahito\Desktop\Night outing\Night-outing\src\xrCore\xrMemory_subst_msvc.cpp

; 99   : 	stat_calls++;

	inc	DWORD PTR ?Memory@@3VxrMemory@@A

; 100  : 
; 101  : #ifdef PURE_ALLOC
; 102  : 	if (g_use_pure_alloc)
; 103  : 	{
; 104  : 		//free(P);
; 105  : 		_aligned_free(P);

	call	QWORD PTR __imp__aligned_free
$LN528@Erase_head:
; File C:\Program Files\Microsoft Visual Studio\2022\Community\VC\Tools\MSVC\14.35.32215\include\xtree

; 756  :     }

	mov	rbx, QWORD PTR [rsp+48]
	mov	rsi, QWORD PTR [rsp+56]
	add	rsp, 32					; 00000020H
	pop	rdi
	ret	0
??$_Erase_head@V?$xalloc@U?$_Tree_node@U?$pair@$$CBI_N@std@@PEAX@std@@@@@?$_Tree_val@U?$_Tree_simple_types@U?$pair@$$CBI_N@std@@@std@@@std@@QEAAXAEAV?$xalloc@U?$_Tree_node@U?$pair@$$CBI_N@std@@PEAX@std@@@@@Z ENDP ; std::_Tree_val<std::_Tree_simple_types<std::pair<unsigned int const ,bool> > >::_Erase_head<xalloc<std::_Tree_node<std::pair<unsigned int const ,bool>,void *> > >
_TEXT	ENDS
; Function compile flags: /Ogtpy
; File C:\Program Files\Microsoft Visual Studio\2022\Community\VC\Tools\MSVC\14.35.32215\include\xstddef
;	COMDAT ??$addressof@V?$_Tree_val@U?$_Tree_simple_types@U?$pair@$$CBI_N@std@@@std@@@std@@@std@@YAPEAV?$_Tree_val@U?$_Tree_simple_types@U?$pair@$$CBI_N@std@@@std@@@0@AEAV10@@Z
_TEXT	SEGMENT
_Val$ = 8
??$addressof@V?$_Tree_val@U?$_Tree_simple_types@U?$pair@$$CBI_N@std@@@std@@@std@@@std@@YAPEAV?$_Tree_val@U?$_Tree_simple_types@U?$pair@$$CBI_N@std@@@std@@@0@AEAV10@@Z PROC ; std::addressof<std::_Tree_val<std::_Tree_simple_types<std::pair<unsigned int const ,bool> > > >, COMDAT

; 281  :     return __builtin_addressof(_Val);

	mov	rax, rcx

; 282  : }

	ret	0
??$addressof@V?$_Tree_val@U?$_Tree_simple_types@U?$pair@$$CBI_N@std@@@std@@@std@@@std@@YAPEAV?$_Tree_val@U?$_Tree_simple_types@U?$pair@$$CBI_N@std@@@std@@@0@AEAV10@@Z ENDP ; std::addressof<std::_Tree_val<std::_Tree_simple_types<std::pair<unsigned int const ,bool> > > >
_TEXT	ENDS
; Function compile flags: /Ogtpy
; File C:\Program Files\Microsoft Visual Studio\2022\Community\VC\Tools\MSVC\14.35.32215\include\xmemory
; File C:\Program Files\Microsoft Visual Studio\2022\Community\VC\Tools\MSVC\14.35.32215\include\xtree
; File C:\Program Files\Microsoft Visual Studio\2022\Community\VC\Tools\MSVC\14.35.32215\include\xmemory
;	COMDAT ??$?0AEBU?$less@I@std@@U_Zero_then_variadic_args_t@1@@?$_Compressed_pair@U?$less@I@std@@V?$_Compressed_pair@V?$xalloc@U?$_Tree_node@U?$pair@$$CBI_N@std@@PEAX@std@@@@V?$_Tree_val@U?$_Tree_simple_types@U?$pair@$$CBI_N@std@@@std@@@std@@$00@2@$00@std@@QEAA@U_One_then_variadic_args_t@1@AEBU?$less@I@1@$$QEAU_Zero_then_variadic_args_t@1@@Z
_TEXT	SEGMENT
this$ = 8
__formal$dead$ = 16
_Val1$dead$ = 24
<_Val2_0>$dead$ = 32
??$?0AEBU?$less@I@std@@U_Zero_then_variadic_args_t@1@@?$_Compressed_pair@U?$less@I@std@@V?$_Compressed_pair@V?$xalloc@U?$_Tree_node@U?$pair@$$CBI_N@std@@PEAX@std@@@@V?$_Tree_val@U?$_Tree_simple_types@U?$pair@$$CBI_N@std@@@std@@@std@@$00@2@$00@std@@QEAA@U_One_then_variadic_args_t@1@AEBU?$less@I@1@$$QEAU_Zero_then_variadic_args_t@1@@Z PROC ; std::_Compressed_pair<std::less<unsigned int>,std::_Compressed_pair<xalloc<std::_Tree_node<std::pair<unsigned int const ,bool>,void *> >,std::_Tree_val<std::_Tree_simple_types<std::pair<unsigned int const ,bool> > >,1>,1>::_Compressed_pair<std::less<unsigned int>,std::_Compressed_pair<xalloc<std::_Tree_node<std::pair<unsigned int const ,bool>,void *> >,std::_Tree_val<std::_Tree_simple_types<std::pair<unsigned int const ,bool> > >,1>,1><std::less<unsigned int> const &,std::_Zero_then_variadic_args_t>, COMDAT
; File C:\Program Files\Microsoft Visual Studio\2022\Community\VC\Tools\MSVC\14.35.32215\include\xtree

; 437  :     _Tree_val() noexcept : _Myhead(), _Mysize(0) {}

	xor	eax, eax
	mov	QWORD PTR [rcx], rax
	mov	QWORD PTR [rcx+8], rax
; File C:\Program Files\Microsoft Visual Studio\2022\Community\VC\Tools\MSVC\14.35.32215\include\xmemory

; 1380 :         : _Ty1(_STD forward<_Other1>(_Val1)), _Myval2(_STD forward<_Other2>(_Val2)...) {}

	mov	rax, rcx
	ret	0
??$?0AEBU?$less@I@std@@U_Zero_then_variadic_args_t@1@@?$_Compressed_pair@U?$less@I@std@@V?$_Compressed_pair@V?$xalloc@U?$_Tree_node@U?$pair@$$CBI_N@std@@PEAX@std@@@@V?$_Tree_val@U?$_Tree_simple_types@U?$pair@$$CBI_N@std@@@std@@@std@@$00@2@$00@std@@QEAA@U_One_then_variadic_args_t@1@AEBU?$less@I@1@$$QEAU_Zero_then_variadic_args_t@1@@Z ENDP ; std::_Compressed_pair<std::less<unsigned int>,std::_Compressed_pair<xalloc<std::_Tree_node<std::pair<unsigned int const ,bool>,void *> >,std::_Tree_val<std::_Tree_simple_types<std::pair<unsigned int const ,bool> > >,1>,1>::_Compressed_pair<std::less<unsigned int>,std::_Compressed_pair<xalloc<std::_Tree_node<std::pair<unsigned int const ,bool>,void *> >,std::_Tree_val<std::_Tree_simple_types<std::pair<unsigned int const ,bool> > >,1>,1><std::less<unsigned int> const &,std::_Zero_then_variadic_args_t>
_TEXT	ENDS
; Function compile flags: /Ogtpy
; File C:\Program Files\Microsoft Visual Studio\2022\Community\VC\Tools\MSVC\14.35.32215\include\xtree
; File C:\Users\Mahito\Desktop\Night outing\Night-outing\src\xrCore\xrMemory_subst_msvc.cpp
; File C:\Program Files\Microsoft Visual Studio\2022\Community\VC\Tools\MSVC\14.35.32215\include\xtree
;	COMDAT ??$_Buyheadnode@V?$xalloc@U?$_Tree_node@U?$pair@$$CBI_N@std@@PEAX@std@@@@@?$_Tree_node@U?$pair@$$CBI_N@std@@PEAX@std@@SAPEAU01@AEAV?$xalloc@U?$_Tree_node@U?$pair@$$CBI_N@std@@PEAX@std@@@@@Z
_TEXT	SEGMENT
_Al$dead$ = 48
??$_Buyheadnode@V?$xalloc@U?$_Tree_node@U?$pair@$$CBI_N@std@@PEAX@std@@@@@?$_Tree_node@U?$pair@$$CBI_N@std@@PEAX@std@@SAPEAU01@AEAV?$xalloc@U?$_Tree_node@U?$pair@$$CBI_N@std@@PEAX@std@@@@@Z PROC ; std::_Tree_node<std::pair<unsigned int const ,bool>,void *>::_Buyheadnode<xalloc<std::_Tree_node<std::pair<unsigned int const ,bool>,void *> > >, COMDAT

; 344  :     static _Nodeptr _Buyheadnode(_Alloc& _Al) {

$LN37:
	sub	rsp, 40					; 00000028H
; File C:\Users\Mahito\Desktop\Night outing\Night-outing\src\xrCore\xrMemory_subst_msvc.cpp

; 39   : 	stat_calls++;

	inc	DWORD PTR ?Memory@@3VxrMemory@@A

; 40   : 
; 41   : #ifdef PURE_ALLOC
; 42   : 	if (g_use_pure_alloc)
; 43   : 	{
; 44   : 		//void* result = malloc(size);
; 45   : 		void* result = _aligned_malloc(size, PURE_MEMORY_ALIGNMENT);

	mov	edx, 16
	lea	ecx, QWORD PTR [rdx+24]
	call	QWORD PTR __imp__aligned_malloc

; 46   : #ifdef PURE_MEMORY_FILL_ZERO
; 47   : 		if (result)

	test	rax, rax
	je	SHORT $LN9@Buyheadnod

; 48   : 			memset(result, 0, size);

	xor	ecx, ecx
	mov	QWORD PTR [rax+26], rcx
	mov	DWORD PTR [rax+34], ecx
	mov	WORD PTR [rax+38], cx
$LN9@Buyheadnod:
; File C:\Program Files\Microsoft Visual Studio\2022\Community\VC\Tools\MSVC\14.35.32215\include\xtree

; 347  :         _Construct_in_place(_Pnode->_Left, _Pnode);

	mov	QWORD PTR [rax], rax

; 348  :         _Construct_in_place(_Pnode->_Parent, _Pnode);

	mov	QWORD PTR [rax+8], rax

; 349  :         _Construct_in_place(_Pnode->_Right, _Pnode);

	mov	QWORD PTR [rax+16], rax

; 350  :         _Pnode->_Color = _Black;

	mov	WORD PTR [rax+24], 257			; 00000101H

; 351  :         _Pnode->_Isnil = true;
; 352  :         return _Pnode;
; 353  :     }

	add	rsp, 40					; 00000028H
	ret	0
??$_Buyheadnode@V?$xalloc@U?$_Tree_node@U?$pair@$$CBI_N@std@@PEAX@std@@@@@?$_Tree_node@U?$pair@$$CBI_N@std@@PEAX@std@@SAPEAU01@AEAV?$xalloc@U?$_Tree_node@U?$pair@$$CBI_N@std@@PEAX@std@@@@@Z ENDP ; std::_Tree_node<std::pair<unsigned int const ,bool>,void *>::_Buyheadnode<xalloc<std::_Tree_node<std::pair<unsigned int const ,bool>,void *> > >
_TEXT	ENDS
; Function compile flags: /Ogtpy
; File C:\Program Files\Microsoft Visual Studio\2022\Community\VC\Tools\MSVC\14.35.32215\include\xtree
; File C:\Program Files\Microsoft Visual Studio\2022\Community\VC\Tools\MSVC\14.35.32215\include\xmemory
; File C:\Users\Mahito\Desktop\Night outing\Night-outing\src\xrCore\xrMemory_subst_msvc.cpp
; File C:\Program Files\Microsoft Visual Studio\2022\Community\VC\Tools\MSVC\14.35.32215\include\xtree
;	COMDAT ??1?$_Tree_temp_node@V?$xalloc@U?$_Tree_node@U?$pair@$$CBI_N@std@@PEAX@std@@@@@std@@QEAA@XZ
_TEXT	SEGMENT
this$ = 8
??1?$_Tree_temp_node@V?$xalloc@U?$_Tree_node@U?$pair@$$CBI_N@std@@PEAX@std@@@@@std@@QEAA@XZ PROC ; std::_Tree_temp_node<xalloc<std::_Tree_node<std::pair<unsigned int const ,bool>,void *> > >::~_Tree_temp_node<xalloc<std::_Tree_node<std::pair<unsigned int const ,bool>,void *> > >, COMDAT
; File C:\Program Files\Microsoft Visual Studio\2022\Community\VC\Tools\MSVC\14.35.32215\include\xmemory

; 1016 :         if (_Ptr) {

	mov	rcx, QWORD PTR [rcx+8]
	test	rcx, rcx
	je	SHORT $LN12@Tree_temp_
; File C:\Users\Mahito\Desktop\Night outing\Night-outing\src\xrCore\xrMemory_subst_msvc.cpp

; 99   : 	stat_calls++;

	inc	DWORD PTR ?Memory@@3VxrMemory@@A

; 100  : 
; 101  : #ifdef PURE_ALLOC
; 102  : 	if (g_use_pure_alloc)
; 103  : 	{
; 104  : 		//free(P);
; 105  : 		_aligned_free(P);

	rex_jmp	QWORD PTR __imp__aligned_free
$LN12@Tree_temp_:
; File C:\Program Files\Microsoft Visual Studio\2022\Community\VC\Tools\MSVC\14.35.32215\include\xtree

; 825  :     }

	ret	0
??1?$_Tree_temp_node@V?$xalloc@U?$_Tree_node@U?$pair@$$CBI_N@std@@PEAX@std@@@@@std@@QEAA@XZ ENDP ; std::_Tree_temp_node<xalloc<std::_Tree_node<std::pair<unsigned int const ,bool>,void *> > >::~_Tree_temp_node<xalloc<std::_Tree_node<std::pair<unsigned int const ,bool>,void *> > >
_TEXT	ENDS
; Function compile flags: /Ogtpy
; File C:\Program Files\Microsoft Visual Studio\2022\Community\VC\Tools\MSVC\14.35.32215\include\xmemory
; File C:\Program Files\Microsoft Visual Studio\2022\Community\VC\Tools\MSVC\14.35.32215\include\utility
; File C:\Program Files\Microsoft Visual Studio\2022\Community\VC\Tools\MSVC\14.35.32215\include\xmemory
;	COMDAT ?_Release@?$_Alloc_construct_ptr@V?$xalloc@U?$_Tree_node@U?$pair@$$CBI_N@std@@PEAX@std@@@@@std@@QEAAPEAU?$_Tree_node@U?$pair@$$CBI_N@std@@PEAX@2@XZ
_TEXT	SEGMENT
this$ = 8
?_Release@?$_Alloc_construct_ptr@V?$xalloc@U?$_Tree_node@U?$pair@$$CBI_N@std@@PEAX@std@@@@@std@@QEAAPEAU?$_Tree_node@U?$pair@$$CBI_N@std@@PEAX@2@XZ PROC ; std::_Alloc_construct_ptr<xalloc<std::_Tree_node<std::pair<unsigned int const ,bool>,void *> > >::_Release, COMDAT
; File C:\Program Files\Microsoft Visual Studio\2022\Community\VC\Tools\MSVC\14.35.32215\include\utility

; 654  :     _Ty _Old_val = static_cast<_Ty&&>(_Val);

	mov	rax, QWORD PTR [rcx+8]

; 655  :     _Val         = static_cast<_Other&&>(_New_val);

	mov	QWORD PTR [rcx+8], 0
; File C:\Program Files\Microsoft Visual Studio\2022\Community\VC\Tools\MSVC\14.35.32215\include\xmemory

; 1008 :     }

	ret	0
?_Release@?$_Alloc_construct_ptr@V?$xalloc@U?$_Tree_node@U?$pair@$$CBI_N@std@@PEAX@std@@@@@std@@QEAAPEAU?$_Tree_node@U?$pair@$$CBI_N@std@@PEAX@2@XZ ENDP ; std::_Alloc_construct_ptr<xalloc<std::_Tree_node<std::pair<unsigned int const ,bool>,void *> > >::_Release
_TEXT	ENDS
; Function compile flags: /Ogtpy
; File C:\Program Files\Microsoft Visual Studio\2022\Community\VC\Tools\MSVC\14.35.32215\include\xtree
;	COMDAT ?_Insert_node@?$_Tree_val@U?$_Tree_simple_types@U?$pair@$$CBI_N@std@@@std@@@std@@QEAAPEAU?$_Tree_node@U?$pair@$$CBI_N@std@@PEAX@2@U?$_Tree_id@PEAU?$_Tree_node@U?$pair@$$CBI_N@std@@PEAX@std@@@2@QEAU32@@Z
_TEXT	SEGMENT
this$ = 8
_Loc$ = 16
_Newnode$ = 24
?_Insert_node@?$_Tree_val@U?$_Tree_simple_types@U?$pair@$$CBI_N@std@@@std@@@std@@QEAAPEAU?$_Tree_node@U?$pair@$$CBI_N@std@@PEAX@2@U?$_Tree_id@PEAU?$_Tree_node@U?$pair@$$CBI_N@std@@PEAX@std@@@2@QEAU32@@Z PROC ; std::_Tree_val<std::_Tree_simple_types<std::pair<unsigned int const ,bool> > >::_Insert_node, COMDAT

; 647  :         ++_Mysize;

	inc	QWORD PTR [rcx+8]
	mov	r9, r8

; 648  :         const auto _Head  = _Myhead;

	mov	r11, QWORD PTR [rcx]
	mov	r10, rcx

; 649  :         _Newnode->_Parent = _Loc._Parent;

	mov	rax, QWORD PTR [rdx]
	mov	QWORD PTR [r8+8], rax

; 650  :         if (_Loc._Parent == _Head) { // first node in tree, just set head values

	cmp	rax, r11
	jne	SHORT $LN5@Insert_nod

; 651  :             _Head->_Left     = _Newnode;

	mov	QWORD PTR [r11], r8

; 712  :         return _Newnode;
; 713  :     }

	mov	rax, r8
	mov	QWORD PTR [r11+8], r8
	mov	QWORD PTR [r11+16], r8
	mov	BYTE PTR [r8+24], 1
	ret	0
$LN5@Insert_nod:

; 652  :             _Head->_Parent   = _Newnode;
; 653  :             _Head->_Right    = _Newnode;
; 654  :             _Newnode->_Color = _Black; // the root is black
; 655  :             return _Newnode;
; 656  :         }
; 657  : 
; 658  :         _STL_INTERNAL_CHECK(_Loc._Child != _Tree_child::_Unused);
; 659  :         if (_Loc._Child == _Tree_child::_Right) { // add to right of _Loc._Parent

	cmp	DWORD PTR [rdx+8], 0
	jne	SHORT $LN6@Insert_nod

; 660  :             _STL_INTERNAL_CHECK(_Loc._Parent->_Right->_Isnil);
; 661  :             _Loc._Parent->_Right = _Newnode;

	mov	QWORD PTR [rax+16], r9

; 662  :             if (_Loc._Parent == _Head->_Right) { // remember rightmost node

	cmp	rax, QWORD PTR [r11+16]
	jne	SHORT $LN9@Insert_nod

; 663  :                 _Head->_Right = _Newnode;

	mov	QWORD PTR [r11+16], r9

; 664  :             }
; 665  :         } else { // add to left of _Loc._Parent

	jmp	SHORT $LN9@Insert_nod
$LN6@Insert_nod:

; 666  :             _STL_INTERNAL_CHECK(_Loc._Parent->_Left->_Isnil);
; 667  :             _Loc._Parent->_Left = _Newnode;

	mov	QWORD PTR [rax], r9

; 668  :             if (_Loc._Parent == _Head->_Left) { // remember leftmost node

	cmp	rax, QWORD PTR [r11]
	jne	SHORT $LN9@Insert_nod

; 669  :                 _Head->_Left = _Newnode;

	mov	QWORD PTR [r11], r9
$LN9@Insert_nod:

; 670  :             }
; 671  :         }
; 672  : 
; 673  :         for (_Nodeptr _Pnode = _Newnode; _Pnode->_Parent->_Color == _Red;) {

	mov	rcx, QWORD PTR [r8+8]
	mov	rax, r9
	cmp	BYTE PTR [rcx+24], 0
	jne	$LN3@Insert_nod
	npad	1
$LL2@Insert_nod:

; 674  :             if (_Pnode->_Parent == _Pnode->_Parent->_Parent->_Left) { // fixup red-red in left subtree

	mov	rdx, QWORD PTR [rax+8]
	mov	r8, QWORD PTR [rdx+8]
	mov	rcx, QWORD PTR [r8]
	cmp	rdx, rcx
	jne	$LN10@Insert_nod

; 675  :                 const auto _Parent_sibling = _Pnode->_Parent->_Parent->_Right;

	mov	rcx, QWORD PTR [r8+16]

; 676  :                 if (_Parent_sibling->_Color == _Red) { // parent's sibling has two red children, blacken both

	cmp	BYTE PTR [rcx+24], 0
	jne	SHORT $LN12@Insert_nod

; 677  :                     _Pnode->_Parent->_Color          = _Black;

	mov	BYTE PTR [rdx+24], 1

; 678  :                     _Parent_sibling->_Color          = _Black;

	mov	BYTE PTR [rcx+24], 1

; 679  :                     _Pnode->_Parent->_Parent->_Color = _Red;

	mov	rcx, QWORD PTR [rax+8]
	mov	rdx, QWORD PTR [rcx+8]
	mov	BYTE PTR [rdx+24], 0

; 680  :                     _Pnode                           = _Pnode->_Parent->_Parent;

	mov	rcx, QWORD PTR [rax+8]
	mov	rax, QWORD PTR [rcx+8]

; 681  :                 } else { // parent's sibling has red and black children

	jmp	$LN16@Insert_nod
$LN12@Insert_nod:

; 682  :                     if (_Pnode == _Pnode->_Parent->_Right) { // rotate right child to left

	mov	r8, QWORD PTR [rdx+16]
	cmp	rax, r8
	jne	SHORT $LN51@Insert_nod

; 462  :         _Wherenode->_Right = _Pnode->_Left;

	mov	rcx, QWORD PTR [r8]

; 683  :                         _Pnode = _Pnode->_Parent;

	mov	rax, rdx

; 462  :         _Wherenode->_Right = _Pnode->_Left;

	mov	QWORD PTR [rdx+16], rcx

; 463  : 
; 464  :         if (!_Pnode->_Left->_Isnil) {

	mov	rcx, QWORD PTR [r8]
	cmp	BYTE PTR [rcx+25], 0
	jne	SHORT $LN34@Insert_nod

; 465  :             _Pnode->_Left->_Parent = _Wherenode;

	mov	QWORD PTR [rcx+8], rdx
$LN34@Insert_nod:

; 466  :         }
; 467  : 
; 468  :         _Pnode->_Parent = _Wherenode->_Parent;

	mov	rcx, QWORD PTR [rdx+8]
	mov	QWORD PTR [r8+8], rcx

; 469  : 
; 470  :         if (_Wherenode == _Myhead->_Parent) {

	mov	rcx, QWORD PTR [r10]
	cmp	rdx, QWORD PTR [rcx+8]
	jne	SHORT $LN35@Insert_nod

; 471  :             _Myhead->_Parent = _Pnode;

	mov	QWORD PTR [rcx+8], r8
	jmp	SHORT $LN38@Insert_nod
$LN35@Insert_nod:

; 472  :         } else if (_Wherenode == _Wherenode->_Parent->_Left) {

	mov	rcx, QWORD PTR [rdx+8]
	cmp	rdx, QWORD PTR [rcx]
	jne	SHORT $LN37@Insert_nod

; 473  :             _Wherenode->_Parent->_Left = _Pnode;

	mov	QWORD PTR [rcx], r8

; 474  :         } else {

	jmp	SHORT $LN38@Insert_nod
$LN37@Insert_nod:

; 475  :             _Wherenode->_Parent->_Right = _Pnode;

	mov	QWORD PTR [rcx+16], r8
$LN38@Insert_nod:

; 476  :         }
; 477  : 
; 478  :         _Pnode->_Left       = _Wherenode;

	mov	QWORD PTR [r8], rdx

; 479  :         _Wherenode->_Parent = _Pnode;

	mov	QWORD PTR [rdx+8], r8
$LN51@Insert_nod:

; 684  :                         _Lrotate(_Pnode);
; 685  :                     }
; 686  : 
; 687  :                     _Pnode->_Parent->_Color          = _Black; // propagate red up

	mov	rcx, QWORD PTR [rax+8]
	mov	BYTE PTR [rcx+24], 1

; 688  :                     _Pnode->_Parent->_Parent->_Color = _Red;

	mov	rcx, QWORD PTR [rax+8]
	mov	rdx, QWORD PTR [rcx+8]
	mov	BYTE PTR [rdx+24], 0

; 689  :                     _Rrotate(_Pnode->_Parent->_Parent);

	mov	rcx, QWORD PTR [rax+8]
	mov	rdx, QWORD PTR [rcx+8]

; 483  :         _Nodeptr _Pnode   = _Wherenode->_Left;

	mov	r8, QWORD PTR [rdx]

; 484  :         _Wherenode->_Left = _Pnode->_Right;

	mov	rcx, QWORD PTR [r8+16]
	mov	QWORD PTR [rdx], rcx

; 485  : 
; 486  :         if (!_Pnode->_Right->_Isnil) {

	mov	rcx, QWORD PTR [r8+16]
	cmp	BYTE PTR [rcx+25], 0
	jne	SHORT $LN20@Insert_nod

; 487  :             _Pnode->_Right->_Parent = _Wherenode;

	mov	QWORD PTR [rcx+8], rdx
$LN20@Insert_nod:

; 488  :         }
; 489  : 
; 490  :         _Pnode->_Parent = _Wherenode->_Parent;

	mov	rcx, QWORD PTR [rdx+8]
	mov	QWORD PTR [r8+8], rcx

; 491  : 
; 492  :         if (_Wherenode == _Myhead->_Parent) {

	mov	rcx, QWORD PTR [r10]
	cmp	rdx, QWORD PTR [rcx+8]
	jne	SHORT $LN21@Insert_nod

; 493  :             _Myhead->_Parent = _Pnode;

	mov	QWORD PTR [rcx+8], r8

; 498  :         }
; 499  : 
; 500  :         _Pnode->_Right      = _Wherenode;

	mov	QWORD PTR [r8+16], rdx

; 690  :                 }
; 691  :             } else { // fixup red-red in right subtree

	jmp	$LN53@Insert_nod
$LN21@Insert_nod:

; 494  :         } else if (_Wherenode == _Wherenode->_Parent->_Right) {

	mov	rcx, QWORD PTR [rdx+8]
	cmp	rdx, QWORD PTR [rcx+16]
	jne	SHORT $LN23@Insert_nod

; 495  :             _Wherenode->_Parent->_Right = _Pnode;

	mov	QWORD PTR [rcx+16], r8

; 498  :         }
; 499  : 
; 500  :         _Pnode->_Right      = _Wherenode;

	mov	QWORD PTR [r8+16], rdx

; 690  :                 }
; 691  :             } else { // fixup red-red in right subtree

	jmp	$LN53@Insert_nod
$LN23@Insert_nod:

; 497  :             _Wherenode->_Parent->_Left = _Pnode;

	mov	QWORD PTR [rcx], r8

; 498  :         }
; 499  : 
; 500  :         _Pnode->_Right      = _Wherenode;

	mov	QWORD PTR [r8+16], rdx

; 690  :                 }
; 691  :             } else { // fixup red-red in right subtree

	jmp	$LN53@Insert_nod
$LN10@Insert_nod:

; 692  :                 const auto _Parent_sibling = _Pnode->_Parent->_Parent->_Left;
; 693  :                 if (_Parent_sibling->_Color == _Red) { // parent's sibling has two red children, blacken both

	cmp	BYTE PTR [rcx+24], 0
	jne	SHORT $LN15@Insert_nod

; 694  :                     _Pnode->_Parent->_Color          = _Black;

	mov	BYTE PTR [rdx+24], 1

; 695  :                     _Parent_sibling->_Color          = _Black;

	mov	BYTE PTR [rcx+24], 1

; 696  :                     _Pnode->_Parent->_Parent->_Color = _Red;

	mov	rcx, QWORD PTR [rax+8]
	mov	rdx, QWORD PTR [rcx+8]
	mov	BYTE PTR [rdx+24], 0

; 697  :                     _Pnode                           = _Pnode->_Parent->_Parent;

	mov	rcx, QWORD PTR [rax+8]
	mov	rax, QWORD PTR [rcx+8]

; 698  :                 } else { // parent's sibling has red and black children

	jmp	$LN16@Insert_nod
$LN15@Insert_nod:

; 699  :                     if (_Pnode == _Pnode->_Parent->_Left) { // rotate left child to right

	mov	r8, QWORD PTR [rdx]
	cmp	rax, r8
	jne	SHORT $LN17@Insert_nod

; 484  :         _Wherenode->_Left = _Pnode->_Right;

	mov	rcx, QWORD PTR [r8+16]

; 700  :                         _Pnode = _Pnode->_Parent;

	mov	rax, rdx

; 484  :         _Wherenode->_Left = _Pnode->_Right;

	mov	QWORD PTR [rdx], rcx

; 485  : 
; 486  :         if (!_Pnode->_Right->_Isnil) {

	mov	rcx, QWORD PTR [r8+16]
	cmp	BYTE PTR [rcx+25], 0
	jne	SHORT $LN41@Insert_nod

; 487  :             _Pnode->_Right->_Parent = _Wherenode;

	mov	QWORD PTR [rcx+8], rdx
$LN41@Insert_nod:

; 488  :         }
; 489  : 
; 490  :         _Pnode->_Parent = _Wherenode->_Parent;

	mov	rcx, QWORD PTR [rdx+8]
	mov	QWORD PTR [r8+8], rcx

; 491  : 
; 492  :         if (_Wherenode == _Myhead->_Parent) {

	mov	rcx, QWORD PTR [r10]
	cmp	rdx, QWORD PTR [rcx+8]
	jne	SHORT $LN42@Insert_nod

; 493  :             _Myhead->_Parent = _Pnode;

	mov	QWORD PTR [rcx+8], r8
	jmp	SHORT $LN45@Insert_nod
$LN42@Insert_nod:

; 494  :         } else if (_Wherenode == _Wherenode->_Parent->_Right) {

	mov	rcx, QWORD PTR [rdx+8]
	cmp	rdx, QWORD PTR [rcx+16]
	jne	SHORT $LN44@Insert_nod

; 495  :             _Wherenode->_Parent->_Right = _Pnode;

	mov	QWORD PTR [rcx+16], r8

; 496  :         } else {

	jmp	SHORT $LN45@Insert_nod
$LN44@Insert_nod:

; 497  :             _Wherenode->_Parent->_Left = _Pnode;

	mov	QWORD PTR [rcx], r8
$LN45@Insert_nod:

; 498  :         }
; 499  : 
; 500  :         _Pnode->_Right      = _Wherenode;

	mov	QWORD PTR [r8+16], rdx

; 501  :         _Wherenode->_Parent = _Pnode;

	mov	QWORD PTR [rdx+8], r8
$LN17@Insert_nod:

; 701  :                         _Rrotate(_Pnode);
; 702  :                     }
; 703  : 
; 704  :                     _Pnode->_Parent->_Color          = _Black; // propagate red up

	mov	rcx, QWORD PTR [rax+8]
	mov	BYTE PTR [rcx+24], 1

; 705  :                     _Pnode->_Parent->_Parent->_Color = _Red;

	mov	rcx, QWORD PTR [rax+8]
	mov	rdx, QWORD PTR [rcx+8]
	mov	BYTE PTR [rdx+24], 0

; 706  :                     _Lrotate(_Pnode->_Parent->_Parent);

	mov	rcx, QWORD PTR [rax+8]
	mov	rdx, QWORD PTR [rcx+8]

; 461  :         _Nodeptr _Pnode    = _Wherenode->_Right;

	mov	r8, QWORD PTR [rdx+16]

; 462  :         _Wherenode->_Right = _Pnode->_Left;

	mov	rcx, QWORD PTR [r8]
	mov	QWORD PTR [rdx+16], rcx

; 463  : 
; 464  :         if (!_Pnode->_Left->_Isnil) {

	mov	rcx, QWORD PTR [r8]
	cmp	BYTE PTR [rcx+25], 0
	jne	SHORT $LN27@Insert_nod

; 465  :             _Pnode->_Left->_Parent = _Wherenode;

	mov	QWORD PTR [rcx+8], rdx
$LN27@Insert_nod:

; 466  :         }
; 467  : 
; 468  :         _Pnode->_Parent = _Wherenode->_Parent;

	mov	rcx, QWORD PTR [rdx+8]
	mov	QWORD PTR [r8+8], rcx

; 469  : 
; 470  :         if (_Wherenode == _Myhead->_Parent) {

	mov	rcx, QWORD PTR [r10]
	cmp	rdx, QWORD PTR [rcx+8]
	jne	SHORT $LN28@Insert_nod

; 471  :             _Myhead->_Parent = _Pnode;

	mov	QWORD PTR [rcx+8], r8
	jmp	SHORT $LN31@Insert_nod
$LN28@Insert_nod:

; 472  :         } else if (_Wherenode == _Wherenode->_Parent->_Left) {

	mov	rcx, QWORD PTR [rdx+8]
	cmp	rdx, QWORD PTR [rcx]
	jne	SHORT $LN30@Insert_nod

; 473  :             _Wherenode->_Parent->_Left = _Pnode;

	mov	QWORD PTR [rcx], r8

; 474  :         } else {

	jmp	SHORT $LN31@Insert_nod
$LN30@Insert_nod:

; 475  :             _Wherenode->_Parent->_Right = _Pnode;

	mov	QWORD PTR [rcx+16], r8
$LN31@Insert_nod:

; 476  :         }
; 477  : 
; 478  :         _Pnode->_Left       = _Wherenode;

	mov	QWORD PTR [r8], rdx
$LN53@Insert_nod:

; 670  :             }
; 671  :         }
; 672  : 
; 673  :         for (_Nodeptr _Pnode = _Newnode; _Pnode->_Parent->_Color == _Red;) {

	mov	QWORD PTR [rdx+8], r8
$LN16@Insert_nod:
	mov	rcx, QWORD PTR [rax+8]
	cmp	BYTE PTR [rcx+24], 0
	je	$LL2@Insert_nod
$LN3@Insert_nod:

; 707  :                 }
; 708  :             }
; 709  :         }
; 710  : 
; 711  :         _Head->_Parent->_Color = _Black; // root is always black

	mov	rax, QWORD PTR [r11+8]
	mov	BYTE PTR [rax+24], 1

; 712  :         return _Newnode;
; 713  :     }

	mov	rax, r9
	ret	0
?_Insert_node@?$_Tree_val@U?$_Tree_simple_types@U?$pair@$$CBI_N@std@@@std@@@std@@QEAAPEAU?$_Tree_node@U?$pair@$$CBI_N@std@@PEAX@2@U?$_Tree_id@PEAU?$_Tree_node@U?$pair@$$CBI_N@std@@PEAX@std@@@2@QEAU32@@Z ENDP ; std::_Tree_val<std::_Tree_simple_types<std::pair<unsigned int const ,bool> > >::_Insert_node
_TEXT	ENDS
; Function compile flags: /Ogtpy
; File C:\Program Files\Microsoft Visual Studio\2022\Community\VC\Tools\MSVC\14.35.32215\include\xtree
;	COMDAT ?_Check_grow_by_1@?$_Tree@V?$_Tmap_traits@I_NU?$less@I@std@@V?$xalloc@U?$pair@$$CBI_N@std@@@@$0A@@std@@@std@@IEAAXXZ
_TEXT	SEGMENT
this$ = 48
?_Check_grow_by_1@?$_Tree@V?$_Tmap_traits@I_NU?$less@I@std@@V?$xalloc@U?$pair@$$CBI_N@std@@@@$0A@@std@@@std@@IEAAXXZ PROC ; std::_Tree<std::_Tmap_traits<unsigned int,bool,std::less<unsigned int>,xalloc<std::pair<unsigned int const ,bool> >,0> >::_Check_grow_by_1, COMDAT

; 1628 :     void _Check_grow_by_1() {

$LN7:
	sub	rsp, 40					; 00000028H

; 1629 :         if (max_size() == _Get_scary()->_Mysize) {

	mov	rax, 461168601842738790			; 0666666666666666H
	cmp	QWORD PTR [rcx+8], rax
	je	SHORT $LN6@Check_grow

; 1631 :         }
; 1632 :     }

	add	rsp, 40					; 00000028H
	ret	0
$LN6@Check_grow:

; 1630 :             _Throw_tree_length_error();

	call	?_Throw_tree_length_error@std@@YAXXZ	; std::_Throw_tree_length_error
	int	3
$LN4@Check_grow:
?_Check_grow_by_1@?$_Tree@V?$_Tmap_traits@I_NU?$less@I@std@@V?$xalloc@U?$pair@$$CBI_N@std@@@@$0A@@std@@@std@@IEAAXXZ ENDP ; std::_Tree<std::_Tmap_traits<unsigned int,bool,std::less<unsigned int>,xalloc<std::pair<unsigned int const ,bool> >,0> >::_Check_grow_by_1
_TEXT	ENDS
; Function compile flags: /Ogtpy
; File C:\Users\Mahito\Desktop\Night outing\Night-outing\src\xrCore\_stl_extensions.h
; File C:\Users\Mahito\Desktop\Night outing\Night-outing\src\xrCore\xrMemory_subst_msvc.cpp
; File C:\Users\Mahito\Desktop\Night outing\Night-outing\src\xrCore\_stl_extensions.h
;	COMDAT ?allocate@?$xalloc@U?$_Tree_node@U?$pair@$$CBI_N@std@@PEAX@std@@@@QEBAPEAU?$_Tree_node@U?$pair@$$CBI_N@std@@PEAX@std@@_KPEBX@Z
_TEXT	SEGMENT
this$dead$ = 48
n$dead$ = 56
p$dead$ = 64
?allocate@?$xalloc@U?$_Tree_node@U?$pair@$$CBI_N@std@@PEAX@std@@@@QEBAPEAU?$_Tree_node@U?$pair@$$CBI_N@std@@PEAX@std@@_KPEBX@Z PROC ; xalloc<std::_Tree_node<std::pair<unsigned int const ,bool>,void *> >::allocate, COMDAT

; 81   : 							pointer					allocate		(size_type n, const void* p=0) const	{	return xr_alloc<T>((u32)n);	}

$LN36:
	sub	rsp, 40					; 00000028H
; File C:\Users\Mahito\Desktop\Night outing\Night-outing\src\xrCore\xrMemory_subst_msvc.cpp

; 39   : 	stat_calls++;

	inc	DWORD PTR ?Memory@@3VxrMemory@@A

; 40   : 
; 41   : #ifdef PURE_ALLOC
; 42   : 	if (g_use_pure_alloc)
; 43   : 	{
; 44   : 		//void* result = malloc(size);
; 45   : 		void* result = _aligned_malloc(size, PURE_MEMORY_ALIGNMENT);

	mov	edx, 16
	lea	ecx, QWORD PTR [rdx+24]
	call	QWORD PTR __imp__aligned_malloc

; 46   : #ifdef PURE_MEMORY_FILL_ZERO
; 47   : 		if (result)

	test	rax, rax
	je	SHORT $LN34@allocate
	vpxor	xmm0, xmm0, xmm0

; 48   : 			memset(result, 0, size);

	xor	ecx, ecx
	vmovups	YMMWORD PTR [rax], ymm0
	mov	QWORD PTR [rax+32], rcx
$LN34@allocate:
; File C:\Users\Mahito\Desktop\Night outing\Night-outing\src\xrCore\_stl_extensions.h

; 81   : 							pointer					allocate		(size_type n, const void* p=0) const	{	return xr_alloc<T>((u32)n);	}

	vzeroupper
	add	rsp, 40					; 00000028H
	ret	0
?allocate@?$xalloc@U?$_Tree_node@U?$pair@$$CBI_N@std@@PEAX@std@@@@QEBAPEAU?$_Tree_node@U?$pair@$$CBI_N@std@@PEAX@std@@_KPEBX@Z ENDP ; xalloc<std::_Tree_node<std::pair<unsigned int const ,bool>,void *> >::allocate
_TEXT	ENDS
; Function compile flags: /Ogtpy
; File C:\Program Files\Microsoft Visual Studio\2022\Community\VC\Tools\MSVC\14.35.32215\include\xmemory
; File C:\Users\Mahito\Desktop\Night outing\Night-outing\src\xrCore\xrMemory_subst_msvc.cpp
;	COMDAT ??1?$_Tree_temp_node_alloc@V?$xalloc@U?$_Tree_node@U?$pair@$$CBI_N@std@@PEAX@std@@@@@std@@QEAA@XZ
_TEXT	SEGMENT
this$ = 8
??1?$_Tree_temp_node_alloc@V?$xalloc@U?$_Tree_node@U?$pair@$$CBI_N@std@@PEAX@std@@@@@std@@QEAA@XZ PROC ; std::_Tree_temp_node_alloc<xalloc<std::_Tree_node<std::pair<unsigned int const ,bool>,void *> > >::~_Tree_temp_node_alloc<xalloc<std::_Tree_node<std::pair<unsigned int const ,bool>,void *> > >, COMDAT
; File C:\Program Files\Microsoft Visual Studio\2022\Community\VC\Tools\MSVC\14.35.32215\include\xmemory

; 1016 :         if (_Ptr) {

	mov	rcx, QWORD PTR [rcx+8]
	test	rcx, rcx
	je	SHORT $LN9@Tree_temp_
; File C:\Users\Mahito\Desktop\Night outing\Night-outing\src\xrCore\xrMemory_subst_msvc.cpp

; 99   : 	stat_calls++;

	inc	DWORD PTR ?Memory@@3VxrMemory@@A

; 100  : 
; 101  : #ifdef PURE_ALLOC
; 102  : 	if (g_use_pure_alloc)
; 103  : 	{
; 104  : 		//free(P);
; 105  : 		_aligned_free(P);

	rex_jmp	QWORD PTR __imp__aligned_free
$LN9@Tree_temp_:
	ret	0
??1?$_Tree_temp_node_alloc@V?$xalloc@U?$_Tree_node@U?$pair@$$CBI_N@std@@PEAX@std@@@@@std@@QEAA@XZ ENDP ; std::_Tree_temp_node_alloc<xalloc<std::_Tree_node<std::pair<unsigned int const ,bool>,void *> > >::~_Tree_temp_node_alloc<xalloc<std::_Tree_node<std::pair<unsigned int const ,bool>,void *> > >
_TEXT	ENDS
; Function compile flags: /Ogtpy
; File C:\Program Files\Microsoft Visual Studio\2022\Community\VC\Tools\MSVC\14.35.32215\include\xmemory
; File C:\Users\Mahito\Desktop\Night outing\Night-outing\src\xrCore\xrMemory_subst_msvc.cpp
; File C:\Program Files\Microsoft Visual Studio\2022\Community\VC\Tools\MSVC\14.35.32215\include\xmemory
;	COMDAT ??1?$_Alloc_construct_ptr@V?$xalloc@U?$_Tree_node@U?$pair@$$CBI_N@std@@PEAX@std@@@@@std@@QEAA@XZ
_TEXT	SEGMENT
this$ = 8
??1?$_Alloc_construct_ptr@V?$xalloc@U?$_Tree_node@U?$pair@$$CBI_N@std@@PEAX@std@@@@@std@@QEAA@XZ PROC ; std::_Alloc_construct_ptr<xalloc<std::_Tree_node<std::pair<unsigned int const ,bool>,void *> > >::~_Alloc_construct_ptr<xalloc<std::_Tree_node<std::pair<unsigned int const ,bool>,void *> > >, COMDAT

; 1016 :         if (_Ptr) {

	mov	rcx, QWORD PTR [rcx+8]
	test	rcx, rcx
	je	SHORT $LN7@Alloc_cons
; File C:\Users\Mahito\Desktop\Night outing\Night-outing\src\xrCore\xrMemory_subst_msvc.cpp

; 99   : 	stat_calls++;

	inc	DWORD PTR ?Memory@@3VxrMemory@@A

; 100  : 
; 101  : #ifdef PURE_ALLOC
; 102  : 	if (g_use_pure_alloc)
; 103  : 	{
; 104  : 		//free(P);
; 105  : 		_aligned_free(P);

	rex_jmp	QWORD PTR __imp__aligned_free
$LN7@Alloc_cons:
; File C:\Program Files\Microsoft Visual Studio\2022\Community\VC\Tools\MSVC\14.35.32215\include\xmemory

; 1019 :     }

	ret	0
??1?$_Alloc_construct_ptr@V?$xalloc@U?$_Tree_node@U?$pair@$$CBI_N@std@@PEAX@std@@@@@std@@QEAA@XZ ENDP ; std::_Alloc_construct_ptr<xalloc<std::_Tree_node<std::pair<unsigned int const ,bool>,void *> > >::~_Alloc_construct_ptr<xalloc<std::_Tree_node<std::pair<unsigned int const ,bool>,void *> > >
_TEXT	ENDS
; Function compile flags: /Ogtpy
; File C:\Program Files\Microsoft Visual Studio\2022\Community\VC\Tools\MSVC\14.35.32215\include\xtree
;	COMDAT ?_Rrotate@?$_Tree_val@U?$_Tree_simple_types@U?$pair@$$CBI_N@std@@@std@@@std@@QEAAXPEAU?$_Tree_node@U?$pair@$$CBI_N@std@@PEAX@2@@Z
_TEXT	SEGMENT
this$ = 8
_Wherenode$ = 16
?_Rrotate@?$_Tree_val@U?$_Tree_simple_types@U?$pair@$$CBI_N@std@@@std@@@std@@QEAAXPEAU?$_Tree_node@U?$pair@$$CBI_N@std@@PEAX@2@@Z PROC ; std::_Tree_val<std::_Tree_simple_types<std::pair<unsigned int const ,bool> > >::_Rrotate, COMDAT

; 483  :         _Nodeptr _Pnode   = _Wherenode->_Left;

	mov	r8, QWORD PTR [rdx]

; 484  :         _Wherenode->_Left = _Pnode->_Right;

	mov	rax, QWORD PTR [r8+16]
	mov	QWORD PTR [rdx], rax

; 485  : 
; 486  :         if (!_Pnode->_Right->_Isnil) {

	mov	rax, QWORD PTR [r8+16]
	cmp	BYTE PTR [rax+25], 0
	jne	SHORT $LN2@Rrotate

; 487  :             _Pnode->_Right->_Parent = _Wherenode;

	mov	QWORD PTR [rax+8], rdx
$LN2@Rrotate:

; 488  :         }
; 489  : 
; 490  :         _Pnode->_Parent = _Wherenode->_Parent;

	mov	rax, QWORD PTR [rdx+8]
	mov	QWORD PTR [r8+8], rax

; 491  : 
; 492  :         if (_Wherenode == _Myhead->_Parent) {

	mov	rax, QWORD PTR [rcx]
	cmp	rdx, QWORD PTR [rax+8]
	jne	SHORT $LN3@Rrotate

; 493  :             _Myhead->_Parent = _Pnode;

	mov	QWORD PTR [rax+8], r8

; 498  :         }
; 499  : 
; 500  :         _Pnode->_Right      = _Wherenode;
; 501  :         _Wherenode->_Parent = _Pnode;
; 502  :     }

	mov	QWORD PTR [r8+16], rdx
	mov	QWORD PTR [rdx+8], r8
	ret	0
$LN3@Rrotate:

; 494  :         } else if (_Wherenode == _Wherenode->_Parent->_Right) {

	mov	rax, QWORD PTR [rdx+8]
	cmp	rdx, QWORD PTR [rax+16]
	jne	SHORT $LN5@Rrotate

; 495  :             _Wherenode->_Parent->_Right = _Pnode;

	mov	QWORD PTR [rax+16], r8

; 498  :         }
; 499  : 
; 500  :         _Pnode->_Right      = _Wherenode;
; 501  :         _Wherenode->_Parent = _Pnode;
; 502  :     }

	mov	QWORD PTR [r8+16], rdx
	mov	QWORD PTR [rdx+8], r8
	ret	0
$LN5@Rrotate:

; 496  :         } else {
; 497  :             _Wherenode->_Parent->_Left = _Pnode;

	mov	QWORD PTR [rax], r8

; 498  :         }
; 499  : 
; 500  :         _Pnode->_Right      = _Wherenode;
; 501  :         _Wherenode->_Parent = _Pnode;
; 502  :     }

	mov	QWORD PTR [r8+16], rdx
	mov	QWORD PTR [rdx+8], r8
	ret	0
?_Rrotate@?$_Tree_val@U?$_Tree_simple_types@U?$pair@$$CBI_N@std@@@std@@@std@@QEAAXPEAU?$_Tree_node@U?$pair@$$CBI_N@std@@PEAX@2@@Z ENDP ; std::_Tree_val<std::_Tree_simple_types<std::pair<unsigned int const ,bool> > >::_Rrotate
_TEXT	ENDS
; Function compile flags: /Ogtpy
; File C:\Program Files\Microsoft Visual Studio\2022\Community\VC\Tools\MSVC\14.35.32215\include\xtree
;	COMDAT ?_Lrotate@?$_Tree_val@U?$_Tree_simple_types@U?$pair@$$CBI_N@std@@@std@@@std@@QEAAXPEAU?$_Tree_node@U?$pair@$$CBI_N@std@@PEAX@2@@Z
_TEXT	SEGMENT
this$ = 8
_Wherenode$ = 16
?_Lrotate@?$_Tree_val@U?$_Tree_simple_types@U?$pair@$$CBI_N@std@@@std@@@std@@QEAAXPEAU?$_Tree_node@U?$pair@$$CBI_N@std@@PEAX@2@@Z PROC ; std::_Tree_val<std::_Tree_simple_types<std::pair<unsigned int const ,bool> > >::_Lrotate, COMDAT

; 461  :         _Nodeptr _Pnode    = _Wherenode->_Right;

	mov	r8, QWORD PTR [rdx+16]

; 462  :         _Wherenode->_Right = _Pnode->_Left;

	mov	rax, QWORD PTR [r8]
	mov	QWORD PTR [rdx+16], rax

; 463  : 
; 464  :         if (!_Pnode->_Left->_Isnil) {

	mov	rax, QWORD PTR [r8]
	cmp	BYTE PTR [rax+25], 0
	jne	SHORT $LN2@Lrotate

; 465  :             _Pnode->_Left->_Parent = _Wherenode;

	mov	QWORD PTR [rax+8], rdx
$LN2@Lrotate:

; 466  :         }
; 467  : 
; 468  :         _Pnode->_Parent = _Wherenode->_Parent;

	mov	rax, QWORD PTR [rdx+8]
	mov	QWORD PTR [r8+8], rax

; 469  : 
; 470  :         if (_Wherenode == _Myhead->_Parent) {

	mov	rax, QWORD PTR [rcx]
	cmp	rdx, QWORD PTR [rax+8]
	jne	SHORT $LN3@Lrotate

; 471  :             _Myhead->_Parent = _Pnode;

	mov	QWORD PTR [rax+8], r8

; 476  :         }
; 477  : 
; 478  :         _Pnode->_Left       = _Wherenode;
; 479  :         _Wherenode->_Parent = _Pnode;
; 480  :     }

	mov	QWORD PTR [r8], rdx
	mov	QWORD PTR [rdx+8], r8
	ret	0
$LN3@Lrotate:

; 472  :         } else if (_Wherenode == _Wherenode->_Parent->_Left) {

	mov	rax, QWORD PTR [rdx+8]
	cmp	rdx, QWORD PTR [rax]
	jne	SHORT $LN5@Lrotate

; 473  :             _Wherenode->_Parent->_Left = _Pnode;

	mov	QWORD PTR [rax], r8

; 476  :         }
; 477  : 
; 478  :         _Pnode->_Left       = _Wherenode;
; 479  :         _Wherenode->_Parent = _Pnode;
; 480  :     }

	mov	QWORD PTR [r8], rdx
	mov	QWORD PTR [rdx+8], r8
	ret	0
$LN5@Lrotate:

; 474  :         } else {
; 475  :             _Wherenode->_Parent->_Right = _Pnode;

	mov	QWORD PTR [rax+16], r8

; 476  :         }
; 477  : 
; 478  :         _Pnode->_Left       = _Wherenode;
; 479  :         _Wherenode->_Parent = _Pnode;
; 480  :     }

	mov	QWORD PTR [r8], rdx
	mov	QWORD PTR [rdx+8], r8
	ret	0
?_Lrotate@?$_Tree_val@U?$_Tree_simple_types@U?$pair@$$CBI_N@std@@@std@@@std@@QEAAXPEAU?$_Tree_node@U?$pair@$$CBI_N@std@@PEAX@2@@Z ENDP ; std::_Tree_val<std::_Tree_simple_types<std::pair<unsigned int const ,bool> > >::_Lrotate
_TEXT	ENDS
; Function compile flags: /Ogtpy
; File C:\Program Files\Microsoft Visual Studio\2022\Community\VC\Tools\MSVC\14.35.32215\include\xtree
;	COMDAT ?max_size@?$_Tree@V?$_Tmap_traits@I_NU?$less@I@std@@V?$xalloc@U?$pair@$$CBI_N@std@@@@$0A@@std@@@std@@QEBA_KXZ
_TEXT	SEGMENT
this$dead$ = 8
?max_size@?$_Tree@V?$_Tmap_traits@I_NU?$less@I@std@@V?$xalloc@U?$pair@$$CBI_N@std@@@@$0A@@std@@@std@@QEBA_KXZ PROC ; std::_Tree<std::_Tmap_traits<unsigned int,bool,std::less<unsigned int>,xalloc<std::pair<unsigned int const ,bool> >,0> >::max_size, COMDAT

; 1197 :         return (_STD min)(

	mov	rax, 461168601842738790			; 0666666666666666H

; 1198 :             static_cast<size_type>((numeric_limits<difference_type>::max)()), _Alnode_traits::max_size(_Getal()));
; 1199 :     }

	ret	0
?max_size@?$_Tree@V?$_Tmap_traits@I_NU?$less@I@std@@V?$xalloc@U?$pair@$$CBI_N@std@@@@$0A@@std@@@std@@QEBA_KXZ ENDP ; std::_Tree<std::_Tmap_traits<unsigned int,bool,std::less<unsigned int>,xalloc<std::pair<unsigned int const ,bool> >,0> >::max_size
_TEXT	ENDS
; Function compile flags: /Ogtpy
; File C:\Program Files\Microsoft Visual Studio\2022\Community\VC\Tools\MSVC\14.35.32215\include\xtree
;	COMDAT ?_Getal@?$_Tree@V?$_Tmap_traits@I_NU?$less@I@std@@V?$xalloc@U?$pair@$$CBI_N@std@@@@$0A@@std@@@std@@IEBAAEBV?$xalloc@U?$_Tree_node@U?$pair@$$CBI_N@std@@PEAX@std@@@@XZ
_TEXT	SEGMENT
this$ = 8
?_Getal@?$_Tree@V?$_Tmap_traits@I_NU?$less@I@std@@V?$xalloc@U?$pair@$$CBI_N@std@@@@$0A@@std@@@std@@IEBAAEBV?$xalloc@U?$_Tree_node@U?$pair@$$CBI_N@std@@PEAX@std@@@@XZ PROC ; std::_Tree<std::_Tmap_traits<unsigned int,bool,std::less<unsigned int>,xalloc<std::pair<unsigned int const ,bool> >,0> >::_Getal, COMDAT

; 1963 :         return _Mypair._Myval2._Get_first();

	mov	rax, rcx

; 1964 :     }

	ret	0
?_Getal@?$_Tree@V?$_Tmap_traits@I_NU?$less@I@std@@V?$xalloc@U?$pair@$$CBI_N@std@@@@$0A@@std@@@std@@IEBAAEBV?$xalloc@U?$_Tree_node@U?$pair@$$CBI_N@std@@PEAX@std@@@@XZ ENDP ; std::_Tree<std::_Tmap_traits<unsigned int,bool,std::less<unsigned int>,xalloc<std::pair<unsigned int const ,bool> >,0> >::_Getal
_TEXT	ENDS
; Function compile flags: /Ogtpy
; File C:\Program Files\Microsoft Visual Studio\2022\Community\VC\Tools\MSVC\14.35.32215\include\xmemory
;	COMDAT ?max_size@?$_Normal_allocator_traits@V?$xalloc@U?$_Tree_node@U?$pair@$$CBI_N@std@@PEAX@std@@@@@std@@SA_KAEBV?$xalloc@U?$_Tree_node@U?$pair@$$CBI_N@std@@PEAX@std@@@@@Z
_TEXT	SEGMENT
_Al$dead$ = 8
?max_size@?$_Normal_allocator_traits@V?$xalloc@U?$_Tree_node@U?$pair@$$CBI_N@std@@PEAX@std@@@@@std@@SA_KAEBV?$xalloc@U?$_Tree_node@U?$pair@$$CBI_N@std@@PEAX@std@@@@@Z PROC ; std::_Normal_allocator_traits<xalloc<std::_Tree_node<std::pair<unsigned int const ,bool>,void *> > >::max_size, COMDAT

; 590  :         if constexpr (_Has_max_size<_Alloc>::value) {
; 591  :             return _Al.max_size();

	mov	rax, 461168601842738790			; 0666666666666666H

; 592  :         } else {
; 593  :             return (numeric_limits<size_type>::max)() / sizeof(value_type);
; 594  :         }
; 595  :     }

	ret	0
?max_size@?$_Normal_allocator_traits@V?$xalloc@U?$_Tree_node@U?$pair@$$CBI_N@std@@PEAX@std@@@@@std@@SA_KAEBV?$xalloc@U?$_Tree_node@U?$pair@$$CBI_N@std@@PEAX@std@@@@@Z ENDP ; std::_Normal_allocator_traits<xalloc<std::_Tree_node<std::pair<unsigned int const ,bool>,void *> > >::max_size
_TEXT	ENDS
; Function compile flags: /Ogtpy
; File C:\Users\Mahito\Desktop\Night outing\Night-outing\src\xrCore\_stl_extensions.h
; File C:\Users\Mahito\Desktop\Night outing\Night-outing\src\xrCore\xrMemory.h
; File C:\Users\Mahito\Desktop\Night outing\Night-outing\src\xrCore\xrMemory_subst_msvc.cpp
; File C:\Users\Mahito\Desktop\Night outing\Night-outing\src\xrCore\_stl_extensions.h
;	COMDAT ?deallocate@?$xalloc@U?$_Tree_node@U?$pair@$$CBI_N@std@@PEAX@std@@@@QEBAXPEAU?$_Tree_node@U?$pair@$$CBI_N@std@@PEAX@std@@_K@Z
_TEXT	SEGMENT
this$dead$ = 8
p$ = 16
n$dead$ = 24
?deallocate@?$xalloc@U?$_Tree_node@U?$pair@$$CBI_N@std@@PEAX@std@@@@QEBAXPEAU?$_Tree_node@U?$pair@$$CBI_N@std@@PEAX@std@@_K@Z PROC ; xalloc<std::_Tree_node<std::pair<unsigned int const ,bool>,void *> >::deallocate, COMDAT
; File C:\Users\Mahito\Desktop\Night outing\Night-outing\src\xrCore\xrMemory.h

; 69   : 	if (P)

	test	rdx, rdx
	je	SHORT $LN4@deallocate
; File C:\Users\Mahito\Desktop\Night outing\Night-outing\src\xrCore\xrMemory_subst_msvc.cpp

; 99   : 	stat_calls++;

	inc	DWORD PTR ?Memory@@3VxrMemory@@A

; 100  : 
; 101  : #ifdef PURE_ALLOC
; 102  : 	if (g_use_pure_alloc)
; 103  : 	{
; 104  : 		//free(P);
; 105  : 		_aligned_free(P);

	mov	rcx, rdx
	rex_jmp	QWORD PTR __imp__aligned_free
$LN4@deallocate:
; File C:\Users\Mahito\Desktop\Night outing\Night-outing\src\xrCore\_stl_extensions.h

; 83   : 							void					deallocate		(pointer p, size_type n) const			{	xr_free	(p);				}

	ret	0
?deallocate@?$xalloc@U?$_Tree_node@U?$pair@$$CBI_N@std@@PEAX@std@@@@QEBAXPEAU?$_Tree_node@U?$pair@$$CBI_N@std@@PEAX@std@@_K@Z ENDP ; xalloc<std::_Tree_node<std::pair<unsigned int const ,bool>,void *> >::deallocate
_TEXT	ENDS
; Function compile flags: /Ogtpy
; File C:\Program Files\Microsoft Visual Studio\2022\Community\VC\Tools\MSVC\14.35.32215\include\xmemory
;	COMDAT ?_Get_first@?$_Compressed_pair@V?$xalloc@U?$_Tree_node@U?$pair@$$CBI_N@std@@PEAX@std@@@@V?$_Tree_val@U?$_Tree_simple_types@U?$pair@$$CBI_N@std@@@std@@@std@@$00@std@@QEBAAEBV?$xalloc@U?$_Tree_node@U?$pair@$$CBI_N@std@@PEAX@std@@@@XZ
_TEXT	SEGMENT
this$ = 8
?_Get_first@?$_Compressed_pair@V?$xalloc@U?$_Tree_node@U?$pair@$$CBI_N@std@@PEAX@std@@@@V?$_Tree_val@U?$_Tree_simple_types@U?$pair@$$CBI_N@std@@@std@@@std@@$00@std@@QEBAAEBV?$xalloc@U?$_Tree_node@U?$pair@$$CBI_N@std@@PEAX@std@@@@XZ PROC ; std::_Compressed_pair<xalloc<std::_Tree_node<std::pair<unsigned int const ,bool>,void *> >,std::_Tree_val<std::_Tree_simple_types<std::pair<unsigned int const ,bool> > >,1>::_Get_first, COMDAT

; 1387 :         return *this;

	mov	rax, rcx

; 1388 :     }

	ret	0
?_Get_first@?$_Compressed_pair@V?$xalloc@U?$_Tree_node@U?$pair@$$CBI_N@std@@PEAX@std@@@@V?$_Tree_val@U?$_Tree_simple_types@U?$pair@$$CBI_N@std@@@std@@@std@@$00@std@@QEBAAEBV?$xalloc@U?$_Tree_node@U?$pair@$$CBI_N@std@@PEAX@std@@@@XZ ENDP ; std::_Compressed_pair<xalloc<std::_Tree_node<std::pair<unsigned int const ,bool>,void *> >,std::_Tree_val<std::_Tree_simple_types<std::pair<unsigned int const ,bool> > >,1>::_Get_first
_TEXT	ENDS
; Function compile flags: /Ogtpy
; File C:\Users\Mahito\Desktop\Night outing\Night-outing\src\xrCore\_stl_extensions.h
;	COMDAT ?max_size@?$xalloc@U?$_Tree_node@U?$pair@$$CBI_N@std@@PEAX@std@@@@QEBA_KXZ
_TEXT	SEGMENT
this$dead$ = 8
?max_size@?$xalloc@U?$_Tree_node@U?$pair@$$CBI_N@std@@PEAX@std@@@@QEBA_KXZ PROC ; xalloc<std::_Tree_node<std::pair<unsigned int const ,bool>,void *> >::max_size, COMDAT

; 87   : 							size_type				max_size		() const								{	size_type _Count = (size_type)(-1) / sizeof (T);	return (0 < _Count ? _Count : 1);	}

	mov	rax, 461168601842738790			; 0666666666666666H
	ret	0
?max_size@?$xalloc@U?$_Tree_node@U?$pair@$$CBI_N@std@@PEAX@std@@@@QEBA_KXZ ENDP ; xalloc<std::_Tree_node<std::pair<unsigned int const ,bool>,void *> >::max_size
_TEXT	ENDS
; Function compile flags: /Ogtpy
; File C:\Program Files\Microsoft Visual Studio\2022\Community\VC\Tools\MSVC\14.35.32215\include\xmemory
; File C:\Program Files\Microsoft Visual Studio\2022\Community\VC\Tools\MSVC\14.35.32215\include\xtree
; File C:\Program Files\Microsoft Visual Studio\2022\Community\VC\Tools\MSVC\14.35.32215\include\xmemory
;	COMDAT ??$?0$$V@?$_Compressed_pair@V?$xalloc@U?$_Tree_node@U?$pair@$$CBI_N@std@@PEAX@std@@@@V?$_Tree_val@U?$_Tree_simple_types@U?$pair@$$CBI_N@std@@@std@@@std@@$00@std@@QEAA@U_Zero_then_variadic_args_t@1@@Z
_TEXT	SEGMENT
this$ = 8
__formal$dead$ = 16
??$?0$$V@?$_Compressed_pair@V?$xalloc@U?$_Tree_node@U?$pair@$$CBI_N@std@@PEAX@std@@@@V?$_Tree_val@U?$_Tree_simple_types@U?$pair@$$CBI_N@std@@@std@@@std@@$00@std@@QEAA@U_Zero_then_variadic_args_t@1@@Z PROC ; std::_Compressed_pair<xalloc<std::_Tree_node<std::pair<unsigned int const ,bool>,void *> >,std::_Tree_val<std::_Tree_simple_types<std::pair<unsigned int const ,bool> > >,1>::_Compressed_pair<xalloc<std::_Tree_node<std::pair<unsigned int const ,bool>,void *> >,std::_Tree_val<std::_Tree_simple_types<std::pair<unsigned int const ,bool> > >,1><>, COMDAT
; File C:\Program Files\Microsoft Visual Studio\2022\Community\VC\Tools\MSVC\14.35.32215\include\xtree

; 437  :     _Tree_val() noexcept : _Myhead(), _Mysize(0) {}

	xor	eax, eax
	mov	QWORD PTR [rcx], rax
	mov	QWORD PTR [rcx+8], rax
; File C:\Program Files\Microsoft Visual Studio\2022\Community\VC\Tools\MSVC\14.35.32215\include\xmemory

; 1375 :         : _Ty1(), _Myval2(_STD forward<_Other2>(_Val2)...) {}

	mov	rax, rcx
	ret	0
??$?0$$V@?$_Compressed_pair@V?$xalloc@U?$_Tree_node@U?$pair@$$CBI_N@std@@PEAX@std@@@@V?$_Tree_val@U?$_Tree_simple_types@U?$pair@$$CBI_N@std@@@std@@@std@@$00@std@@QEAA@U_Zero_then_variadic_args_t@1@@Z ENDP ; std::_Compressed_pair<xalloc<std::_Tree_node<std::pair<unsigned int const ,bool>,void *> >,std::_Tree_val<std::_Tree_simple_types<std::pair<unsigned int const ,bool> > >,1>::_Compressed_pair<xalloc<std::_Tree_node<std::pair<unsigned int const ,bool>,void *> >,std::_Tree_val<std::_Tree_simple_types<std::pair<unsigned int const ,bool> > >,1><>
_TEXT	ENDS
; Function compile flags: /Ogtpy
; File C:\Program Files\Microsoft Visual Studio\2022\Community\VC\Tools\MSVC\14.35.32215\include\xtree
; File C:\Program Files\Microsoft Visual Studio\2022\Community\VC\Tools\MSVC\14.35.32215\include\xstddef
; File C:\Program Files\Microsoft Visual Studio\2022\Community\VC\Tools\MSVC\14.35.32215\include\xtree
; File C:\Program Files\Microsoft Visual Studio\2022\Community\VC\Tools\MSVC\14.35.32215\include\xstddef
; File C:\Program Files\Microsoft Visual Studio\2022\Community\VC\Tools\MSVC\14.35.32215\include\xtree
;	COMDAT ??$_Find_lower_bound@I@?$_Tree@V?$_Tmap_traits@I_NU?$less@I@std@@V?$xalloc@U?$pair@$$CBI_N@std@@@@$0A@@std@@@std@@IEBA?AU?$_Tree_find_result@PEAU?$_Tree_node@U?$pair@$$CBI_N@std@@PEAX@std@@@1@AEBI@Z
_TEXT	SEGMENT
this$ = 8
__$ReturnUdt$ = 16
_Keyval$ = 24
??$_Find_lower_bound@I@?$_Tree@V?$_Tmap_traits@I_NU?$less@I@std@@V?$xalloc@U?$pair@$$CBI_N@std@@@@$0A@@std@@@std@@IEBA?AU?$_Tree_find_result@PEAU?$_Tree_node@U?$pair@$$CBI_N@std@@PEAX@std@@@1@AEBI@Z PROC ; std::_Tree<std::_Tmap_traits<unsigned int,bool,std::less<unsigned int>,xalloc<std::pair<unsigned int const ,bool> >,0> >::_Find_lower_bound<unsigned int>, COMDAT

; 1610 :         const auto _Scary = _Get_scary();
; 1611 :         _Tree_find_result<_Nodeptr> _Result{{_Scary->_Myhead->_Parent, _Tree_child::_Right}, _Scary->_Myhead};

	mov	r9, QWORD PTR [rcx]
	mov	DWORD PTR [rdx+8], 0
	mov	QWORD PTR [rdx+16], r9
	mov	rax, QWORD PTR [r9+8]
	mov	QWORD PTR [rdx], rax

; 1612 :         _Nodeptr _Trynode = _Result._Location._Parent;
; 1613 :         while (!_Trynode->_Isnil) {

	cmp	BYTE PTR [rax+25], 0
	jne	SHORT $LN12@Find_lower
; File C:\Program Files\Microsoft Visual Studio\2022\Community\VC\Tools\MSVC\14.35.32215\include\xstddef

; 143  :         return _Left < _Right;

	mov	r8d, DWORD PTR [r8]
	npad	2
$LL2@Find_lower:
; File C:\Program Files\Microsoft Visual Studio\2022\Community\VC\Tools\MSVC\14.35.32215\include\xtree

; 1614 :             _Result._Location._Parent = _Trynode;

	mov	QWORD PTR [rdx], rax
; File C:\Program Files\Microsoft Visual Studio\2022\Community\VC\Tools\MSVC\14.35.32215\include\xstddef

; 143  :         return _Left < _Right;

	cmp	DWORD PTR [rax+28], r8d
; File C:\Program Files\Microsoft Visual Studio\2022\Community\VC\Tools\MSVC\14.35.32215\include\xtree

; 1615 :             if (_DEBUG_LT_PRED(_Getcomp(), _Traits::_Kfn(_Trynode->_Myval), _Keyval)) {

	jae	SHORT $LN4@Find_lower

; 1616 :                 _Result._Location._Child = _Tree_child::_Right;
; 1617 :                 _Trynode                 = _Trynode->_Right;

	mov	rax, QWORD PTR [rax+16]
	xor	ecx, ecx

; 1618 :             } else {

	jmp	SHORT $LN5@Find_lower
$LN4@Find_lower:

; 1619 :                 _Result._Location._Child = _Tree_child::_Left;
; 1620 :                 _Result._Bound           = _Trynode;

	mov	QWORD PTR [rdx+16], rax

; 1621 :                 _Trynode                 = _Trynode->_Left;

	mov	ecx, 1
	mov	rax, QWORD PTR [rax]
$LN5@Find_lower:

; 1612 :         _Nodeptr _Trynode = _Result._Location._Parent;
; 1613 :         while (!_Trynode->_Isnil) {

	mov	DWORD PTR [rdx+8], ecx
	cmp	BYTE PTR [rax+25], 0
	je	SHORT $LL2@Find_lower
$LN12@Find_lower:

; 1622 :             }
; 1623 :         }
; 1624 : 
; 1625 :         return _Result;
; 1626 :     }

	mov	rax, rdx
	ret	0
??$_Find_lower_bound@I@?$_Tree@V?$_Tmap_traits@I_NU?$less@I@std@@V?$xalloc@U?$pair@$$CBI_N@std@@@@$0A@@std@@@std@@IEBA?AU?$_Tree_find_result@PEAU?$_Tree_node@U?$pair@$$CBI_N@std@@PEAX@std@@@1@AEBI@Z ENDP ; std::_Tree<std::_Tmap_traits<unsigned int,bool,std::less<unsigned int>,xalloc<std::pair<unsigned int const ,bool> >,0> >::_Find_lower_bound<unsigned int>
_TEXT	ENDS
; Function compile flags: /Ogtpy
; File C:\Program Files\Microsoft Visual Studio\2022\Community\VC\Tools\MSVC\14.35.32215\include\xtree
; File C:\Program Files\Microsoft Visual Studio\2022\Community\VC\Tools\MSVC\14.35.32215\include\xstddef
; File C:\Program Files\Microsoft Visual Studio\2022\Community\VC\Tools\MSVC\14.35.32215\include\xtree
;	COMDAT ??$_Lower_bound_duplicate@I@?$_Tree@V?$_Tmap_traits@I_NU?$less@I@std@@V?$xalloc@U?$pair@$$CBI_N@std@@@@$0A@@std@@@std@@IEBA_NQEAU?$_Tree_node@U?$pair@$$CBI_N@std@@PEAX@1@AEBI@Z
_TEXT	SEGMENT
this$dead$ = 8
_Bound$ = 16
_Keyval$ = 24
??$_Lower_bound_duplicate@I@?$_Tree@V?$_Tmap_traits@I_NU?$less@I@std@@V?$xalloc@U?$pair@$$CBI_N@std@@@@$0A@@std@@@std@@IEBA_NQEAU?$_Tree_node@U?$pair@$$CBI_N@std@@PEAX@1@AEBI@Z PROC ; std::_Tree<std::_Tmap_traits<unsigned int,bool,std::less<unsigned int>,xalloc<std::pair<unsigned int const ,bool> >,0> >::_Lower_bound_duplicate<unsigned int>, COMDAT

; 1605 :         return !_Bound->_Isnil && !_DEBUG_LT_PRED(_Getcomp(), _Keyval, _Traits::_Kfn(_Bound->_Myval));

	cmp	BYTE PTR [rdx+25], 0
	jne	SHORT $LN3@Lower_boun
; File C:\Program Files\Microsoft Visual Studio\2022\Community\VC\Tools\MSVC\14.35.32215\include\xstddef

; 143  :         return _Left < _Right;

	mov	eax, DWORD PTR [rdx+28]
	cmp	DWORD PTR [r8], eax
; File C:\Program Files\Microsoft Visual Studio\2022\Community\VC\Tools\MSVC\14.35.32215\include\xtree

; 1605 :         return !_Bound->_Isnil && !_DEBUG_LT_PRED(_Getcomp(), _Keyval, _Traits::_Kfn(_Bound->_Myval));

	jb	SHORT $LN3@Lower_boun
	mov	al, 1

; 1606 :     }

	ret	0
$LN3@Lower_boun:

; 1605 :         return !_Bound->_Isnil && !_DEBUG_LT_PRED(_Getcomp(), _Keyval, _Traits::_Kfn(_Bound->_Myval));

	xor	al, al

; 1606 :     }

	ret	0
??$_Lower_bound_duplicate@I@?$_Tree@V?$_Tmap_traits@I_NU?$less@I@std@@V?$xalloc@U?$pair@$$CBI_N@std@@@@$0A@@std@@@std@@IEBA_NQEAU?$_Tree_node@U?$pair@$$CBI_N@std@@PEAX@1@AEBI@Z ENDP ; std::_Tree<std::_Tmap_traits<unsigned int,bool,std::less<unsigned int>,xalloc<std::pair<unsigned int const ,bool> >,0> >::_Lower_bound_duplicate<unsigned int>
_TEXT	ENDS
; Function compile flags: /Ogtpy
; File C:\Program Files\Microsoft Visual Studio\2022\Community\VC\Tools\MSVC\14.35.32215\include\utility
;	COMDAT ??$?0AEBQEAU?$_Tree_node@U?$pair@$$CBI_N@std@@PEAX@std@@_N$0A@@?$pair@PEAU?$_Tree_node@U?$pair@$$CBI_N@std@@PEAX@std@@_N@std@@QEAA@AEBQEAU?$_Tree_node@U?$pair@$$CBI_N@std@@PEAX@1@$$QEA_N@Z
_TEXT	SEGMENT
this$ = 8
_Val1$ = 16
_Val2$ = 24
??$?0AEBQEAU?$_Tree_node@U?$pair@$$CBI_N@std@@PEAX@std@@_N$0A@@?$pair@PEAU?$_Tree_node@U?$pair@$$CBI_N@std@@PEAX@std@@_N@std@@QEAA@AEBQEAU?$_Tree_node@U?$pair@$$CBI_N@std@@PEAX@1@$$QEA_N@Z PROC ; std::pair<std::_Tree_node<std::pair<unsigned int const ,bool>,void *> *,bool>::pair<std::_Tree_node<std::pair<unsigned int const ,bool>,void *> *,bool><std::_Tree_node<std::pair<unsigned int const ,bool>,void *> * const &,bool,0>, COMDAT

; 172  :         : first(_STD forward<_Other1>(_Val1)), second(_STD forward<_Other2>(_Val2)) {

	mov	rax, QWORD PTR [rdx]
	mov	QWORD PTR [rcx], rax
	movzx	eax, BYTE PTR [r8]
	mov	BYTE PTR [rcx+8], al

; 173  :     }

	mov	rax, rcx
	ret	0
??$?0AEBQEAU?$_Tree_node@U?$pair@$$CBI_N@std@@PEAX@std@@_N$0A@@?$pair@PEAU?$_Tree_node@U?$pair@$$CBI_N@std@@PEAX@std@@_N@std@@QEAA@AEBQEAU?$_Tree_node@U?$pair@$$CBI_N@std@@PEAX@1@$$QEA_N@Z ENDP ; std::pair<std::_Tree_node<std::pair<unsigned int const ,bool>,void *> *,bool>::pair<std::_Tree_node<std::pair<unsigned int const ,bool>,void *> *,bool><std::_Tree_node<std::pair<unsigned int const ,bool>,void *> * const &,bool,0>
_TEXT	ENDS
; Function compile flags: /Ogtpy
; File C:\Program Files\Microsoft Visual Studio\2022\Community\VC\Tools\MSVC\14.35.32215\include\tuple
;	COMDAT ??$forward_as_tuple@AEBI@std@@YA?AV?$tuple@AEBI@0@AEBI@Z
_TEXT	SEGMENT
__$ReturnUdt$ = 8
<_Args_0>$ = 16
??$forward_as_tuple@AEBI@std@@YA?AV?$tuple@AEBI@0@AEBI@Z PROC ; std::forward_as_tuple<unsigned int const &>, COMDAT

; 144  :     constexpr _Tuple_val(_Other&& _Arg) : _Val(_STD forward<_Other>(_Arg)) {}

	mov	QWORD PTR [rcx], rdx

; 824  :     return tuple<_Types&&...>(_STD forward<_Types>(_Args)...);

	mov	rax, rcx

; 825  : }

	ret	0
??$forward_as_tuple@AEBI@std@@YA?AV?$tuple@AEBI@0@AEBI@Z ENDP ; std::forward_as_tuple<unsigned int const &>
_TEXT	ENDS
; Function compile flags: /Ogtpy
; File C:\Program Files\Microsoft Visual Studio\2022\Community\VC\Tools\MSVC\14.35.32215\include\xtree
; File C:\Program Files\Microsoft Visual Studio\2022\Community\VC\Tools\MSVC\14.35.32215\include\xmemory
; File C:\Program Files\Microsoft Visual Studio\2022\Community\VC\Tools\MSVC\14.35.32215\include\xtree
; File C:\Program Files\Microsoft Visual Studio\2022\Community\VC\Tools\MSVC\14.35.32215\include\xmemory
; File C:\Users\Mahito\Desktop\Night outing\Night-outing\src\xrCore\xrMemory_subst_msvc.cpp
; File C:\Program Files\Microsoft Visual Studio\2022\Community\VC\Tools\MSVC\14.35.32215\include\xtree
; File C:\Users\Mahito\Desktop\Night outing\Night-outing\src\xrCore\xrMemory_subst_msvc.cpp
; File C:\Program Files\Microsoft Visual Studio\2022\Community\VC\Tools\MSVC\14.35.32215\include\tuple
; File C:\Program Files\Microsoft Visual Studio\2022\Community\VC\Tools\MSVC\14.35.32215\include\xmemory
; File C:\Program Files\Microsoft Visual Studio\2022\Community\VC\Tools\MSVC\14.35.32215\include\tuple
; File C:\Program Files\Microsoft Visual Studio\2022\Community\VC\Tools\MSVC\14.35.32215\include\utility
; File C:\Program Files\Microsoft Visual Studio\2022\Community\VC\Tools\MSVC\14.35.32215\include\xtree
;	COMDAT ??$?0AEBUpiecewise_construct_t@std@@V?$tuple@AEBI@1@V?$tuple@$$V@1@@?$_Tree_temp_node@V?$xalloc@U?$_Tree_node@U?$pair@$$CBI_N@std@@PEAX@std@@@@@std@@QEAA@AEAV?$xalloc@U?$_Tree_node@U?$pair@$$CBI_N@std@@PEAX@std@@@@PEAU?$_Tree_node@U?$pair@$$CBI_N@std@@PEAX@1@AEBUpiecewise_construct_t@1@$$QEAV?$tuple@AEBI@1@$$QEAV?$tuple@$$V@1@@Z
_TEXT	SEGMENT
this$ = 48
_Al_$ = 56
_Myhead$ = 64
<_Vals_0>$dead$ = 72
<_Vals_1>$ = 80
<_Vals_2>$dead$ = 88
??$?0AEBUpiecewise_construct_t@std@@V?$tuple@AEBI@1@V?$tuple@$$V@1@@?$_Tree_temp_node@V?$xalloc@U?$_Tree_node@U?$pair@$$CBI_N@std@@PEAX@std@@@@@std@@QEAA@AEAV?$xalloc@U?$_Tree_node@U?$pair@$$CBI_N@std@@PEAX@std@@@@PEAU?$_Tree_node@U?$pair@$$CBI_N@std@@PEAX@1@AEBUpiecewise_construct_t@1@$$QEAV?$tuple@AEBI@1@$$QEAV?$tuple@$$V@1@@Z PROC ; std::_Tree_temp_node<xalloc<std::_Tree_node<std::pair<unsigned int const ,bool>,void *> > >::_Tree_temp_node<xalloc<std::_Tree_node<std::pair<unsigned int const ,bool>,void *> > ><std::piecewise_construct_t const &,std::tuple<unsigned int const &>,std::tuple<> >, COMDAT

; 806  :         : _Tree_temp_node_alloc<_Alnode>(_Al_) {

$LN65:
	mov	QWORD PTR [rsp+8], rbx
	push	rdi
	sub	rsp, 32					; 00000020H
; File C:\Program Files\Microsoft Visual Studio\2022\Community\VC\Tools\MSVC\14.35.32215\include\xmemory

; 1004 :     _CONSTEXPR20 explicit _Alloc_construct_ptr(_Alloc& _Al_) : _Al(_Al_), _Ptr(nullptr) {}

	mov	QWORD PTR [rcx], rdx
; File C:\Program Files\Microsoft Visual Studio\2022\Community\VC\Tools\MSVC\14.35.32215\include\xtree

; 806  :         : _Tree_temp_node_alloc<_Alnode>(_Al_) {

	mov	rbx, rcx
; File C:\Program Files\Microsoft Visual Studio\2022\Community\VC\Tools\MSVC\14.35.32215\include\xmemory

; 1004 :     _CONSTEXPR20 explicit _Alloc_construct_ptr(_Alloc& _Al_) : _Al(_Al_), _Ptr(nullptr) {}

	mov	QWORD PTR [rcx+8], 0
; File C:\Users\Mahito\Desktop\Night outing\Night-outing\src\xrCore\xrMemory_subst_msvc.cpp

; 45   : 		void* result = _aligned_malloc(size, PURE_MEMORY_ALIGNMENT);

	mov	edx, 16
	inc	DWORD PTR ?Memory@@3VxrMemory@@A
; File C:\Program Files\Microsoft Visual Studio\2022\Community\VC\Tools\MSVC\14.35.32215\include\xtree

; 806  :         : _Tree_temp_node_alloc<_Alnode>(_Al_) {

	mov	rdi, r8
; File C:\Users\Mahito\Desktop\Night outing\Night-outing\src\xrCore\xrMemory_subst_msvc.cpp

; 45   : 		void* result = _aligned_malloc(size, PURE_MEMORY_ALIGNMENT);

	lea	ecx, QWORD PTR [rdx+24]
	call	QWORD PTR __imp__aligned_malloc
	mov	rdx, rax

; 46   : #ifdef PURE_MEMORY_FILL_ZERO
; 47   : 		if (result)

	test	rax, rax
	je	SHORT $LN15@pair
	vpxor	xmm0, xmm0, xmm0

; 48   : 			memset(result, 0, size);

	xor	eax, eax
	vmovups	YMMWORD PTR [rdx], ymm0
	mov	QWORD PTR [rdx+32], rax
$LN15@pair:
; File C:\Program Files\Microsoft Visual Studio\2022\Community\VC\Tools\MSVC\14.35.32215\include\tuple

; 288  :     tuple(tuple&&)      = default;

	mov	rcx, QWORD PTR <_Vals_1>$[rsp]
; File C:\Program Files\Microsoft Visual Studio\2022\Community\VC\Tools\MSVC\14.35.32215\include\xmemory

; 1012 :         _Ptr = _Al.allocate(1);

	mov	QWORD PTR [rbx+8], rdx
; File C:\Program Files\Microsoft Visual Studio\2022\Community\VC\Tools\MSVC\14.35.32215\include\tuple

; 288  :     tuple(tuple&&)      = default;

	mov	rcx, QWORD PTR [rcx]
; File C:\Program Files\Microsoft Visual Studio\2022\Community\VC\Tools\MSVC\14.35.32215\include\utility

; 214  :         : first(_Tuple_get<_Indexes1>(_STD move(_Val1))...), second(_Tuple_get<_Indexes2>(_STD move(_Val2))...) {}

	mov	eax, DWORD PTR [rcx]
	mov	DWORD PTR [rdx+28], eax
	mov	BYTE PTR [rdx+32], 0
; File C:\Program Files\Microsoft Visual Studio\2022\Community\VC\Tools\MSVC\14.35.32215\include\xtree

; 808  :         _Construct_in_place(this->_Ptr->_Left, _Myhead);

	mov	rax, QWORD PTR [rbx+8]
	mov	QWORD PTR [rax], rdi

; 809  :         _Construct_in_place(this->_Ptr->_Parent, _Myhead);

	mov	rax, QWORD PTR [rbx+8]
	mov	QWORD PTR [rax+8], rdi

; 810  :         _Construct_in_place(this->_Ptr->_Right, _Myhead);

	mov	rax, QWORD PTR [rbx+8]
	mov	QWORD PTR [rax+16], rdi

; 811  :         this->_Ptr->_Color = _Red;

	mov	rax, QWORD PTR [rbx+8]
	mov	BYTE PTR [rax+24], 0
	mov	rax, QWORD PTR [rbx+8]
	mov	BYTE PTR [rax+25], 0

; 812  :         this->_Ptr->_Isnil = false;
; 813  :     }

	mov	rax, rbx
	vzeroupper
	mov	rbx, QWORD PTR [rsp+48]
	add	rsp, 32					; 00000020H
	pop	rdi
	ret	0
??$?0AEBUpiecewise_construct_t@std@@V?$tuple@AEBI@1@V?$tuple@$$V@1@@?$_Tree_temp_node@V?$xalloc@U?$_Tree_node@U?$pair@$$CBI_N@std@@PEAX@std@@@@@std@@QEAA@AEAV?$xalloc@U?$_Tree_node@U?$pair@$$CBI_N@std@@PEAX@std@@@@PEAU?$_Tree_node@U?$pair@$$CBI_N@std@@PEAX@1@AEBUpiecewise_construct_t@1@$$QEAV?$tuple@AEBI@1@$$QEAV?$tuple@$$V@1@@Z ENDP ; std::_Tree_temp_node<xalloc<std::_Tree_node<std::pair<unsigned int const ,bool>,void *> > >::_Tree_temp_node<xalloc<std::_Tree_node<std::pair<unsigned int const ,bool>,void *> > ><std::piecewise_construct_t const &,std::tuple<unsigned int const &>,std::tuple<> >
_TEXT	ENDS
; Function compile flags: /Ogtpy
; File C:\Program Files\Microsoft Visual Studio\2022\Community\VC\Tools\MSVC\14.35.32215\include\utility
;	COMDAT ??$?0PEAU?$_Tree_node@U?$pair@$$CBI_N@std@@PEAX@std@@_N$0A@@?$pair@PEAU?$_Tree_node@U?$pair@$$CBI_N@std@@PEAX@std@@_N@std@@QEAA@$$QEAPEAU?$_Tree_node@U?$pair@$$CBI_N@std@@PEAX@1@$$QEA_N@Z
_TEXT	SEGMENT
this$ = 8
_Val1$ = 16
_Val2$ = 24
??$?0PEAU?$_Tree_node@U?$pair@$$CBI_N@std@@PEAX@std@@_N$0A@@?$pair@PEAU?$_Tree_node@U?$pair@$$CBI_N@std@@PEAX@std@@_N@std@@QEAA@$$QEAPEAU?$_Tree_node@U?$pair@$$CBI_N@std@@PEAX@1@$$QEA_N@Z PROC ; std::pair<std::_Tree_node<std::pair<unsigned int const ,bool>,void *> *,bool>::pair<std::_Tree_node<std::pair<unsigned int const ,bool>,void *> *,bool><std::_Tree_node<std::pair<unsigned int const ,bool>,void *> *,bool,0>, COMDAT

; 172  :         : first(_STD forward<_Other1>(_Val1)), second(_STD forward<_Other2>(_Val2)) {

	mov	rax, QWORD PTR [rdx]
	mov	QWORD PTR [rcx], rax
	movzx	eax, BYTE PTR [r8]
	mov	BYTE PTR [rcx+8], al

; 173  :     }

	mov	rax, rcx
	ret	0
??$?0PEAU?$_Tree_node@U?$pair@$$CBI_N@std@@PEAX@std@@_N$0A@@?$pair@PEAU?$_Tree_node@U?$pair@$$CBI_N@std@@PEAX@std@@_N@std@@QEAA@$$QEAPEAU?$_Tree_node@U?$pair@$$CBI_N@std@@PEAX@1@$$QEA_N@Z ENDP ; std::pair<std::_Tree_node<std::pair<unsigned int const ,bool>,void *> *,bool>::pair<std::_Tree_node<std::pair<unsigned int const ,bool>,void *> *,bool><std::_Tree_node<std::pair<unsigned int const ,bool>,void *> *,bool,0>
_TEXT	ENDS
; Function compile flags: /Ogtpy
; File C:\Program Files\Microsoft Visual Studio\2022\Community\VC\Tools\MSVC\14.35.32215\include\xtree
; File C:\Program Files\Microsoft Visual Studio\2022\Community\VC\Tools\MSVC\14.35.32215\include\utility
; File C:\Users\Mahito\Desktop\Night outing\Night-outing\src\xrCore\xrMemory.h
; File C:\Users\Mahito\Desktop\Night outing\Night-outing\src\xrCore\xrMemory_subst_msvc.cpp
; File C:\Program Files\Microsoft Visual Studio\2022\Community\VC\Tools\MSVC\14.35.32215\include\xtree
;	COMDAT ??$_Erase_tree@V?$xalloc@U?$_Tree_node@U?$pair@$$CBI_N@std@@PEAX@std@@@@@?$_Tree_val@U?$_Tree_simple_types@U?$pair@$$CBI_N@std@@@std@@@std@@QEAAXAEAV?$xalloc@U?$_Tree_node@U?$pair@$$CBI_N@std@@PEAX@std@@@@PEAU?$_Tree_node@U?$pair@$$CBI_N@std@@PEAX@1@@Z
_TEXT	SEGMENT
this$ = 48
_Al$ = 56
_Rootnode$ = 64
??$_Erase_tree@V?$xalloc@U?$_Tree_node@U?$pair@$$CBI_N@std@@PEAX@std@@@@@?$_Tree_val@U?$_Tree_simple_types@U?$pair@$$CBI_N@std@@@std@@@std@@QEAAXAEAV?$xalloc@U?$_Tree_node@U?$pair@$$CBI_N@std@@PEAX@std@@@@PEAU?$_Tree_node@U?$pair@$$CBI_N@std@@PEAX@1@@Z PROC ; std::_Tree_val<std::_Tree_simple_types<std::pair<unsigned int const ,bool> > >::_Erase_tree<xalloc<std::_Tree_node<std::pair<unsigned int const ,bool>,void *> > >, COMDAT

; 744  :     void _Erase_tree(_Alnode& _Al, _Nodeptr _Rootnode) noexcept {

$LN523:
	mov	QWORD PTR [rsp+8], rbx
	mov	QWORD PTR [rsp+16], rsi
	push	rdi
	sub	rsp, 32					; 00000020H

; 745  :         while (!_Rootnode->_Isnil) { // free subtrees, then node

	cmp	BYTE PTR [r8+25], 0
	mov	rbx, r8
	mov	rdi, rdx
	mov	rsi, rcx
	jne	SHORT $LN3@Erase_tree
	npad	1
$LL2@Erase_tree:

; 746  :             _Erase_tree(_Al, _Rootnode->_Right);

	mov	r8, QWORD PTR [rbx+16]
	mov	rdx, rdi
	mov	rcx, rsi
	call	??$_Erase_tree@V?$xalloc@U?$_Tree_node@U?$pair@$$CBI_N@std@@PEAX@std@@@@@?$_Tree_val@U?$_Tree_simple_types@U?$pair@$$CBI_N@std@@@std@@@std@@QEAAXAEAV?$xalloc@U?$_Tree_node@U?$pair@$$CBI_N@std@@PEAX@std@@@@PEAU?$_Tree_node@U?$pair@$$CBI_N@std@@PEAX@1@@Z ; std::_Tree_val<std::_Tree_simple_types<std::pair<unsigned int const ,bool> > >::_Erase_tree<xalloc<std::_Tree_node<std::pair<unsigned int const ,bool>,void *> > >
; File C:\Program Files\Microsoft Visual Studio\2022\Community\VC\Tools\MSVC\14.35.32215\include\utility

; 654  :     _Ty _Old_val = static_cast<_Ty&&>(_Val);

	mov	rcx, rbx

; 655  :     _Val         = static_cast<_Other&&>(_New_val);

	mov	rbx, QWORD PTR [rbx]
; File C:\Users\Mahito\Desktop\Night outing\Night-outing\src\xrCore\xrMemory.h

; 69   : 	if (P)

	test	rcx, rcx
	je	SHORT $LN498@Erase_tree
; File C:\Users\Mahito\Desktop\Night outing\Night-outing\src\xrCore\xrMemory_subst_msvc.cpp

; 99   : 	stat_calls++;

	inc	DWORD PTR ?Memory@@3VxrMemory@@A

; 100  : 
; 101  : #ifdef PURE_ALLOC
; 102  : 	if (g_use_pure_alloc)
; 103  : 	{
; 104  : 		//free(P);
; 105  : 		_aligned_free(P);

	call	QWORD PTR __imp__aligned_free
$LN498@Erase_tree:
; File C:\Program Files\Microsoft Visual Studio\2022\Community\VC\Tools\MSVC\14.35.32215\include\xtree

; 745  :         while (!_Rootnode->_Isnil) { // free subtrees, then node

	cmp	BYTE PTR [rbx+25], 0
	je	SHORT $LL2@Erase_tree
$LN3@Erase_tree:

; 747  :             _Alnode::value_type::_Freenode(_Al, _STD exchange(_Rootnode, _Rootnode->_Left));
; 748  :         }
; 749  :     }

	mov	rbx, QWORD PTR [rsp+48]
	mov	rsi, QWORD PTR [rsp+56]
	add	rsp, 32					; 00000020H
	pop	rdi
	ret	0
??$_Erase_tree@V?$xalloc@U?$_Tree_node@U?$pair@$$CBI_N@std@@PEAX@std@@@@@?$_Tree_val@U?$_Tree_simple_types@U?$pair@$$CBI_N@std@@@std@@@std@@QEAAXAEAV?$xalloc@U?$_Tree_node@U?$pair@$$CBI_N@std@@PEAX@std@@@@PEAU?$_Tree_node@U?$pair@$$CBI_N@std@@PEAX@1@@Z ENDP ; std::_Tree_val<std::_Tree_simple_types<std::pair<unsigned int const ,bool> > >::_Erase_tree<xalloc<std::_Tree_node<std::pair<unsigned int const ,bool>,void *> > >
_TEXT	ENDS
; Function compile flags: /Ogtpy
; File C:\Program Files\Microsoft Visual Studio\2022\Community\VC\Tools\MSVC\14.35.32215\include\xtree
; File C:\Users\Mahito\Desktop\Night outing\Night-outing\src\xrCore\xrMemory.h
; File C:\Users\Mahito\Desktop\Night outing\Night-outing\src\xrCore\xrMemory_subst_msvc.cpp
; File C:\Program Files\Microsoft Visual Studio\2022\Community\VC\Tools\MSVC\14.35.32215\include\xtree
;	COMDAT ??$_Freenode0@V?$xalloc@U?$_Tree_node@U?$pair@$$CBI_N@std@@PEAX@std@@@@@?$_Tree_node@U?$pair@$$CBI_N@std@@PEAX@std@@SAXAEAV?$xalloc@U?$_Tree_node@U?$pair@$$CBI_N@std@@PEAX@std@@@@PEAU01@@Z
_TEXT	SEGMENT
_Al$dead$ = 8
_Ptr$ = 16
??$_Freenode0@V?$xalloc@U?$_Tree_node@U?$pair@$$CBI_N@std@@PEAX@std@@@@@?$_Tree_node@U?$pair@$$CBI_N@std@@PEAX@std@@SAXAEAV?$xalloc@U?$_Tree_node@U?$pair@$$CBI_N@std@@PEAX@std@@@@PEAU01@@Z PROC ; std::_Tree_node<std::pair<unsigned int const ,bool>,void *>::_Freenode0<xalloc<std::_Tree_node<std::pair<unsigned int const ,bool>,void *> > >, COMDAT
; File C:\Users\Mahito\Desktop\Night outing\Night-outing\src\xrCore\xrMemory.h

; 69   : 	if (P)

	test	rdx, rdx
	je	SHORT $LN8@Freenode0
; File C:\Users\Mahito\Desktop\Night outing\Night-outing\src\xrCore\xrMemory_subst_msvc.cpp

; 99   : 	stat_calls++;

	inc	DWORD PTR ?Memory@@3VxrMemory@@A

; 100  : 
; 101  : #ifdef PURE_ALLOC
; 102  : 	if (g_use_pure_alloc)
; 103  : 	{
; 104  : 		//free(P);
; 105  : 		_aligned_free(P);

	mov	rcx, rdx
	rex_jmp	QWORD PTR __imp__aligned_free
$LN8@Freenode0:
; File C:\Program Files\Microsoft Visual Studio\2022\Community\VC\Tools\MSVC\14.35.32215\include\xtree

; 377  :     }

	ret	0
??$_Freenode0@V?$xalloc@U?$_Tree_node@U?$pair@$$CBI_N@std@@PEAX@std@@@@@?$_Tree_node@U?$pair@$$CBI_N@std@@PEAX@std@@SAXAEAV?$xalloc@U?$_Tree_node@U?$pair@$$CBI_N@std@@PEAX@std@@@@PEAU01@@Z ENDP ; std::_Tree_node<std::pair<unsigned int const ,bool>,void *>::_Freenode0<xalloc<std::_Tree_node<std::pair<unsigned int const ,bool>,void *> > >
_TEXT	ENDS
; Function compile flags: /Ogtpy
; File C:\Program Files\Microsoft Visual Studio\2022\Community\VC\Tools\MSVC\14.35.32215\include\type_traits
;	COMDAT ??$forward@AEBU?$less@I@std@@@std@@YAAEBU?$less@I@0@AEBU10@@Z
_TEXT	SEGMENT
_Arg$ = 8
??$forward@AEBU?$less@I@std@@@std@@YAAEBU?$less@I@0@AEBU10@@Z PROC ; std::forward<std::less<unsigned int> const &>, COMDAT

; 1427 :     return static_cast<_Ty&&>(_Arg);

	mov	rax, rcx

; 1428 : }

	ret	0
??$forward@AEBU?$less@I@std@@@std@@YAAEBU?$less@I@0@AEBU10@@Z ENDP ; std::forward<std::less<unsigned int> const &>
_TEXT	ENDS
; Function compile flags: /Ogtpy
; File C:\Program Files\Microsoft Visual Studio\2022\Community\VC\Tools\MSVC\14.35.32215\include\xutility
;	COMDAT ??$_Construct_in_place@PEAU?$_Tree_node@U?$pair@$$CBI_N@std@@PEAX@std@@AEBQEAU12@@std@@YAXAEAPEAU?$_Tree_node@U?$pair@$$CBI_N@std@@PEAX@0@AEBQEAU10@@Z
_TEXT	SEGMENT
_Obj$ = 8
<_Args_0>$ = 16
??$_Construct_in_place@PEAU?$_Tree_node@U?$pair@$$CBI_N@std@@PEAX@std@@AEBQEAU12@@std@@YAXAEAPEAU?$_Tree_node@U?$pair@$$CBI_N@std@@PEAX@0@AEBQEAU10@@Z PROC ; std::_Construct_in_place<std::_Tree_node<std::pair<unsigned int const ,bool>,void *> *,std::_Tree_node<std::pair<unsigned int const ,bool>,void *> * const &>, COMDAT

; 269  : #if _HAS_CXX20
; 270  :     if (_STD is_constant_evaluated()) {
; 271  :         _STD construct_at(_STD addressof(_Obj), _STD forward<_Types>(_Args)...);
; 272  :     } else
; 273  : #endif // _HAS_CXX20
; 274  :     {
; 275  :         ::new (_Voidify_iter(_STD addressof(_Obj))) _Ty(_STD forward<_Types>(_Args)...);

	mov	rax, QWORD PTR [rdx]
	mov	QWORD PTR [rcx], rax

; 276  :     }
; 277  : }

	ret	0
??$_Construct_in_place@PEAU?$_Tree_node@U?$pair@$$CBI_N@std@@PEAX@std@@AEBQEAU12@@std@@YAXAEAPEAU?$_Tree_node@U?$pair@$$CBI_N@std@@PEAX@0@AEBQEAU10@@Z ENDP ; std::_Construct_in_place<std::_Tree_node<std::pair<unsigned int const ,bool>,void *> *,std::_Tree_node<std::pair<unsigned int const ,bool>,void *> * const &>
_TEXT	ENDS
; Function compile flags: /Ogtpy
; File C:\Program Files\Microsoft Visual Studio\2022\Community\VC\Tools\MSVC\14.35.32215\include\xmemory
;	COMDAT ??$_Destroy_in_place@PEAU?$_Tree_node@U?$pair@$$CBI_N@std@@PEAX@std@@@std@@YAXAEAPEAU?$_Tree_node@U?$pair@$$CBI_N@std@@PEAX@0@@Z
_TEXT	SEGMENT
_Obj$dead$ = 8
??$_Destroy_in_place@PEAU?$_Tree_node@U?$pair@$$CBI_N@std@@PEAX@std@@@std@@YAXAEAPEAU?$_Tree_node@U?$pair@$$CBI_N@std@@PEAX@0@@Z PROC ; std::_Destroy_in_place<std::_Tree_node<std::pair<unsigned int const ,bool>,void *> *>, COMDAT

; 295  :     if constexpr (is_array_v<_Ty>) {
; 296  :         _Destroy_range(_Obj, _Obj + extent_v<_Ty>);
; 297  :     } else {
; 298  :         _Obj.~_Ty();
; 299  :     }
; 300  : }

	ret	0
??$_Destroy_in_place@PEAU?$_Tree_node@U?$pair@$$CBI_N@std@@PEAX@std@@@std@@YAXAEAPEAU?$_Tree_node@U?$pair@$$CBI_N@std@@PEAX@0@@Z ENDP ; std::_Destroy_in_place<std::_Tree_node<std::pair<unsigned int const ,bool>,void *> *>
_TEXT	ENDS
; Function compile flags: /Ogtpy
; File C:\Program Files\Microsoft Visual Studio\2022\Community\VC\Tools\MSVC\14.35.32215\include\xstddef
;	COMDAT ??$addressof@U?$pair@$$CBI_N@std@@@std@@YAPEAU?$pair@$$CBI_N@0@AEAU10@@Z
_TEXT	SEGMENT
_Val$ = 8
??$addressof@U?$pair@$$CBI_N@std@@@std@@YAPEAU?$pair@$$CBI_N@0@AEAU10@@Z PROC ; std::addressof<std::pair<unsigned int const ,bool> >, COMDAT

; 281  :     return __builtin_addressof(_Val);

	mov	rax, rcx

; 282  : }

	ret	0
??$addressof@U?$pair@$$CBI_N@std@@@std@@YAPEAU?$pair@$$CBI_N@0@AEAU10@@Z ENDP ; std::addressof<std::pair<unsigned int const ,bool> >
_TEXT	ENDS
; Function compile flags: /Ogtpy
; File C:\Program Files\Microsoft Visual Studio\2022\Community\VC\Tools\MSVC\14.35.32215\include\xmemory
;	COMDAT ??$destroy@U?$pair@$$CBI_N@std@@@?$_Normal_allocator_traits@V?$xalloc@U?$_Tree_node@U?$pair@$$CBI_N@std@@PEAX@std@@@@@std@@SAXAEAV?$xalloc@U?$_Tree_node@U?$pair@$$CBI_N@std@@PEAX@std@@@@PEAU?$pair@$$CBI_N@1@@Z
_TEXT	SEGMENT
_Al$dead$ = 8
_Ptr$dead$ = 16
??$destroy@U?$pair@$$CBI_N@std@@@?$_Normal_allocator_traits@V?$xalloc@U?$_Tree_node@U?$pair@$$CBI_N@std@@PEAX@std@@@@@std@@SAXAEAV?$xalloc@U?$_Tree_node@U?$pair@$$CBI_N@std@@PEAX@std@@@@PEAU?$pair@$$CBI_N@1@@Z PROC ; std::_Normal_allocator_traits<xalloc<std::_Tree_node<std::pair<unsigned int const ,bool>,void *> > >::destroy<std::pair<unsigned int const ,bool> >, COMDAT

; 578  :         if constexpr (_Uses_default_destroy<_Alloc, _Ty*>::value) {
; 579  : #if _HAS_CXX20
; 580  :             _STD destroy_at(_Ptr);
; 581  : #else // _HAS_CXX20
; 582  :             _Ptr->~_Ty();
; 583  : #endif // _HAS_CXX20
; 584  :         } else {
; 585  :             _Al.destroy(_Ptr);
; 586  :         }
; 587  :     }

	ret	0
??$destroy@U?$pair@$$CBI_N@std@@@?$_Normal_allocator_traits@V?$xalloc@U?$_Tree_node@U?$pair@$$CBI_N@std@@PEAX@std@@@@@std@@SAXAEAV?$xalloc@U?$_Tree_node@U?$pair@$$CBI_N@std@@PEAX@std@@@@PEAU?$pair@$$CBI_N@1@@Z ENDP ; std::_Normal_allocator_traits<xalloc<std::_Tree_node<std::pair<unsigned int const ,bool>,void *> > >::destroy<std::pair<unsigned int const ,bool> >
_TEXT	ENDS
; Function compile flags: /Ogtpy
; File C:\Program Files\Microsoft Visual Studio\2022\Community\VC\Tools\MSVC\14.35.32215\include\utility
;	COMDAT ??$exchange@PEAU?$_Tree_node@U?$pair@$$CBI_N@std@@PEAX@std@@$$T@std@@YAPEAU?$_Tree_node@U?$pair@$$CBI_N@std@@PEAX@0@AEAPEAU10@$$QEA$$T@Z
_TEXT	SEGMENT
_Val$ = 8
_New_val$ = 16
??$exchange@PEAU?$_Tree_node@U?$pair@$$CBI_N@std@@PEAX@std@@$$T@std@@YAPEAU?$_Tree_node@U?$pair@$$CBI_N@std@@PEAX@0@AEAPEAU10@$$QEA$$T@Z PROC ; std::exchange<std::_Tree_node<std::pair<unsigned int const ,bool>,void *> *,std::nullptr_t>, COMDAT

; 653  :     // assign _New_val to _Val, return previous _Val
; 654  :     _Ty _Old_val = static_cast<_Ty&&>(_Val);
; 655  :     _Val         = static_cast<_Other&&>(_New_val);

	mov	rdx, QWORD PTR [rdx]
	mov	rax, QWORD PTR [rcx]
	mov	QWORD PTR [rcx], rdx

; 656  :     return _Old_val;
; 657  : }

	ret	0
??$exchange@PEAU?$_Tree_node@U?$pair@$$CBI_N@std@@PEAX@std@@$$T@std@@YAPEAU?$_Tree_node@U?$pair@$$CBI_N@std@@PEAX@0@AEAPEAU10@$$QEA$$T@Z ENDP ; std::exchange<std::_Tree_node<std::pair<unsigned int const ,bool>,void *> *,std::nullptr_t>
_TEXT	ENDS
; Function compile flags: /Ogtpy
; File C:\Users\Mahito\Desktop\Night outing\Night-outing\src\xrCore\xrMemory.h
; File C:\Users\Mahito\Desktop\Night outing\Night-outing\src\xrCore\xrMemory_subst_msvc.cpp
; File C:\Users\Mahito\Desktop\Night outing\Night-outing\src\xrCore\xrMemory.h
;	COMDAT ??$xr_alloc@U?$_Tree_node@U?$pair@$$CBI_N@std@@PEAX@std@@@@YAPEAU?$_Tree_node@U?$pair@$$CBI_N@std@@PEAX@std@@I@Z
_TEXT	SEGMENT
count$dead$ = 48
??$xr_alloc@U?$_Tree_node@U?$pair@$$CBI_N@std@@PEAX@std@@@@YAPEAU?$_Tree_node@U?$pair@$$CBI_N@std@@PEAX@std@@I@Z PROC ; xr_alloc<std::_Tree_node<std::pair<unsigned int const ,bool>,void *> >, COMDAT

; 64   : IC T* xr_alloc(u32 count) { return (T*)Memory.mem_alloc(count * sizeof(T)); }

$LN34:
	sub	rsp, 40					; 00000028H
; File C:\Users\Mahito\Desktop\Night outing\Night-outing\src\xrCore\xrMemory_subst_msvc.cpp

; 39   : 	stat_calls++;

	inc	DWORD PTR ?Memory@@3VxrMemory@@A

; 40   : 
; 41   : #ifdef PURE_ALLOC
; 42   : 	if (g_use_pure_alloc)
; 43   : 	{
; 44   : 		//void* result = malloc(size);
; 45   : 		void* result = _aligned_malloc(size, PURE_MEMORY_ALIGNMENT);

	mov	edx, 16
	lea	ecx, QWORD PTR [rdx+24]
	call	QWORD PTR __imp__aligned_malloc

; 46   : #ifdef PURE_MEMORY_FILL_ZERO
; 47   : 		if (result)

	test	rax, rax
	je	SHORT $LN32@xr_alloc
	vpxor	xmm0, xmm0, xmm0

; 48   : 			memset(result, 0, size);

	xor	ecx, ecx
	vmovups	YMMWORD PTR [rax], ymm0
	mov	QWORD PTR [rax+32], rcx
$LN32@xr_alloc:
; File C:\Users\Mahito\Desktop\Night outing\Night-outing\src\xrCore\xrMemory.h

; 64   : IC T* xr_alloc(u32 count) { return (T*)Memory.mem_alloc(count * sizeof(T)); }

	vzeroupper
	add	rsp, 40					; 00000028H
	ret	0
??$xr_alloc@U?$_Tree_node@U?$pair@$$CBI_N@std@@PEAX@std@@@@YAPEAU?$_Tree_node@U?$pair@$$CBI_N@std@@PEAX@std@@I@Z ENDP ; xr_alloc<std::_Tree_node<std::pair<unsigned int const ,bool>,void *> >
_TEXT	ENDS
; Function compile flags: /Ogtpy
; File C:\Users\Mahito\Desktop\Night outing\Night-outing\src\xrCore\xrMemory.h
; File C:\Users\Mahito\Desktop\Night outing\Night-outing\src\xrCore\xrMemory_subst_msvc.cpp
; File C:\Users\Mahito\Desktop\Night outing\Night-outing\src\xrCore\xrMemory.h
;	COMDAT ??$xr_free@U?$_Tree_node@U?$pair@$$CBI_N@std@@PEAX@std@@@@YAXAEAPEAU?$_Tree_node@U?$pair@$$CBI_N@std@@PEAX@std@@@Z
_TEXT	SEGMENT
P$ = 48
??$xr_free@U?$_Tree_node@U?$pair@$$CBI_N@std@@PEAX@std@@@@YAXAEAPEAU?$_Tree_node@U?$pair@$$CBI_N@std@@PEAX@std@@@Z PROC ; xr_free<std::_Tree_node<std::pair<unsigned int const ,bool>,void *> >, COMDAT

; 68   : {

$LN24:
	push	rbx
	sub	rsp, 32					; 00000020H
	mov	rbx, rcx

; 69   : 	if (P)

	mov	rcx, QWORD PTR [rcx]
	test	rcx, rcx
	je	SHORT $LN2@xr_free
; File C:\Users\Mahito\Desktop\Night outing\Night-outing\src\xrCore\xrMemory_subst_msvc.cpp

; 99   : 	stat_calls++;

	inc	DWORD PTR ?Memory@@3VxrMemory@@A

; 100  : 
; 101  : #ifdef PURE_ALLOC
; 102  : 	if (g_use_pure_alloc)
; 103  : 	{
; 104  : 		//free(P);
; 105  : 		_aligned_free(P);

	call	QWORD PTR __imp__aligned_free
; File C:\Users\Mahito\Desktop\Night outing\Night-outing\src\xrCore\xrMemory.h

; 72   : 		P = NULL;

	mov	QWORD PTR [rbx], 0
$LN2@xr_free:

; 73   : 	};
; 74   : }

	add	rsp, 32					; 00000020H
	pop	rbx
	ret	0
??$xr_free@U?$_Tree_node@U?$pair@$$CBI_N@std@@PEAX@std@@@@YAXAEAPEAU?$_Tree_node@U?$pair@$$CBI_N@std@@PEAX@std@@@Z ENDP ; xr_free<std::_Tree_node<std::pair<unsigned int const ,bool>,void *> >
_TEXT	ENDS
; Function compile flags: /Ogtpy
; File C:\Program Files\Microsoft Visual Studio\2022\Community\VC\Tools\MSVC\14.35.32215\include\xtree
; File C:\Program Files\Microsoft Visual Studio\2022\Community\VC\Tools\MSVC\14.35.32215\include\xmemory
; File C:\Program Files\Microsoft Visual Studio\2022\Community\VC\Tools\MSVC\14.35.32215\include\xtree
; File C:\Program Files\Microsoft Visual Studio\2022\Community\VC\Tools\MSVC\14.35.32215\include\xmemory
; File C:\Users\Mahito\Desktop\Night outing\Night-outing\src\xrCore\xrMemory_subst_msvc.cpp
; File C:\Program Files\Microsoft Visual Studio\2022\Community\VC\Tools\MSVC\14.35.32215\include\xtree
;	COMDAT ??0?$_Tree_temp_node_alloc@V?$xalloc@U?$_Tree_node@U?$pair@$$CBI_N@std@@PEAX@std@@@@@std@@QEAA@AEAV?$xalloc@U?$_Tree_node@U?$pair@$$CBI_N@std@@PEAX@std@@@@@Z
_TEXT	SEGMENT
this$ = 48
_Al_$ = 56
??0?$_Tree_temp_node_alloc@V?$xalloc@U?$_Tree_node@U?$pair@$$CBI_N@std@@PEAX@std@@@@@std@@QEAA@AEAV?$xalloc@U?$_Tree_node@U?$pair@$$CBI_N@std@@PEAX@std@@@@@Z PROC ; std::_Tree_temp_node_alloc<xalloc<std::_Tree_node<std::pair<unsigned int const ,bool>,void *> > >::_Tree_temp_node_alloc<xalloc<std::_Tree_node<std::pair<unsigned int const ,bool>,void *> > >, COMDAT

; 785  :     explicit _Tree_temp_node_alloc(_Alnode& _Al_) : _Alloc_construct_ptr<_Alnode>(_Al_) {

$LN49:
	push	rbx
	sub	rsp, 32					; 00000020H
; File C:\Program Files\Microsoft Visual Studio\2022\Community\VC\Tools\MSVC\14.35.32215\include\xmemory

; 1004 :     _CONSTEXPR20 explicit _Alloc_construct_ptr(_Alloc& _Al_) : _Al(_Al_), _Ptr(nullptr) {}

	mov	QWORD PTR [rcx], rdx
; File C:\Program Files\Microsoft Visual Studio\2022\Community\VC\Tools\MSVC\14.35.32215\include\xtree

; 785  :     explicit _Tree_temp_node_alloc(_Alnode& _Al_) : _Alloc_construct_ptr<_Alnode>(_Al_) {

	mov	rbx, rcx
; File C:\Program Files\Microsoft Visual Studio\2022\Community\VC\Tools\MSVC\14.35.32215\include\xmemory

; 1004 :     _CONSTEXPR20 explicit _Alloc_construct_ptr(_Alloc& _Al_) : _Al(_Al_), _Ptr(nullptr) {}

	mov	QWORD PTR [rcx+8], 0
; File C:\Users\Mahito\Desktop\Night outing\Night-outing\src\xrCore\xrMemory_subst_msvc.cpp

; 45   : 		void* result = _aligned_malloc(size, PURE_MEMORY_ALIGNMENT);

	mov	edx, 16
	inc	DWORD PTR ?Memory@@3VxrMemory@@A
	lea	ecx, QWORD PTR [rdx+24]
	call	QWORD PTR __imp__aligned_malloc

; 46   : #ifdef PURE_MEMORY_FILL_ZERO
; 47   : 		if (result)

	mov	QWORD PTR [rbx+8], rax
	test	rax, rax
	je	SHORT $LN46@Tree_temp_
	vpxor	xmm0, xmm0, xmm0

; 48   : 			memset(result, 0, size);

	xor	ecx, ecx
	vmovups	YMMWORD PTR [rax], ymm0
	mov	QWORD PTR [rax+32], rcx
$LN46@Tree_temp_:
; File C:\Program Files\Microsoft Visual Studio\2022\Community\VC\Tools\MSVC\14.35.32215\include\xtree

; 787  :     }

	mov	rax, rbx
	vzeroupper
	add	rsp, 32					; 00000020H
	pop	rbx
	ret	0
??0?$_Tree_temp_node_alloc@V?$xalloc@U?$_Tree_node@U?$pair@$$CBI_N@std@@PEAX@std@@@@@std@@QEAA@AEAV?$xalloc@U?$_Tree_node@U?$pair@$$CBI_N@std@@PEAX@std@@@@@Z ENDP ; std::_Tree_temp_node_alloc<xalloc<std::_Tree_node<std::pair<unsigned int const ,bool>,void *> > >::_Tree_temp_node_alloc<xalloc<std::_Tree_node<std::pair<unsigned int const ,bool>,void *> > >
_TEXT	ENDS
; Function compile flags: /Ogtpy
; File C:\Program Files\Microsoft Visual Studio\2022\Community\VC\Tools\MSVC\14.35.32215\include\xtree
;	COMDAT ??0?$_Tree_val@U?$_Tree_simple_types@U?$pair@$$CBI_N@std@@@std@@@std@@QEAA@XZ
_TEXT	SEGMENT
this$ = 8
??0?$_Tree_val@U?$_Tree_simple_types@U?$pair@$$CBI_N@std@@@std@@@std@@QEAA@XZ PROC ; std::_Tree_val<std::_Tree_simple_types<std::pair<unsigned int const ,bool> > >::_Tree_val<std::_Tree_simple_types<std::pair<unsigned int const ,bool> > >, COMDAT

; 437  :     _Tree_val() noexcept : _Myhead(), _Mysize(0) {}

	xor	eax, eax
	mov	QWORD PTR [rcx], rax
	mov	QWORD PTR [rcx+8], rax
	mov	rax, rcx
	ret	0
??0?$_Tree_val@U?$_Tree_simple_types@U?$pair@$$CBI_N@std@@@std@@@std@@QEAA@XZ ENDP ; std::_Tree_val<std::_Tree_simple_types<std::pair<unsigned int const ,bool> > >::_Tree_val<std::_Tree_simple_types<std::pair<unsigned int const ,bool> > >
_TEXT	ENDS
; Function compile flags: /Ogtpy
; File C:\Program Files\Microsoft Visual Studio\2022\Community\VC\Tools\MSVC\14.35.32215\include\xstddef
;	COMDAT ??R?$less@I@std@@QEBA_NAEBI0@Z
_TEXT	SEGMENT
this$dead$ = 8
_Left$ = 16
_Right$ = 24
??R?$less@I@std@@QEBA_NAEBI0@Z PROC			; std::less<unsigned int>::operator(), COMDAT

; 143  :         return _Left < _Right;

	mov	eax, DWORD PTR [r8]
	cmp	DWORD PTR [rdx], eax
	setb	al

; 144  :     }

	ret	0
??R?$less@I@std@@QEBA_NAEBI0@Z ENDP			; std::less<unsigned int>::operator()
_TEXT	ENDS
; Function compile flags: /Ogtpy
; File C:\Program Files\Microsoft Visual Studio\2022\Community\VC\Tools\MSVC\14.35.32215\include\xtree
;	COMDAT ?_Get_scary@?$_Tree@V?$_Tmap_traits@I_NU?$less@I@std@@V?$xalloc@U?$pair@$$CBI_N@std@@@@$0A@@std@@@std@@IEBAPEBV?$_Tree_val@U?$_Tree_simple_types@U?$pair@$$CBI_N@std@@@std@@@2@XZ
_TEXT	SEGMENT
this$ = 8
?_Get_scary@?$_Tree@V?$_Tmap_traits@I_NU?$less@I@std@@V?$xalloc@U?$pair@$$CBI_N@std@@@@$0A@@std@@@std@@IEBAPEBV?$_Tree_val@U?$_Tree_simple_types@U?$pair@$$CBI_N@std@@@std@@@2@XZ PROC ; std::_Tree<std::_Tmap_traits<unsigned int,bool,std::less<unsigned int>,xalloc<std::pair<unsigned int const ,bool> >,0> >::_Get_scary, COMDAT

; 1971 :         return _STD addressof(_Mypair._Myval2._Myval2);

	mov	rax, rcx

; 1972 :     }

	ret	0
?_Get_scary@?$_Tree@V?$_Tmap_traits@I_NU?$less@I@std@@V?$xalloc@U?$pair@$$CBI_N@std@@@@$0A@@std@@@std@@IEBAPEBV?$_Tree_val@U?$_Tree_simple_types@U?$pair@$$CBI_N@std@@@std@@@2@XZ ENDP ; std::_Tree<std::_Tmap_traits<unsigned int,bool,std::less<unsigned int>,xalloc<std::pair<unsigned int const ,bool> >,0> >::_Get_scary
_TEXT	ENDS
; Function compile flags: /Ogtpy
; File C:\Program Files\Microsoft Visual Studio\2022\Community\VC\Tools\MSVC\14.35.32215\include\xtree
;	COMDAT ?_Getcomp@?$_Tree@V?$_Tmap_traits@I_NU?$less@I@std@@V?$xalloc@U?$pair@$$CBI_N@std@@@@$0A@@std@@@std@@IEBAAEBU?$less@I@2@XZ
_TEXT	SEGMENT
this$ = 8
?_Getcomp@?$_Tree@V?$_Tmap_traits@I_NU?$less@I@std@@V?$xalloc@U?$pair@$$CBI_N@std@@@@$0A@@std@@@std@@IEBAAEBU?$less@I@2@XZ PROC ; std::_Tree<std::_Tmap_traits<unsigned int,bool,std::less<unsigned int>,xalloc<std::pair<unsigned int const ,bool> >,0> >::_Getcomp, COMDAT

; 1955 :         return _Mypair._Get_first();

	mov	rax, rcx

; 1956 :     }

	ret	0
?_Getcomp@?$_Tree@V?$_Tmap_traits@I_NU?$less@I@std@@V?$xalloc@U?$pair@$$CBI_N@std@@@@$0A@@std@@@std@@IEBAAEBU?$less@I@2@XZ ENDP ; std::_Tree<std::_Tmap_traits<unsigned int,bool,std::less<unsigned int>,xalloc<std::pair<unsigned int const ,bool> >,0> >::_Getcomp
_TEXT	ENDS
; Function compile flags: /Ogtpy
; File C:\Program Files\Microsoft Visual Studio\2022\Community\VC\Tools\MSVC\14.35.32215\include\xmemory
; File C:\Users\Mahito\Desktop\Night outing\Night-outing\src\xrCore\xrMemory.h
; File C:\Users\Mahito\Desktop\Night outing\Night-outing\src\xrCore\xrMemory_subst_msvc.cpp
; File C:\Program Files\Microsoft Visual Studio\2022\Community\VC\Tools\MSVC\14.35.32215\include\xmemory
;	COMDAT ?deallocate@?$_Normal_allocator_traits@V?$xalloc@U?$_Tree_node@U?$pair@$$CBI_N@std@@PEAX@std@@@@@std@@SAXAEAV?$xalloc@U?$_Tree_node@U?$pair@$$CBI_N@std@@PEAX@std@@@@PEAU?$_Tree_node@U?$pair@$$CBI_N@std@@PEAX@2@_K@Z
_TEXT	SEGMENT
_Al$dead$ = 8
_Ptr$ = 16
_Count$dead$ = 24
?deallocate@?$_Normal_allocator_traits@V?$xalloc@U?$_Tree_node@U?$pair@$$CBI_N@std@@PEAX@std@@@@@std@@SAXAEAV?$xalloc@U?$_Tree_node@U?$pair@$$CBI_N@std@@PEAX@std@@@@PEAU?$_Tree_node@U?$pair@$$CBI_N@std@@PEAX@2@_K@Z PROC ; std::_Normal_allocator_traits<xalloc<std::_Tree_node<std::pair<unsigned int const ,bool>,void *> > >::deallocate, COMDAT
; File C:\Users\Mahito\Desktop\Night outing\Night-outing\src\xrCore\xrMemory.h

; 69   : 	if (P)

	test	rdx, rdx
	je	SHORT $LN6@deallocate
; File C:\Users\Mahito\Desktop\Night outing\Night-outing\src\xrCore\xrMemory_subst_msvc.cpp

; 99   : 	stat_calls++;

	inc	DWORD PTR ?Memory@@3VxrMemory@@A

; 100  : 
; 101  : #ifdef PURE_ALLOC
; 102  : 	if (g_use_pure_alloc)
; 103  : 	{
; 104  : 		//free(P);
; 105  : 		_aligned_free(P);

	mov	rcx, rdx
	rex_jmp	QWORD PTR __imp__aligned_free
$LN6@deallocate:
; File C:\Program Files\Microsoft Visual Studio\2022\Community\VC\Tools\MSVC\14.35.32215\include\xmemory

; 561  :     }

	ret	0
?deallocate@?$_Normal_allocator_traits@V?$xalloc@U?$_Tree_node@U?$pair@$$CBI_N@std@@PEAX@std@@@@@std@@SAXAEAV?$xalloc@U?$_Tree_node@U?$pair@$$CBI_N@std@@PEAX@std@@@@PEAU?$_Tree_node@U?$pair@$$CBI_N@std@@PEAX@2@_K@Z ENDP ; std::_Normal_allocator_traits<xalloc<std::_Tree_node<std::pair<unsigned int const ,bool>,void *> > >::deallocate
_TEXT	ENDS
; Function compile flags: /Ogtpy
; File C:\Users\Mahito\Desktop\Night outing\Night-outing\src\xrCore\_stl_extensions.h
;	COMDAT ??0?$xalloc@U?$_Tree_node@U?$pair@$$CBI_N@std@@PEAX@std@@@@QEAA@XZ
_TEXT	SEGMENT
this$ = 8
??0?$xalloc@U?$_Tree_node@U?$pair@$$CBI_N@std@@PEAX@std@@@@QEAA@XZ PROC ; xalloc<std::_Tree_node<std::pair<unsigned int const ,bool>,void *> >::xalloc<std::_Tree_node<std::pair<unsigned int const ,bool>,void *> >, COMDAT

; 77   : 													xalloc			()										{	}

	mov	rax, rcx
	ret	0
??0?$xalloc@U?$_Tree_node@U?$pair@$$CBI_N@std@@PEAX@std@@@@QEAA@XZ ENDP ; xalloc<std::_Tree_node<std::pair<unsigned int const ,bool>,void *> >::xalloc<std::_Tree_node<std::pair<unsigned int const ,bool>,void *> >
_TEXT	ENDS
; Function compile flags: /Ogtpy
; File C:\Program Files\Microsoft Visual Studio\2022\Community\VC\Tools\MSVC\14.35.32215\include\xmemory
; File C:\Users\Mahito\Desktop\Night outing\Night-outing\src\xrCore\xrMemory_subst_msvc.cpp
; File C:\Program Files\Microsoft Visual Studio\2022\Community\VC\Tools\MSVC\14.35.32215\include\xmemory
; File C:\Users\Mahito\Desktop\Night outing\Night-outing\src\xrCore\xrMemory_subst_msvc.cpp
; File C:\Program Files\Microsoft Visual Studio\2022\Community\VC\Tools\MSVC\14.35.32215\include\xmemory
;	COMDAT ?_Allocate@?$_Alloc_construct_ptr@V?$xalloc@U?$_Tree_node@U?$pair@$$CBI_N@std@@PEAX@std@@@@@std@@QEAAXXZ
_TEXT	SEGMENT
this$ = 48
?_Allocate@?$_Alloc_construct_ptr@V?$xalloc@U?$_Tree_node@U?$pair@$$CBI_N@std@@PEAX@std@@@@@std@@QEAAXXZ PROC ; std::_Alloc_construct_ptr<xalloc<std::_Tree_node<std::pair<unsigned int const ,bool>,void *> > >::_Allocate, COMDAT

; 1010 :     _CONSTEXPR20 void _Allocate() { // disengage *this, then allocate a new memory block

$LN38:
	push	rbx
	sub	rsp, 32					; 00000020H

; 1011 :         _Ptr = nullptr; // if allocate throws, prevents double-free

	mov	QWORD PTR [rcx+8], 0
; File C:\Users\Mahito\Desktop\Night outing\Night-outing\src\xrCore\xrMemory_subst_msvc.cpp

; 45   : 		void* result = _aligned_malloc(size, PURE_MEMORY_ALIGNMENT);

	mov	edx, 16
	inc	DWORD PTR ?Memory@@3VxrMemory@@A
; File C:\Program Files\Microsoft Visual Studio\2022\Community\VC\Tools\MSVC\14.35.32215\include\xmemory

; 1010 :     _CONSTEXPR20 void _Allocate() { // disengage *this, then allocate a new memory block

	mov	rbx, rcx
; File C:\Users\Mahito\Desktop\Night outing\Night-outing\src\xrCore\xrMemory_subst_msvc.cpp

; 45   : 		void* result = _aligned_malloc(size, PURE_MEMORY_ALIGNMENT);

	lea	ecx, QWORD PTR [rdx+24]
	call	QWORD PTR __imp__aligned_malloc

; 46   : #ifdef PURE_MEMORY_FILL_ZERO
; 47   : 		if (result)

	mov	QWORD PTR [rbx+8], rax
	test	rax, rax
	je	SHORT $LN9@Allocate
	vpxor	xmm0, xmm0, xmm0

; 48   : 			memset(result, 0, size);

	xor	ecx, ecx
	vmovups	YMMWORD PTR [rax], ymm0
	mov	QWORD PTR [rax+32], rcx
$LN9@Allocate:
; File C:\Program Files\Microsoft Visual Studio\2022\Community\VC\Tools\MSVC\14.35.32215\include\xmemory

; 1013 :     }

	vzeroupper
	add	rsp, 32					; 00000020H
	pop	rbx
	ret	0
?_Allocate@?$_Alloc_construct_ptr@V?$xalloc@U?$_Tree_node@U?$pair@$$CBI_N@std@@PEAX@std@@@@@std@@QEAAXXZ ENDP ; std::_Alloc_construct_ptr<xalloc<std::_Tree_node<std::pair<unsigned int const ,bool>,void *> > >::_Allocate
_TEXT	ENDS
; Function compile flags: /Ogtpy
; File C:\Program Files\Microsoft Visual Studio\2022\Community\VC\Tools\MSVC\14.35.32215\include\xmemory
;	COMDAT ??0?$_Alloc_construct_ptr@V?$xalloc@U?$_Tree_node@U?$pair@$$CBI_N@std@@PEAX@std@@@@@std@@QEAA@AEAV?$xalloc@U?$_Tree_node@U?$pair@$$CBI_N@std@@PEAX@std@@@@@Z
_TEXT	SEGMENT
this$ = 8
_Al_$ = 16
??0?$_Alloc_construct_ptr@V?$xalloc@U?$_Tree_node@U?$pair@$$CBI_N@std@@PEAX@std@@@@@std@@QEAA@AEAV?$xalloc@U?$_Tree_node@U?$pair@$$CBI_N@std@@PEAX@std@@@@@Z PROC ; std::_Alloc_construct_ptr<xalloc<std::_Tree_node<std::pair<unsigned int const ,bool>,void *> > >::_Alloc_construct_ptr<xalloc<std::_Tree_node<std::pair<unsigned int const ,bool>,void *> > >, COMDAT

; 1004 :     _CONSTEXPR20 explicit _Alloc_construct_ptr(_Alloc& _Al_) : _Al(_Al_), _Ptr(nullptr) {}

	mov	QWORD PTR [rcx], rdx
	mov	rax, rcx
	mov	QWORD PTR [rcx+8], 0
	ret	0
??0?$_Alloc_construct_ptr@V?$xalloc@U?$_Tree_node@U?$pair@$$CBI_N@std@@PEAX@std@@@@@std@@QEAA@AEAV?$xalloc@U?$_Tree_node@U?$pair@$$CBI_N@std@@PEAX@std@@@@@Z ENDP ; std::_Alloc_construct_ptr<xalloc<std::_Tree_node<std::pair<unsigned int const ,bool>,void *> > >::_Alloc_construct_ptr<xalloc<std::_Tree_node<std::pair<unsigned int const ,bool>,void *> > >
_TEXT	ENDS
; Function compile flags: /Ogtpy
; File C:\Program Files\Microsoft Visual Studio\2022\Community\VC\Tools\MSVC\14.35.32215\include\xmemory
;	COMDAT ?_Get_first@?$_Compressed_pair@U?$less@I@std@@V?$_Compressed_pair@V?$xalloc@U?$_Tree_node@U?$pair@$$CBI_N@std@@PEAX@std@@@@V?$_Tree_val@U?$_Tree_simple_types@U?$pair@$$CBI_N@std@@@std@@@std@@$00@2@$00@std@@QEBAAEBU?$less@I@2@XZ
_TEXT	SEGMENT
this$ = 8
?_Get_first@?$_Compressed_pair@U?$less@I@std@@V?$_Compressed_pair@V?$xalloc@U?$_Tree_node@U?$pair@$$CBI_N@std@@PEAX@std@@@@V?$_Tree_val@U?$_Tree_simple_types@U?$pair@$$CBI_N@std@@@std@@@std@@$00@2@$00@std@@QEBAAEBU?$less@I@2@XZ PROC ; std::_Compressed_pair<std::less<unsigned int>,std::_Compressed_pair<xalloc<std::_Tree_node<std::pair<unsigned int const ,bool>,void *> >,std::_Tree_val<std::_Tree_simple_types<std::pair<unsigned int const ,bool> > >,1>,1>::_Get_first, COMDAT

; 1387 :         return *this;

	mov	rax, rcx

; 1388 :     }

	ret	0
?_Get_first@?$_Compressed_pair@U?$less@I@std@@V?$_Compressed_pair@V?$xalloc@U?$_Tree_node@U?$pair@$$CBI_N@std@@PEAX@std@@@@V?$_Tree_val@U?$_Tree_simple_types@U?$pair@$$CBI_N@std@@@std@@@std@@$00@2@$00@std@@QEBAAEBU?$less@I@2@XZ ENDP ; std::_Compressed_pair<std::less<unsigned int>,std::_Compressed_pair<xalloc<std::_Tree_node<std::pair<unsigned int const ,bool>,void *> >,std::_Tree_val<std::_Tree_simple_types<std::pair<unsigned int const ,bool> > >,1>,1>::_Get_first
_TEXT	ENDS
; Function compile flags: /Ogtpy
; File C:\Program Files\Microsoft Visual Studio\2022\Community\VC\Tools\MSVC\14.35.32215\include\map
;	COMDAT ??$_Kfn@$$CBI_N@?$_Tmap_traits@I_NU?$less@I@std@@V?$xalloc@U?$pair@$$CBI_N@std@@@@$0A@@std@@SAAEBIAEBU?$pair@$$CBI_N@1@@Z
_TEXT	SEGMENT
_Val$ = 8
??$_Kfn@$$CBI_N@?$_Tmap_traits@I_NU?$less@I@std@@V?$xalloc@U?$pair@$$CBI_N@std@@@@$0A@@std@@SAAEBIAEBU?$pair@$$CBI_N@1@@Z PROC ; std::_Tmap_traits<unsigned int,bool,std::less<unsigned int>,xalloc<std::pair<unsigned int const ,bool> >,0>::_Kfn<unsigned int const ,bool>, COMDAT

; 68   :         return _Val.first;

	mov	rax, rcx

; 69   :     }

	ret	0
??$_Kfn@$$CBI_N@?$_Tmap_traits@I_NU?$less@I@std@@V?$xalloc@U?$pair@$$CBI_N@std@@@@$0A@@std@@SAAEBIAEBU?$pair@$$CBI_N@1@@Z ENDP ; std::_Tmap_traits<unsigned int,bool,std::less<unsigned int>,xalloc<std::pair<unsigned int const ,bool> >,0>::_Kfn<unsigned int const ,bool>
_TEXT	ENDS
; Function compile flags: /Ogtpy
; File C:\Program Files\Microsoft Visual Studio\2022\Community\VC\Tools\MSVC\14.35.32215\include\type_traits
;	COMDAT ??$forward@AEBQEAU?$_Tree_node@U?$pair@$$CBI_N@std@@PEAX@std@@@std@@YAAEBQEAU?$_Tree_node@U?$pair@$$CBI_N@std@@PEAX@0@AEBQEAU10@@Z
_TEXT	SEGMENT
_Arg$ = 8
??$forward@AEBQEAU?$_Tree_node@U?$pair@$$CBI_N@std@@PEAX@std@@@std@@YAAEBQEAU?$_Tree_node@U?$pair@$$CBI_N@std@@PEAX@0@AEBQEAU10@@Z PROC ; std::forward<std::_Tree_node<std::pair<unsigned int const ,bool>,void *> * const &>, COMDAT

; 1427 :     return static_cast<_Ty&&>(_Arg);

	mov	rax, rcx

; 1428 : }

	ret	0
??$forward@AEBQEAU?$_Tree_node@U?$pair@$$CBI_N@std@@PEAX@std@@@std@@YAAEBQEAU?$_Tree_node@U?$pair@$$CBI_N@std@@PEAX@0@AEBQEAU10@@Z ENDP ; std::forward<std::_Tree_node<std::pair<unsigned int const ,bool>,void *> * const &>
_TEXT	ENDS
; Function compile flags: /Ogtpy
; File C:\Program Files\Microsoft Visual Studio\2022\Community\VC\Tools\MSVC\14.35.32215\include\tuple
;	COMDAT ??$?0AEBI$0A@@?$tuple@AEBI@std@@QEAA@AEBI@Z
_TEXT	SEGMENT
this$ = 8
_This_arg$ = 16
??$?0AEBI$0A@@?$tuple@AEBI@std@@QEAA@AEBI@Z PROC	; std::tuple<unsigned int const &>::tuple<unsigned int const &><unsigned int const &,0>, COMDAT

; 144  :     constexpr _Tuple_val(_Other&& _Arg) : _Val(_STD forward<_Other>(_Arg)) {}

	mov	QWORD PTR [rcx], rdx

; 277  :         : tuple(_Exact_args_t{}, _This_arg, _Rest_arg...) {}

	mov	rax, rcx
	ret	0
??$?0AEBI$0A@@?$tuple@AEBI@std@@QEAA@AEBI@Z ENDP	; std::tuple<unsigned int const &>::tuple<unsigned int const &><unsigned int const &,0>
_TEXT	ENDS
; Function compile flags: /Ogtpy
; File C:\Program Files\Microsoft Visual Studio\2022\Community\VC\Tools\MSVC\14.35.32215\include\type_traits
;	COMDAT ??$forward@V?$tuple@AEBI@std@@@std@@YA$$QEAV?$tuple@AEBI@0@AEAV10@@Z
_TEXT	SEGMENT
_Arg$ = 8
??$forward@V?$tuple@AEBI@std@@@std@@YA$$QEAV?$tuple@AEBI@0@AEAV10@@Z PROC ; std::forward<std::tuple<unsigned int const &> >, COMDAT

; 1427 :     return static_cast<_Ty&&>(_Arg);

	mov	rax, rcx

; 1428 : }

	ret	0
??$forward@V?$tuple@AEBI@std@@@std@@YA$$QEAV?$tuple@AEBI@0@AEAV10@@Z ENDP ; std::forward<std::tuple<unsigned int const &> >
_TEXT	ENDS
; Function compile flags: /Ogtpy
; File C:\Program Files\Microsoft Visual Studio\2022\Community\VC\Tools\MSVC\14.35.32215\include\xmemory
; File C:\Program Files\Microsoft Visual Studio\2022\Community\VC\Tools\MSVC\14.35.32215\include\tuple
; File C:\Program Files\Microsoft Visual Studio\2022\Community\VC\Tools\MSVC\14.35.32215\include\utility
; File C:\Program Files\Microsoft Visual Studio\2022\Community\VC\Tools\MSVC\14.35.32215\include\xmemory
;	COMDAT ??$construct@U?$pair@$$CBI_N@std@@AEBUpiecewise_construct_t@2@V?$tuple@AEBI@2@V?$tuple@$$V@2@@?$_Normal_allocator_traits@V?$xalloc@U?$_Tree_node@U?$pair@$$CBI_N@std@@PEAX@std@@@@@std@@SAXAEAV?$xalloc@U?$_Tree_node@U?$pair@$$CBI_N@std@@PEAX@std@@@@PEAU?$pair@$$CBI_N@1@AEBUpiecewise_construct_t@1@$$QEAV?$tuple@AEBI@1@$$QEAV?$tuple@$$V@1@@Z
_TEXT	SEGMENT
_Al$dead$ = 8
_Ptr$ = 16
<_Args_0>$dead$ = 24
<_Args_1>$ = 32
<_Args_2>$dead$ = 40
??$construct@U?$pair@$$CBI_N@std@@AEBUpiecewise_construct_t@2@V?$tuple@AEBI@2@V?$tuple@$$V@2@@?$_Normal_allocator_traits@V?$xalloc@U?$_Tree_node@U?$pair@$$CBI_N@std@@PEAX@std@@@@@std@@SAXAEAV?$xalloc@U?$_Tree_node@U?$pair@$$CBI_N@std@@PEAX@std@@@@PEAU?$pair@$$CBI_N@1@AEBUpiecewise_construct_t@1@$$QEAV?$tuple@AEBI@1@$$QEAV?$tuple@$$V@1@@Z PROC ; std::_Normal_allocator_traits<xalloc<std::_Tree_node<std::pair<unsigned int const ,bool>,void *> > >::construct<std::pair<unsigned int const ,bool>,std::piecewise_construct_t const &,std::tuple<unsigned int const &>,std::tuple<> >, COMDAT
; File C:\Program Files\Microsoft Visual Studio\2022\Community\VC\Tools\MSVC\14.35.32215\include\tuple

; 288  :     tuple(tuple&&)      = default;

	mov	rax, QWORD PTR [r9]
; File C:\Program Files\Microsoft Visual Studio\2022\Community\VC\Tools\MSVC\14.35.32215\include\utility

; 214  :         : first(_Tuple_get<_Indexes1>(_STD move(_Val1))...), second(_Tuple_get<_Indexes2>(_STD move(_Val2))...) {}

	mov	ecx, DWORD PTR [rax]
	mov	DWORD PTR [rdx], ecx
	mov	BYTE PTR [rdx+4], 0
; File C:\Program Files\Microsoft Visual Studio\2022\Community\VC\Tools\MSVC\14.35.32215\include\xmemory

; 574  :     }

	ret	0
??$construct@U?$pair@$$CBI_N@std@@AEBUpiecewise_construct_t@2@V?$tuple@AEBI@2@V?$tuple@$$V@2@@?$_Normal_allocator_traits@V?$xalloc@U?$_Tree_node@U?$pair@$$CBI_N@std@@PEAX@std@@@@@std@@SAXAEAV?$xalloc@U?$_Tree_node@U?$pair@$$CBI_N@std@@PEAX@std@@@@PEAU?$pair@$$CBI_N@1@AEBUpiecewise_construct_t@1@$$QEAV?$tuple@AEBI@1@$$QEAV?$tuple@$$V@1@@Z ENDP ; std::_Normal_allocator_traits<xalloc<std::_Tree_node<std::pair<unsigned int const ,bool>,void *> > >::construct<std::pair<unsigned int const ,bool>,std::piecewise_construct_t const &,std::tuple<unsigned int const &>,std::tuple<> >
_TEXT	ENDS
; Function compile flags: /Ogtpy
; File C:\Program Files\Microsoft Visual Studio\2022\Community\VC\Tools\MSVC\14.35.32215\include\xutility
;	COMDAT ??$_Construct_in_place@PEAU?$_Tree_node@U?$pair@$$CBI_N@std@@PEAX@std@@AEAPEAU12@@std@@YAXAEAPEAU?$_Tree_node@U?$pair@$$CBI_N@std@@PEAX@0@0@Z
_TEXT	SEGMENT
_Obj$ = 8
<_Args_0>$ = 16
??$_Construct_in_place@PEAU?$_Tree_node@U?$pair@$$CBI_N@std@@PEAX@std@@AEAPEAU12@@std@@YAXAEAPEAU?$_Tree_node@U?$pair@$$CBI_N@std@@PEAX@0@0@Z PROC ; std::_Construct_in_place<std::_Tree_node<std::pair<unsigned int const ,bool>,void *> *,std::_Tree_node<std::pair<unsigned int const ,bool>,void *> * &>, COMDAT

; 269  : #if _HAS_CXX20
; 270  :     if (_STD is_constant_evaluated()) {
; 271  :         _STD construct_at(_STD addressof(_Obj), _STD forward<_Types>(_Args)...);
; 272  :     } else
; 273  : #endif // _HAS_CXX20
; 274  :     {
; 275  :         ::new (_Voidify_iter(_STD addressof(_Obj))) _Ty(_STD forward<_Types>(_Args)...);

	mov	rax, QWORD PTR [rdx]
	mov	QWORD PTR [rcx], rax

; 276  :     }
; 277  : }

	ret	0
??$_Construct_in_place@PEAU?$_Tree_node@U?$pair@$$CBI_N@std@@PEAX@std@@AEAPEAU12@@std@@YAXAEAPEAU?$_Tree_node@U?$pair@$$CBI_N@std@@PEAX@0@0@Z ENDP ; std::_Construct_in_place<std::_Tree_node<std::pair<unsigned int const ,bool>,void *> *,std::_Tree_node<std::pair<unsigned int const ,bool>,void *> * &>
_TEXT	ENDS
; Function compile flags: /Ogtpy
; File C:\Program Files\Microsoft Visual Studio\2022\Community\VC\Tools\MSVC\14.35.32215\include\type_traits
;	COMDAT ??$forward@PEAU?$_Tree_node@U?$pair@$$CBI_N@std@@PEAX@std@@@std@@YA$$QEAPEAU?$_Tree_node@U?$pair@$$CBI_N@std@@PEAX@0@AEAPEAU10@@Z
_TEXT	SEGMENT
_Arg$ = 8
??$forward@PEAU?$_Tree_node@U?$pair@$$CBI_N@std@@PEAX@std@@@std@@YA$$QEAPEAU?$_Tree_node@U?$pair@$$CBI_N@std@@PEAX@0@AEAPEAU10@@Z PROC ; std::forward<std::_Tree_node<std::pair<unsigned int const ,bool>,void *> *>, COMDAT

; 1427 :     return static_cast<_Ty&&>(_Arg);

	mov	rax, rcx

; 1428 : }

	ret	0
??$forward@PEAU?$_Tree_node@U?$pair@$$CBI_N@std@@PEAX@std@@@std@@YA$$QEAPEAU?$_Tree_node@U?$pair@$$CBI_N@std@@PEAX@0@AEAPEAU10@@Z ENDP ; std::forward<std::_Tree_node<std::pair<unsigned int const ,bool>,void *> *>
_TEXT	ENDS
; Function compile flags: /Ogtpy
; File C:\Program Files\Microsoft Visual Studio\2022\Community\VC\Tools\MSVC\14.35.32215\include\utility
;	COMDAT ??$exchange@PEAU?$_Tree_node@U?$pair@$$CBI_N@std@@PEAX@std@@AEAPEAU12@@std@@YAPEAU?$_Tree_node@U?$pair@$$CBI_N@std@@PEAX@0@AEAPEAU10@0@Z
_TEXT	SEGMENT
_Val$ = 8
_New_val$ = 16
??$exchange@PEAU?$_Tree_node@U?$pair@$$CBI_N@std@@PEAX@std@@AEAPEAU12@@std@@YAPEAU?$_Tree_node@U?$pair@$$CBI_N@std@@PEAX@0@AEAPEAU10@0@Z PROC ; std::exchange<std::_Tree_node<std::pair<unsigned int const ,bool>,void *> *,std::_Tree_node<std::pair<unsigned int const ,bool>,void *> * &>, COMDAT

; 653  :     // assign _New_val to _Val, return previous _Val
; 654  :     _Ty _Old_val = static_cast<_Ty&&>(_Val);
; 655  :     _Val         = static_cast<_Other&&>(_New_val);

	mov	rdx, QWORD PTR [rdx]
	mov	rax, QWORD PTR [rcx]
	mov	QWORD PTR [rcx], rdx

; 656  :     return _Old_val;
; 657  : }

	ret	0
??$exchange@PEAU?$_Tree_node@U?$pair@$$CBI_N@std@@PEAX@std@@AEAPEAU12@@std@@YAPEAU?$_Tree_node@U?$pair@$$CBI_N@std@@PEAX@0@AEAPEAU10@0@Z ENDP ; std::exchange<std::_Tree_node<std::pair<unsigned int const ,bool>,void *> *,std::_Tree_node<std::pair<unsigned int const ,bool>,void *> * &>
_TEXT	ENDS
; Function compile flags: /Ogtpy
; File C:\Program Files\Microsoft Visual Studio\2022\Community\VC\Tools\MSVC\14.35.32215\include\xtree
; File C:\Users\Mahito\Desktop\Night outing\Night-outing\src\xrCore\xrMemory.h
; File C:\Users\Mahito\Desktop\Night outing\Night-outing\src\xrCore\xrMemory_subst_msvc.cpp
; File C:\Program Files\Microsoft Visual Studio\2022\Community\VC\Tools\MSVC\14.35.32215\include\xtree
;	COMDAT ??$_Freenode@V?$xalloc@U?$_Tree_node@U?$pair@$$CBI_N@std@@PEAX@std@@@@@?$_Tree_node@U?$pair@$$CBI_N@std@@PEAX@std@@SAXAEAV?$xalloc@U?$_Tree_node@U?$pair@$$CBI_N@std@@PEAX@std@@@@PEAU01@@Z
_TEXT	SEGMENT
_Al$dead$ = 8
_Ptr$ = 16
??$_Freenode@V?$xalloc@U?$_Tree_node@U?$pair@$$CBI_N@std@@PEAX@std@@@@@?$_Tree_node@U?$pair@$$CBI_N@std@@PEAX@std@@SAXAEAV?$xalloc@U?$_Tree_node@U?$pair@$$CBI_N@std@@PEAX@std@@@@PEAU01@@Z PROC ; std::_Tree_node<std::pair<unsigned int const ,bool>,void *>::_Freenode<xalloc<std::_Tree_node<std::pair<unsigned int const ,bool>,void *> > >, COMDAT
; File C:\Users\Mahito\Desktop\Night outing\Night-outing\src\xrCore\xrMemory.h

; 69   : 	if (P)

	test	rdx, rdx
	je	SHORT $LN10@Freenode
; File C:\Users\Mahito\Desktop\Night outing\Night-outing\src\xrCore\xrMemory_subst_msvc.cpp

; 99   : 	stat_calls++;

	inc	DWORD PTR ?Memory@@3VxrMemory@@A

; 100  : 
; 101  : #ifdef PURE_ALLOC
; 102  : 	if (g_use_pure_alloc)
; 103  : 	{
; 104  : 		//free(P);
; 105  : 		_aligned_free(P);

	mov	rcx, rdx
	rex_jmp	QWORD PTR __imp__aligned_free
$LN10@Freenode:
; File C:\Program Files\Microsoft Visual Studio\2022\Community\VC\Tools\MSVC\14.35.32215\include\xtree

; 384  :     }

	ret	0
