; Listing generated by Microsoft (R) Optimizing Compiler Version 19.35.32217.1 

include listing.inc

INCLUDELIB OLDNAMES

EXTRN	__imp_GetVersionExA:PROC
PUBLIC	GetLoadedModules
pdata	SEGMENT
$pdata$GetLoadedModules DD imagerel $LN42
	DD	imagerel $LN42+153
	DD	imagerel $unwind$GetLoadedModules
$pdata$0$GetLoadedModules DD imagerel $LN42+153
	DD	imagerel $LN42+213
	DD	imagerel $chain$0$GetLoadedModules
$pdata$1$GetLoadedModules DD imagerel $LN42+213
	DD	imagerel $LN42+234
	DD	imagerel $chain$1$GetLoadedModules
$pdata$2$GetLoadedModules DD imagerel $LN42+234
	DD	imagerel $LN42+237
	DD	imagerel $chain$2$GetLoadedModules
$pdata$3$GetLoadedModules DD imagerel $LN42+237
	DD	imagerel $LN42+321
	DD	imagerel $chain$3$GetLoadedModules
$pdata$5$GetLoadedModules DD imagerel $LN42+321
	DD	imagerel $LN42+419
	DD	imagerel $chain$5$GetLoadedModules
$pdata$7$GetLoadedModules DD imagerel $LN42+419
	DD	imagerel $LN42+445
	DD	imagerel $chain$7$GetLoadedModules
$pdata$8$GetLoadedModules DD imagerel $LN42+445
	DD	imagerel $LN42+689
	DD	imagerel $chain$8$GetLoadedModules
$pdata$9$GetLoadedModules DD imagerel $LN42+689
	DD	imagerel $LN42+710
	DD	imagerel $chain$9$GetLoadedModules
xdata	SEGMENT
$unwind$GetLoadedModules DD 071101H
	DD	0683411H
	DD	0620111H
	DD	0e008f00aH
	DD	06006H
$chain$0$GetLoadedModules DD 020821H
	DD	0677408H
	DD	imagerel $LN42
	DD	imagerel $LN42+153
	DD	imagerel $unwind$GetLoadedModules
$chain$1$GetLoadedModules DD 021H
	DD	imagerel $LN42
	DD	imagerel $LN42+153
	DD	imagerel $unwind$GetLoadedModules
$chain$2$GetLoadedModules DD 020021H
	DD	0677400H
	DD	imagerel $LN42
	DD	imagerel $LN42+153
	DD	imagerel $unwind$GetLoadedModules
$chain$3$GetLoadedModules DD 020821H
	DD	0665408H
	DD	imagerel $LN42+234
	DD	imagerel $LN42+237
	DD	imagerel $chain$2$GetLoadedModules
$chain$5$GetLoadedModules DD 020021H
	DD	0665400H
	DD	imagerel $LN42+234
	DD	imagerel $LN42+237
	DD	imagerel $chain$2$GetLoadedModules
$chain$7$GetLoadedModules DD 020021H
	DD	0665400H
	DD	imagerel $LN42+234
	DD	imagerel $LN42+237
	DD	imagerel $chain$2$GetLoadedModules
$chain$8$GetLoadedModules DD 021H
	DD	imagerel $LN42+234
	DD	imagerel $LN42+237
	DD	imagerel $chain$2$GetLoadedModules
$chain$9$GetLoadedModules DD 021H
	DD	imagerel $LN42
	DD	imagerel $LN42+153
	DD	imagerel $unwind$GetLoadedModules
; Function compile flags: /Ogtpy
; File C:\Users\Mahito\Desktop\Night outing\Night-outing\src\xrCore\blackbox\GetLoadedModules.cpp
; File C:\Users\Mahito\Desktop\Night outing\Night-outing\src\xrCore\blackbox\NT4ProcessInfo.cpp
; File C:\Users\Mahito\Desktop\Night outing\Night-outing\src\xrCore\blackbox\GetLoadedModules.cpp
; File C:\Users\Mahito\Desktop\Night outing\Night-outing\src\xrCore\blackbox\NT4ProcessInfo.cpp
; File C:\Users\Mahito\Desktop\Night outing\Night-outing\src\xrCore\blackbox\GetLoadedModules.cpp
; File C:\Users\Mahito\Desktop\Night outing\Night-outing\src\xrCore\blackbox\NT4ProcessInfo.cpp
; File C:\Users\Mahito\Desktop\Night outing\Night-outing\src\xrCore\blackbox\GetLoadedModules.cpp
; File C:\Users\Mahito\Desktop\Night outing\Night-outing\src\xrCore\blackbox\NT4ProcessInfo.cpp
; File C:\Users\Mahito\Desktop\Night outing\Night-outing\src\xrCore\blackbox\GetLoadedModules.cpp
; File C:\Users\Mahito\Desktop\Night outing\Night-outing\src\xrCore\blackbox\TLHELPProcessInfo.cpp
; File C:\Users\Mahito\Desktop\Night outing\Night-outing\src\xrCore\blackbox\GetLoadedModules.cpp
; File C:\Users\Mahito\Desktop\Night outing\Night-outing\src\xrCore\blackbox\TLHELPProcessInfo.cpp
; File C:\Users\Mahito\Desktop\Night outing\Night-outing\src\xrCore\blackbox\GetLoadedModules.cpp
; File C:\Users\Mahito\Desktop\Night outing\Night-outing\src\xrCore\blackbox\TLHELPProcessInfo.cpp
; File C:\Users\Mahito\Desktop\Night outing\Night-outing\src\xrCore\blackbox\GetLoadedModules.cpp
_TEXT	SEGMENT
dwTotal$1 = 32
stOSVI$ = 48
stME32$2 = 208
dwPID$ = 816
uiCount$ = 824
paModArray$ = 832
pdwRealCount$ = 840
GetLoadedModules PROC

; 18   : {

$LN42:
	mov	QWORD PTR [rsp+24], rbx
	push	rsi
	push	r14
	push	r15
	sub	rsp, 784				; 00000310H
	mov	esi, edx
	mov	ebx, ecx

; 19   :     // Do the debug checking.
; 20   :     ASSERT ( NULL != pdwRealCount ) ;
; 21   :     ASSERT ( FALSE == IsBadWritePtr ( pdwRealCount , sizeof ( UINT ) ));
; 22   : #ifdef _DEBUG
; 23   :     if ( 0 != uiCount )
; 24   :     {
; 25   :         ASSERT ( NULL != paModArray ) ;
; 26   :         ASSERT ( FALSE == IsBadWritePtr ( paModArray                   ,
; 27   :                                           uiCount *
; 28   :                                                 sizeof ( HMODULE )   ));
; 29   :     }
; 30   : #endif
; 31   : 
; 32   :     // Do the parameter checking for real.  Note that I only check the
; 33   :     // memory in paModArray if uiCount is > 0.  The user can pass zero
; 34   :     // in uiCount if they are just interested in the total to be
; 35   :     // returned so they could dynamically allocate a buffer.
; 36   :     if ( ( TRUE == IsBadWritePtr ( pdwRealCount , sizeof(UINT) ) )    ||

	mov	edx, 4
	mov	rcx, r9
	mov	r14, r9
	mov	r15, r8
	call	QWORD PTR __imp_IsBadWritePtr
	cmp	eax, 1
	je	$LN3@GetLoadedM
	test	esi, esi
	je	SHORT $LN2@GetLoadedM
	mov	edx, esi
	mov	rcx, r15
	shl	rdx, 3
	call	QWORD PTR __imp_IsBadWritePtr
	cmp	eax, 1
	je	$LN3@GetLoadedM
$LN2@GetLoadedM:
	vpxor	xmm0, xmm0, xmm0

; 42   :         return ( FALSE ) ;
; 43   :     }
; 44   : 
; 45   :     // Figure out which OS we are on.
; 46   :     OSVERSIONINFO stOSVI ;
; 47   : 
; 48   :     FillMemory ( &stOSVI ,sizeof ( OSVERSIONINFO ), NULL  ) ;

	vmovups	YMMWORD PTR stOSVI$[rsp+4], ymm0
	vmovups	YMMWORD PTR stOSVI$[rsp+36], ymm0
	vmovups	YMMWORD PTR stOSVI$[rsp+68], ymm0
	vmovups	YMMWORD PTR stOSVI$[rsp+100], ymm0
	vmovups	XMMWORD PTR stOSVI$[rsp+132], xmm0

; 49   :     stOSVI.dwOSVersionInfoSize = sizeof ( OSVERSIONINFO ) ;

	mov	DWORD PTR stOSVI$[rsp], 148		; 00000094H

; 50   : 
; 51   :     BOOL bRet = GetVersionEx ( &stOSVI ) ;

	lea	rcx, QWORD PTR stOSVI$[rsp]
	vzeroupper
	call	QWORD PTR __imp_GetVersionExA

; 52   :     ASSERT ( TRUE == bRet ) ;
; 53   :     if ( FALSE == bRet )

	test	eax, eax
	je	$LN40@GetLoadedM

; 54   :     {
; 55   :         TRACE0 ( "GetVersionEx failed!\n" ) ;
; 56   :         return ( FALSE ) ;
; 57   :     }
; 58   : 
; 59   :     // Check the version and call the appropriate thing.
; 60   :     if ( ( VER_PLATFORM_WIN32_NT == stOSVI.dwPlatformId ) &&

	cmp	DWORD PTR stOSVI$[rsp+16], 2
	mov	QWORD PTR [rsp+824], rdi
	jne	$LN5@GetLoadedM
	cmp	DWORD PTR stOSVI$[rsp+4], 4
	jne	$LN5@GetLoadedM
; File C:\Users\Mahito\Desktop\Night outing\Night-outing\src\xrCore\blackbox\NT4ProcessInfo.cpp

; 136  :     if ( FALSE == InitPSAPI ( ) )

	call	?InitPSAPI@@YAHXZ			; InitPSAPI
	test	eax, eax
	jne	SHORT $LN23@GetLoadedM

; 137  :     {
; 138  :         ASSERT ( !"InitPSAPI failed!" ) ;
; 139  :         SetLastErrorEx ( ERROR_DLL_INIT_FAILED , SLE_ERROR ) ;

	lea	edx, QWORD PTR [rax+1]
	mov	ecx, 1114				; 0000045aH
	call	QWORD PTR __imp_SetLastErrorEx

; 140  :         return ( FALSE ) ;

	xor	edi, edi
$LN22@GetLoadedM:
; File C:\Users\Mahito\Desktop\Night outing\Night-outing\src\xrCore\blackbox\GetLoadedModules.cpp

; 64   :         return ( NT4GetLoadedModules ( dwPID        ,

	mov	eax, edi
	mov	rdi, QWORD PTR [rsp+824]
$LN6@GetLoadedM:

; 73   :                                           uiCount       ,
; 74   :                                           paModArray    ,
; 75   :                                           pdwRealCount   ) ) ;
; 76   :     }
; 77   : }

	mov	rbx, QWORD PTR [rsp+832]
	add	rsp, 784				; 00000310H
	pop	r15
	pop	r14
	pop	rsi
	ret	0
$LN23@GetLoadedM:
; File C:\Users\Mahito\Desktop\Night outing\Night-outing\src\xrCore\blackbox\NT4ProcessInfo.cpp

; 144  :     HANDLE hProc = OpenProcess ( PROCESS_QUERY_INFORMATION |

	mov	r8d, ebx
	mov	QWORD PTR [rsp+816], rbp
	xor	edx, edx
	mov	ecx, 1040				; 00000410H
	call	QWORD PTR __imp_OpenProcess
	mov	rbp, rax

; 145  :                                     PROCESS_VM_READ         ,
; 146  :                                  FALSE                      ,
; 147  :                                  dwPID                       ) ;
; 148  :     ASSERT ( NULL != hProc ) ;
; 149  :     if ( NULL == hProc )

	test	rax, rax
	je	SHORT $LN38@GetLoadedM

; 150  :     {
; 151  :         TRACE1 ( "Unable to OpenProcess on %08X\n" , dwPID ) ;
; 152  :         return ( FALSE ) ;
; 153  :     }
; 154  : 
; 155  :     // Now get the modules for the specified process.
; 156  :     ASSERT ( NULL != g_pEnumProcessModules ) ;
; 157  :     // Because of possible DLL unload order differences, make sure that
; 158  :     // PSAPI.DLL is still loaded in case this function is called during
; 159  :     // shutdown.
; 160  :     ASSERT ( FALSE == IsBadCodePtr ( (FARPROC)g_pEnumProcessModules ) );
; 161  :     if ( TRUE == IsBadCodePtr ( (FARPROC)g_pEnumProcessModules ) )

	mov	rcx, QWORD PTR ?g_pEnumProcessModules@@3P6AHPEAXPEAPEAUHINSTANCE__@@KPEAK@ZEA
	call	QWORD PTR __imp_IsBadCodePtr
	mov	rcx, rbp
	cmp	eax, 1
	jne	SHORT $LN25@GetLoadedM

; 162  :     {
; 163  :         TRACE0 ( "PSAPI.DLL has been unloaded on us!\n" ) ;
; 164  : 
; 165  :         // Close the process handle used.
; 166  :         VERIFY ( CloseHandle ( hProc ) ) ;

	call	QWORD PTR __imp_CloseHandle

; 167  : 
; 168  :         SetLastErrorEx ( ERROR_INVALID_DLL , SLE_ERROR ) ;

	mov	edx, 1
	mov	ecx, 1154				; 00000482H
	call	QWORD PTR __imp_SetLastErrorEx
$LN38@GetLoadedM:
	mov	rbp, QWORD PTR [rsp+816]

; 169  : 
; 170  :         return ( FALSE ) ;

	xor	edi, edi
; File C:\Users\Mahito\Desktop\Night outing\Night-outing\src\xrCore\blackbox\GetLoadedModules.cpp

; 64   :         return ( NT4GetLoadedModules ( dwPID        ,

	jmp	SHORT $LN22@GetLoadedM
$LN25@GetLoadedM:
; File C:\Users\Mahito\Desktop\Night outing\Night-outing\src\xrCore\blackbox\NT4ProcessInfo.cpp

; 173  :     DWORD dwTotal = 0 ;

	xor	edi, edi

; 174  :     BOOL bRet = g_pEnumProcessModules ( hProc                        ,

	lea	r8d, DWORD PTR [rsi*8]
	lea	r9, QWORD PTR dwTotal$1[rsp]
	mov	DWORD PTR dwTotal$1[rsp], edi
	mov	rdx, r15
	call	QWORD PTR ?g_pEnumProcessModules@@3P6AHPEAXPEAPEAUHINSTANCE__@@KPEAK@ZEA

; 175  :                                         paModArray                   ,
; 176  :                                         uiCount * sizeof ( HMODULE ) ,
; 177  :                                         &dwTotal                      );
; 178  : 
; 179  :     // Close the process handle used.
; 180  :     VERIFY ( CloseHandle ( hProc ) ) ;

	mov	rcx, rbp
	mov	ebx, eax
	call	QWORD PTR __imp_CloseHandle

; 181  : 
; 182  :     // Convert the count from bytes to HMODULE values.
; 183  :     *pdwRealCount = dwTotal / sizeof ( HMODULE ) ;

	mov	ecx, DWORD PTR dwTotal$1[rsp]
	mov	eax, ecx
	shr	eax, 3
	mov	DWORD PTR [r14], eax

; 184  : 
; 185  :     // If bRet was FALSE, and the user was not just asking for the
; 186  :     // total, there was a problem.
; 187  :     if ( ( ( FALSE == bRet ) && ( uiCount > 0 ) ) || ( 0 == dwTotal ) )

	test	ebx, ebx
	jne	SHORT $LN28@GetLoadedM
	test	esi, esi
	jne	SHORT $LN37@GetLoadedM
$LN28@GetLoadedM:
	test	ecx, ecx
	je	SHORT $LN37@GetLoadedM

; 188  :     {
; 189  :         ASSERT ( !"EnumProcessModules failed!\n" ) ;
; 190  :         return ( FALSE ) ;
; 191  :     }
; 192  : 
; 193  :     // If the total returned in pdwRealCount is larger than the value in
; 194  :     // uiCount, then return an error.  If uiCount is zero, then it is
; 195  :     // not an error.
; 196  :     if ( ( *pdwRealCount > uiCount ) && ( uiCount > 0 ) )

	cmp	eax, esi
	jbe	SHORT $LN29@GetLoadedM
	test	esi, esi
	je	SHORT $LN29@GetLoadedM

; 197  :     {
; 198  :         ASSERT ( !"Buffer is too small in NT4GetLoadedModules!\n" ) ;
; 199  :         SetLastErrorEx ( ERROR_INSUFFICIENT_BUFFER , SLE_ERROR ) ;

	mov	edx, 1
	lea	ecx, QWORD PTR [rdx+121]
	call	QWORD PTR __imp_SetLastErrorEx
	mov	rbp, QWORD PTR [rsp+816]
; File C:\Users\Mahito\Desktop\Night outing\Night-outing\src\xrCore\blackbox\GetLoadedModules.cpp

; 64   :         return ( NT4GetLoadedModules ( dwPID        ,

	jmp	$LN22@GetLoadedM
$LN29@GetLoadedM:
; File C:\Users\Mahito\Desktop\Night outing\Night-outing\src\xrCore\blackbox\NT4ProcessInfo.cpp

; 204  :     SetLastError ( ERROR_SUCCESS ) ;

	xor	ecx, ecx
	call	QWORD PTR __imp_SetLastError

; 205  :     return ( TRUE ) ;

	mov	edi, 1
$LN37@GetLoadedM:
	mov	rbp, QWORD PTR [rsp+816]
; File C:\Users\Mahito\Desktop\Night outing\Night-outing\src\xrCore\blackbox\GetLoadedModules.cpp

; 64   :         return ( NT4GetLoadedModules ( dwPID        ,

	jmp	$LN22@GetLoadedM
$LN5@GetLoadedM:
; File C:\Users\Mahito\Desktop\Night outing\Night-outing\src\xrCore\blackbox\TLHELPProcessInfo.cpp

; 161  :     *pdwRealCount = 0 ;

	xor	edi, edi
	mov	DWORD PTR [r14], edi

; 162  : 
; 163  :     if ( FALSE == InitTOOLHELP32 ( ) )

	call	?InitTOOLHELP32@@YAHXZ			; InitTOOLHELP32
	test	eax, eax
	jne	SHORT $LN12@GetLoadedM

; 164  :     {
; 165  :         ASSERT ( !"InitTOOLHELP32 failed" ) ;
; 166  :         SetLastErrorEx ( ERROR_DLL_INIT_FAILED , SLE_ERROR ) ;

	mov	ecx, 1114				; 0000045aH
; File C:\Users\Mahito\Desktop\Night outing\Night-outing\src\xrCore\blackbox\GetLoadedModules.cpp

; 72   :         return ( TLHELPGetLoadedModules ( dwPID         ,

	lea	edx, QWORD PTR [rdi+1]
	call	QWORD PTR __imp_SetLastErrorEx
	jmp	$LN22@GetLoadedM
$LN12@GetLoadedM:
; File C:\Users\Mahito\Desktop\Night outing\Night-outing\src\xrCore\blackbox\TLHELPProcessInfo.cpp

; 179  :     hModSnap = g_pCreateToolhelp32Snapshot ( TH32CS_SNAPMODULE ,

	mov	edx, ebx
	mov	ecx, 8
	call	QWORD PTR ?g_pCreateToolhelp32Snapshot@@3P6APEAXKK@ZEA
	mov	rbx, rax

; 180  :                                              dwPID              ) ;
; 181  :     ASSERT ( INVALID_HANDLE_VALUE != hModSnap ) ;
; 182  :     if ( INVALID_HANDLE_VALUE == hModSnap )

	cmp	rax, -1
	je	$LN22@GetLoadedM

; 183  :     {
; 184  :         TRACE1 ( "Unable to get module snapshot for %08X\n" , dwPID ) ;
; 185  :         return ( FALSE ) ;
; 186  :     }
; 187  : 
; 188  :     FillMemory ( &stME32 , sizeof ( MODULEENTRY32 ), NULL ) ;

	xor	edx, edx
	lea	rcx, QWORD PTR stME32$2[rsp+4]
	mov	r8d, 564				; 00000234H
	call	memset

; 189  :     stME32.dwSize = sizeof ( MODULEENTRY32 ) ;
; 190  : 
; 191  :     // Start getting the module values.
; 192  :     if ( TRUE == g_pModule32First ( hModSnap , &stME32 ) )

	lea	rdx, QWORD PTR stME32$2[rsp]
	mov	DWORD PTR stME32$2[rsp], 568		; 00000238H
	mov	rcx, rbx
	call	QWORD PTR ?g_pModule32First@@3P6AHPEAXPEAUtagMODULEENTRY32@@@ZEA
	cmp	eax, 1
	jne	SHORT $LN14@GetLoadedM
	npad	2
$LL11@GetLoadedM:

; 193  :     {
; 194  :         do
; 195  :         {
; 196  :             // If uiCount is not zero, copy values.
; 197  :             if ( 0 != uiCount )

	test	esi, esi
	je	SHORT $LN18@GetLoadedM

; 198  :             {
; 199  :                 // If the passed in buffer is to small, set the flag.
; 200  :                 // This is so we match the functionality of the NT4
; 201  :                 // version of this function which will return the
; 202  :                 // correct total needed.
; 203  :                 if ( ( TRUE == bBuffToSmall     ) ||

	mov	eax, DWORD PTR [r14]
	cmp	eax, esi
	je	SHORT $LN32@GetLoadedM

; 207  :                     break ;
; 208  :                 }
; 209  :                 else
; 210  :                 {
; 211  :                     // Copy this value in.
; 212  :                     paModArray[ *pdwRealCount ] =

	mov	ecx, eax
	mov	rax, QWORD PTR stME32$2[rsp+24]
	mov	QWORD PTR [r15+rcx*8], rax
$LN18@GetLoadedM:

; 213  :                                          (HINSTANCE)stME32.modBaseAddr ;
; 214  :                 }
; 215  :             }
; 216  :             // Bump up the real total count.
; 217  :             *pdwRealCount += 1 ;

	inc	DWORD PTR [r14]

; 218  :         }
; 219  :         while ( ( TRUE == g_pModule32Next ( hModSnap , &stME32 ) ) ) ;

	lea	rdx, QWORD PTR stME32$2[rsp]
	mov	rcx, rbx
	call	QWORD PTR ?g_pModule32Next@@3P6AHPEAXPEAUtagMODULEENTRY32@@@ZEA
	cmp	eax, 1
	je	SHORT $LL11@GetLoadedM

; 226  :         return ( FALSE ) ;
; 227  :     }
; 228  : 
; 229  :     // Close the snapshot handle.
; 230  :     VERIFY ( CloseHandle ( hModSnap ) ) ;

	mov	rcx, rbx
	call	QWORD PTR __imp_CloseHandle

; 237  :         return ( FALSE ) ;
; 238  :     }
; 239  : 
; 240  :     // All OK, Jumpmaster!
; 241  :     SetLastError ( ERROR_SUCCESS ) ;

	xor	ecx, ecx
	call	QWORD PTR __imp_SetLastError

; 242  :     return ( TRUE ) ;

	mov	edi, 1
	jmp	$LN22@GetLoadedM
$LN32@GetLoadedM:

; 204  :                      ( *pdwRealCount == uiCount )   )
; 205  :                 {
; 206  :                     bBuffToSmall = TRUE ;

	mov	rcx, rbx
	call	QWORD PTR __imp_CloseHandle

; 231  : 
; 232  :     // Check if the buffer was too small.
; 233  :     if ( TRUE == bBuffToSmall )
; 234  :     {
; 235  :         ASSERT ( !"Buffer to small in TLHELPGetLoadedModules\n" ) ;
; 236  :         SetLastErrorEx ( ERROR_INSUFFICIENT_BUFFER , SLE_ERROR ) ;

	mov	ecx, 122				; 0000007aH
; File C:\Users\Mahito\Desktop\Night outing\Night-outing\src\xrCore\blackbox\GetLoadedModules.cpp

; 72   :         return ( TLHELPGetLoadedModules ( dwPID         ,

	lea	edx, QWORD PTR [rcx-121]
	call	QWORD PTR __imp_SetLastErrorEx
	jmp	$LN22@GetLoadedM
$LN14@GetLoadedM:
; File C:\Users\Mahito\Desktop\Night outing\Night-outing\src\xrCore\blackbox\TLHELPProcessInfo.cpp

; 223  :         DWORD dwLastErr = GetLastError ( ) ;

	call	QWORD PTR __imp_GetLastError

; 224  :         ASSERT ( !"Failed to get first module!\n" ) ;
; 225  :         SetLastErrorEx ( dwLastErr , SLE_ERROR ) ;

	mov	ecx, eax
; File C:\Users\Mahito\Desktop\Night outing\Night-outing\src\xrCore\blackbox\GetLoadedModules.cpp

; 72   :         return ( TLHELPGetLoadedModules ( dwPID         ,

	mov	edx, 1
	call	QWORD PTR __imp_SetLastErrorEx
	jmp	$LN22@GetLoadedM
$LN3@GetLoadedM:

; 37   :          ( ( uiCount > 0 ) &&
; 38   :            ( TRUE == IsBadWritePtr ( paModArray ,
; 39   :                                      uiCount * sizeof(HMODULE) ) ) )   )
; 40   :     {
; 41   :         SetLastErrorEx ( ERROR_INVALID_PARAMETER , SLE_ERROR ) ;

	mov	edx, 1
	lea	ecx, QWORD PTR [rdx+86]
	call	QWORD PTR __imp_SetLastErrorEx
$LN40@GetLoadedM:

; 73   :                                           uiCount       ,
; 74   :                                           paModArray    ,
; 75   :                                           pdwRealCount   ) ) ;
; 76   :     }
; 77   : }

	xor	eax, eax
	jmp	$LN6@GetLoadedM
GetLoadedModules ENDP
_TEXT	ENDS
END
