; Listing generated by Microsoft (R) Optimizing Compiler Version 19.35.32217.1 

include listing.inc

INCLUDELIB OLDNAMES

PUBLIC	??_C@_0O@OKDOADIG@FS_Path?3?3_set@		; `string'
PUBLIC	??_C@_0FB@DMBLDDGE@C?3?2Users?2Mahito?2Desktop?2Night?5o@ ; `string'
PUBLIC	??_C@_03BDGOHNNK@add@				; `string'
PUBLIC	??_C@_0BB@JHDHNHCI@FS_Path?3?3_update@		; `string'
PUBLIC	??_C@_04EEHDLEKF@dest@				; `string'
PUBLIC	??_C@_03LOJEKLML@src@				; `string'
EXTRN	__imp_tolower:PROC
;	COMDAT ?ignore_always@?7??_update@FS_Path@@QEBAPEBDAEAY0CAI@DPEBD@Z@4_NA
_BSS	SEGMENT
?ignore_always@?7??_update@FS_Path@@QEBAPEBDAEAY0CAI@DPEBD@Z@4_NA DB 01H DUP (?) ; `FS_Path::_update'::`8'::ignore_always
_BSS	ENDS
;	COMDAT ?ignore_always@?3??_update@FS_Path@@QEBAPEBDAEAY0CAI@DPEBD@Z@4_NA
_BSS	SEGMENT
?ignore_always@?3??_update@FS_Path@@QEBAPEBDAEAY0CAI@DPEBD@Z@4_NA DB 01H DUP (?) ; `FS_Path::_update'::`4'::ignore_always
_BSS	ENDS
;	COMDAT ?ignore_always@?3??_set@FS_Path@@QEAAXPEBD@Z@4_NA
_BSS	SEGMENT
?ignore_always@?3??_set@FS_Path@@QEAAXPEBD@Z@4_NA DB 01H DUP (?) ; `FS_Path::_set'::`4'::ignore_always
_BSS	ENDS
;	COMDAT ??_C@_03LOJEKLML@src@
CONST	SEGMENT
??_C@_03LOJEKLML@src@ DB 'src', 00H			; `string'
CONST	ENDS
;	COMDAT ??_C@_04EEHDLEKF@dest@
CONST	SEGMENT
??_C@_04EEHDLEKF@dest@ DB 'dest', 00H			; `string'
CONST	ENDS
;	COMDAT ??_C@_0BB@JHDHNHCI@FS_Path?3?3_update@
CONST	SEGMENT
??_C@_0BB@JHDHNHCI@FS_Path?3?3_update@ DB 'FS_Path::_update', 00H ; `string'
CONST	ENDS
;	COMDAT ??_C@_03BDGOHNNK@add@
CONST	SEGMENT
??_C@_03BDGOHNNK@add@ DB 'add', 00H			; `string'
CONST	ENDS
;	COMDAT ??_C@_0FB@DMBLDDGE@C?3?2Users?2Mahito?2Desktop?2Night?5o@
CONST	SEGMENT
??_C@_0FB@DMBLDDGE@C?3?2Users?2Mahito?2Desktop?2Night?5o@ DB 'C:\Users\Ma'
	DB	'hito\Desktop\Night outing\Night-outing\src\xrCore\LocatorAPI_'
	DB	'defs.cpp', 00H				; `string'
CONST	ENDS
;	COMDAT ??_C@_0O@OKDOADIG@FS_Path?3?3_set@
CONST	SEGMENT
??_C@_0O@OKDOADIG@FS_Path?3?3_set@ DB 'FS_Path::_set', 00H ; `string'
PUBLIC	?_update@FS_Path@@QEBAPEBDAEAY0CAI@DPEBD@Z	; FS_Path::_update
PUBLIC	??1FS_Path@@QEAA@XZ				; FS_Path::~FS_Path
pdata	SEGMENT
$pdata$?_update@FS_Path@@QEBAPEBDAEAY0CAI@DPEBD@Z DD imagerel $LN65
	DD	imagerel $LN65+316
	DD	imagerel $unwind$?_update@FS_Path@@QEBAPEBDAEAY0CAI@DPEBD@Z
$pdata$??1FS_Path@@QEAA@XZ DD imagerel $LN114
	DD	imagerel $LN114+149
	DD	imagerel $unwind$??1FS_Path@@QEAA@XZ
xdata	SEGMENT
$unwind$?_update@FS_Path@@QEBAPEBDAEAY0CAI@DPEBD@Z DD 0b1d01H
	DD	051741dH
	DD	050641dH
	DD	04f541dH
	DD	04e341dH
	DD	04c011dH
	DD	0e016H
$unwind$??1FS_Path@@QEAA@XZ DD 040a01H
	DD	06340aH
	DD	07006320aH
; Function compile flags: /Ogtpy
; File C:\Users\Mahito\Desktop\Night outing\Night-outing\src\xrCore\LocatorAPI_defs.cpp
; File C:\Users\Mahito\Desktop\Night outing\Night-outing\src\xrCore\xrMemory.h
; File C:\Users\Mahito\Desktop\Night outing\Night-outing\src\xrCore\xrMemory_subst_msvc.cpp
; File C:\Users\Mahito\Desktop\Night outing\Night-outing\src\xrCore\xrMemory.h
; File C:\Users\Mahito\Desktop\Night outing\Night-outing\src\xrCore\xrMemory_subst_msvc.cpp
; File C:\Users\Mahito\Desktop\Night outing\Night-outing\src\xrCore\xrMemory.h
; File C:\Users\Mahito\Desktop\Night outing\Night-outing\src\xrCore\xrMemory_subst_msvc.cpp
; File C:\Users\Mahito\Desktop\Night outing\Night-outing\src\xrCore\xrMemory.h
; File C:\Users\Mahito\Desktop\Night outing\Night-outing\src\xrCore\xrMemory_subst_msvc.cpp
; File C:\Users\Mahito\Desktop\Night outing\Night-outing\src\xrCore\xrMemory.h
; File C:\Users\Mahito\Desktop\Night outing\Night-outing\src\xrCore\xrMemory_subst_msvc.cpp
; File C:\Users\Mahito\Desktop\Night outing\Night-outing\src\xrCore\xrMemory.h
; File C:\Users\Mahito\Desktop\Night outing\Night-outing\src\xrCore\LocatorAPI_defs.cpp
_TEXT	SEGMENT
this$ = 48
??1FS_Path@@QEAA@XZ PROC				; FS_Path::~FS_Path

; 51   : {

$LN114:
	mov	QWORD PTR [rsp+8], rbx
	push	rdi
	sub	rsp, 32					; 00000020H
	mov	rbx, rcx
; File C:\Users\Mahito\Desktop\Night outing\Night-outing\src\xrCore\xrMemory.h

; 69   : 	if (P)

	xor	edi, edi
	mov	rcx, QWORD PTR [rcx+8]
	test	rcx, rcx
	je	SHORT $LN4@FS_Path
; File C:\Users\Mahito\Desktop\Night outing\Night-outing\src\xrCore\xrMemory_subst_msvc.cpp

; 99   : 	stat_calls++;

	inc	DWORD PTR ?Memory@@3VxrMemory@@A

; 100  : 
; 101  : #ifdef PURE_ALLOC
; 102  : 	if (g_use_pure_alloc)
; 103  : 	{
; 104  : 		//free(P);
; 105  : 		_aligned_free(P);

	call	QWORD PTR __imp__aligned_free
; File C:\Users\Mahito\Desktop\Night outing\Night-outing\src\xrCore\xrMemory.h

; 72   : 		P = NULL;

	mov	QWORD PTR [rbx+8], rdi
$LN4@FS_Path:

; 69   : 	if (P)

	mov	rcx, QWORD PTR [rbx]
	test	rcx, rcx
	je	SHORT $LN26@FS_Path
; File C:\Users\Mahito\Desktop\Night outing\Night-outing\src\xrCore\xrMemory_subst_msvc.cpp

; 99   : 	stat_calls++;

	inc	DWORD PTR ?Memory@@3VxrMemory@@A

; 100  : 
; 101  : #ifdef PURE_ALLOC
; 102  : 	if (g_use_pure_alloc)
; 103  : 	{
; 104  : 		//free(P);
; 105  : 		_aligned_free(P);

	call	QWORD PTR __imp__aligned_free
; File C:\Users\Mahito\Desktop\Night outing\Night-outing\src\xrCore\xrMemory.h

; 72   : 		P = NULL;

	mov	QWORD PTR [rbx], rdi
$LN26@FS_Path:

; 69   : 	if (P)

	mov	rcx, QWORD PTR [rbx+16]
	test	rcx, rcx
	je	SHORT $LN48@FS_Path
; File C:\Users\Mahito\Desktop\Night outing\Night-outing\src\xrCore\xrMemory_subst_msvc.cpp

; 99   : 	stat_calls++;

	inc	DWORD PTR ?Memory@@3VxrMemory@@A

; 100  : 
; 101  : #ifdef PURE_ALLOC
; 102  : 	if (g_use_pure_alloc)
; 103  : 	{
; 104  : 		//free(P);
; 105  : 		_aligned_free(P);

	call	QWORD PTR __imp__aligned_free
; File C:\Users\Mahito\Desktop\Night outing\Night-outing\src\xrCore\xrMemory.h

; 72   : 		P = NULL;

	mov	QWORD PTR [rbx+16], rdi
$LN48@FS_Path:

; 69   : 	if (P)

	mov	rcx, QWORD PTR [rbx+24]
	test	rcx, rcx
	je	SHORT $LN70@FS_Path
; File C:\Users\Mahito\Desktop\Night outing\Night-outing\src\xrCore\xrMemory_subst_msvc.cpp

; 99   : 	stat_calls++;

	inc	DWORD PTR ?Memory@@3VxrMemory@@A

; 100  : 
; 101  : #ifdef PURE_ALLOC
; 102  : 	if (g_use_pure_alloc)
; 103  : 	{
; 104  : 		//free(P);
; 105  : 		_aligned_free(P);

	call	QWORD PTR __imp__aligned_free
; File C:\Users\Mahito\Desktop\Night outing\Night-outing\src\xrCore\xrMemory.h

; 72   : 		P = NULL;

	mov	QWORD PTR [rbx+24], rdi
$LN70@FS_Path:

; 69   : 	if (P)

	mov	rcx, QWORD PTR [rbx+32]
	test	rcx, rcx
	je	SHORT $LN92@FS_Path
; File C:\Users\Mahito\Desktop\Night outing\Night-outing\src\xrCore\xrMemory_subst_msvc.cpp

; 99   : 	stat_calls++;

	inc	DWORD PTR ?Memory@@3VxrMemory@@A

; 100  : 
; 101  : #ifdef PURE_ALLOC
; 102  : 	if (g_use_pure_alloc)
; 103  : 	{
; 104  : 		//free(P);
; 105  : 		_aligned_free(P);

	call	QWORD PTR __imp__aligned_free
; File C:\Users\Mahito\Desktop\Night outing\Night-outing\src\xrCore\xrMemory.h

; 72   : 		P = NULL;

	mov	QWORD PTR [rbx+32], rdi
$LN92@FS_Path:
; File C:\Users\Mahito\Desktop\Night outing\Night-outing\src\xrCore\LocatorAPI_defs.cpp

; 57   : }

	mov	rbx, QWORD PTR [rsp+48]
	add	rsp, 32					; 00000020H
	pop	rdi
	ret	0
??1FS_Path@@QEAA@XZ ENDP				; FS_Path::~FS_Path
_TEXT	ENDS
; Function compile flags: /Ogtpy
; File C:\Users\Mahito\Desktop\Night outing\Night-outing\src\xrCore\LocatorAPI_defs.cpp
; File C:\Users\Mahito\Desktop\Night outing\Night-outing\src\xrCore\xrDebugNew.cpp
; File C:\Users\Mahito\Desktop\Night outing\Night-outing\src\xrCore\LocatorAPI_defs.cpp
; File C:\Users\Mahito\Desktop\Night outing\Night-outing\src\xrCore\xrDebugNew.cpp
; File C:\Users\Mahito\Desktop\Night outing\Night-outing\src\xrCore\_std_extensions.h
; File C:\Users\Mahito\Desktop\Night outing\Night-outing\src\xrCore\string_concatenations.cpp
; File C:\Users\Mahito\Desktop\Night outing\Night-outing\src\xrCore\_std_extensions.h
; File C:\Users\Mahito\Desktop\Night outing\Night-outing\src\xrCore\LocatorAPI_defs.cpp
_TEXT	SEGMENT
temp$ = 80
this$ = 624
dest$ = 632
src$ = 640
?_update@FS_Path@@QEBAPEBDAEAY0CAI@DPEBD@Z PROC		; FS_Path::_update

; 90   : {

$LN65:
	mov	QWORD PTR [rsp+8], rbx
	mov	QWORD PTR [rsp+16], rbp
	mov	QWORD PTR [rsp+24], rsi
	mov	QWORD PTR [rsp+32], rdi
	push	r14
	sub	rsp, 608				; 00000260H

; 91   : 	R_ASSERT			(dest);

	lea	rbp, OFFSET FLAT:??_C@_0BB@JHDHNHCI@FS_Path?3?3_update@
	mov	rbx, r8
	lea	r14, OFFSET FLAT:??_C@_0FB@DMBLDDGE@C?3?2Users?2Mahito?2Desktop?2Night?5o@
	mov	rdi, rdx
	mov	rsi, rcx
	test	rdx, rdx
	jne	SHORT $LN2@update
; File C:\Users\Mahito\Desktop\Night outing\Night-outing\src\xrCore\xrDebugNew.cpp

; 388  :     backend(e1, "assertion failed", 0, 0, file, line, function, ignore_always);

	mov	QWORD PTR [rsp+56], rbp
	lea	r8, OFFSET FLAT:??_C@_0BB@DBHFCHNO@assertion?5failed@
	mov	DWORD PTR [rsp+48], 91			; 0000005bH
	lea	rdx, OFFSET FLAT:??_C@_04EEHDLEKF@dest@
	xor	r9d, r9d
	mov	QWORD PTR [rsp+40], r14
	lea	rcx, OFFSET FLAT:?Debug@@3VxrDebug@@A	; Debug
	call	?backend@xrDebug@@QEAAXPEBD0000H0AEA_N@Z ; xrDebug::backend
$LN2@update:
; File C:\Users\Mahito\Desktop\Night outing\Night-outing\src\xrCore\LocatorAPI_defs.cpp

; 92   :     R_ASSERT			(src);

	test	rbx, rbx
	jne	SHORT $LN5@update
; File C:\Users\Mahito\Desktop\Night outing\Night-outing\src\xrCore\xrDebugNew.cpp

; 388  :     backend(e1, "assertion failed", 0, 0, file, line, function, ignore_always);

	mov	QWORD PTR [rsp+56], rbp
	lea	r8, OFFSET FLAT:??_C@_0BB@DBHFCHNO@assertion?5failed@
	mov	DWORD PTR [rsp+48], 92			; 0000005cH
	lea	rdx, OFFSET FLAT:??_C@_03LOJEKLML@src@
	xor	r9d, r9d
	mov	QWORD PTR [rsp+40], r14
	lea	rcx, OFFSET FLAT:?Debug@@3VxrDebug@@A	; Debug
	call	?backend@xrDebug@@QEAAXPEBD0000H0AEA_N@Z ; xrDebug::backend
$LN5@update:
; File C:\Users\Mahito\Desktop\Night outing\Night-outing\src\xrCore\_std_extensions.h

; 229  : 	return						strncpy_s( destination, destination_size, source, destination_size );

	mov	r9d, 520				; 00000208H
	lea	rcx, QWORD PTR temp$[rsp]
	mov	edx, r9d
	mov	r8, rbx
	call	QWORD PTR __imp_strncpy_s
; File C:\Users\Mahito\Desktop\Night outing\Night-outing\src\xrCore\string_concatenations.cpp

; 132  : 	for (j = S1; *j && i < e; ++i, ++j)

	mov	rax, QWORD PTR [rsi]
	lea	r8, QWORD PTR [rdi+520]
	mov	rcx, rdi
	movzx	edx, BYTE PTR [rax]
	test	dl, dl
	je	SHORT $LN46@update
$LL29@update:
	cmp	rcx, r8
	jae	SHORT $LN46@update
	inc	rax

; 133  : 		*i			= *j;

	mov	BYTE PTR [rcx], dl
	inc	rcx
	movzx	edx, BYTE PTR [rax]
	test	dl, dl
	jne	SHORT $LL29@update
$LN46@update:

; 134  : 
; 135  : 	strconcat_error::process	( i, e, 0, strings );
; 136  : 
; 137  : 	for (j = S2; *j && i < e; ++i, ++j)

	cmp	rcx, r8
	lea	rax, QWORD PTR [rcx-1]
	lea	rdx, QWORD PTR temp$[rsp]
	cmovne	rax, rcx
	cmp	BYTE PTR temp$[rsp], 0
	je	SHORT $LN37@update
$LL32@update:
	cmp	rax, r8
	jae	SHORT $LN37@update

; 138  : 		*i			= *j;

	movzx	ecx, BYTE PTR [rdx]
	inc	rdx
	mov	BYTE PTR [rax], cl
	inc	rax
	cmp	BYTE PTR [rdx], 0
	jne	SHORT $LL32@update
$LN37@update:

; 139  : 
; 140  : 	strconcat_error::process	( i, e, 1, strings );
; 141  : 
; 142  : 	*i				= 0;

	cmp	rax, r8
	lea	rcx, QWORD PTR [rax-1]
	cmovne	rcx, rax
	mov	BYTE PTR [rcx], 0
; File C:\Users\Mahito\Desktop\Night outing\Night-outing\src\xrCore\_std_extensions.h

; 189  : {	return strlwr(S);				}

	mov	rcx, rdi
	call	QWORD PTR __imp_strlwr
; File C:\Users\Mahito\Desktop\Night outing\Night-outing\src\xrCore\LocatorAPI_defs.cpp

; 97   : }

	lea	r11, QWORD PTR [rsp+608]
	mov	rbx, QWORD PTR [r11+16]
	mov	rbp, QWORD PTR [r11+24]
	mov	rsi, QWORD PTR [r11+32]
	mov	rdi, QWORD PTR [r11+40]
	mov	rsp, r11
	pop	r14
	ret	0
?_update@FS_Path@@QEBAPEBDAEAY0CAI@DPEBD@Z ENDP		; FS_Path::_update
_TEXT	ENDS
END
