; Listing generated by Microsoft (R) Optimizing Compiler Version 19.35.32217.1 

include listing.inc

INCLUDELIB OLDNAMES

PUBLIC	?xr_FS@@3PEAVCLocatorAPI@@EA			; xr_FS
PUBLIC	??_C@_0BJ@LHOADAED@CFileWriter?3?3CFileWriter@	; `string'
PUBLIC	??_C@_0EL@KFKBFKBD@C?3?2Users?2Mahito?2Desktop?2Night?5o@ ; `string'
PUBLIC	??_C@_0BA@FFHJPHKB@name?5?$CG?$CG?5name?$FL0?$FN@ ; `string'
PUBLIC	??_C@_02GMLFBBN@wb@				; `string'
PUBLIC	??_C@_0CG@NLEAPLKA@?$CBCan?8t?5write?5file?3?5?8?$CFs?8?4?5Error?3@ ; `string'
PUBLIC	??_C@_0P@JAENBJCA@CFileWriter?3?3w@		; `string'
PUBLIC	??_C@_0DA@NHFCHCFA@Can?8t?5write?5mem?5block?5to?5file?4?5@ ; `string'
PUBLIC	??_C@_04FLEBEKDE@W?$DN?$DN1@			; `string'
PUBLIC	??_C@_0BL@GBLFJGAI@file?5opened?5at?5least?5twice@ ; `string'
PUBLIC	??_C@_0BB@FNAKDLB@?9?9?9?9opened?5files@	; `string'
PUBLIC	??_C@_0O@LIGGBFJO@?$FL?$CFd?$FN?5fname?3?$CFs@	; `string'
PUBLIC	??_C@_0M@FJPLFMD@?9?9?9?9un?9used@		; `string'
PUBLIC	??_C@_0BB@JJHONFGH@?9?9?9?9total?5count?$DN@	; `string'
PUBLIC	??_C@_0BG@JLICPDMD@CLocatorAPI?3?3Register@	; `string'
PUBLIC	??_C@_0EM@MMOIKOPE@C?3?2Users?2Mahito?2Desktop?2Night?5o@ ; `string'
PUBLIC	??_C@_08PMINNIHH@I?4second@			; `string'
PUBLIC	??_C@_0BJ@CPALHAL@CLocatorAPI?3?3LoadArchive@	; `string'
PUBLIC	??_C@_0BB@DJIDCDNC@shutdown?5?1s?5?1t?50@	; `string'
PUBLIC	??_C@_0M@COHIENOO@entry_point@			; `string'
PUBLIC	??_C@_06MBPAJAPM@header@			; `string'
PUBLIC	??_C@_09BOCFEJAJ@$fs_root$@			; `string'
PUBLIC	??_C@_09HKEHFMHK@gamedata?2@			; `string'
PUBLIC	??_C@_0BI@IENAPAPN@?$CKread_path?4c_str?$CI?$CJ?$DN?$DN?8$?8@ ; `string'
PUBLIC	??_C@_06PPNBJIOI@?$CF?$FL?$FO?2?$FNs@		; `string'
PUBLIC	??_C@_08BNIAGCID@count?$DN?$DN1@		; `string'
PUBLIC	??_C@_0BL@JPGJLLLP@CLocatorAPI?3?3archive?3?3open@ ; `string'
PUBLIC	??_C@_0BP@JJGNJHJF@hSrcFile?$CB?$DNINVALID_HANDLE_VALUE@ ; `string'
PUBLIC	??_C@_0BO@DODFDMMA@hSrcMap?$CB?$DNINVALID_HANDLE_VALUE@ ; `string'
PUBLIC	??_C@_06NOMBLFJD@size?$DO0@			; `string'
PUBLIC	??_C@_0P@KMNAHBAD@archive_header@		; `string'
PUBLIC	??_C@_09EHFLBFLE@auto_load@			; `string'
PUBLIC	??_C@_0BA@HEFHIGC@?9auto_load_arch@		; `string'
PUBLIC	??_C@_03IGEDJCDH@?4db@				; `string'
PUBLIC	??_C@_04PBLCHLCN@?4xdb@				; `string'
PUBLIC	??_C@_03EMIMMIHL@?$CK?4?$CK@			; `string'
PUBLIC	??_C@_0L@BMGDDJNL@fsgame?4ltx@			; `string'
PUBLIC	??_C@_0N@LICIKBGH@using?5fs?9ltx@		; `string'
PUBLIC	??_C@_0DC@IAAFPNKM@Cannot?5open?5file?5?$CC?$CFs?$CC?4?6Check?5yo@ ; `string'
PUBLIC	??_C@_0BM@MNMEOPGN@Initializing?5File?5System?4?4?4@ ; `string'
PUBLIC	??_C@_0L@IJKLJMDK@$app_root$@			; `string'
PUBLIC	??_C@_0L@IKMMHABM@Folder?3?5?$CFs@		; `string'
PUBLIC	??_C@_0BA@GKILFOIC@$target_folder$@		; `string'
PUBLIC	??_C@_0N@IKDMHBKA@$build_copy$@			; `string'
PUBLIC	??_C@_0BJ@IICBJFBM@CLocatorAPI?3?3_initialize@	; `string'
PUBLIC	??_C@_06COENMCLN@cnt?$DO?$DN3@			; `string'
PUBLIC	??_C@_0HK@KEJFMLNK@The?5file?5?8fsgame?4ltx?8?5is?5corrup@ ; `string'
PUBLIC	??_C@_0BA@BDJNLMJI@$app_data_root$@		; `string'
PUBLIC	??_C@_0BO@NBFPPDBD@path_exist?$CI?$CC$app_data_root$?$CC?$CJ@ ; `string'
PUBLIC	??_C@_0DD@CAEFBCFE@FS?3?5?$CFd?5files?5cached?5?$CFd?5archives@ ; `string'
PUBLIC	??_C@_0BH@EOPBPCDD@Init?5FileSystem?5?$CFf?5sec@ ; `string'
PUBLIC	??_C@_0N@KDCPCCHO@?9overlaypath@		; `string'
PUBLIC	??_C@_06EPKOIJFL@?$CF?$FL?$FO?5?$FN?5@		; `string'
PUBLIC	??_C@_0O@CCJKFHLL@?9overlaypath?5@		; `string'
PUBLIC	??_C@_06PNKCMPKN@?9nolog@			; `string'
PUBLIC	??_C@_0BM@BCLCKGPF@CLocatorAPI?3?3file_list_open@ ; `string'
PUBLIC	??_C@_0BE@HAMBABC@initial?$CG?$CGinitial?$FL0?$FN@ ; `string'
PUBLIC	??_C@_05DHHBLFPE@_path@				; `string'
PUBLIC	??_C@_0BH@DPKJMGPO@CLocatorAPI?3?3file_list@	; `string'
PUBLIC	??_C@_0O@KBJLCFDF@$server_root$@		; `string'
PUBLIC	??_C@_07BODPMKB@$cache$@			; `string'
PUBLIC	??_C@_0CA@FFGNCPBA@copy?3?5db?$FL?$CFX?$FN?0cache?$FL?$CFX?$FN?5?9?5?8?$CFs?8?0?5@ ; `string'
PUBLIC	??_C@_05CCMOGDN@?$CFs?3?$CFs@			; `string'
PUBLIC	??_C@_0BP@IDGLINDD@CLocatorAPI?3?3file_from_archive@ ; `string'
PUBLIC	??_C@_0FG@DIPPMNGC@cannot?5use?5stream?5reading?5for?5c@ ; `string'
PUBLIC	??_C@_0CH@CDLHGCED@desc?4size_compressed?5?$DN?$DN?5desc?4si@ ; `string'
PUBLIC	??_C@_0BF@KJEOMGDK@CLocatorAPI?3?3w_close@	; `string'
PUBLIC	??_C@_0BA@OBKFGFII@S?9?$DOfName?4size?$CI?$CJ@	; `string'
PUBLIC	??_C@_0BG@PGJPPKFM@CLocatorAPI?3?3get_path@	; `string'
PUBLIC	??_C@_0BA@GAAJDLDK@P?$CB?$DNpathes?4end?$CI?$CJ@ ; `string'
PUBLIC	??_C@_0CH@NLNALLCJ@?$CBCan?8t?5set?5file?5age?3?5?8?$CFs?8?4?5Erro@ ; `string'
PUBLIC	??_C@_0BB@BCMNINKJ@$?$CB?$CD?$CFTEMP?$CF?$CD?$CB$?4$$$@ ; `string'
PUBLIC	??_C@_03HMFOOINA@r?$CLb@			; `string'
PUBLIC	??_C@_0N@OHLAPOFE@PIZDA?5?$CFs?0?5?$CFs@	; `string'
PUBLIC	??_R2CFileStreamReader@@8			; CFileStreamReader::`RTTI Base Class Array'
PUBLIC	??_R2CPackReader@@8				; CPackReader::`RTTI Base Class Array'
PUBLIC	??_R2CTempReader@@8				; CTempReader::`RTTI Base Class Array'
PUBLIC	??_R2CFileWriter@@8				; CFileWriter::`RTTI Base Class Array'
PUBLIC	??_R2CStreamReader@@8				; CStreamReader::`RTTI Base Class Array'
PUBLIC	??_R2?$IReaderBase@VCStreamReader@@@@8		; IReaderBase<CStreamReader>::`RTTI Base Class Array'
PUBLIC	??_R1A@?0A@EA@CFileStreamReader@@8		; CFileStreamReader::`RTTI Base Class Descriptor at (0,-1,0,64)'
PUBLIC	??_R1A@?0A@EA@CPackReader@@8			; CPackReader::`RTTI Base Class Descriptor at (0,-1,0,64)'
PUBLIC	??_R1A@?0A@EA@CTempReader@@8			; CTempReader::`RTTI Base Class Descriptor at (0,-1,0,64)'
PUBLIC	??_R1A@?0A@EA@CFileWriter@@8			; CFileWriter::`RTTI Base Class Descriptor at (0,-1,0,64)'
PUBLIC	??_R1A@?0A@EA@CStreamReader@@8			; CStreamReader::`RTTI Base Class Descriptor at (0,-1,0,64)'
PUBLIC	??_R1A@?0A@EA@?$IReaderBase@VCStreamReader@@@@8	; IReaderBase<CStreamReader>::`RTTI Base Class Descriptor at (0,-1,0,64)'
PUBLIC	??_R3CFileStreamReader@@8			; CFileStreamReader::`RTTI Class Hierarchy Descriptor'
PUBLIC	??_R0?AVCFileStreamReader@@@8			; CFileStreamReader `RTTI Type Descriptor'
PUBLIC	??_R3CPackReader@@8				; CPackReader::`RTTI Class Hierarchy Descriptor'
PUBLIC	??_R0?AVCPackReader@@@8				; CPackReader `RTTI Type Descriptor'
PUBLIC	??_R3CTempReader@@8				; CTempReader::`RTTI Class Hierarchy Descriptor'
PUBLIC	??_R0?AVCTempReader@@@8				; CTempReader `RTTI Type Descriptor'
PUBLIC	??_R3CFileWriter@@8				; CFileWriter::`RTTI Class Hierarchy Descriptor'
PUBLIC	??_R0?AVCFileWriter@@@8				; CFileWriter `RTTI Type Descriptor'
PUBLIC	??_R3?$IReaderBase@VCStreamReader@@@@8		; IReaderBase<CStreamReader>::`RTTI Class Hierarchy Descriptor'
PUBLIC	??_R0?AV?$IReaderBase@VCStreamReader@@@@@8	; IReaderBase<CStreamReader> `RTTI Type Descriptor'
PUBLIC	??_R3CStreamReader@@8				; CStreamReader::`RTTI Class Hierarchy Descriptor'
PUBLIC	??_R0?AVCStreamReader@@@8			; CStreamReader `RTTI Type Descriptor'
PUBLIC	??_R4CFileStreamReader@@6B@			; CFileStreamReader::`RTTI Complete Object Locator'
PUBLIC	??_R4?$IReaderBase@VCStreamReader@@@@6B@	; IReaderBase<CStreamReader>::`RTTI Complete Object Locator'
PUBLIC	??_R4CPackReader@@6B@				; CPackReader::`RTTI Complete Object Locator'
PUBLIC	??_R4CTempReader@@6B@				; CTempReader::`RTTI Complete Object Locator'
PUBLIC	??_R4CFileWriter@@6B@				; CFileWriter::`RTTI Complete Object Locator'
PUBLIC	??_R4CStreamReader@@6B@				; CStreamReader::`RTTI Complete Object Locator'
PUBLIC	??_7CFileStreamReader@@6B@			; CFileStreamReader::`vftable'
PUBLIC	??_7?$IReaderBase@VCStreamReader@@@@6B@		; IReaderBase<CStreamReader>::`vftable'
PUBLIC	??_C@_02LIELOMNJ@on@				; `string'
PUBLIC	??_C@_03ICICOMAL@yes@				; `string'
PUBLIC	??_C@_01HIHLOKLC@1@				; `string'
PUBLIC	?_OptionsStorage@?1??__local_stdio_scanf_options@@9@4_KA ; `__local_stdio_scanf_options'::`2'::_OptionsStorage
PUBLIC	??_7CStreamReader@@6B@				; CStreamReader::`vftable'
PUBLIC	??_7CPackReader@@6B@				; CPackReader::`vftable'
PUBLIC	??_7CTempReader@@6B@				; CTempReader::`vftable'
PUBLIC	??_R4?$IReaderBase@VIReader@@@@6B@		; IReaderBase<IReader>::`RTTI Complete Object Locator'
PUBLIC	??_7?$IReaderBase@VIReader@@@@6B@		; IReaderBase<IReader>::`vftable'
PUBLIC	??_R0?AVIReader@@@8				; IReader `RTTI Type Descriptor'
PUBLIC	??_R1A@?0A@EA@IReader@@8			; IReader::`RTTI Base Class Descriptor at (0,-1,0,64)'
PUBLIC	??_R0?AV?$IReaderBase@VIReader@@@@@8		; IReaderBase<IReader> `RTTI Type Descriptor'
PUBLIC	??_R2?$IReaderBase@VIReader@@@@8		; IReaderBase<IReader>::`RTTI Base Class Array'
PUBLIC	??_R3?$IReaderBase@VIReader@@@@8		; IReaderBase<IReader>::`RTTI Class Hierarchy Descriptor'
PUBLIC	??_R1A@?0A@EA@?$IReaderBase@VIReader@@@@8	; IReaderBase<IReader>::`RTTI Base Class Descriptor at (0,-1,0,64)'
PUBLIC	??_R2IReader@@8					; IReader::`RTTI Base Class Array'
PUBLIC	??_R3IReader@@8					; IReader::`RTTI Class Hierarchy Descriptor'
PUBLIC	??_R4IReader@@6B@				; IReader::`RTTI Complete Object Locator'
PUBLIC	??_7IReader@@6B@				; IReader::`vftable'
PUBLIC	?ignore_always@?BA@??w@CFileWriter@@UEAAXPEBXI@Z@4_NA ; `CFileWriter::w'::`16'::ignore_always
PUBLIC	?ignore_always@?8??w@CFileWriter@@UEAAXPEBXI@Z@4_NA ; `CFileWriter::w'::`9'::ignore_always
PUBLIC	?ignore_always@?3???0CFileWriter@@QEAA@PEBD_N@Z@4_NA ; `CFileWriter::CFileWriter'::`4'::ignore_always
PUBLIC	??_7CFileWriter@@6B@				; CFileWriter::`vftable'
PUBLIC	??_C@_0BC@MMFONNCA@IWriter?3?3?$HOIWriter@	; `string'
PUBLIC	??_C@_0EC@JABHKDLN@C?3?2Users?2Mahito?2Desktop?2Night?5o@ ; `string'
PUBLIC	??_C@_0BJ@NEONBPEI@Opened?5chunk?5not?5closed?4@ ; `string'
PUBLIC	??_C@_0BC@EGCPHDDI@chunk_pos?4empty?$CI?$CJ@	; `string'
PUBLIC	?ignore_always@?3???1IWriter@@UEAA@XZ@4_NA	; `IWriter::~IWriter'::`4'::ignore_always
PUBLIC	??_R0?AVIWriter@@@8				; IWriter `RTTI Type Descriptor'
PUBLIC	??_R1A@?0A@EA@IWriter@@8			; IWriter::`RTTI Base Class Descriptor at (0,-1,0,64)'
PUBLIC	??_R2IWriter@@8					; IWriter::`RTTI Base Class Array'
PUBLIC	??_R3IWriter@@8					; IWriter::`RTTI Class Hierarchy Descriptor'
PUBLIC	??_R4IWriter@@6B@				; IWriter::`RTTI Complete Object Locator'
PUBLIC	??_7IWriter@@6B@				; IWriter::`vftable'
EXTRN	__imp__utime64:PROC
EXTRN	__imp__rmdir:PROC
EXTRN	__imp_unlink:PROC
EXTRN	__imp__stat64i32:PROC
EXTRN	__imp_MapViewOfFile:PROC
EXTRN	__imp__fullpath:PROC
EXTRN	__imp__findclose:PROC
EXTRN	__imp__findnext64i32:PROC
EXTRN	__imp__findfirst64i32:PROC
EXTRN	__imp_GetFileSize:PROC
EXTRN	__imp_CreateFileMappingA:PROC
EXTRN	__imp___stdio_common_vsscanf:PROC
EXTRN	__imp_stricmp:PROC
EXTRN	__imp_ReadFile:PROC
EXTRN	__imp_SetFilePointer:PROC
EXTRN	__imp_strlwr:PROC
EXTRN	__imp_GetSystemInfo:PROC
EXTRN	__imp_UnmapViewOfFile:PROC
EXTRN	__imp_ftell:PROC
EXTRN	__imp_fseek:PROC
EXTRN	__imp_SetFileAttributesA:PROC
EXTRN	__imp_GetFileAttributesA:PROC
EXTRN	__imp___sys_errlist:PROC
EXTRN	__imp__fdopen:PROC
EXTRN	__imp__sopen_dispatch:PROC
	ALIGN	8

?xr_FS@@3PEAVCLocatorAPI@@EA DQ 01H DUP (?)		; xr_FS
_BSS	ENDS
;	COMDAT ?ignore_always@?3??get_path@CLocatorAPI@@QEAAPEAVFS_Path@@PEBD@Z@4_NA
_BSS	SEGMENT
?ignore_always@?3??get_path@CLocatorAPI@@QEAAPEAVFS_Path@@PEBD@Z@4_NA DB 01H DUP (?) ; `CLocatorAPI::get_path'::`4'::ignore_always
_BSS	ENDS
;	COMDAT ?ignore_always@?6??w_close@CLocatorAPI@@QEAAXAEAPEAVIWriter@@@Z@4_NA
_BSS	SEGMENT
?ignore_always@?6??w_close@CLocatorAPI@@QEAAXAEAPEAVIWriter@@@Z@4_NA DB 01H DUP (?) ; `CLocatorAPI::w_close'::`7'::ignore_always
_BSS	ENDS
;	COMDAT ?ignore_always@?3??file_from_archive@CLocatorAPI@@AEAAXAEAPEAVCStreamReader@@PEBDAEBUfile@2@@Z@4_NA
_BSS	SEGMENT
?ignore_always@?3??file_from_archive@CLocatorAPI@@AEAAXAEAPEAVCStreamReader@@PEBDAEBUfile@2@@Z@4_NA DB 01H DUP (?) ; `CLocatorAPI::file_from_archive'::`4'::ignore_always
_BSS	ENDS
;	COMDAT ?ignore_always@?3??file_list@CLocatorAPI@@QEAAHAEAV?$xr_set@UFS_File@@U?$less@UFS_File@@@std@@V?$xalloc@UFS_File@@@@@@PEBDI1@Z@4_NA
_BSS	SEGMENT
?ignore_always@?3??file_list@CLocatorAPI@@QEAAHAEAV?$xr_set@UFS_File@@U?$less@UFS_File@@@std@@V?$xalloc@UFS_File@@@@@@PEBDI1@Z@4_NA DB 01H DUP (?) ; `CLocatorAPI::file_list'::`4'::ignore_always
_BSS	ENDS
;	COMDAT ?ignore_always@?3??file_list_open@CLocatorAPI@@QEAAPEAV?$xr_vector@PEADV?$xalloc@PEAD@@@@PEBDI@Z@4_NA
_BSS	SEGMENT
?ignore_always@?3??file_list_open@CLocatorAPI@@QEAAPEAV?$xr_vector@PEADV?$xalloc@PEAD@@@@PEBDI@Z@4_NA DB 01H DUP (?) ; `CLocatorAPI::file_list_open'::`4'::ignore_always
_BSS	ENDS
;	COMDAT ?ignore_always@?3??file_list_open@CLocatorAPI@@QEAAPEAV?$xr_vector@PEADV?$xalloc@PEAD@@@@PEBD0I@Z@4_NA
_BSS	SEGMENT
?ignore_always@?3??file_list_open@CLocatorAPI@@QEAAPEAV?$xr_vector@PEADV?$xalloc@PEAD@@@@PEBD0I@Z@4_NA DB 01H DUP (?) ; `CLocatorAPI::file_list_open'::`4'::ignore_always
_BSS	ENDS
;	COMDAT ?ignore_always@?BP@??_initialize@CLocatorAPI@@QEAAXIPEBD0@Z@4_NA
_BSS	SEGMENT
?ignore_always@?BP@??_initialize@CLocatorAPI@@QEAAXIPEBD0@Z@4_NA DB 01H DUP (?) ; `CLocatorAPI::_initialize'::`31'::ignore_always
_BSS	ENDS
;	COMDAT ?ignore_always@?BD@??_initialize@CLocatorAPI@@QEAAXIPEBD0@Z@4_NA
_BSS	SEGMENT
?ignore_always@?BD@??_initialize@CLocatorAPI@@QEAAXIPEBD0@Z@4_NA DB 01H DUP (?) ; `CLocatorAPI::_initialize'::`19'::ignore_always
_BSS	ENDS
;	COMDAT ?ignore_always@?O@??open@archive@CLocatorAPI@@QEAAXXZ@4_NA
_BSS	SEGMENT
?ignore_always@?O@??open@archive@CLocatorAPI@@QEAAXXZ@4_NA DB 01H DUP (?) ; `CLocatorAPI::archive::open'::`14'::ignore_always
_BSS	ENDS
;	COMDAT ?ignore_always@?9??open@archive@CLocatorAPI@@QEAAXXZ@4_NA
_BSS	SEGMENT
?ignore_always@?9??open@archive@CLocatorAPI@@QEAAXXZ@4_NA DB 01H DUP (?) ; `CLocatorAPI::archive::open'::`10'::ignore_always
_BSS	ENDS
;	COMDAT ?ignore_always@?5??open@archive@CLocatorAPI@@QEAAXXZ@4_NA
_BSS	SEGMENT
?ignore_always@?5??open@archive@CLocatorAPI@@QEAAXXZ@4_NA DB 01H DUP (?) ; `CLocatorAPI::archive::open'::`6'::ignore_always
_BSS	ENDS
;	COMDAT ?ignore_always@?BK@??LoadArchive@CLocatorAPI@@QEAAXAEAUarchive@2@PEBD@Z@4_NA
_BSS	SEGMENT
?ignore_always@?BK@??LoadArchive@CLocatorAPI@@QEAAXAEAUarchive@2@PEBD@Z@4_NA DB 01H DUP (?) ; `CLocatorAPI::LoadArchive'::`26'::ignore_always
_BSS	ENDS
;	COMDAT ?_OptionsStorage@?1??__local_stdio_scanf_options@@9@4_KA
_BSS	SEGMENT
?_OptionsStorage@?1??__local_stdio_scanf_options@@9@4_KA DQ 01H DUP (?) ; `__local_stdio_scanf_options'::`2'::_OptionsStorage
_BSS	ENDS
;	COMDAT ?ignore_always@?BG@??LoadArchive@CLocatorAPI@@QEAAXAEAUarchive@2@PEBD@Z@4_NA
_BSS	SEGMENT
?ignore_always@?BG@??LoadArchive@CLocatorAPI@@QEAAXAEAUarchive@2@PEBD@Z@4_NA DB 01H DUP (?) ; `CLocatorAPI::LoadArchive'::`22'::ignore_always
_BSS	ENDS
;	COMDAT ?ignore_always@?6??LoadArchive@CLocatorAPI@@QEAAXAEAUarchive@2@PEBD@Z@4_NA
_BSS	SEGMENT
?ignore_always@?6??LoadArchive@CLocatorAPI@@QEAAXAEAUarchive@2@PEBD@Z@4_NA DB 01H DUP (?) ; `CLocatorAPI::LoadArchive'::`7'::ignore_always
_BSS	ENDS
;	COMDAT ?ignore_always@?O@??Register@CLocatorAPI@@QEAAXPEBDIIIIII_N@Z@4_NA
_BSS	SEGMENT
?ignore_always@?O@??Register@CLocatorAPI@@QEAAXPEBDIIIIII_N@Z@4_NA DB 01H DUP (?) ; `CLocatorAPI::Register'::`14'::ignore_always
_BSS	ENDS
;	COMDAT ?ignore_always@?BA@??w@CFileWriter@@UEAAXPEBXI@Z@4_NA
_BSS	SEGMENT
?ignore_always@?BA@??w@CFileWriter@@UEAAXPEBXI@Z@4_NA DB 01H DUP (?) ; `CFileWriter::w'::`16'::ignore_always
_BSS	ENDS
;	COMDAT ?ignore_always@?8??w@CFileWriter@@UEAAXPEBXI@Z@4_NA
_BSS	SEGMENT
?ignore_always@?8??w@CFileWriter@@UEAAXPEBXI@Z@4_NA DB 01H DUP (?) ; `CFileWriter::w'::`9'::ignore_always
_BSS	ENDS
;	COMDAT ?ignore_always@?3???0CFileWriter@@QEAA@PEBD_N@Z@4_NA
_BSS	SEGMENT
?ignore_always@?3???0CFileWriter@@QEAA@PEBD_N@Z@4_NA DB 01H DUP (?) ; `CFileWriter::CFileWriter'::`4'::ignore_always
_BSS	ENDS
;	COMDAT ?ignore_always@?3???1IWriter@@UEAA@XZ@4_NA
_BSS	SEGMENT
?ignore_always@?3???1IWriter@@UEAA@XZ@4_NA DB 01H DUP (?) ; `IWriter::~IWriter'::`4'::ignore_always
_BSS	ENDS
;	COMDAT ??_7IWriter@@6B@
CONST	SEGMENT
??_7IWriter@@6B@ DQ FLAT:??_R4IWriter@@6B@		; IWriter::`vftable'
	DQ	FLAT:??_EIWriter@@UEAAPEAXI@Z
	DQ	FLAT:_purecall
	DQ	FLAT:_purecall
	DQ	FLAT:_purecall
	DQ	FLAT:?valid@IWriter@@UEAA_NXZ
	DQ	FLAT:_purecall
	DQ	FLAT:_purecall
	DQ	FLAT:_purecall
	DQ	FLAT:_purecall
CONST	ENDS
;	COMDAT ??_R4IWriter@@6B@
rdata$r	SEGMENT
??_R4IWriter@@6B@ DD 01H				; IWriter::`RTTI Complete Object Locator'
	DD	00H
	DD	00H
	DD	imagerel ??_R0?AVIWriter@@@8
	DD	imagerel ??_R3IWriter@@8
	DD	imagerel ??_R4IWriter@@6B@
rdata$r	ENDS
;	COMDAT ??_R3IWriter@@8
rdata$r	SEGMENT
??_R3IWriter@@8 DD 00H					; IWriter::`RTTI Class Hierarchy Descriptor'
	DD	00H
	DD	01H
	DD	imagerel ??_R2IWriter@@8
rdata$r	ENDS
;	COMDAT ??_R2IWriter@@8
rdata$r	SEGMENT
??_R2IWriter@@8 DD imagerel ??_R1A@?0A@EA@IWriter@@8	; IWriter::`RTTI Base Class Array'
	ORG $+3
rdata$r	ENDS
;	COMDAT ??_R1A@?0A@EA@IWriter@@8
rdata$r	SEGMENT
??_R1A@?0A@EA@IWriter@@8 DD imagerel ??_R0?AVIWriter@@@8 ; IWriter::`RTTI Base Class Descriptor at (0,-1,0,64)'
	DD	00H
	DD	00H
	DD	0ffffffffH
	DD	00H
	DD	040H
	DD	imagerel ??_R3IWriter@@8
rdata$r	ENDS
;	COMDAT ??_R0?AVIWriter@@@8
data$rs	SEGMENT
??_R0?AVIWriter@@@8 DQ FLAT:??_7type_info@@6B@		; IWriter `RTTI Type Descriptor'
	DQ	0000000000000000H
	DB	'.?AVIWriter@@', 00H
data$rs	ENDS
;	COMDAT ??_C@_0BC@EGCPHDDI@chunk_pos?4empty?$CI?$CJ@
CONST	SEGMENT
??_C@_0BC@EGCPHDDI@chunk_pos?4empty?$CI?$CJ@ DB 'chunk_pos.empty()', 00H ; `string'
CONST	ENDS
;	COMDAT ??_C@_0BJ@NEONBPEI@Opened?5chunk?5not?5closed?4@
CONST	SEGMENT
??_C@_0BJ@NEONBPEI@Opened?5chunk?5not?5closed?4@ DB 'Opened chunk not clo'
	DB	'sed.', 00H					; `string'
CONST	ENDS
;	COMDAT ??_C@_0EC@JABHKDLN@C?3?2Users?2Mahito?2Desktop?2Night?5o@
CONST	SEGMENT
??_C@_0EC@JABHKDLN@C?3?2Users?2Mahito?2Desktop?2Night?5o@ DB 'C:\Users\Ma'
	DB	'hito\Desktop\Night outing\Night-outing\src\xrCore\FS.h', 00H ; `string'
CONST	ENDS
;	COMDAT ??_C@_0BC@MMFONNCA@IWriter?3?3?$HOIWriter@
CONST	SEGMENT
??_C@_0BC@MMFONNCA@IWriter?3?3?$HOIWriter@ DB 'IWriter::~IWriter', 00H ; `string'
CONST	ENDS
;	COMDAT ??_7CFileWriter@@6B@
CONST	SEGMENT
??_7CFileWriter@@6B@ DQ FLAT:??_R4CFileWriter@@6B@	; CFileWriter::`vftable'
	DQ	FLAT:??_ECFileWriter@@UEAAPEAXI@Z
	DQ	FLAT:?seek@CFileWriter@@UEAAXI@Z
	DQ	FLAT:?tell@CFileWriter@@UEAAIXZ
	DQ	FLAT:?w@CFileWriter@@UEAAXPEBXI@Z
	DQ	FLAT:?valid@CFileWriter@@UEAA_NXZ
	DQ	FLAT:?flush@CFileWriter@@UEAAXXZ
	DQ	FLAT:?data_encript@CFileWriter@@UEAAXXZ
	DQ	FLAT:?enc_tell@CFileWriter@@UEAAIXZ
	DQ	FLAT:?w_encrypt@CFileWriter@@UEAAXPEBXI@Z
CONST	ENDS
;	COMDAT ??_7IReader@@6B@
CONST	SEGMENT
??_7IReader@@6B@ DQ FLAT:??_R4IReader@@6B@		; IReader::`vftable'
	DQ	FLAT:??_EIReader@@UEAAPEAXI@Z
CONST	ENDS
;	COMDAT ??_R4IReader@@6B@
rdata$r	SEGMENT
??_R4IReader@@6B@ DD 01H				; IReader::`RTTI Complete Object Locator'
	DD	00H
	DD	00H
	DD	imagerel ??_R0?AVIReader@@@8
	DD	imagerel ??_R3IReader@@8
	DD	imagerel ??_R4IReader@@6B@
rdata$r	ENDS
;	COMDAT ??_R3IReader@@8
rdata$r	SEGMENT
??_R3IReader@@8 DD 00H					; IReader::`RTTI Class Hierarchy Descriptor'
	DD	00H
	DD	02H
	DD	imagerel ??_R2IReader@@8
rdata$r	ENDS
;	COMDAT ??_R2IReader@@8
rdata$r	SEGMENT
??_R2IReader@@8 DD imagerel ??_R1A@?0A@EA@IReader@@8	; IReader::`RTTI Base Class Array'
	DD	imagerel ??_R1A@?0A@EA@?$IReaderBase@VIReader@@@@8
	ORG $+3
rdata$r	ENDS
;	COMDAT ??_R1A@?0A@EA@?$IReaderBase@VIReader@@@@8
rdata$r	SEGMENT
??_R1A@?0A@EA@?$IReaderBase@VIReader@@@@8 DD imagerel ??_R0?AV?$IReaderBase@VIReader@@@@@8 ; IReaderBase<IReader>::`RTTI Base Class Descriptor at (0,-1,0,64)'
	DD	00H
	DD	00H
	DD	0ffffffffH
	DD	00H
	DD	040H
	DD	imagerel ??_R3?$IReaderBase@VIReader@@@@8
rdata$r	ENDS
;	COMDAT ??_R3?$IReaderBase@VIReader@@@@8
rdata$r	SEGMENT
??_R3?$IReaderBase@VIReader@@@@8 DD 00H			; IReaderBase<IReader>::`RTTI Class Hierarchy Descriptor'
	DD	00H
	DD	01H
	DD	imagerel ??_R2?$IReaderBase@VIReader@@@@8
rdata$r	ENDS
;	COMDAT ??_R2?$IReaderBase@VIReader@@@@8
rdata$r	SEGMENT
??_R2?$IReaderBase@VIReader@@@@8 DD imagerel ??_R1A@?0A@EA@?$IReaderBase@VIReader@@@@8 ; IReaderBase<IReader>::`RTTI Base Class Array'
	ORG $+3
rdata$r	ENDS
;	COMDAT ??_R0?AV?$IReaderBase@VIReader@@@@@8
data$rs	SEGMENT
??_R0?AV?$IReaderBase@VIReader@@@@@8 DQ FLAT:??_7type_info@@6B@ ; IReaderBase<IReader> `RTTI Type Descriptor'
	DQ	0000000000000000H
	DB	'.?AV?$IReaderBase@VIReader@@@@', 00H
data$rs	ENDS
;	COMDAT ??_R1A@?0A@EA@IReader@@8
rdata$r	SEGMENT
??_R1A@?0A@EA@IReader@@8 DD imagerel ??_R0?AVIReader@@@8 ; IReader::`RTTI Base Class Descriptor at (0,-1,0,64)'
	DD	01H
	DD	00H
	DD	0ffffffffH
	DD	00H
	DD	040H
	DD	imagerel ??_R3IReader@@8
rdata$r	ENDS
;	COMDAT ??_R0?AVIReader@@@8
data$rs	SEGMENT
??_R0?AVIReader@@@8 DQ FLAT:??_7type_info@@6B@		; IReader `RTTI Type Descriptor'
	DQ	0000000000000000H
	DB	'.?AVIReader@@', 00H
data$rs	ENDS
;	COMDAT ??_7?$IReaderBase@VIReader@@@@6B@
CONST	SEGMENT
??_7?$IReaderBase@VIReader@@@@6B@ DQ FLAT:??_R4?$IReaderBase@VIReader@@@@6B@ ; IReaderBase<IReader>::`vftable'
	DQ	FLAT:??_E?$IReaderBase@VIReader@@@@UEAAPEAXI@Z
CONST	ENDS
;	COMDAT ??_R4?$IReaderBase@VIReader@@@@6B@
rdata$r	SEGMENT
??_R4?$IReaderBase@VIReader@@@@6B@ DD 01H		; IReaderBase<IReader>::`RTTI Complete Object Locator'
	DD	00H
	DD	00H
	DD	imagerel ??_R0?AV?$IReaderBase@VIReader@@@@@8
	DD	imagerel ??_R3?$IReaderBase@VIReader@@@@8
	DD	imagerel ??_R4?$IReaderBase@VIReader@@@@6B@
rdata$r	ENDS
;	COMDAT ??_7CTempReader@@6B@
CONST	SEGMENT
??_7CTempReader@@6B@ DQ FLAT:??_R4CTempReader@@6B@	; CTempReader::`vftable'
	DQ	FLAT:??_ECTempReader@@UEAAPEAXI@Z
CONST	ENDS
;	COMDAT ??_7CPackReader@@6B@
CONST	SEGMENT
??_7CPackReader@@6B@ DQ FLAT:??_R4CPackReader@@6B@	; CPackReader::`vftable'
	DQ	FLAT:??_ECPackReader@@UEAAPEAXI@Z
CONST	ENDS
;	COMDAT ??_7CStreamReader@@6B@
CONST	SEGMENT
??_7CStreamReader@@6B@ DQ FLAT:??_R4CStreamReader@@6B@	; CStreamReader::`vftable'
	DQ	FLAT:??_ECStreamReader@@UEAAPEAXI@Z
	DQ	FLAT:?construct@CStreamReader@@UEAAXAEBQEAXAEBI111@Z
	DQ	FLAT:?destroy@CStreamReader@@UEAAXXZ
CONST	ENDS
;	COMDAT ??_C@_01HIHLOKLC@1@
CONST	SEGMENT
??_C@_01HIHLOKLC@1@ DB '1', 00H				; `string'
CONST	ENDS
;	COMDAT ??_C@_03ICICOMAL@yes@
CONST	SEGMENT
??_C@_03ICICOMAL@yes@ DB 'yes', 00H			; `string'
CONST	ENDS
;	COMDAT ??_C@_02LIELOMNJ@on@
CONST	SEGMENT
??_C@_02LIELOMNJ@on@ DB 'on', 00H			; `string'
CONST	ENDS
;	COMDAT ??_7?$IReaderBase@VCStreamReader@@@@6B@
CONST	SEGMENT
??_7?$IReaderBase@VCStreamReader@@@@6B@ DQ FLAT:??_R4?$IReaderBase@VCStreamReader@@@@6B@ ; IReaderBase<CStreamReader>::`vftable'
	DQ	FLAT:??_E?$IReaderBase@VCStreamReader@@@@UEAAPEAXI@Z
CONST	ENDS
;	COMDAT ??_7CFileStreamReader@@6B@
CONST	SEGMENT
??_7CFileStreamReader@@6B@ DQ FLAT:??_R4CFileStreamReader@@6B@ ; CFileStreamReader::`vftable'
	DQ	FLAT:??_ECFileStreamReader@@UEAAPEAXI@Z
	DQ	FLAT:?construct@CStreamReader@@UEAAXAEBQEAXAEBI111@Z
	DQ	FLAT:?destroy@CFileStreamReader@@UEAAXXZ
	DQ	FLAT:?construct@CFileStreamReader@@UEAAXPEBDAEBI@Z
CONST	ENDS
;	COMDAT ??_R4CStreamReader@@6B@
rdata$r	SEGMENT
??_R4CStreamReader@@6B@ DD 01H				; CStreamReader::`RTTI Complete Object Locator'
	DD	00H
	DD	00H
	DD	imagerel ??_R0?AVCStreamReader@@@8
	DD	imagerel ??_R3CStreamReader@@8
	DD	imagerel ??_R4CStreamReader@@6B@
rdata$r	ENDS
;	COMDAT ??_R4CFileWriter@@6B@
rdata$r	SEGMENT
??_R4CFileWriter@@6B@ DD 01H				; CFileWriter::`RTTI Complete Object Locator'
	DD	00H
	DD	00H
	DD	imagerel ??_R0?AVCFileWriter@@@8
	DD	imagerel ??_R3CFileWriter@@8
	DD	imagerel ??_R4CFileWriter@@6B@
rdata$r	ENDS
;	COMDAT ??_R4CTempReader@@6B@
rdata$r	SEGMENT
??_R4CTempReader@@6B@ DD 01H				; CTempReader::`RTTI Complete Object Locator'
	DD	00H
	DD	00H
	DD	imagerel ??_R0?AVCTempReader@@@8
	DD	imagerel ??_R3CTempReader@@8
	DD	imagerel ??_R4CTempReader@@6B@
rdata$r	ENDS
;	COMDAT ??_R4CPackReader@@6B@
rdata$r	SEGMENT
??_R4CPackReader@@6B@ DD 01H				; CPackReader::`RTTI Complete Object Locator'
	DD	00H
	DD	00H
	DD	imagerel ??_R0?AVCPackReader@@@8
	DD	imagerel ??_R3CPackReader@@8
	DD	imagerel ??_R4CPackReader@@6B@
rdata$r	ENDS
;	COMDAT ??_R4?$IReaderBase@VCStreamReader@@@@6B@
rdata$r	SEGMENT
??_R4?$IReaderBase@VCStreamReader@@@@6B@ DD 01H		; IReaderBase<CStreamReader>::`RTTI Complete Object Locator'
	DD	00H
	DD	00H
	DD	imagerel ??_R0?AV?$IReaderBase@VCStreamReader@@@@@8
	DD	imagerel ??_R3?$IReaderBase@VCStreamReader@@@@8
	DD	imagerel ??_R4?$IReaderBase@VCStreamReader@@@@6B@
rdata$r	ENDS
;	COMDAT ??_R4CFileStreamReader@@6B@
rdata$r	SEGMENT
??_R4CFileStreamReader@@6B@ DD 01H			; CFileStreamReader::`RTTI Complete Object Locator'
	DD	00H
	DD	00H
	DD	imagerel ??_R0?AVCFileStreamReader@@@8
	DD	imagerel ??_R3CFileStreamReader@@8
	DD	imagerel ??_R4CFileStreamReader@@6B@
rdata$r	ENDS
;	COMDAT ??_R0?AVCStreamReader@@@8
data$rs	SEGMENT
??_R0?AVCStreamReader@@@8 DQ FLAT:??_7type_info@@6B@	; CStreamReader `RTTI Type Descriptor'
	DQ	0000000000000000H
	DB	'.?AVCStreamReader@@', 00H
data$rs	ENDS
;	COMDAT ??_R3CStreamReader@@8
rdata$r	SEGMENT
??_R3CStreamReader@@8 DD 00H				; CStreamReader::`RTTI Class Hierarchy Descriptor'
	DD	00H
	DD	02H
	DD	imagerel ??_R2CStreamReader@@8
rdata$r	ENDS
;	COMDAT ??_R0?AV?$IReaderBase@VCStreamReader@@@@@8
data$rs	SEGMENT
??_R0?AV?$IReaderBase@VCStreamReader@@@@@8 DQ FLAT:??_7type_info@@6B@ ; IReaderBase<CStreamReader> `RTTI Type Descriptor'
	DQ	0000000000000000H
	DB	'.?AV?$IReaderBase@VCStreamReader@@@@', 00H
data$rs	ENDS
;	COMDAT ??_R3?$IReaderBase@VCStreamReader@@@@8
rdata$r	SEGMENT
??_R3?$IReaderBase@VCStreamReader@@@@8 DD 00H		; IReaderBase<CStreamReader>::`RTTI Class Hierarchy Descriptor'
	DD	00H
	DD	01H
	DD	imagerel ??_R2?$IReaderBase@VCStreamReader@@@@8
rdata$r	ENDS
;	COMDAT ??_R0?AVCFileWriter@@@8
data$rs	SEGMENT
??_R0?AVCFileWriter@@@8 DQ FLAT:??_7type_info@@6B@	; CFileWriter `RTTI Type Descriptor'
	DQ	0000000000000000H
	DB	'.?AVCFileWriter@@', 00H
data$rs	ENDS
;	COMDAT ??_R3CFileWriter@@8
rdata$r	SEGMENT
??_R3CFileWriter@@8 DD 00H				; CFileWriter::`RTTI Class Hierarchy Descriptor'
	DD	00H
	DD	02H
	DD	imagerel ??_R2CFileWriter@@8
rdata$r	ENDS
;	COMDAT ??_R0?AVCTempReader@@@8
data$rs	SEGMENT
??_R0?AVCTempReader@@@8 DQ FLAT:??_7type_info@@6B@	; CTempReader `RTTI Type Descriptor'
	DQ	0000000000000000H
	DB	'.?AVCTempReader@@', 00H
data$rs	ENDS
;	COMDAT ??_R3CTempReader@@8
rdata$r	SEGMENT
??_R3CTempReader@@8 DD 00H				; CTempReader::`RTTI Class Hierarchy Descriptor'
	DD	00H
	DD	03H
	DD	imagerel ??_R2CTempReader@@8
rdata$r	ENDS
;	COMDAT ??_R0?AVCPackReader@@@8
data$rs	SEGMENT
??_R0?AVCPackReader@@@8 DQ FLAT:??_7type_info@@6B@	; CPackReader `RTTI Type Descriptor'
	DQ	0000000000000000H
	DB	'.?AVCPackReader@@', 00H
data$rs	ENDS
;	COMDAT ??_R3CPackReader@@8
rdata$r	SEGMENT
??_R3CPackReader@@8 DD 00H				; CPackReader::`RTTI Class Hierarchy Descriptor'
	DD	00H
	DD	03H
	DD	imagerel ??_R2CPackReader@@8
rdata$r	ENDS
;	COMDAT ??_R0?AVCFileStreamReader@@@8
data$rs	SEGMENT
??_R0?AVCFileStreamReader@@@8 DQ FLAT:??_7type_info@@6B@ ; CFileStreamReader `RTTI Type Descriptor'
	DQ	0000000000000000H
	DB	'.?AVCFileStreamReader@@', 00H
data$rs	ENDS
;	COMDAT ??_R3CFileStreamReader@@8
rdata$r	SEGMENT
??_R3CFileStreamReader@@8 DD 00H			; CFileStreamReader::`RTTI Class Hierarchy Descriptor'
	DD	00H
	DD	03H
	DD	imagerel ??_R2CFileStreamReader@@8
rdata$r	ENDS
;	COMDAT ??_R1A@?0A@EA@?$IReaderBase@VCStreamReader@@@@8
rdata$r	SEGMENT
??_R1A@?0A@EA@?$IReaderBase@VCStreamReader@@@@8 DD imagerel ??_R0?AV?$IReaderBase@VCStreamReader@@@@@8 ; IReaderBase<CStreamReader>::`RTTI Base Class Descriptor at (0,-1,0,64)'
	DD	00H
	DD	00H
	DD	0ffffffffH
	DD	00H
	DD	040H
	DD	imagerel ??_R3?$IReaderBase@VCStreamReader@@@@8
rdata$r	ENDS
;	COMDAT ??_R1A@?0A@EA@CStreamReader@@8
rdata$r	SEGMENT
??_R1A@?0A@EA@CStreamReader@@8 DD imagerel ??_R0?AVCStreamReader@@@8 ; CStreamReader::`RTTI Base Class Descriptor at (0,-1,0,64)'
	DD	01H
	DD	00H
	DD	0ffffffffH
	DD	00H
	DD	040H
	DD	imagerel ??_R3CStreamReader@@8
rdata$r	ENDS
;	COMDAT ??_R1A@?0A@EA@CFileWriter@@8
rdata$r	SEGMENT
??_R1A@?0A@EA@CFileWriter@@8 DD imagerel ??_R0?AVCFileWriter@@@8 ; CFileWriter::`RTTI Base Class Descriptor at (0,-1,0,64)'
	DD	01H
	DD	00H
	DD	0ffffffffH
	DD	00H
	DD	040H
	DD	imagerel ??_R3CFileWriter@@8
rdata$r	ENDS
;	COMDAT ??_R1A@?0A@EA@CTempReader@@8
rdata$r	SEGMENT
??_R1A@?0A@EA@CTempReader@@8 DD imagerel ??_R0?AVCTempReader@@@8 ; CTempReader::`RTTI Base Class Descriptor at (0,-1,0,64)'
	DD	02H
	DD	00H
	DD	0ffffffffH
	DD	00H
	DD	040H
	DD	imagerel ??_R3CTempReader@@8
rdata$r	ENDS
;	COMDAT ??_R1A@?0A@EA@CPackReader@@8
rdata$r	SEGMENT
??_R1A@?0A@EA@CPackReader@@8 DD imagerel ??_R0?AVCPackReader@@@8 ; CPackReader::`RTTI Base Class Descriptor at (0,-1,0,64)'
	DD	02H
	DD	00H
	DD	0ffffffffH
	DD	00H
	DD	040H
	DD	imagerel ??_R3CPackReader@@8
rdata$r	ENDS
;	COMDAT ??_R1A@?0A@EA@CFileStreamReader@@8
rdata$r	SEGMENT
??_R1A@?0A@EA@CFileStreamReader@@8 DD imagerel ??_R0?AVCFileStreamReader@@@8 ; CFileStreamReader::`RTTI Base Class Descriptor at (0,-1,0,64)'
	DD	02H
	DD	00H
	DD	0ffffffffH
	DD	00H
	DD	040H
	DD	imagerel ??_R3CFileStreamReader@@8
rdata$r	ENDS
;	COMDAT ??_R2?$IReaderBase@VCStreamReader@@@@8
rdata$r	SEGMENT
??_R2?$IReaderBase@VCStreamReader@@@@8 DD imagerel ??_R1A@?0A@EA@?$IReaderBase@VCStreamReader@@@@8 ; IReaderBase<CStreamReader>::`RTTI Base Class Array'
	ORG $+3
rdata$r	ENDS
;	COMDAT ??_R2CStreamReader@@8
rdata$r	SEGMENT
??_R2CStreamReader@@8 DD imagerel ??_R1A@?0A@EA@CStreamReader@@8 ; CStreamReader::`RTTI Base Class Array'
	DD	imagerel ??_R1A@?0A@EA@?$IReaderBase@VCStreamReader@@@@8
	ORG $+3
rdata$r	ENDS
;	COMDAT ??_R2CFileWriter@@8
rdata$r	SEGMENT
??_R2CFileWriter@@8 DD imagerel ??_R1A@?0A@EA@CFileWriter@@8 ; CFileWriter::`RTTI Base Class Array'
	DD	imagerel ??_R1A@?0A@EA@IWriter@@8
	ORG $+3
rdata$r	ENDS
;	COMDAT ??_R2CTempReader@@8
rdata$r	SEGMENT
??_R2CTempReader@@8 DD imagerel ??_R1A@?0A@EA@CTempReader@@8 ; CTempReader::`RTTI Base Class Array'
	DD	imagerel ??_R1A@?0A@EA@IReader@@8
	DD	imagerel ??_R1A@?0A@EA@?$IReaderBase@VIReader@@@@8
	ORG $+3
rdata$r	ENDS
;	COMDAT ??_R2CPackReader@@8
rdata$r	SEGMENT
??_R2CPackReader@@8 DD imagerel ??_R1A@?0A@EA@CPackReader@@8 ; CPackReader::`RTTI Base Class Array'
	DD	imagerel ??_R1A@?0A@EA@IReader@@8
	DD	imagerel ??_R1A@?0A@EA@?$IReaderBase@VIReader@@@@8
	ORG $+3
rdata$r	ENDS
;	COMDAT ??_R2CFileStreamReader@@8
rdata$r	SEGMENT
??_R2CFileStreamReader@@8 DD imagerel ??_R1A@?0A@EA@CFileStreamReader@@8 ; CFileStreamReader::`RTTI Base Class Array'
	DD	imagerel ??_R1A@?0A@EA@CStreamReader@@8
	DD	imagerel ??_R1A@?0A@EA@?$IReaderBase@VCStreamReader@@@@8
	ORG $+3
rdata$r	ENDS
;	COMDAT ??_C@_0N@OHLAPOFE@PIZDA?5?$CFs?0?5?$CFs@
CONST	SEGMENT
??_C@_0N@OHLAPOFE@PIZDA?5?$CFs?0?5?$CFs@ DB 'PIZDA %s, %s', 00H ; `string'
CONST	ENDS
;	COMDAT ??_C@_03HMFOOINA@r?$CLb@
CONST	SEGMENT
??_C@_03HMFOOINA@r?$CLb@ DB 'r+b', 00H			; `string'
CONST	ENDS
;	COMDAT ??_C@_0BB@BCMNINKJ@$?$CB?$CD?$CFTEMP?$CF?$CD?$CB$?4$$$@
CONST	SEGMENT
??_C@_0BB@BCMNINKJ@$?$CB?$CD?$CFTEMP?$CF?$CD?$CB$?4$$$@ DB '$!#%TEMP%#!$.'
	DB	'$$$', 00H					; `string'
CONST	ENDS
;	COMDAT ??_C@_0CH@NLNALLCJ@?$CBCan?8t?5set?5file?5age?3?5?8?$CFs?8?4?5Erro@
CONST	SEGMENT
??_C@_0CH@NLNALLCJ@?$CBCan?8t?5set?5file?5age?3?5?8?$CFs?8?4?5Erro@ DB '!'
	DB	'Can''t set file age: ''%s''. Error: ''%s''', 00H ; `string'
CONST	ENDS
;	COMDAT ??_C@_0BA@GAAJDLDK@P?$CB?$DNpathes?4end?$CI?$CJ@
CONST	SEGMENT
??_C@_0BA@GAAJDLDK@P?$CB?$DNpathes?4end?$CI?$CJ@ DB 'P!=pathes.end()', 00H ; `string'
CONST	ENDS
;	COMDAT ??_C@_0BG@PGJPPKFM@CLocatorAPI?3?3get_path@
CONST	SEGMENT
??_C@_0BG@PGJPPKFM@CLocatorAPI?3?3get_path@ DB 'CLocatorAPI::get_path', 00H ; `string'
CONST	ENDS
;	COMDAT ??_C@_0BA@OBKFGFII@S?9?$DOfName?4size?$CI?$CJ@
CONST	SEGMENT
??_C@_0BA@OBKFGFII@S?9?$DOfName?4size?$CI?$CJ@ DB 'S->fName.size()', 00H ; `string'
CONST	ENDS
;	COMDAT ??_C@_0BF@KJEOMGDK@CLocatorAPI?3?3w_close@
CONST	SEGMENT
??_C@_0BF@KJEOMGDK@CLocatorAPI?3?3w_close@ DB 'CLocatorAPI::w_close', 00H ; `string'
CONST	ENDS
;	COMDAT ??_C@_0CH@CDLHGCED@desc?4size_compressed?5?$DN?$DN?5desc?4si@
CONST	SEGMENT
??_C@_0CH@CDLHGCED@desc?4size_compressed?5?$DN?$DN?5desc?4si@ DB 'desc.si'
	DB	'ze_compressed == desc.size_real', 00H	; `string'
CONST	ENDS
;	COMDAT ??_C@_0FG@DIPPMNGC@cannot?5use?5stream?5reading?5for?5c@
CONST	SEGMENT
??_C@_0FG@DIPPMNGC@cannot?5use?5stream?5reading?5for?5c@ DB 'cannot use s'
	DB	'tream reading for compressed data %s, do not compress data to'
	DB	' be streamed', 00H				; `string'
CONST	ENDS
;	COMDAT ??_C@_0BP@IDGLINDD@CLocatorAPI?3?3file_from_archive@
CONST	SEGMENT
??_C@_0BP@IDGLINDD@CLocatorAPI?3?3file_from_archive@ DB 'CLocatorAPI::fil'
	DB	'e_from_archive', 00H			; `string'
CONST	ENDS
;	COMDAT ??_C@_05CCMOGDN@?$CFs?3?$CFs@
CONST	SEGMENT
??_C@_05CCMOGDN@?$CFs?3?$CFs@ DB '%s:%s', 00H		; `string'
CONST	ENDS
;	COMDAT ??_C@_0CA@FFGNCPBA@copy?3?5db?$FL?$CFX?$FN?0cache?$FL?$CFX?$FN?5?9?5?8?$CFs?8?0?5@
CONST	SEGMENT
??_C@_0CA@FFGNCPBA@copy?3?5db?$FL?$CFX?$FN?0cache?$FL?$CFX?$FN?5?9?5?8?$CFs?8?0?5@ DB 'c'
	DB	'opy: db[%X],cache[%X] - ''%s'', ', 00H	; `string'
CONST	ENDS
;	COMDAT ??_C@_07BODPMKB@$cache$@
CONST	SEGMENT
??_C@_07BODPMKB@$cache$@ DB '$cache$', 00H		; `string'
CONST	ENDS
;	COMDAT ??_C@_0O@KBJLCFDF@$server_root$@
CONST	SEGMENT
??_C@_0O@KBJLCFDF@$server_root$@ DB '$server_root$', 00H ; `string'
CONST	ENDS
;	COMDAT ??_C@_0BH@DPKJMGPO@CLocatorAPI?3?3file_list@
CONST	SEGMENT
??_C@_0BH@DPKJMGPO@CLocatorAPI?3?3file_list@ DB 'CLocatorAPI::file_list', 00H ; `string'
CONST	ENDS
;	COMDAT ??_C@_05DHHBLFPE@_path@
CONST	SEGMENT
??_C@_05DHHBLFPE@_path@ DB '_path', 00H			; `string'
CONST	ENDS
;	COMDAT ??_C@_0BE@HAMBABC@initial?$CG?$CGinitial?$FL0?$FN@
CONST	SEGMENT
??_C@_0BE@HAMBABC@initial?$CG?$CGinitial?$FL0?$FN@ DB 'initial&&initial[0'
	DB	']', 00H					; `string'
CONST	ENDS
;	COMDAT ??_C@_0BM@BCLCKGPF@CLocatorAPI?3?3file_list_open@
CONST	SEGMENT
??_C@_0BM@BCLCKGPF@CLocatorAPI?3?3file_list_open@ DB 'CLocatorAPI::file_l'
	DB	'ist_open', 00H				; `string'
CONST	ENDS
;	COMDAT ??_C@_06PNKCMPKN@?9nolog@
CONST	SEGMENT
??_C@_06PNKCMPKN@?9nolog@ DB '-nolog', 00H		; `string'
CONST	ENDS
;	COMDAT ??_C@_0O@CCJKFHLL@?9overlaypath?5@
CONST	SEGMENT
??_C@_0O@CCJKFHLL@?9overlaypath?5@ DB '-overlaypath ', 00H ; `string'
CONST	ENDS
;	COMDAT ??_C@_06EPKOIJFL@?$CF?$FL?$FO?5?$FN?5@
CONST	SEGMENT
??_C@_06EPKOIJFL@?$CF?$FL?$FO?5?$FN?5@ DB '%[^ ] ', 00H	; `string'
CONST	ENDS
;	COMDAT ??_C@_0N@KDCPCCHO@?9overlaypath@
CONST	SEGMENT
??_C@_0N@KDCPCCHO@?9overlaypath@ DB '-overlaypath', 00H	; `string'
CONST	ENDS
;	COMDAT ??_C@_0BH@EOPBPCDD@Init?5FileSystem?5?$CFf?5sec@
CONST	SEGMENT
??_C@_0BH@EOPBPCDD@Init?5FileSystem?5?$CFf?5sec@ DB 'Init FileSystem %f s'
	DB	'ec', 00H					; `string'
CONST	ENDS
;	COMDAT ??_C@_0DD@CAEFBCFE@FS?3?5?$CFd?5files?5cached?5?$CFd?5archives@
CONST	SEGMENT
??_C@_0DD@CAEFBCFE@FS?3?5?$CFd?5files?5cached?5?$CFd?5archives@ DB 'FS: %'
	DB	'd files cached %d archives, %dKb memory used.', 00H ; `string'
CONST	ENDS
;	COMDAT ??_C@_0BO@NBFPPDBD@path_exist?$CI?$CC$app_data_root$?$CC?$CJ@
CONST	SEGMENT
??_C@_0BO@NBFPPDBD@path_exist?$CI?$CC$app_data_root$?$CC?$CJ@ DB 'path_ex'
	DB	'ist("$app_data_root$")', 00H		; `string'
CONST	ENDS
;	COMDAT ??_C@_0BA@BDJNLMJI@$app_data_root$@
CONST	SEGMENT
??_C@_0BA@BDJNLMJI@$app_data_root$@ DB '$app_data_root$', 00H ; `string'
CONST	ENDS
;	COMDAT ??_C@_0HK@KEJFMLNK@The?5file?5?8fsgame?4ltx?8?5is?5corrup@
CONST	SEGMENT
??_C@_0HK@KEJFMLNK@The?5file?5?8fsgame?4ltx?8?5is?5corrup@ DB 'The file '''
	DB	'fsgame.ltx'' is corrupted (it contains duplicated lines).', 0aH
	DB	'Please reinstall the game or fix the problem manually.', 00H ; `string'
CONST	ENDS
;	COMDAT ??_C@_06COENMCLN@cnt?$DO?$DN3@
CONST	SEGMENT
??_C@_06COENMCLN@cnt?$DO?$DN3@ DB 'cnt>=3', 00H		; `string'
CONST	ENDS
;	COMDAT ??_C@_0BJ@IICBJFBM@CLocatorAPI?3?3_initialize@
CONST	SEGMENT
??_C@_0BJ@IICBJFBM@CLocatorAPI?3?3_initialize@ DB 'CLocatorAPI::_initiali'
	DB	'ze', 00H					; `string'
CONST	ENDS
;	COMDAT ??_C@_0N@IKDMHBKA@$build_copy$@
CONST	SEGMENT
??_C@_0N@IKDMHBKA@$build_copy$@ DB '$build_copy$', 00H	; `string'
CONST	ENDS
;	COMDAT ??_C@_0BA@GKILFOIC@$target_folder$@
CONST	SEGMENT
??_C@_0BA@GKILFOIC@$target_folder$@ DB '$target_folder$', 00H ; `string'
CONST	ENDS
;	COMDAT ??_C@_0L@IKMMHABM@Folder?3?5?$CFs@
CONST	SEGMENT
??_C@_0L@IKMMHABM@Folder?3?5?$CFs@ DB 'Folder: %s', 00H	; `string'
CONST	ENDS
;	COMDAT ??_C@_0L@IJKLJMDK@$app_root$@
CONST	SEGMENT
??_C@_0L@IJKLJMDK@$app_root$@ DB '$app_root$', 00H	; `string'
CONST	ENDS
;	COMDAT ??_C@_0BM@MNMEOPGN@Initializing?5File?5System?4?4?4@
CONST	SEGMENT
??_C@_0BM@MNMEOPGN@Initializing?5File?5System?4?4?4@ DB 'Initializing Fil'
	DB	'e System...', 00H				; `string'
CONST	ENDS
;	COMDAT ??_C@_0DC@IAAFPNKM@Cannot?5open?5file?5?$CC?$CFs?$CC?4?6Check?5yo@
CONST	SEGMENT
??_C@_0DC@IAAFPNKM@Cannot?5open?5file?5?$CC?$CFs?$CC?4?6Check?5yo@ DB 'Ca'
	DB	'nnot open file "%s".', 0aH, 'Check your working folder.', 00H ; `string'
CONST	ENDS
;	COMDAT ??_C@_0N@LICIKBGH@using?5fs?9ltx@
CONST	SEGMENT
??_C@_0N@LICIKBGH@using?5fs?9ltx@ DB 'using fs-ltx', 00H ; `string'
CONST	ENDS
;	COMDAT ??_C@_0L@BMGDDJNL@fsgame?4ltx@
CONST	SEGMENT
??_C@_0L@BMGDDJNL@fsgame?4ltx@ DB 'fsgame.ltx', 00H	; `string'
CONST	ENDS
;	COMDAT ??_C@_03EMIMMIHL@?$CK?4?$CK@
CONST	SEGMENT
??_C@_03EMIMMIHL@?$CK?4?$CK@ DB '*.*', 00H		; `string'
CONST	ENDS
;	COMDAT ??_C@_04PBLCHLCN@?4xdb@
CONST	SEGMENT
??_C@_04PBLCHLCN@?4xdb@ DB '.xdb', 00H			; `string'
CONST	ENDS
;	COMDAT ??_C@_03IGEDJCDH@?4db@
CONST	SEGMENT
??_C@_03IGEDJCDH@?4db@ DB '.db', 00H			; `string'
CONST	ENDS
;	COMDAT ??_C@_0BA@HEFHIGC@?9auto_load_arch@
CONST	SEGMENT
??_C@_0BA@HEFHIGC@?9auto_load_arch@ DB '-auto_load_arch', 00H ; `string'
CONST	ENDS
;	COMDAT ??_C@_09EHFLBFLE@auto_load@
CONST	SEGMENT
??_C@_09EHFLBFLE@auto_load@ DB 'auto_load', 00H		; `string'
CONST	ENDS
;	COMDAT ??_C@_0P@KMNAHBAD@archive_header@
CONST	SEGMENT
??_C@_0P@KMNAHBAD@archive_header@ DB 'archive_header', 00H ; `string'
CONST	ENDS
;	COMDAT ??_C@_06NOMBLFJD@size?$DO0@
CONST	SEGMENT
??_C@_06NOMBLFJD@size?$DO0@ DB 'size>0', 00H		; `string'
CONST	ENDS
;	COMDAT ??_C@_0BO@DODFDMMA@hSrcMap?$CB?$DNINVALID_HANDLE_VALUE@
CONST	SEGMENT
??_C@_0BO@DODFDMMA@hSrcMap?$CB?$DNINVALID_HANDLE_VALUE@ DB 'hSrcMap!=INVA'
	DB	'LID_HANDLE_VALUE', 00H			; `string'
CONST	ENDS
;	COMDAT ??_C@_0BP@JJGNJHJF@hSrcFile?$CB?$DNINVALID_HANDLE_VALUE@
CONST	SEGMENT
??_C@_0BP@JJGNJHJF@hSrcFile?$CB?$DNINVALID_HANDLE_VALUE@ DB 'hSrcFile!=IN'
	DB	'VALID_HANDLE_VALUE', 00H			; `string'
CONST	ENDS
;	COMDAT ??_C@_0BL@JPGJLLLP@CLocatorAPI?3?3archive?3?3open@
CONST	SEGMENT
??_C@_0BL@JPGJLLLP@CLocatorAPI?3?3archive?3?3open@ DB 'CLocatorAPI::archi'
	DB	've::open', 00H				; `string'
CONST	ENDS
;	COMDAT ??_C@_08BNIAGCID@count?$DN?$DN1@
CONST	SEGMENT
??_C@_08BNIAGCID@count?$DN?$DN1@ DB 'count==1', 00H	; `string'
CONST	ENDS
;	COMDAT ??_C@_06PPNBJIOI@?$CF?$FL?$FO?2?$FNs@
CONST	SEGMENT
??_C@_06PPNBJIOI@?$CF?$FL?$FO?2?$FNs@ DB '%[^\]s', 00H	; `string'
CONST	ENDS
;	COMDAT ??_C@_0BI@IENAPAPN@?$CKread_path?4c_str?$CI?$CJ?$DN?$DN?8$?8@
CONST	SEGMENT
??_C@_0BI@IENAPAPN@?$CKread_path?4c_str?$CI?$CJ?$DN?$DN?8$?8@ DB '*read_p'
	DB	'ath.c_str()==''$''', 00H			; `string'
CONST	ENDS
;	COMDAT ??_C@_09HKEHFMHK@gamedata?2@
CONST	SEGMENT
??_C@_09HKEHFMHK@gamedata?2@ DB 'gamedata\', 00H	; `string'
CONST	ENDS
;	COMDAT ??_C@_09BOCFEJAJ@$fs_root$@
CONST	SEGMENT
??_C@_09BOCFEJAJ@$fs_root$@ DB '$fs_root$', 00H		; `string'
CONST	ENDS
;	COMDAT ??_C@_06MBPAJAPM@header@
CONST	SEGMENT
??_C@_06MBPAJAPM@header@ DB 'header', 00H		; `string'
CONST	ENDS
;	COMDAT ??_C@_0M@COHIENOO@entry_point@
CONST	SEGMENT
??_C@_0M@COHIENOO@entry_point@ DB 'entry_point', 00H	; `string'
CONST	ENDS
;	COMDAT ??_C@_0BB@DJIDCDNC@shutdown?5?1s?5?1t?50@
CONST	SEGMENT
??_C@_0BB@DJIDCDNC@shutdown?5?1s?5?1t?50@ DB 'shutdown /s /t 0', 00H ; `string'
CONST	ENDS
;	COMDAT ??_C@_0BJ@CPALHAL@CLocatorAPI?3?3LoadArchive@
CONST	SEGMENT
??_C@_0BJ@CPALHAL@CLocatorAPI?3?3LoadArchive@ DB 'CLocatorAPI::LoadArchiv'
	DB	'e', 00H					; `string'
CONST	ENDS
;	COMDAT ??_C@_08PMINNIHH@I?4second@
CONST	SEGMENT
??_C@_08PMINNIHH@I?4second@ DB 'I.second', 00H		; `string'
CONST	ENDS
;	COMDAT ??_C@_0EM@MMOIKOPE@C?3?2Users?2Mahito?2Desktop?2Night?5o@
CONST	SEGMENT
??_C@_0EM@MMOIKOPE@C?3?2Users?2Mahito?2Desktop?2Night?5o@ DB 'C:\Users\Ma'
	DB	'hito\Desktop\Night outing\Night-outing\src\xrCore\LocatorAPI.'
	DB	'cpp', 00H					; `string'
CONST	ENDS
;	COMDAT ??_C@_0BG@JLICPDMD@CLocatorAPI?3?3Register@
CONST	SEGMENT
??_C@_0BG@JLICPDMD@CLocatorAPI?3?3Register@ DB 'CLocatorAPI::Register', 00H ; `string'
CONST	ENDS
;	COMDAT ??_C@_0BB@JJHONFGH@?9?9?9?9total?5count?$DN@
CONST	SEGMENT
??_C@_0BB@JJHONFGH@?9?9?9?9total?5count?$DN@ DB '----total count=', 00H ; `string'
CONST	ENDS
;	COMDAT ??_C@_0M@FJPLFMD@?9?9?9?9un?9used@
CONST	SEGMENT
??_C@_0M@FJPLFMD@?9?9?9?9un?9used@ DB '----un-used', 00H ; `string'
CONST	ENDS
;	COMDAT ??_C@_0O@LIGGBFJO@?$FL?$CFd?$FN?5fname?3?$CFs@
CONST	SEGMENT
??_C@_0O@LIGGBFJO@?$FL?$CFd?$FN?5fname?3?$CFs@ DB '[%d] fname:%s', 00H ; `string'
CONST	ENDS
;	COMDAT ??_C@_0BB@FNAKDLB@?9?9?9?9opened?5files@
CONST	SEGMENT
??_C@_0BB@FNAKDLB@?9?9?9?9opened?5files@ DB '----opened files', 00H ; `string'
CONST	ENDS
;	COMDAT ??_C@_0BL@GBLFJGAI@file?5opened?5at?5least?5twice@
CONST	SEGMENT
??_C@_0BL@GBLFJGAI@file?5opened?5at?5least?5twice@ DB 'file opened at lea'
	DB	'st twice', 00H				; `string'
CONST	ENDS
;	COMDAT ??_C@_04FLEBEKDE@W?$DN?$DN1@
CONST	SEGMENT
??_C@_04FLEBEKDE@W?$DN?$DN1@ DB 'W==1', 00H		; `string'
CONST	ENDS
;	COMDAT ??_C@_0DA@NHFCHCFA@Can?8t?5write?5mem?5block?5to?5file?4?5@
CONST	SEGMENT
??_C@_0DA@NHFCHCFA@Can?8t?5write?5mem?5block?5to?5file?4?5@ DB 'Can''t wr'
	DB	'ite mem block to file. Disk maybe full.', 00H ; `string'
CONST	ENDS
;	COMDAT ??_C@_0P@JAENBJCA@CFileWriter?3?3w@
CONST	SEGMENT
??_C@_0P@JAENBJCA@CFileWriter?3?3w@ DB 'CFileWriter::w', 00H ; `string'
CONST	ENDS
;	COMDAT ??_C@_0CG@NLEAPLKA@?$CBCan?8t?5write?5file?3?5?8?$CFs?8?4?5Error?3@
CONST	SEGMENT
??_C@_0CG@NLEAPLKA@?$CBCan?8t?5write?5file?3?5?8?$CFs?8?4?5Error?3@ DB '!'
	DB	'Can''t write file: ''%s''. Error: ''%s''.', 00H ; `string'
CONST	ENDS
;	COMDAT ??_C@_02GMLFBBN@wb@
CONST	SEGMENT
??_C@_02GMLFBBN@wb@ DB 'wb', 00H			; `string'
CONST	ENDS
;	COMDAT ??_C@_0BA@FFHJPHKB@name?5?$CG?$CG?5name?$FL0?$FN@
CONST	SEGMENT
??_C@_0BA@FFHJPHKB@name?5?$CG?$CG?5name?$FL0?$FN@ DB 'name && name[0]', 00H ; `string'
CONST	ENDS
;	COMDAT ??_C@_0EL@KFKBFKBD@C?3?2Users?2Mahito?2Desktop?2Night?5o@
CONST	SEGMENT
??_C@_0EL@KFKBFKBD@C?3?2Users?2Mahito?2Desktop?2Night?5o@ DB 'C:\Users\Ma'
	DB	'hito\Desktop\Night outing\Night-outing\src\xrCore\FS_internal'
	DB	'.h', 00H					; `string'
CONST	ENDS
;	COMDAT ??_C@_0BJ@LHOADAED@CFileWriter?3?3CFileWriter@
CONST	SEGMENT
??_C@_0BJ@LHOADAED@CFileWriter?3?3CFileWriter@ DB 'CFileWriter::CFileWrit'
	DB	'er', 00H					; `string'
	ORG $+6236
?BIG_FILE_READER_WINDOW_SIZE@@3IB DD 0100000H		; BIG_FILE_READER_WINDOW_SIZE
PUBLIC	??0IWriter@@QEAA@XZ				; IWriter::IWriter
PUBLIC	??0shared_str@@QEAA@XZ				; shared_str::shared_str
PUBLIC	??1?$xr_stack@IV?$xr_vector@IV?$xalloc@I@@@@@@QEAA@XZ ; xr_stack<unsigned int,xr_vector<unsigned int,xalloc<unsigned int> > >::~xr_stack<unsigned int,xr_vector<unsigned int,xalloc<unsigned int> > >
PUBLIC	??1?$xr_vector@IV?$xalloc@I@@@@QEAA@XZ		; xr_vector<unsigned int,xalloc<unsigned int> >::~xr_vector<unsigned int,xalloc<unsigned int> >
PUBLIC	??1?$vector@IV?$xalloc@I@@@std@@QEAA@XZ		; std::vector<unsigned int,xalloc<unsigned int> >::~vector<unsigned int,xalloc<unsigned int> >
PUBLIC	?_Tidy@?$vector@IV?$xalloc@I@@@std@@AEAAXXZ	; std::vector<unsigned int,xalloc<unsigned int> >::_Tidy
PUBLIC	?deallocate@?$xalloc@I@@QEBAXPEAI_K@Z		; xalloc<unsigned int>::deallocate
PUBLIC	??$xr_free@I@@YAXAEAPEAI@Z			; xr_free<unsigned int>
PUBLIC	??$_Destroy_range@V?$xalloc@I@@@std@@YAXPEAIQEAIAEAV?$xalloc@I@@@Z ; std::_Destroy_range<xalloc<unsigned int> >
PUBLIC	??$_Unfancy@I@std@@YAPEAIPEAI@Z			; std::_Unfancy<unsigned int>
PUBLIC	??$destroy@I@?$_Normal_allocator_traits@V?$xalloc@I@@@std@@SAXAEAV?$xalloc@I@@PEAI@Z ; std::_Normal_allocator_traits<xalloc<unsigned int> >::destroy<unsigned int>
PUBLIC	?destroy@?$xalloc@I@@QEAAXPEAI@Z		; xalloc<unsigned int>::destroy
PUBLIC	?_Getal@?$vector@IV?$xalloc@I@@@std@@AEAAAEAV?$xalloc@I@@XZ ; std::vector<unsigned int,xalloc<unsigned int> >::_Getal
PUBLIC	?_Get_first@?$_Compressed_pair@V?$xalloc@I@@V?$_Vector_val@U?$_Simple_types@I@std@@@std@@$00@std@@QEAAAEAV?$xalloc@I@@XZ ; std::_Compressed_pair<xalloc<unsigned int>,std::_Vector_val<std::_Simple_types<unsigned int> >,1>::_Get_first
PUBLIC	??0?$xr_stack@IV?$xr_vector@IV?$xalloc@I@@@@@@QEAA@XZ ; xr_stack<unsigned int,xr_vector<unsigned int,xalloc<unsigned int> > >::xr_stack<unsigned int,xr_vector<unsigned int,xalloc<unsigned int> > >
PUBLIC	??0?$xr_vector@IV?$xalloc@I@@@@QEAA@XZ		; xr_vector<unsigned int,xalloc<unsigned int> >::xr_vector<unsigned int,xalloc<unsigned int> >
PUBLIC	??0?$vector@IV?$xalloc@I@@@std@@QEAA@XZ		; std::vector<unsigned int,xalloc<unsigned int> >::vector<unsigned int,xalloc<unsigned int> >
PUBLIC	??$?0$$V@?$_Compressed_pair@V?$xalloc@I@@V?$_Vector_val@U?$_Simple_types@I@std@@@std@@$00@std@@QEAA@U_Zero_then_variadic_args_t@1@@Z ; std::_Compressed_pair<xalloc<unsigned int>,std::_Vector_val<std::_Simple_types<unsigned int> >,1>::_Compressed_pair<xalloc<unsigned int>,std::_Vector_val<std::_Simple_types<unsigned int> >,1><>
PUBLIC	??0?$_Vector_val@U?$_Simple_types@I@std@@@std@@QEAA@XZ ; std::_Vector_val<std::_Simple_types<unsigned int> >::_Vector_val<std::_Simple_types<unsigned int> >
PUBLIC	??0?$xalloc@I@@QEAA@XZ				; xalloc<unsigned int>::xalloc<unsigned int>
PUBLIC	?valid@IWriter@@UEAA_NXZ			; IWriter::valid
PUBLIC	??1IWriter@@UEAA@XZ				; IWriter::~IWriter
PUBLIC	??Dshared_str@@QEBAPEBDXZ			; shared_str::operator*
PUBLIC	?empty@?$xr_stack@IV?$xr_vector@IV?$xalloc@I@@@@@@QEBA_NXZ ; xr_stack<unsigned int,xr_vector<unsigned int,xalloc<unsigned int> > >::empty
PUBLIC	?empty@?$vector@IV?$xalloc@I@@@std@@QEBA_NXZ	; std::vector<unsigned int,xalloc<unsigned int> >::empty
PUBLIC	??4shared_str@@QEAAAEAV0@PEBD@Z			; shared_str::operator=
PUBLIC	?_sopen@@YAHQEBDHHH@Z				; _sopen
PUBLIC	??0IReader@@QEAA@PEAXHH@Z			; IReader::IReader
PUBLIC	??1?$IReaderBase@VIReader@@@@UEAA@XZ		; IReaderBase<IReader>::~IReaderBase<IReader>
PUBLIC	??_G?$IReaderBase@VIReader@@@@UEAAPEAXI@Z	; IReaderBase<IReader>::`scalar deleting destructor'
PUBLIC	??0?$IReaderBase@VIReader@@@@QEAA@XZ		; IReaderBase<IReader>::IReaderBase<IReader>
PUBLIC	??1IReader@@UEAA@XZ				; IReader::~IReader
PUBLIC	??4shared_str@@QEAAAEAV0@AEBV0@@Z		; shared_str::operator=
PUBLIC	??8@YA_NAEBVshared_str@@0@Z			; operator==
PUBLIC	?_get@shared_str@@QEBAPEBUstr_value@@XZ		; shared_str::_get
PUBLIC	?xr_strlwr@@YAPEADPEAD@Z			; xr_strlwr
PUBLIC	??$xr_free@E@@YAXAEAPEAE@Z			; xr_free<unsigned char>
PUBLIC	sscanf
PUBLIC	_vsscanf_l
PUBLIC	?strext@@YAPEADPEBD@Z				; strext
PUBLIC	??0archive@CLocatorAPI@@QEAA@XZ			; CLocatorAPI::archive::archive
PUBLIC	??$xr_free@D@@YAXAEAPEAD@Z			; xr_free<char>
PUBLIC	?xr_strcmp@@YAHPEBD0@Z				; xr_strcmp
PUBLIC	?IsBOOL@CInifile@@SAHPEBD@Z			; CInifile::IsBOOL
PUBLIC	??1?$_Compressed_pair@V?$xalloc@D@@V?$_String_val@U?$_Simple_types@D@std@@@std@@$00@std@@QEAA@XZ ; std::_Compressed_pair<xalloc<char>,std::_String_val<std::_Simple_types<char> >,1>::~_Compressed_pair<xalloc<char>,std::_String_val<std::_Simple_types<char> >,1>
PUBLIC	??1?$basic_string@DU?$char_traits@D@std@@V?$xalloc@D@@@std@@QEAA@XZ ; std::basic_string<char,std::char_traits<char>,xalloc<char> >::~basic_string<char,std::char_traits<char>,xalloc<char> >
PUBLIC	?_Tidy_deallocate@?$basic_string@DU?$char_traits@D@std@@V?$xalloc@D@@@std@@AEAAXXZ ; std::basic_string<char,std::char_traits<char>,xalloc<char> >::_Tidy_deallocate
PUBLIC	?deallocate@?$xalloc@D@@QEBAXPEAD_K@Z		; xalloc<char>::deallocate
PUBLIC	?_Getal@?$basic_string@DU?$char_traits@D@std@@V?$xalloc@D@@@std@@AEAAAEAV?$xalloc@D@@XZ ; std::basic_string<char,std::char_traits<char>,xalloc<char> >::_Getal
PUBLIC	?_Get_first@?$_Compressed_pair@V?$xalloc@D@@V?$_String_val@U?$_Simple_types@D@std@@@std@@$00@std@@QEAAAEAV?$xalloc@D@@XZ ; std::_Compressed_pair<xalloc<char>,std::_String_val<std::_Simple_types<char> >,1>::_Get_first
PUBLIC	?length@IReader@@QEBAHXZ			; IReader::length
PUBLIC	?pointer@IReader@@QEBAPEAXXZ			; IReader::pointer
PUBLIC	?size@shared_str@@QEBAIXZ			; shared_str::size
PUBLIC	?r_open@CLocatorAPI@@QEAAPEAVIReader@@PEBD@Z	; CLocatorAPI::r_open
PUBLIC	?elapsed@IReader@@QEBAHXZ			; IReader::elapsed
PUBLIC	??Rfile_pred@CLocatorAPI@@QEBA_NAEBUfile@1@0@Z	; CLocatorAPI::file_pred::operator()
PUBLIC	??_GIReader@@UEAAPEAXI@Z			; IReader::`scalar deleting destructor'
PUBLIC	??_GIWriter@@UEAAPEAXI@Z			; IWriter::`scalar deleting destructor'
PUBLIC	??0DelegateMemento@fastdelegate@@QEAA@XZ	; fastdelegate::DelegateMemento::DelegateMemento
PUBLIC	??Rpred_str@@QEBA_NPEBD0@Z			; pred_str::operator()
PUBLIC	??0_open_file@@QEAA@AEBU0@@Z			; _open_file::_open_file
PUBLIC	?construct@?$xalloc@U_open_file@@@@QEAAXPEAU_open_file@@AEBU2@@Z ; xalloc<_open_file>::construct
PUBLIC	??$construct@EE@?$_Normal_allocator_traits@V?$xalloc@E@@@std@@SAXAEAV?$xalloc@E@@PEAE$$QEAE@Z ; std::_Normal_allocator_traits<xalloc<unsigned char> >::construct<unsigned char,unsigned char>
PUBLIC	??$forward@E@std@@YA$$QEAEAEAE@Z		; std::forward<unsigned char>
PUBLIC	??$construct@Uarchive@CLocatorAPI@@AEAU12@@?$_Normal_allocator_traits@V?$xalloc@Uarchive@CLocatorAPI@@@@@std@@SAXAEAV?$xalloc@Uarchive@CLocatorAPI@@@@PEAUarchive@CLocatorAPI@@AEAU34@@Z ; std::_Normal_allocator_traits<xalloc<CLocatorAPI::archive> >::construct<CLocatorAPI::archive,CLocatorAPI::archive &>
PUBLIC	??$forward@AEAUarchive@CLocatorAPI@@@std@@YAAEAUarchive@CLocatorAPI@@AEAU12@@Z ; std::forward<CLocatorAPI::archive &>
PUBLIC	??$construct@U_open_file@@AEAU1@@?$_Normal_allocator_traits@V?$xalloc@U_open_file@@@@@std@@SAXAEAV?$xalloc@U_open_file@@@@PEAU_open_file@@AEAU3@@Z ; std::_Normal_allocator_traits<xalloc<_open_file> >::construct<_open_file,_open_file &>
PUBLIC	??$forward@AEAU_open_file@@@std@@YAAEAU_open_file@@AEAU1@@Z ; std::forward<_open_file &>
PUBLIC	??$forward@AEAPEAU_finddata64i32_t@@@std@@YAAEAPEAU_finddata64i32_t@@AEAPEAU1@@Z ; std::forward<_finddata64i32_t * &>
PUBLIC	??$swap@U_finddata64i32_t@@$0A@@std@@YAXAEAU_finddata64i32_t@@0@Z ; std::swap<_finddata64i32_t,0>
PUBLIC	??$_Med3_unchecked@PEAU_finddata64i32_t@@P6A_NAEBU1@0@Z@std@@YAXPEAU_finddata64i32_t@@00P6A_NAEBU1@1@Z@Z ; std::_Med3_unchecked<_finddata64i32_t *,bool (__cdecl*)(_finddata64i32_t const &,_finddata64i32_t const &)>
PUBLIC	??$_Pop_heap_hole_unchecked@PEAU_finddata64i32_t@@U1@P6A_NAEBU1@0@Z@std@@YAXPEAU_finddata64i32_t@@00$$QEAU1@P6A_NAEBU1@2@Z@Z ; std::_Pop_heap_hole_unchecked<_finddata64i32_t *,_finddata64i32_t,bool (__cdecl*)(_finddata64i32_t const &,_finddata64i32_t const &)>
PUBLIC	??$_Push_heap_by_index@PEAU_finddata64i32_t@@U1@P6A_NAEBU1@0@Z@std@@YAXPEAU_finddata64i32_t@@_J1$$QEAU1@P6A_NAEBU1@3@Z@Z ; std::_Push_heap_by_index<_finddata64i32_t *,_finddata64i32_t,bool (__cdecl*)(_finddata64i32_t const &,_finddata64i32_t const &)>
PUBLIC	??$_Copy_backward_memmove@PEAU_finddata64i32_t@@PEAU1@@std@@YAPEAU_finddata64i32_t@@PEAU1@00@Z ; std::_Copy_backward_memmove<_finddata64i32_t *,_finddata64i32_t *>
PUBLIC	??0_open_file@@QEAA@XZ				; _open_file::_open_file
PUBLIC	??$Convert@V?$FastDelegate1@PEBD_N@fastdelegate@@P812@EBA_NPEBD@ZP8GenericClass@detail@2@EAAXXZ@?$SimplifyMemFunc@$07@detail@fastdelegate@@SAPEAVGenericClass@12@PEAV?$FastDelegate1@PEBD_N@2@P842@EBA_NPEBD@ZAEAP8312@EAAXXZ@Z ; fastdelegate::detail::SimplifyMemFunc<8>::Convert<fastdelegate::FastDelegate1<char const *,bool>,bool (__cdecl fastdelegate::FastDelegate1<char const *,bool>::*)(char const *)const ,void (__cdecl fastdelegate::detail::GenericClass::*)(void)>
PUBLIC	??$_Emplace_back@E@?$_Uninitialized_backout_al@V?$xalloc@E@@@std@@QEAAX$$QEAE@Z ; std::_Uninitialized_backout_al<xalloc<unsigned char> >::_Emplace_back<unsigned char>
PUBLIC	??$move@AEAE@std@@YA$$QEAEAEAE@Z		; std::move<unsigned char &>
PUBLIC	??$_Emplace_back@Uarchive@CLocatorAPI@@@?$_Uninitialized_backout_al@V?$xalloc@Uarchive@CLocatorAPI@@@@@std@@QEAAX$$QEAUarchive@CLocatorAPI@@@Z ; std::_Uninitialized_backout_al<xalloc<CLocatorAPI::archive> >::_Emplace_back<CLocatorAPI::archive>
PUBLIC	??$_Emplace_back@AEAUarchive@CLocatorAPI@@@?$_Uninitialized_backout_al@V?$xalloc@Uarchive@CLocatorAPI@@@@@std@@QEAAXAEAUarchive@CLocatorAPI@@@Z ; std::_Uninitialized_backout_al<xalloc<CLocatorAPI::archive> >::_Emplace_back<CLocatorAPI::archive &>
PUBLIC	??$move@AEAPEAUarchive@CLocatorAPI@@@std@@YA$$QEAPEAUarchive@CLocatorAPI@@AEAPEAU12@@Z ; std::move<CLocatorAPI::archive * &>
PUBLIC	??$construct@U_finddata64i32_t@@AEAU1@@?$_Normal_allocator_traits@V?$xalloc@U_finddata64i32_t@@@@@std@@SAXAEAV?$xalloc@U_finddata64i32_t@@@@PEAU_finddata64i32_t@@AEAU3@@Z ; std::_Normal_allocator_traits<xalloc<_finddata64i32_t> >::construct<_finddata64i32_t,_finddata64i32_t &>
PUBLIC	??$forward@AEAU_finddata64i32_t@@@std@@YAAEAU_finddata64i32_t@@AEAU1@@Z ; std::forward<_finddata64i32_t &>
PUBLIC	??$construct@U_open_file@@$$V@?$_Normal_allocator_traits@V?$xalloc@U_open_file@@@@@std@@SAXAEAV?$xalloc@U_open_file@@@@PEAU_open_file@@@Z ; std::_Normal_allocator_traits<xalloc<_open_file> >::construct<_open_file>
PUBLIC	??$_Emplace_back@AEAU_open_file@@@?$_Uninitialized_backout_al@V?$xalloc@U_open_file@@@@@std@@QEAAXAEAU_open_file@@@Z ; std::_Uninitialized_backout_al<xalloc<_open_file> >::_Emplace_back<_open_file &>
PUBLIC	??$move@AEAPEAU_open_file@@@std@@YA$$QEAPEAU_open_file@@AEAPEAU1@@Z ; std::move<_open_file * &>
PUBLIC	??$?0AEAPEAU_finddata64i32_t@@AEAPEAU0@$0A@@?$pair@PEAU_finddata64i32_t@@PEAU1@@std@@QEAA@AEAPEAU_finddata64i32_t@@0@Z ; std::pair<_finddata64i32_t *,_finddata64i32_t *>::pair<_finddata64i32_t *,_finddata64i32_t *><_finddata64i32_t * &,_finddata64i32_t * &,0>
PUBLIC	??$iter_swap@PEAU_finddata64i32_t@@PEAU1@@std@@YAXPEAU_finddata64i32_t@@0@Z ; std::iter_swap<_finddata64i32_t *,_finddata64i32_t *>
PUBLIC	??$_Next_iter@PEAU_finddata64i32_t@@@std@@YAPEAU_finddata64i32_t@@PEAU1@@Z ; std::_Next_iter<_finddata64i32_t *>
PUBLIC	??$_Guess_median_unchecked@PEAU_finddata64i32_t@@P6A_NAEBU1@0@Z@std@@YAXPEAU_finddata64i32_t@@00P6A_NAEBU1@1@Z@Z ; std::_Guess_median_unchecked<_finddata64i32_t *,bool (__cdecl*)(_finddata64i32_t const &,_finddata64i32_t const &)>
PUBLIC	??$_Prev_iter@PEAU_finddata64i32_t@@@std@@YAPEAU_finddata64i32_t@@PEAU1@@Z ; std::_Prev_iter<_finddata64i32_t *>
PUBLIC	??$_Pop_heap_unchecked@PEAU_finddata64i32_t@@P6A_NAEBU1@0@Z@std@@YAXPEAU_finddata64i32_t@@0P6A_NAEBU1@1@Z@Z ; std::_Pop_heap_unchecked<_finddata64i32_t *,bool (__cdecl*)(_finddata64i32_t const &,_finddata64i32_t const &)>
PUBLIC	??$_Pop_heap_hole_by_index@PEAU_finddata64i32_t@@U1@P6A_NAEBU1@0@Z@std@@YAXPEAU_finddata64i32_t@@_J1$$QEAU1@P6A_NAEBU1@3@Z@Z ; std::_Pop_heap_hole_by_index<_finddata64i32_t *,_finddata64i32_t,bool (__cdecl*)(_finddata64i32_t const &,_finddata64i32_t const &)>
PUBLIC	??$_Move_backward_unchecked@PEAU_finddata64i32_t@@PEAU1@@std@@YAPEAU_finddata64i32_t@@PEAU1@00@Z ; std::_Move_backward_unchecked<_finddata64i32_t *,_finddata64i32_t *>
PUBLIC	??$forward@PEAU?$_Tree_node@Ufile@CLocatorAPI@@PEAX@std@@@std@@YA$$QEAPEAU?$_Tree_node@Ufile@CLocatorAPI@@PEAX@0@AEAPEAU10@@Z ; std::forward<std::_Tree_node<CLocatorAPI::file,void *> *>
PUBLIC	??$_Construct_in_place@PEAU?$_Tree_node@Ufile@CLocatorAPI@@PEAX@std@@AEAPEAU12@@std@@YAXAEAPEAU?$_Tree_node@Ufile@CLocatorAPI@@PEAX@0@0@Z ; std::_Construct_in_place<std::_Tree_node<CLocatorAPI::file,void *> *,std::_Tree_node<CLocatorAPI::file,void *> * &>
PUBLIC	??$construct@Ufile@CLocatorAPI@@AEBU12@@?$_Normal_allocator_traits@V?$xalloc@U?$_Tree_node@Ufile@CLocatorAPI@@PEAX@std@@@@@std@@SAXAEAV?$xalloc@U?$_Tree_node@Ufile@CLocatorAPI@@PEAX@std@@@@PEAUfile@CLocatorAPI@@AEBU34@@Z ; std::_Normal_allocator_traits<xalloc<std::_Tree_node<CLocatorAPI::file,void *> > >::construct<CLocatorAPI::file,CLocatorAPI::file const &>
PUBLIC	??0?$_Alloc_construct_ptr@V?$xalloc@U?$_Tree_node@Ufile@CLocatorAPI@@PEAX@std@@@@@std@@QEAA@AEAV?$xalloc@U?$_Tree_node@Ufile@CLocatorAPI@@PEAX@std@@@@@Z ; std::_Alloc_construct_ptr<xalloc<std::_Tree_node<CLocatorAPI::file,void *> > >::_Alloc_construct_ptr<xalloc<std::_Tree_node<CLocatorAPI::file,void *> > >
PUBLIC	?_Allocate@?$_Alloc_construct_ptr@V?$xalloc@U?$_Tree_node@Ufile@CLocatorAPI@@PEAX@std@@@@@std@@QEAAXXZ ; std::_Alloc_construct_ptr<xalloc<std::_Tree_node<CLocatorAPI::file,void *> > >::_Allocate
PUBLIC	??1?$_Alloc_construct_ptr@V?$xalloc@U?$_Tree_node@U?$pair@QEBDPEAVFS_Path@@@std@@PEAX@std@@@@@std@@QEAA@XZ ; std::_Alloc_construct_ptr<xalloc<std::_Tree_node<std::pair<char const * const,FS_Path *>,void *> > >::~_Alloc_construct_ptr<xalloc<std::_Tree_node<std::pair<char const * const,FS_Path *>,void *> > >
PUBLIC	??0archive@CLocatorAPI@@QEAA@AEBU01@@Z		; CLocatorAPI::archive::archive
PUBLIC	??1?$_Tree_temp_node_alloc@V?$xalloc@U?$_Tree_node@U?$pair@QEBDPEAVFS_Path@@@std@@PEAX@std@@@@@std@@QEAA@XZ ; std::_Tree_temp_node_alloc<xalloc<std::_Tree_node<std::pair<char const * const,FS_Path *>,void *> > >::~_Tree_temp_node_alloc<xalloc<std::_Tree_node<std::pair<char const * const,FS_Path *>,void *> > >
PUBLIC	?destroy@?$xalloc@PEAD@@QEAAXPEAPEAD@Z		; xalloc<char *>::destroy
PUBLIC	?construct@?$xalloc@E@@QEAAXPEAEAEBE@Z		; xalloc<unsigned char>::construct
PUBLIC	?construct@?$xalloc@Uarchive@CLocatorAPI@@@@QEAAXPEAUarchive@CLocatorAPI@@AEBU23@@Z ; xalloc<CLocatorAPI::archive>::construct
PUBLIC	?construct@?$xalloc@U_finddata64i32_t@@@@QEAAXPEAU_finddata64i32_t@@AEBU2@@Z ; xalloc<_finddata64i32_t>::construct
PUBLIC	??0?$_Tree_temp_node_alloc@V?$xalloc@U?$_Tree_node@Ufile@CLocatorAPI@@PEAX@std@@@@@std@@QEAA@AEAV?$xalloc@U?$_Tree_node@Ufile@CLocatorAPI@@PEAX@std@@@@@Z ; std::_Tree_temp_node_alloc<xalloc<std::_Tree_node<CLocatorAPI::file,void *> > >::_Tree_temp_node_alloc<xalloc<std::_Tree_node<CLocatorAPI::file,void *> > >
PUBLIC	??1?$_Tree_temp_node@V?$xalloc@U?$_Tree_node@U?$pair@QEBDPEAVFS_Path@@@std@@PEAX@std@@@@@std@@QEAA@XZ ; std::_Tree_temp_node<xalloc<std::_Tree_node<std::pair<char const * const,FS_Path *>,void *> > >::~_Tree_temp_node<xalloc<std::_Tree_node<std::pair<char const * const,FS_Path *>,void *> > >
PUBLIC	??0?$_Uninitialized_backout_al@V?$xalloc@Uarchive@CLocatorAPI@@@@@std@@QEAA@PEAUarchive@CLocatorAPI@@AEAV?$xalloc@Uarchive@CLocatorAPI@@@@@Z ; std::_Uninitialized_backout_al<xalloc<CLocatorAPI::archive> >::_Uninitialized_backout_al<xalloc<CLocatorAPI::archive> >
PUBLIC	??1?$_Uninitialized_backout_al@V?$xalloc@Uarchive@CLocatorAPI@@@@@std@@QEAA@XZ ; std::_Uninitialized_backout_al<xalloc<CLocatorAPI::archive> >::~_Uninitialized_backout_al<xalloc<CLocatorAPI::archive> >
PUBLIC	?_Release@?$_Uninitialized_backout_al@V?$xalloc@Uarchive@CLocatorAPI@@@@@std@@QEAAPEAUarchive@CLocatorAPI@@XZ ; std::_Uninitialized_backout_al<xalloc<CLocatorAPI::archive> >::_Release
PUBLIC	??0?$_Uninitialized_backout_al@V?$xalloc@E@@@std@@QEAA@PEAEAEAV?$xalloc@E@@@Z ; std::_Uninitialized_backout_al<xalloc<unsigned char> >::_Uninitialized_backout_al<xalloc<unsigned char> >
PUBLIC	??1?$_Uninitialized_backout_al@V?$xalloc@E@@@std@@QEAA@XZ ; std::_Uninitialized_backout_al<xalloc<unsigned char> >::~_Uninitialized_backout_al<xalloc<unsigned char> >
PUBLIC	?_Release@?$_Uninitialized_backout_al@V?$xalloc@E@@@std@@QEAAPEAEXZ ; std::_Uninitialized_backout_al<xalloc<unsigned char> >::_Release
PUBLIC	??1?$_Uninitialized_backout_al@V?$xalloc@PEAD@@@std@@QEAA@XZ ; std::_Uninitialized_backout_al<xalloc<char *> >::~_Uninitialized_backout_al<xalloc<char *> >
PUBLIC	??_GFS_File@@QEAAPEAXI@Z			; FS_File::`scalar deleting destructor'
PUBLIC	??$xr_free@U?$_Tree_node@UFS_File@@PEAX@std@@@@YAXAEAPEAU?$_Tree_node@UFS_File@@PEAX@std@@@Z ; xr_free<std::_Tree_node<FS_File,void *> >
PUBLIC	??$xr_free@U?$_Tree_node@U?$pair@QEBDPEAVFS_Path@@@std@@PEAX@std@@@@YAXAEAPEAU?$_Tree_node@U?$pair@QEBDPEAVFS_Path@@@std@@PEAX@std@@@Z ; xr_free<std::_Tree_node<std::pair<char const * const,FS_Path *>,void *> >
PUBLIC	??$xr_free@U?$_Tree_node@Ufile@CLocatorAPI@@PEAX@std@@@@YAXAEAPEAU?$_Tree_node@Ufile@CLocatorAPI@@PEAX@std@@@Z ; xr_free<std::_Tree_node<CLocatorAPI::file,void *> >
PUBLIC	??$xr_alloc@Uarchive@CLocatorAPI@@@@YAPEAUarchive@CLocatorAPI@@I@Z ; xr_alloc<CLocatorAPI::archive>
PUBLIC	??$xr_alloc@U_open_file@@@@YAPEAU_open_file@@I@Z ; xr_alloc<_open_file>
PUBLIC	??$_Refancy@PEAU_open_file@@$0A@@std@@YAPEAU_open_file@@PEAU1@@Z ; std::_Refancy<_open_file *,0>
PUBLIC	??$exchange@PEAU?$_Tree_node@Ufile@CLocatorAPI@@PEAX@std@@$$T@std@@YAPEAU?$_Tree_node@Ufile@CLocatorAPI@@PEAX@0@AEAPEAU10@$$QEA$$T@Z ; std::exchange<std::_Tree_node<CLocatorAPI::file,void *> *,std::nullptr_t>
PUBLIC	??$destroy@UFS_File@@@?$_Normal_allocator_traits@V?$xalloc@U?$_Tree_node@UFS_File@@PEAX@std@@@@@std@@SAXAEAV?$xalloc@U?$_Tree_node@UFS_File@@PEAX@std@@@@PEAUFS_File@@@Z ; std::_Normal_allocator_traits<xalloc<std::_Tree_node<FS_File,void *> > >::destroy<FS_File>
PUBLIC	??$addressof@UFS_File@@@std@@YAPEAUFS_File@@AEAU1@@Z ; std::addressof<FS_File>
PUBLIC	??$_Destroy_in_place@PEAU?$_Tree_node@UFS_File@@PEAX@std@@@std@@YAXAEAPEAU?$_Tree_node@UFS_File@@PEAX@0@@Z ; std::_Destroy_in_place<std::_Tree_node<FS_File,void *> *>
PUBLIC	??$destroy@PEAD@?$_Normal_allocator_traits@V?$xalloc@PEAD@@@std@@SAXAEAV?$xalloc@PEAD@@PEAPEAD@Z ; std::_Normal_allocator_traits<xalloc<char *> >::destroy<char *>
PUBLIC	??$horrible_cast@PEAVGenericClass@detail@fastdelegate@@P6A_NPEBD@Z@detail@fastdelegate@@YAPEAVGenericClass@01@Q6A_NPEBD@Z@Z ; fastdelegate::detail::horrible_cast<fastdelegate::detail::GenericClass *,bool (__cdecl*)(char const *)>
PUBLIC	??$bindmemfunc@V?$FastDelegate1@PEBD_N@fastdelegate@@P812@EBA_NPEBD@Z@?$ClosurePtr@P8GenericClass@detail@fastdelegate@@EAA_NPEBD@ZP6A_N0@ZP6A_N0@Z@detail@fastdelegate@@QEAAXPEAV?$FastDelegate1@PEBD_N@2@P832@EBA_NPEBD@Z@Z ; fastdelegate::detail::ClosurePtr<bool (__cdecl fastdelegate::detail::GenericClass::*)(char const *),bool (__cdecl*)(char const *),bool (__cdecl*)(char const *)>::bindmemfunc<fastdelegate::FastDelegate1<char const *,bool>,bool (__cdecl fastdelegate::FastDelegate1<char const *,bool>::*)(char const *)const >
PUBLIC	??$_Voidify_iter@PEAPEAU?$_Tree_node@Ufile@CLocatorAPI@@PEAX@std@@@std@@YAPEAXPEAPEAU?$_Tree_node@Ufile@CLocatorAPI@@PEAX@0@@Z ; std::_Voidify_iter<std::_Tree_node<CLocatorAPI::file,void *> * *>
PUBLIC	??$addressof@PEAU?$_Tree_node@Ufile@CLocatorAPI@@PEAX@std@@@std@@YAPEAPEAU?$_Tree_node@Ufile@CLocatorAPI@@PEAX@0@AEAPEAU10@@Z ; std::addressof<std::_Tree_node<CLocatorAPI::file,void *> *>
PUBLIC	??$construct@U_finddata64i32_t@@U1@@?$_Normal_allocator_traits@V?$xalloc@U_finddata64i32_t@@@@@std@@SAXAEAV?$xalloc@U_finddata64i32_t@@@@PEAU_finddata64i32_t@@$$QEAU3@@Z ; std::_Normal_allocator_traits<xalloc<_finddata64i32_t> >::construct<_finddata64i32_t,_finddata64i32_t>
PUBLIC	??$forward@U_finddata64i32_t@@@std@@YA$$QEAU_finddata64i32_t@@AEAU1@@Z ; std::forward<_finddata64i32_t>
PUBLIC	??$_Unfancy@PEAD@std@@YAPEAPEADPEAPEAD@Z	; std::_Unfancy<char *>
PUBLIC	??$_Get_unwrapped@AEBQEAE@std@@YA?A_TAEBQEAE@Z	; std::_Get_unwrapped<unsigned char * const &>
PUBLIC	??$_Uninitialized_move@PEAEV?$xalloc@E@@@std@@YAPEAEQEAE0PEAEAEAV?$xalloc@E@@@Z ; std::_Uninitialized_move<unsigned char *,xalloc<unsigned char> >
PUBLIC	??$construct@EAEBE@?$_Normal_allocator_traits@V?$xalloc@E@@@std@@SAXAEAV?$xalloc@E@@PEAEAEBE@Z ; std::_Normal_allocator_traits<xalloc<unsigned char> >::construct<unsigned char,unsigned char const &>
PUBLIC	??$_Get_unwrapped@AEBQEAUarchive@CLocatorAPI@@@std@@YA?A_TAEBQEAUarchive@CLocatorAPI@@@Z ; std::_Get_unwrapped<CLocatorAPI::archive * const &>
PUBLIC	??$_Uninitialized_move@PEAUarchive@CLocatorAPI@@V?$xalloc@Uarchive@CLocatorAPI@@@@@std@@YAPEAUarchive@CLocatorAPI@@QEAU12@0PEAU12@AEAV?$xalloc@Uarchive@CLocatorAPI@@@@@Z ; std::_Uninitialized_move<CLocatorAPI::archive *,xalloc<CLocatorAPI::archive> >
PUBLIC	??$_Get_unwrapped@PEAUarchive@CLocatorAPI@@@std@@YA?A_T$$QEAPEAUarchive@CLocatorAPI@@@Z ; std::_Get_unwrapped<CLocatorAPI::archive *>
PUBLIC	??$_Uninitialized_copy@PEAUarchive@CLocatorAPI@@PEAU12@V?$xalloc@Uarchive@CLocatorAPI@@@@@std@@YAPEAUarchive@CLocatorAPI@@PEAU12@00AEAV?$xalloc@Uarchive@CLocatorAPI@@@@@Z ; std::_Uninitialized_copy<CLocatorAPI::archive *,CLocatorAPI::archive *,xalloc<CLocatorAPI::archive> >
PUBLIC	??$construct@Uarchive@CLocatorAPI@@U12@@?$_Normal_allocator_traits@V?$xalloc@Uarchive@CLocatorAPI@@@@@std@@SAXAEAV?$xalloc@Uarchive@CLocatorAPI@@@@PEAUarchive@CLocatorAPI@@$$QEAU34@@Z ; std::_Normal_allocator_traits<xalloc<CLocatorAPI::archive> >::construct<CLocatorAPI::archive,CLocatorAPI::archive>
PUBLIC	??$_Destroy_in_place@PEAU?$_Tree_node@U?$pair@QEBDPEAVFS_Path@@@std@@PEAX@std@@@std@@YAXAEAPEAU?$_Tree_node@U?$pair@QEBDPEAVFS_Path@@@std@@PEAX@0@@Z ; std::_Destroy_in_place<std::_Tree_node<std::pair<char const * const,FS_Path *>,void *> *>
PUBLIC	??$destroy@U?$pair@QEBDPEAVFS_Path@@@std@@@?$_Normal_allocator_traits@V?$xalloc@U?$_Tree_node@U?$pair@QEBDPEAVFS_Path@@@std@@PEAX@std@@@@@std@@SAXAEAV?$xalloc@U?$_Tree_node@U?$pair@QEBDPEAVFS_Path@@@std@@PEAX@std@@@@PEAU?$pair@QEBDPEAVFS_Path@@@1@@Z ; std::_Normal_allocator_traits<xalloc<std::_Tree_node<std::pair<char const * const,FS_Path *>,void *> > >::destroy<std::pair<char const * const,FS_Path *> >
PUBLIC	??$_Kfn@QEBDPEAVFS_Path@@@?$_Tmap_traits@PEBDPEAVFS_Path@@Upred_str@@V?$xalloc@U?$pair@QEBDPEAVFS_Path@@@std@@@@$0A@@std@@SAAEBQEBDAEBU?$pair@QEBDPEAVFS_Path@@@1@@Z ; std::_Tmap_traits<char const *,FS_Path *,pred_str,xalloc<std::pair<char const * const,FS_Path *> >,0>::_Kfn<char const * const,FS_Path *>
PUBLIC	??$_Destroy_in_place@PEAU?$_Tree_node@Ufile@CLocatorAPI@@PEAX@std@@@std@@YAXAEAPEAU?$_Tree_node@Ufile@CLocatorAPI@@PEAX@0@@Z ; std::_Destroy_in_place<std::_Tree_node<CLocatorAPI::file,void *> *>
PUBLIC	??$_Emplace_back@AEAU_finddata64i32_t@@@?$_Uninitialized_backout_al@V?$xalloc@U_finddata64i32_t@@@@@std@@QEAAXAEAU_finddata64i32_t@@@Z ; std::_Uninitialized_backout_al<xalloc<_finddata64i32_t> >::_Emplace_back<_finddata64i32_t &>
PUBLIC	??$move@AEAPEAU_finddata64i32_t@@@std@@YA$$QEAPEAU_finddata64i32_t@@AEAPEAU1@@Z ; std::move<_finddata64i32_t * &>
PUBLIC	??$construct@U_finddata64i32_t@@AEBU1@@?$_Normal_allocator_traits@V?$xalloc@U_finddata64i32_t@@@@@std@@SAXAEAV?$xalloc@U_finddata64i32_t@@@@PEAU_finddata64i32_t@@AEBU3@@Z ; std::_Normal_allocator_traits<xalloc<_finddata64i32_t> >::construct<_finddata64i32_t,_finddata64i32_t const &>
PUBLIC	??$_Emplace_back@$$V@?$_Uninitialized_backout_al@V?$xalloc@U_open_file@@@@@std@@QEAAXXZ ; std::_Uninitialized_backout_al<xalloc<_open_file> >::_Emplace_back<>
PUBLIC	??$_Get_unwrapped@PEAU_open_file@@@std@@YA?A_T$$QEAPEAU_open_file@@@Z ; std::_Get_unwrapped<_open_file *>
PUBLIC	??$_Uninitialized_copy@PEAU_open_file@@PEAU1@V?$xalloc@U_open_file@@@@@std@@YAPEAU_open_file@@PEAU1@00AEAV?$xalloc@U_open_file@@@@@Z ; std::_Uninitialized_copy<_open_file *,_open_file *,xalloc<_open_file> >
PUBLIC	??$forward@AEAPEAU?$_Tree_node@Ufile@CLocatorAPI@@PEAX@std@@@std@@YAAEAPEAU?$_Tree_node@Ufile@CLocatorAPI@@PEAX@0@AEAPEAU10@@Z ; std::forward<std::_Tree_node<CLocatorAPI::file,void *> * &>
PUBLIC	??$_Partition_by_median_guess_unchecked@PEAU_finddata64i32_t@@P6A_NAEBU1@0@Z@std@@YA?AU?$pair@PEAU_finddata64i32_t@@PEAU1@@0@PEAU_finddata64i32_t@@0P6A_NAEBU2@1@Z@Z ; std::_Partition_by_median_guess_unchecked<_finddata64i32_t *,bool (__cdecl*)(_finddata64i32_t const &,_finddata64i32_t const &)>
PUBLIC	??$_Sort_heap_unchecked@PEAU_finddata64i32_t@@P6A_NAEBU1@0@Z@std@@YAXPEAU_finddata64i32_t@@0P6A_NAEBU1@1@Z@Z ; std::_Sort_heap_unchecked<_finddata64i32_t *,bool (__cdecl*)(_finddata64i32_t const &,_finddata64i32_t const &)>
PUBLIC	??$_Make_heap_unchecked@PEAU_finddata64i32_t@@P6A_NAEBU1@0@Z@std@@YAXPEAU_finddata64i32_t@@0P6A_NAEBU1@1@Z@Z ; std::_Make_heap_unchecked<_finddata64i32_t *,bool (__cdecl*)(_finddata64i32_t const &,_finddata64i32_t const &)>
PUBLIC	??$_Insertion_sort_unchecked@PEAU_finddata64i32_t@@P6A_NAEBU1@0@Z@std@@YAPEAU_finddata64i32_t@@QEAU1@0P6A_NAEBU1@1@Z@Z ; std::_Insertion_sort_unchecked<_finddata64i32_t *,bool (__cdecl*)(_finddata64i32_t const &,_finddata64i32_t const &)>
PUBLIC	??$forward@AEB_N@std@@YAAEB_NAEB_N@Z		; std::forward<bool const &>
PUBLIC	??$forward@V?$_Tree_const_iterator@V?$_Tree_val@U?$_Tree_simple_types@Ufile@CLocatorAPI@@@std@@@std@@@std@@@std@@YA$$QEAV?$_Tree_const_iterator@V?$_Tree_val@U?$_Tree_simple_types@Ufile@CLocatorAPI@@@std@@@std@@@0@AEAV10@@Z ; std::forward<std::_Tree_const_iterator<std::_Tree_val<std::_Tree_simple_types<CLocatorAPI::file> > > >
PUBLIC	??$?0PEAU?$_Tree_node@Ufile@CLocatorAPI@@PEAX@std@@_N$0A@@?$pair@PEAU?$_Tree_node@Ufile@CLocatorAPI@@PEAX@std@@_N@std@@QEAA@$$QEAPEAU?$_Tree_node@Ufile@CLocatorAPI@@PEAX@1@$$QEA_N@Z ; std::pair<std::_Tree_node<CLocatorAPI::file,void *> *,bool>::pair<std::_Tree_node<CLocatorAPI::file,void *> *,bool><std::_Tree_node<CLocatorAPI::file,void *> *,bool,0>
PUBLIC	??$?0AEBUfile@CLocatorAPI@@@?$_Tree_temp_node@V?$xalloc@U?$_Tree_node@Ufile@CLocatorAPI@@PEAX@std@@@@@std@@QEAA@AEAV?$xalloc@U?$_Tree_node@Ufile@CLocatorAPI@@PEAX@std@@@@PEAU?$_Tree_node@Ufile@CLocatorAPI@@PEAX@1@AEBUfile@CLocatorAPI@@@Z ; std::_Tree_temp_node<xalloc<std::_Tree_node<CLocatorAPI::file,void *> > >::_Tree_temp_node<xalloc<std::_Tree_node<CLocatorAPI::file,void *> > ><CLocatorAPI::file const &>
PUBLIC	??$forward@AEBUfile@CLocatorAPI@@@std@@YAAEBUfile@CLocatorAPI@@AEBU12@@Z ; std::forward<CLocatorAPI::file const &>
PUBLIC	??$?0AEAPEAU?$_Tree_node@Ufile@CLocatorAPI@@PEAX@std@@_N$0A@@?$pair@PEAU?$_Tree_node@Ufile@CLocatorAPI@@PEAX@std@@_N@std@@QEAA@AEAPEAU?$_Tree_node@Ufile@CLocatorAPI@@PEAX@1@$$QEA_N@Z ; std::pair<std::_Tree_node<CLocatorAPI::file,void *> *,bool>::pair<std::_Tree_node<CLocatorAPI::file,void *> *,bool><std::_Tree_node<CLocatorAPI::file,void *> * &,bool,0>
PUBLIC	??$forward@AEAPEAU_open_file@@@std@@YAAEAPEAU_open_file@@AEAPEAU1@@Z ; std::forward<_open_file * &>
PUBLIC	?max_size@?$xalloc@U?$_Tree_node@Ufile@CLocatorAPI@@PEAX@std@@@@QEBA_KXZ ; xalloc<std::_Tree_node<CLocatorAPI::file,void *> >::max_size
PUBLIC	?_Get_first@?$_Compressed_pair@V?$xalloc@U?$_Tree_node@Ufile@CLocatorAPI@@PEAX@std@@@@V?$_Tree_val@U?$_Tree_simple_types@Ufile@CLocatorAPI@@@std@@@std@@$00@std@@QEBAAEBV?$xalloc@U?$_Tree_node@Ufile@CLocatorAPI@@PEAX@std@@@@XZ ; std::_Compressed_pair<xalloc<std::_Tree_node<CLocatorAPI::file,void *> >,std::_Tree_val<std::_Tree_simple_types<CLocatorAPI::file> >,1>::_Get_first
PUBLIC	?max_size@?$xalloc@E@@QEBA_KXZ			; xalloc<unsigned char>::max_size
PUBLIC	?_Get_first@?$_Compressed_pair@V?$xalloc@E@@V?$_Vector_val@U?$_Simple_types@E@std@@@std@@$00@std@@QEBAAEBV?$xalloc@E@@XZ ; std::_Compressed_pair<xalloc<unsigned char>,std::_Vector_val<std::_Simple_types<unsigned char> >,1>::_Get_first
PUBLIC	?deallocate@?$xalloc@U?$_Tree_node@UFS_File@@PEAX@std@@@@QEBAXPEAU?$_Tree_node@UFS_File@@PEAX@std@@_K@Z ; xalloc<std::_Tree_node<FS_File,void *> >::deallocate
PUBLIC	?max_size@?$xalloc@Uarchive@CLocatorAPI@@@@QEBA_KXZ ; xalloc<CLocatorAPI::archive>::max_size
PUBLIC	?_Get_first@?$_Compressed_pair@V?$xalloc@Uarchive@CLocatorAPI@@@@V?$_Vector_val@U?$_Simple_types@Uarchive@CLocatorAPI@@@std@@@std@@$00@std@@QEBAAEBV?$xalloc@Uarchive@CLocatorAPI@@@@XZ ; std::_Compressed_pair<xalloc<CLocatorAPI::archive>,std::_Vector_val<std::_Simple_types<CLocatorAPI::archive> >,1>::_Get_first
PUBLIC	?max_size@?$_Normal_allocator_traits@V?$xalloc@U?$_Tree_node@Ufile@CLocatorAPI@@PEAX@std@@@@@std@@SA_KAEBV?$xalloc@U?$_Tree_node@Ufile@CLocatorAPI@@PEAX@std@@@@@Z ; std::_Normal_allocator_traits<xalloc<std::_Tree_node<CLocatorAPI::file,void *> > >::max_size
PUBLIC	?_Getal@?$_Tree@V?$_Tset_traits@Ufile@CLocatorAPI@@Ufile_pred@2@V?$xalloc@Ufile@CLocatorAPI@@@@$0A@@std@@@std@@IEBAAEBV?$xalloc@U?$_Tree_node@Ufile@CLocatorAPI@@PEAX@std@@@@XZ ; std::_Tree<std::_Tset_traits<CLocatorAPI::file,CLocatorAPI::file_pred,xalloc<CLocatorAPI::file>,0> >::_Getal
PUBLIC	?max_size@?$xalloc@U_open_file@@@@QEBA_KXZ	; xalloc<_open_file>::max_size
PUBLIC	?_Get_first@?$_Compressed_pair@V?$xalloc@U_open_file@@@@V?$_Vector_val@U?$_Simple_types@U_open_file@@@std@@@std@@$00@std@@QEBAAEBV?$xalloc@U_open_file@@@@XZ ; std::_Compressed_pair<xalloc<_open_file>,std::_Vector_val<std::_Simple_types<_open_file> >,1>::_Get_first
PUBLIC	?max_size@?$_Normal_allocator_traits@V?$xalloc@E@@@std@@SA_KAEBV?$xalloc@E@@@Z ; std::_Normal_allocator_traits<xalloc<unsigned char> >::max_size
PUBLIC	?capacity@?$vector@EV?$xalloc@E@@@std@@QEBA_KXZ	; std::vector<unsigned char,xalloc<unsigned char> >::capacity
PUBLIC	?_Getal@?$vector@EV?$xalloc@E@@@std@@AEBAAEBV?$xalloc@E@@XZ ; std::vector<unsigned char,xalloc<unsigned char> >::_Getal
PUBLIC	?max_size@?$_Normal_allocator_traits@V?$xalloc@Uarchive@CLocatorAPI@@@@@std@@SA_KAEBV?$xalloc@Uarchive@CLocatorAPI@@@@@Z ; std::_Normal_allocator_traits<xalloc<CLocatorAPI::archive> >::max_size
PUBLIC	?capacity@?$vector@Uarchive@CLocatorAPI@@V?$xalloc@Uarchive@CLocatorAPI@@@@@std@@QEBA_KXZ ; std::vector<CLocatorAPI::archive,xalloc<CLocatorAPI::archive> >::capacity
PUBLIC	?_Getal@?$vector@Uarchive@CLocatorAPI@@V?$xalloc@Uarchive@CLocatorAPI@@@@@std@@AEBAAEBV?$xalloc@Uarchive@CLocatorAPI@@@@XZ ; std::vector<CLocatorAPI::archive,xalloc<CLocatorAPI::archive> >::_Getal
PUBLIC	?deallocate@?$xalloc@U?$_Tree_node@U?$pair@QEBDPEAVFS_Path@@@std@@PEAX@std@@@@QEBAXPEAU?$_Tree_node@U?$pair@QEBDPEAVFS_Path@@@std@@PEAX@std@@_K@Z ; xalloc<std::_Tree_node<std::pair<char const * const,FS_Path *>,void *> >::deallocate
PUBLIC	?_Get_first@?$_Compressed_pair@Upred_str@@V?$_Compressed_pair@V?$xalloc@U?$_Tree_node@U?$pair@QEBDPEAVFS_Path@@@std@@PEAX@std@@@@V?$_Tree_val@U?$_Tree_simple_types@U?$pair@QEBDPEAVFS_Path@@@std@@@std@@@std@@$00@std@@$00@std@@QEBAAEBUpred_str@@XZ ; std::_Compressed_pair<pred_str,std::_Compressed_pair<xalloc<std::_Tree_node<std::pair<char const * const,FS_Path *>,void *> >,std::_Tree_val<std::_Tree_simple_types<std::pair<char const * const,FS_Path *> > >,1>,1>::_Get_first
PUBLIC	?deallocate@?$xalloc@U?$_Tree_node@Ufile@CLocatorAPI@@PEAX@std@@@@QEBAXPEAU?$_Tree_node@Ufile@CLocatorAPI@@PEAX@std@@_K@Z ; xalloc<std::_Tree_node<CLocatorAPI::file,void *> >::deallocate
PUBLIC	?max_size@?$_Tree@V?$_Tset_traits@Ufile@CLocatorAPI@@Ufile_pred@2@V?$xalloc@Ufile@CLocatorAPI@@@@$0A@@std@@@std@@QEBA_KXZ ; std::_Tree<std::_Tset_traits<CLocatorAPI::file,CLocatorAPI::file_pred,xalloc<CLocatorAPI::file>,0> >::max_size
PUBLIC	?max_size@?$_Normal_allocator_traits@V?$xalloc@U_open_file@@@@@std@@SA_KAEBV?$xalloc@U_open_file@@@@@Z ; std::_Normal_allocator_traits<xalloc<_open_file> >::max_size
PUBLIC	?capacity@?$vector@U_open_file@@V?$xalloc@U_open_file@@@@@std@@QEBA_KXZ ; std::vector<_open_file,xalloc<_open_file> >::capacity
PUBLIC	?_Getal@?$vector@U_open_file@@V?$xalloc@U_open_file@@@@@std@@AEBAAEBV?$xalloc@U_open_file@@@@XZ ; std::vector<_open_file,xalloc<_open_file> >::_Getal
PUBLIC	??1?$_Alloc_construct_ptr@V?$xalloc@U?$_Tree_node@Ufile@CLocatorAPI@@PEAX@std@@@@@std@@QEAA@XZ ; std::_Alloc_construct_ptr<xalloc<std::_Tree_node<CLocatorAPI::file,void *> > >::~_Alloc_construct_ptr<xalloc<std::_Tree_node<CLocatorAPI::file,void *> > >
PUBLIC	??1?$_Alloc_construct_ptr@V?$xalloc@U?$_Tree_node@UFS_File@@PEAX@std@@@@@std@@QEAA@XZ ; std::_Alloc_construct_ptr<xalloc<std::_Tree_node<FS_File,void *> > >::~_Alloc_construct_ptr<xalloc<std::_Tree_node<FS_File,void *> > >
PUBLIC	??1_open_file@@QEAA@XZ				; _open_file::~_open_file
PUBLIC	??_G?$basic_string@DU?$char_traits@D@std@@V?$xalloc@D@@@std@@QEAAPEAXI@Z ; std::basic_string<char,std::char_traits<char>,xalloc<char> >::`scalar deleting destructor'
PUBLIC	??_Garchive@CLocatorAPI@@QEAAPEAXI@Z		; CLocatorAPI::archive::`scalar deleting destructor'
PUBLIC	??_G_open_file@@QEAAPEAXI@Z			; _open_file::`scalar deleting destructor'
PUBLIC	??1?$_Tree_temp_node_alloc@V?$xalloc@U?$_Tree_node@Ufile@CLocatorAPI@@PEAX@std@@@@@std@@QEAA@XZ ; std::_Tree_temp_node_alloc<xalloc<std::_Tree_node<CLocatorAPI::file,void *> > >::~_Tree_temp_node_alloc<xalloc<std::_Tree_node<CLocatorAPI::file,void *> > >
PUBLIC	??1?$_Tree_temp_node_alloc@V?$xalloc@U?$_Tree_node@UFS_File@@PEAX@std@@@@@std@@QEAA@XZ ; std::_Tree_temp_node_alloc<xalloc<std::_Tree_node<FS_File,void *> > >::~_Tree_temp_node_alloc<xalloc<std::_Tree_node<FS_File,void *> > >
PUBLIC	?destroy@?$xalloc@V?$basic_string@DU?$char_traits@D@std@@V?$xalloc@D@@@std@@@@QEAAXPEAV?$basic_string@DU?$char_traits@D@std@@V?$xalloc@D@@@std@@@Z ; xalloc<std::basic_string<char,std::char_traits<char>,xalloc<char> > >::destroy
PUBLIC	?allocate@?$xalloc@E@@QEBAPEAE_KPEBX@Z		; xalloc<unsigned char>::allocate
PUBLIC	?destroy@?$xalloc@E@@QEAAXPEAE@Z		; xalloc<unsigned char>::destroy
PUBLIC	?max_size@?$vector@EV?$xalloc@E@@@std@@QEBA_KXZ	; std::vector<unsigned char,xalloc<unsigned char> >::max_size
PUBLIC	?_Calculate_growth@?$vector@EV?$xalloc@E@@@std@@AEBA_K_K@Z ; std::vector<unsigned char,xalloc<unsigned char> >::_Calculate_growth
PUBLIC	?_Change_array@?$vector@EV?$xalloc@E@@@std@@AEAAXQEAE_K1@Z ; std::vector<unsigned char,xalloc<unsigned char> >::_Change_array
PUBLIC	?_Xlength@?$vector@EV?$xalloc@E@@@std@@CAXXZ	; std::vector<unsigned char,xalloc<unsigned char> >::_Xlength
PUBLIC	?_Orphan_range@?$vector@EV?$xalloc@E@@@std@@AEBAXPEAE0@Z ; std::vector<unsigned char,xalloc<unsigned char> >::_Orphan_range
PUBLIC	?allocate@?$xalloc@Uarchive@CLocatorAPI@@@@QEBAPEAUarchive@CLocatorAPI@@_KPEBX@Z ; xalloc<CLocatorAPI::archive>::allocate
PUBLIC	?destroy@?$xalloc@Uarchive@CLocatorAPI@@@@QEAAXPEAUarchive@CLocatorAPI@@@Z ; xalloc<CLocatorAPI::archive>::destroy
PUBLIC	?max_size@?$vector@Uarchive@CLocatorAPI@@V?$xalloc@Uarchive@CLocatorAPI@@@@@std@@QEBA_KXZ ; std::vector<CLocatorAPI::archive,xalloc<CLocatorAPI::archive> >::max_size
PUBLIC	?_Calculate_growth@?$vector@Uarchive@CLocatorAPI@@V?$xalloc@Uarchive@CLocatorAPI@@@@@std@@AEBA_K_K@Z ; std::vector<CLocatorAPI::archive,xalloc<CLocatorAPI::archive> >::_Calculate_growth
PUBLIC	?_Change_array@?$vector@Uarchive@CLocatorAPI@@V?$xalloc@Uarchive@CLocatorAPI@@@@@std@@AEAAXQEAUarchive@CLocatorAPI@@_K1@Z ; std::vector<CLocatorAPI::archive,xalloc<CLocatorAPI::archive> >::_Change_array
PUBLIC	?_Xlength@?$vector@Uarchive@CLocatorAPI@@V?$xalloc@Uarchive@CLocatorAPI@@@@@std@@CAXXZ ; std::vector<CLocatorAPI::archive,xalloc<CLocatorAPI::archive> >::_Xlength
PUBLIC	?_Orphan_range@?$vector@Uarchive@CLocatorAPI@@V?$xalloc@Uarchive@CLocatorAPI@@@@@std@@AEBAXPEAUarchive@CLocatorAPI@@0@Z ; std::vector<CLocatorAPI::archive,xalloc<CLocatorAPI::archive> >::_Orphan_range
PUBLIC	?deallocate@?$_Normal_allocator_traits@V?$xalloc@U?$_Tree_node@U?$pair@QEBDPEAVFS_Path@@@std@@PEAX@std@@@@@std@@SAXAEAV?$xalloc@U?$_Tree_node@U?$pair@QEBDPEAVFS_Path@@@std@@PEAX@std@@@@PEAU?$_Tree_node@U?$pair@QEBDPEAVFS_Path@@@std@@PEAX@2@_K@Z ; std::_Normal_allocator_traits<xalloc<std::_Tree_node<std::pair<char const * const,FS_Path *>,void *> > >::deallocate
PUBLIC	?_Getcomp@?$_Tree@V?$_Tmap_traits@PEBDPEAVFS_Path@@Upred_str@@V?$xalloc@U?$pair@QEBDPEAVFS_Path@@@std@@@@$0A@@std@@@std@@IEBAAEBUpred_str@@XZ ; std::_Tree<std::_Tmap_traits<char const *,FS_Path *,pred_str,xalloc<std::pair<char const * const,FS_Path *> >,0> >::_Getcomp
PUBLIC	?deallocate@?$_Normal_allocator_traits@V?$xalloc@U?$_Tree_node@Ufile@CLocatorAPI@@PEAX@std@@@@@std@@SAXAEAV?$xalloc@U?$_Tree_node@Ufile@CLocatorAPI@@PEAX@std@@@@PEAU?$_Tree_node@Ufile@CLocatorAPI@@PEAX@2@_K@Z ; std::_Normal_allocator_traits<xalloc<std::_Tree_node<CLocatorAPI::file,void *> > >::deallocate
PUBLIC	?_Check_grow_by_1@?$_Tree@V?$_Tset_traits@Ufile@CLocatorAPI@@Ufile_pred@2@V?$xalloc@Ufile@CLocatorAPI@@@@$0A@@std@@@std@@IEAAXXZ ; std::_Tree<std::_Tset_traits<CLocatorAPI::file,CLocatorAPI::file_pred,xalloc<CLocatorAPI::file>,0> >::_Check_grow_by_1
PUBLIC	?_Insert_node@?$_Tree_val@U?$_Tree_simple_types@Ufile@CLocatorAPI@@@std@@@std@@QEAAPEAU?$_Tree_node@Ufile@CLocatorAPI@@PEAX@2@U?$_Tree_id@PEAU?$_Tree_node@Ufile@CLocatorAPI@@PEAX@std@@@2@QEAU32@@Z ; std::_Tree_val<std::_Tree_simple_types<CLocatorAPI::file> >::_Insert_node
PUBLIC	?destroy@?$xalloc@U_finddata64i32_t@@@@QEAAXPEAU_finddata64i32_t@@@Z ; xalloc<_finddata64i32_t>::destroy
PUBLIC	?_Calculate_growth@?$vector@U_finddata64i32_t@@V?$xalloc@U_finddata64i32_t@@@@@std@@AEBA_K_K@Z ; std::vector<_finddata64i32_t,xalloc<_finddata64i32_t> >::_Calculate_growth
PUBLIC	?allocate@?$xalloc@U_open_file@@@@QEBAPEAU_open_file@@_KPEBX@Z ; xalloc<_open_file>::allocate
PUBLIC	?destroy@?$xalloc@U_open_file@@@@QEAAXPEAU_open_file@@@Z ; xalloc<_open_file>::destroy
PUBLIC	?max_size@?$vector@U_open_file@@V?$xalloc@U_open_file@@@@@std@@QEBA_KXZ ; std::vector<_open_file,xalloc<_open_file> >::max_size
PUBLIC	?_Calculate_growth@?$vector@U_open_file@@V?$xalloc@U_open_file@@@@@std@@AEBA_K_K@Z ; std::vector<_open_file,xalloc<_open_file> >::_Calculate_growth
PUBLIC	?_Change_array@?$vector@U_open_file@@V?$xalloc@U_open_file@@@@@std@@AEAAXQEAU_open_file@@_K1@Z ; std::vector<_open_file,xalloc<_open_file> >::_Change_array
PUBLIC	?_Xlength@?$vector@U_open_file@@V?$xalloc@U_open_file@@@@@std@@CAXXZ ; std::vector<_open_file,xalloc<_open_file> >::_Xlength
PUBLIC	?_Seek_to@?$_Vector_const_iterator@V?$_Vector_val@U?$_Simple_types@U_open_file@@@std@@@std@@@std@@QEAAXPEBU_open_file@@@Z ; std::_Vector_const_iterator<std::_Vector_val<std::_Simple_types<_open_file> > >::_Seek_to
PUBLIC	?_Release@?$_Alloc_construct_ptr@V?$xalloc@U?$_Tree_node@Ufile@CLocatorAPI@@PEAX@std@@@@@std@@QEAAPEAU?$_Tree_node@Ufile@CLocatorAPI@@PEAX@2@XZ ; std::_Alloc_construct_ptr<xalloc<std::_Tree_node<CLocatorAPI::file,void *> > >::_Release
PUBLIC	??1?$_Tree_temp_node@V?$xalloc@U?$_Tree_node@Ufile@CLocatorAPI@@PEAX@std@@@@@std@@QEAA@XZ ; std::_Tree_temp_node<xalloc<std::_Tree_node<CLocatorAPI::file,void *> > >::~_Tree_temp_node<xalloc<std::_Tree_node<CLocatorAPI::file,void *> > >
PUBLIC	?_Extract@?$_In_place_key_extract_set@Ufile@CLocatorAPI@@U12@@std@@SAAEBUfile@CLocatorAPI@@AEBU34@@Z ; std::_In_place_key_extract_set<CLocatorAPI::file,CLocatorAPI::file>::_Extract
PUBLIC	??1?$_Tree_temp_node@V?$xalloc@U?$_Tree_node@UFS_File@@PEAX@std@@@@@std@@QEAA@XZ ; std::_Tree_temp_node<xalloc<std::_Tree_node<FS_File,void *> > >::~_Tree_temp_node<xalloc<std::_Tree_node<FS_File,void *> > >
PUBLIC	??0?$_Uninitialized_backout_al@V?$xalloc@U_open_file@@@@@std@@QEAA@PEAU_open_file@@AEAV?$xalloc@U_open_file@@@@@Z ; std::_Uninitialized_backout_al<xalloc<_open_file> >::_Uninitialized_backout_al<xalloc<_open_file> >
PUBLIC	??1?$_Uninitialized_backout_al@V?$xalloc@U_open_file@@@@@std@@QEAA@XZ ; std::_Uninitialized_backout_al<xalloc<_open_file> >::~_Uninitialized_backout_al<xalloc<_open_file> >
PUBLIC	?_Release@?$_Uninitialized_backout_al@V?$xalloc@U_open_file@@@@@std@@QEAAPEAU_open_file@@XZ ; std::_Uninitialized_backout_al<xalloc<_open_file> >::_Release
PUBLIC	??$xr_free@PEAD@@YAXAEAPEAPEAD@Z		; xr_free<char *>
PUBLIC	??$horrible_cast@P6A_NPEBD@ZPEBV?$ClosurePtr@P8GenericClass@detail@fastdelegate@@EAA_NPEBD@ZP6A_N0@ZP6A_N0@Z@detail@fastdelegate@@@detail@fastdelegate@@YAP6A_NPEBD@ZQEBV?$ClosurePtr@P8GenericClass@detail@fastdelegate@@EAA_NPEBD@ZP6A_N0@ZP6A_N0@Z@01@@Z ; fastdelegate::detail::horrible_cast<bool (__cdecl*)(char const *),fastdelegate::detail::ClosurePtr<bool (__cdecl fastdelegate::detail::GenericClass::*)(char const *),bool (__cdecl*)(char const *),bool (__cdecl*)(char const *)> const *>
PUBLIC	??$_Destroy_range@V?$xalloc@PEAD@@@std@@YAXPEAPEADQEAPEADAEAV?$xalloc@PEAD@@@Z ; std::_Destroy_range<xalloc<char *> >
PUBLIC	??$bindstaticfunc@V?$FastDelegate1@PEBD_N@fastdelegate@@P812@EBA_NPEBD@Z@?$ClosurePtr@P8GenericClass@detail@fastdelegate@@EAA_NPEBD@ZP6A_N0@ZP6A_N0@Z@detail@fastdelegate@@QEAAXPEAV?$FastDelegate1@PEBD_N@2@P832@EBA_NPEBD@ZP6A_N1@Z@Z ; fastdelegate::detail::ClosurePtr<bool (__cdecl fastdelegate::detail::GenericClass::*)(char const *),bool (__cdecl*)(char const *),bool (__cdecl*)(char const *)>::bindstaticfunc<fastdelegate::FastDelegate1<char const *,bool>,bool (__cdecl fastdelegate::FastDelegate1<char const *,bool>::*)(char const *)const >
PUBLIC	??$xr_alloc@U?$_Tree_node@Ufile@CLocatorAPI@@PEAX@std@@@@YAPEAU?$_Tree_node@Ufile@CLocatorAPI@@PEAX@std@@I@Z ; xr_alloc<std::_Tree_node<CLocatorAPI::file,void *> >
PUBLIC	??$move@AEAD@std@@YA$$QEADAEAD@Z		; std::move<char &>
PUBLIC	??$destroy@V?$basic_string@DU?$char_traits@D@std@@V?$xalloc@D@@@std@@@?$_Normal_allocator_traits@V?$xalloc@V?$basic_string@DU?$char_traits@D@std@@V?$xalloc@D@@@std@@@@@std@@SAXAEAV?$xalloc@V?$basic_string@DU?$char_traits@D@std@@V?$xalloc@D@@@std@@@@PEAV?$basic_string@DU?$char_traits@D@std@@V?$xalloc@D@@@1@@Z ; std::_Normal_allocator_traits<xalloc<std::basic_string<char,std::char_traits<char>,xalloc<char> > > >::destroy<std::basic_string<char,std::char_traits<char>,xalloc<char> > >
PUBLIC	??$_Unfancy@V?$basic_string@DU?$char_traits@D@std@@V?$xalloc@D@@@std@@@std@@YAPEAV?$basic_string@DU?$char_traits@D@std@@V?$xalloc@D@@@0@PEAV10@@Z ; std::_Unfancy<std::basic_string<char,std::char_traits<char>,xalloc<char> > >
PUBLIC	??$destroy@E@?$_Normal_allocator_traits@V?$xalloc@E@@@std@@SAXAEAV?$xalloc@E@@PEAE@Z ; std::_Normal_allocator_traits<xalloc<unsigned char> >::destroy<unsigned char>
PUBLIC	??$_Unfancy@E@std@@YAPEAEPEAE@Z			; std::_Unfancy<unsigned char>
PUBLIC	??$destroy@Uarchive@CLocatorAPI@@@?$_Normal_allocator_traits@V?$xalloc@Uarchive@CLocatorAPI@@@@@std@@SAXAEAV?$xalloc@Uarchive@CLocatorAPI@@@@PEAUarchive@CLocatorAPI@@@Z ; std::_Normal_allocator_traits<xalloc<CLocatorAPI::archive> >::destroy<CLocatorAPI::archive>
PUBLIC	??$_Unfancy@Uarchive@CLocatorAPI@@@std@@YAPEAUarchive@CLocatorAPI@@PEAU12@@Z ; std::_Unfancy<CLocatorAPI::archive>
PUBLIC	??$destroy@Ufile@CLocatorAPI@@@?$_Normal_allocator_traits@V?$xalloc@U?$_Tree_node@Ufile@CLocatorAPI@@PEAX@std@@@@@std@@SAXAEAV?$xalloc@U?$_Tree_node@Ufile@CLocatorAPI@@PEAX@std@@@@PEAUfile@CLocatorAPI@@@Z ; std::_Normal_allocator_traits<xalloc<std::_Tree_node<CLocatorAPI::file,void *> > >::destroy<CLocatorAPI::file>
PUBLIC	??$addressof@Ufile@CLocatorAPI@@@std@@YAPEAUfile@CLocatorAPI@@AEAU12@@Z ; std::addressof<CLocatorAPI::file>
PUBLIC	??$_Emplace_back@U_finddata64i32_t@@@?$_Uninitialized_backout_al@V?$xalloc@U_finddata64i32_t@@@@@std@@QEAAX$$QEAU_finddata64i32_t@@@Z ; std::_Uninitialized_backout_al<xalloc<_finddata64i32_t> >::_Emplace_back<_finddata64i32_t>
PUBLIC	??$move@AEAU_finddata64i32_t@@@std@@YA$$QEAU_finddata64i32_t@@AEAU1@@Z ; std::move<_finddata64i32_t &>
PUBLIC	??$_To_address@PEAU_finddata64i32_t@@@std@@YA?A_PAEBQEAU_finddata64i32_t@@@Z ; std::_To_address<_finddata64i32_t *>
PUBLIC	??$_Copy_memmove@PEAU_finddata64i32_t@@PEAU1@@std@@YAPEAU_finddata64i32_t@@PEAU1@00@Z ; std::_Copy_memmove<_finddata64i32_t *,_finddata64i32_t *>
PUBLIC	??$destroy@U_finddata64i32_t@@@?$_Normal_allocator_traits@V?$xalloc@U_finddata64i32_t@@@@@std@@SAXAEAV?$xalloc@U_finddata64i32_t@@@@PEAU_finddata64i32_t@@@Z ; std::_Normal_allocator_traits<xalloc<_finddata64i32_t> >::destroy<_finddata64i32_t>
PUBLIC	??$_Unfancy@U_finddata64i32_t@@@std@@YAPEAU_finddata64i32_t@@PEAU1@@Z ; std::_Unfancy<_finddata64i32_t>
PUBLIC	??$destroy@U_open_file@@@?$_Normal_allocator_traits@V?$xalloc@U_open_file@@@@@std@@SAXAEAV?$xalloc@U_open_file@@@@PEAU_open_file@@@Z ; std::_Normal_allocator_traits<xalloc<_open_file> >::destroy<_open_file>
PUBLIC	??$_Unfancy@U_open_file@@@std@@YAPEAU_open_file@@PEAU1@@Z ; std::_Unfancy<_open_file>
PUBLIC	??$_Emplace_reallocate@AEBE@?$vector@EV?$xalloc@E@@@std@@AEAAPEAEQEAEAEBE@Z ; std::vector<unsigned char,xalloc<unsigned char> >::_Emplace_reallocate<unsigned char const &>
PUBLIC	??$_Emplace_back_with_unused_capacity@AEBE@?$vector@EV?$xalloc@E@@@std@@AEAAAEAEAEBE@Z ; std::vector<unsigned char,xalloc<unsigned char> >::_Emplace_back_with_unused_capacity<unsigned char const &>
PUBLIC	??$forward@AEBE@std@@YAAEBEAEBE@Z		; std::forward<unsigned char const &>
PUBLIC	??$_Emplace_reallocate@Uarchive@CLocatorAPI@@@?$vector@Uarchive@CLocatorAPI@@V?$xalloc@Uarchive@CLocatorAPI@@@@@std@@AEAAPEAUarchive@CLocatorAPI@@QEAU23@$$QEAU23@@Z ; std::vector<CLocatorAPI::archive,xalloc<CLocatorAPI::archive> >::_Emplace_reallocate<CLocatorAPI::archive>
PUBLIC	??$_Emplace_back_with_unused_capacity@Uarchive@CLocatorAPI@@@?$vector@Uarchive@CLocatorAPI@@V?$xalloc@Uarchive@CLocatorAPI@@@@@std@@AEAAAEAUarchive@CLocatorAPI@@$$QEAU23@@Z ; std::vector<CLocatorAPI::archive,xalloc<CLocatorAPI::archive> >::_Emplace_back_with_unused_capacity<CLocatorAPI::archive>
PUBLIC	??$forward@Uarchive@CLocatorAPI@@@std@@YA$$QEAUarchive@CLocatorAPI@@AEAU12@@Z ; std::forward<CLocatorAPI::archive>
PUBLIC	??$_Freenode0@V?$xalloc@U?$_Tree_node@U?$pair@QEBDPEAVFS_Path@@@std@@PEAX@std@@@@@?$_Tree_node@U?$pair@QEBDPEAVFS_Path@@@std@@PEAX@std@@SAXAEAV?$xalloc@U?$_Tree_node@U?$pair@QEBDPEAVFS_Path@@@std@@PEAX@std@@@@PEAU01@@Z ; std::_Tree_node<std::pair<char const * const,FS_Path *>,void *>::_Freenode0<xalloc<std::_Tree_node<std::pair<char const * const,FS_Path *>,void *> > >
PUBLIC	??$_Freenode@V?$xalloc@U?$_Tree_node@U?$pair@QEBDPEAVFS_Path@@@std@@PEAX@std@@@@@?$_Tree_node@U?$pair@QEBDPEAVFS_Path@@@std@@PEAX@std@@SAXAEAV?$xalloc@U?$_Tree_node@U?$pair@QEBDPEAVFS_Path@@@std@@PEAX@std@@@@PEAU01@@Z ; std::_Tree_node<std::pair<char const * const,FS_Path *>,void *>::_Freenode<xalloc<std::_Tree_node<std::pair<char const * const,FS_Path *>,void *> > >
PUBLIC	??$exchange@PEAU?$_Tree_node@U?$pair@QEBDPEAVFS_Path@@@std@@PEAX@std@@AEAPEAU12@@std@@YAPEAU?$_Tree_node@U?$pair@QEBDPEAVFS_Path@@@std@@PEAX@0@AEAPEAU10@0@Z ; std::exchange<std::_Tree_node<std::pair<char const * const,FS_Path *>,void *> *,std::_Tree_node<std::pair<char const * const,FS_Path *>,void *> * &>
PUBLIC	??$_Lower_bound_duplicate@PEBD@?$_Tree@V?$_Tmap_traits@PEBDPEAVFS_Path@@Upred_str@@V?$xalloc@U?$pair@QEBDPEAVFS_Path@@@std@@@@$0A@@std@@@std@@IEBA_NQEAU?$_Tree_node@U?$pair@QEBDPEAVFS_Path@@@std@@PEAX@1@AEBQEBD@Z ; std::_Tree<std::_Tmap_traits<char const *,FS_Path *,pred_str,xalloc<std::pair<char const * const,FS_Path *> >,0> >::_Lower_bound_duplicate<char const *>
PUBLIC	??$_Find_lower_bound@PEBD@?$_Tree@V?$_Tmap_traits@PEBDPEAVFS_Path@@Upred_str@@V?$xalloc@U?$pair@QEBDPEAVFS_Path@@@std@@@@$0A@@std@@@std@@IEBA?AU?$_Tree_find_result@PEAU?$_Tree_node@U?$pair@QEBDPEAVFS_Path@@@std@@PEAX@std@@@1@AEBQEBD@Z ; std::_Tree<std::_Tmap_traits<char const *,FS_Path *,pred_str,xalloc<std::pair<char const * const,FS_Path *> >,0> >::_Find_lower_bound<char const *>
PUBLIC	??$_Freenode0@V?$xalloc@U?$_Tree_node@Ufile@CLocatorAPI@@PEAX@std@@@@@?$_Tree_node@Ufile@CLocatorAPI@@PEAX@std@@SAXAEAV?$xalloc@U?$_Tree_node@Ufile@CLocatorAPI@@PEAX@std@@@@PEAU01@@Z ; std::_Tree_node<CLocatorAPI::file,void *>::_Freenode0<xalloc<std::_Tree_node<CLocatorAPI::file,void *> > >
PUBLIC	??$exchange@PEAU?$_Tree_node@Ufile@CLocatorAPI@@PEAX@std@@AEAPEAU12@@std@@YAPEAU?$_Tree_node@Ufile@CLocatorAPI@@PEAX@0@AEAPEAU10@0@Z ; std::exchange<std::_Tree_node<CLocatorAPI::file,void *> *,std::_Tree_node<CLocatorAPI::file,void *> * &>
PUBLIC	??$_Lower_bound_duplicate@Ufile@CLocatorAPI@@@?$_Tree@V?$_Tset_traits@Ufile@CLocatorAPI@@Ufile_pred@2@V?$xalloc@Ufile@CLocatorAPI@@@@$0A@@std@@@std@@IEBA_NQEAU?$_Tree_node@Ufile@CLocatorAPI@@PEAX@1@AEBUfile@CLocatorAPI@@@Z ; std::_Tree<std::_Tset_traits<CLocatorAPI::file,CLocatorAPI::file_pred,xalloc<CLocatorAPI::file>,0> >::_Lower_bound_duplicate<CLocatorAPI::file>
PUBLIC	??$_Get_unwrapped@PEAU_finddata64i32_t@@@std@@YA?A_T$$QEAPEAU_finddata64i32_t@@@Z ; std::_Get_unwrapped<_finddata64i32_t *>
PUBLIC	??$_Uninitialized_copy@PEAU_finddata64i32_t@@PEAU1@V?$xalloc@U_finddata64i32_t@@@@@std@@YAPEAU_finddata64i32_t@@PEAU1@00AEAV?$xalloc@U_finddata64i32_t@@@@@Z ; std::_Uninitialized_copy<_finddata64i32_t *,_finddata64i32_t *,xalloc<_finddata64i32_t> >
PUBLIC	??$forward@AEBQEAU_finddata64i32_t@@@std@@YAAEBQEAU_finddata64i32_t@@AEBQEAU1@@Z ; std::forward<_finddata64i32_t * const &>
PUBLIC	??$forward@V?$xalloc@U_finddata64i32_t@@@@@std@@YA$$QEAV?$xalloc@U_finddata64i32_t@@@@AEAV1@@Z ; std::forward<xalloc<_finddata64i32_t> >
PUBLIC	??$_Emplace_reallocate@AEBU_finddata64i32_t@@@?$vector@U_finddata64i32_t@@V?$xalloc@U_finddata64i32_t@@@@@std@@AEAAPEAU_finddata64i32_t@@QEAU2@AEBU2@@Z ; std::vector<_finddata64i32_t,xalloc<_finddata64i32_t> >::_Emplace_reallocate<_finddata64i32_t const &>
PUBLIC	??$_Emplace_back_with_unused_capacity@AEBU_finddata64i32_t@@@?$vector@U_finddata64i32_t@@V?$xalloc@U_finddata64i32_t@@@@@std@@AEAAAEAU_finddata64i32_t@@AEBU2@@Z ; std::vector<_finddata64i32_t,xalloc<_finddata64i32_t> >::_Emplace_back_with_unused_capacity<_finddata64i32_t const &>
PUBLIC	??$forward@AEBU_finddata64i32_t@@@std@@YAAEBU_finddata64i32_t@@AEBU1@@Z ; std::forward<_finddata64i32_t const &>
PUBLIC	??$_Uninitialized_value_construct_n@V?$xalloc@U_open_file@@@@@std@@YAPEAU_open_file@@PEAU1@_KAEAV?$xalloc@U_open_file@@@@@Z ; std::_Uninitialized_value_construct_n<xalloc<_open_file> >
PUBLIC	??$_Resize_reallocate@U_Value_init_tag@std@@@?$vector@U_open_file@@V?$xalloc@U_open_file@@@@@std@@AEAAX_KAEBU_Value_init_tag@1@@Z ; std::vector<_open_file,xalloc<_open_file> >::_Resize_reallocate<std::_Value_init_tag>
PUBLIC	??$find_if@V?$_Vector_iterator@V?$_Vector_val@U?$_Simple_types@U_open_file@@@std@@@std@@@std@@U?$eq_pointer@VIReader@@@@@std@@YA?AV?$_Vector_iterator@V?$_Vector_val@U?$_Simple_types@U_open_file@@@std@@@std@@@0@V10@V10@U?$eq_pointer@VIReader@@@@@Z ; std::find_if<std::_Vector_iterator<std::_Vector_val<std::_Simple_types<_open_file> > >,eq_pointer<IReader> >
PUBLIC	??$file_from_cache@VIReader@@@CLocatorAPI@@AEAAXAEAPEAVIReader@@PEADAEBIAEBUfile@0@AEAPEBD@Z ; CLocatorAPI::file_from_cache<IReader>
PUBLIC	??$_Sort_unchecked@PEAU_finddata64i32_t@@P6A_NAEBU1@0@Z@std@@YAXPEAU_finddata64i32_t@@0_JP6A_NAEBU1@2@Z@Z ; std::_Sort_unchecked<_finddata64i32_t *,bool (__cdecl*)(_finddata64i32_t const &,_finddata64i32_t const &)>
PUBLIC	??$_Pass_fn@P6A_NAEBU_finddata64i32_t@@0@Z$0A@@std@@YAP6A_NAEBU_finddata64i32_t@@0@ZP6A_N00@Z@Z ; std::_Pass_fn<bool (__cdecl*)(_finddata64i32_t const &,_finddata64i32_t const &),0>
PUBLIC	??$_Adl_verify_range@V?$_Vector_iterator@V?$_Vector_val@U?$_Simple_types@U_finddata64i32_t@@@std@@@std@@@std@@V12@@std@@YAXAEBV?$_Vector_iterator@V?$_Vector_val@U?$_Simple_types@U_finddata64i32_t@@@std@@@std@@@0@0@Z ; std::_Adl_verify_range<std::_Vector_iterator<std::_Vector_val<std::_Simple_types<_finddata64i32_t> > >,std::_Vector_iterator<std::_Vector_val<std::_Simple_types<_finddata64i32_t> > > >
PUBLIC	??$?0V?$_Tree_const_iterator@V?$_Tree_val@U?$_Tree_simple_types@Ufile@CLocatorAPI@@@std@@@std@@@std@@AEB_N$0A@@?$pair@V?$_Tree_const_iterator@V?$_Tree_val@U?$_Tree_simple_types@Ufile@CLocatorAPI@@@std@@@std@@@std@@_N@std@@QEAA@$$QEAV?$_Tree_const_iterator@V?$_Tree_val@U?$_Tree_simple_types@Ufile@CLocatorAPI@@@std@@@std@@@1@AEB_N@Z ; std::pair<std::_Tree_const_iterator<std::_Tree_val<std::_Tree_simple_types<CLocatorAPI::file> > >,bool>::pair<std::_Tree_const_iterator<std::_Tree_val<std::_Tree_simple_types<CLocatorAPI::file> > >,bool><std::_Tree_const_iterator<std::_Tree_val<std::_Tree_simple_types<CLocatorAPI::file> > >,bool const &,0>
PUBLIC	??$_Emplace@AEBUfile@CLocatorAPI@@@?$_Tree@V?$_Tset_traits@Ufile@CLocatorAPI@@Ufile_pred@2@V?$xalloc@Ufile@CLocatorAPI@@@@$0A@@std@@@std@@IEAA?AU?$pair@PEAU?$_Tree_node@Ufile@CLocatorAPI@@PEAX@std@@_N@1@AEBUfile@CLocatorAPI@@@Z ; std::_Tree<std::_Tset_traits<CLocatorAPI::file,CLocatorAPI::file_pred,xalloc<CLocatorAPI::file>,0> >::_Emplace<CLocatorAPI::file const &>
PUBLIC	??$_Seek_wrapped@V?$_Vector_iterator@V?$_Vector_val@U?$_Simple_types@U_open_file@@@std@@@std@@@std@@AEAPEAU_open_file@@@std@@YAXAEAV?$_Vector_iterator@V?$_Vector_val@U?$_Simple_types@U_open_file@@@std@@@std@@@0@AEAPEAU_open_file@@@Z ; std::_Seek_wrapped<std::_Vector_iterator<std::_Vector_val<std::_Simple_types<_open_file> > >,_open_file * &>
PUBLIC	??$_Adl_verify_range@V?$_Vector_iterator@V?$_Vector_val@U?$_Simple_types@U_open_file@@@std@@@std@@@std@@V12@@std@@YAXAEBV?$_Vector_iterator@V?$_Vector_val@U?$_Simple_types@U_open_file@@@std@@@std@@@0@0@Z ; std::_Adl_verify_range<std::_Vector_iterator<std::_Vector_val<std::_Simple_types<_open_file> > >,std::_Vector_iterator<std::_Vector_val<std::_Simple_types<_open_file> > > >
PUBLIC	?_Get_first@?$_Compressed_pair@V?$xalloc@PEAD@@V?$_Vector_val@U?$_Simple_types@PEAD@std@@@std@@$00@std@@QEAAAEAV?$xalloc@PEAD@@XZ ; std::_Compressed_pair<xalloc<char *>,std::_Vector_val<std::_Simple_types<char *> >,1>::_Get_first
PUBLIC	?deallocate@?$xalloc@PEAD@@QEBAXPEAPEAD_K@Z	; xalloc<char *>::deallocate
PUBLIC	?_Getal@?$vector@PEADV?$xalloc@PEAD@@@std@@AEAAAEAV?$xalloc@PEAD@@XZ ; std::vector<char *,xalloc<char *> >::_Getal
PUBLIC	?GetStaticFunction@?$ClosurePtr@P8GenericClass@detail@fastdelegate@@EAA_NPEBD@ZP6A_N0@ZP6A_N0@Z@detail@fastdelegate@@QEBAP6A_NPEBD@ZXZ ; fastdelegate::detail::ClosurePtr<bool (__cdecl fastdelegate::detail::GenericClass::*)(char const *),bool (__cdecl*)(char const *),bool (__cdecl*)(char const *)>::GetStaticFunction
PUBLIC	?_Tidy@?$vector@PEADV?$xalloc@PEAD@@@std@@AEAAXXZ ; std::vector<char *,xalloc<char *> >::_Tidy
PUBLIC	?InvokeStaticFunction@?$FastDelegate1@PEBD_N@fastdelegate@@AEBA_NPEBD@Z ; fastdelegate::FastDelegate1<char const *,bool>::InvokeStaticFunction
PUBLIC	??1?$vector@PEADV?$xalloc@PEAD@@@std@@QEAA@XZ	; std::vector<char *,xalloc<char *> >::~vector<char *,xalloc<char *> >
PUBLIC	?bind@?$FastDelegate1@PEBD_N@fastdelegate@@QEAAXP6A_NPEBD@Z@Z ; fastdelegate::FastDelegate1<char const *,bool>::bind
PUBLIC	?_Get_first@?$_Compressed_pair@Ufile_pred@CLocatorAPI@@V?$_Compressed_pair@V?$xalloc@U?$_Tree_node@Ufile@CLocatorAPI@@PEAX@std@@@@V?$_Tree_val@U?$_Tree_simple_types@Ufile@CLocatorAPI@@@std@@@std@@$00@std@@$00@std@@QEBAAEBUfile_pred@CLocatorAPI@@XZ ; std::_Compressed_pair<CLocatorAPI::file_pred,std::_Compressed_pair<xalloc<std::_Tree_node<CLocatorAPI::file,void *> >,std::_Tree_val<std::_Tree_simple_types<CLocatorAPI::file> >,1>,1>::_Get_first
PUBLIC	?_Buy_raw@?$vector@U_finddata64i32_t@@V?$xalloc@U_finddata64i32_t@@@@@std@@AEAAX_K@Z ; std::vector<_finddata64i32_t,xalloc<_finddata64i32_t> >::_Buy_raw
PUBLIC	??1?$xr_vector@PEADV?$xalloc@PEAD@@@@QEAA@XZ	; xr_vector<char *,xalloc<char *> >::~xr_vector<char *,xalloc<char *> >
PUBLIC	??0?$ClosurePtr@P8GenericClass@detail@fastdelegate@@EAA_NPEBD@ZP6A_N0@ZP6A_N0@Z@detail@fastdelegate@@QEAA@XZ ; fastdelegate::detail::ClosurePtr<bool (__cdecl fastdelegate::detail::GenericClass::*)(char const *),bool (__cdecl*)(char const *),bool (__cdecl*)(char const *)>::ClosurePtr<bool (__cdecl fastdelegate::detail::GenericClass::*)(char const *),bool (__cdecl*)(char const *),bool (__cdecl*)(char const *)>
PUBLIC	??0?$xalloc@E@@QEAA@XZ				; xalloc<unsigned char>::xalloc<unsigned char>
PUBLIC	??0?$_Vector_val@U?$_Simple_types@E@std@@@std@@QEAA@XZ ; std::_Vector_val<std::_Simple_types<unsigned char> >::_Vector_val<std::_Simple_types<unsigned char> >
PUBLIC	?set_age@?$IReaderBase@VIReader@@@@QEAAXI@Z	; IReaderBase<IReader>::set_age
PUBLIC	??0?$FastDelegate1@PEBD_N@fastdelegate@@QEAA@P6A_NPEBD@Z@Z ; fastdelegate::FastDelegate1<char const *,bool>::FastDelegate1<char const *,bool>
PUBLIC	?_Kfn@?$_Tset_traits@Ufile@CLocatorAPI@@Ufile_pred@2@V?$xalloc@Ufile@CLocatorAPI@@@@$0A@@std@@SAAEBUfile@CLocatorAPI@@AEBU34@@Z ; std::_Tset_traits<CLocatorAPI::file,CLocatorAPI::file_pred,xalloc<CLocatorAPI::file>,0>::_Kfn
PUBLIC	?allocate@?$xalloc@U?$_Tree_node@Ufile@CLocatorAPI@@PEAX@std@@@@QEBAPEAU?$_Tree_node@Ufile@CLocatorAPI@@PEAX@std@@_KPEBX@Z ; xalloc<std::_Tree_node<CLocatorAPI::file,void *> >::allocate
PUBLIC	?_Getcomp@?$_Tree@V?$_Tset_traits@Ufile@CLocatorAPI@@Ufile_pred@2@V?$xalloc@Ufile@CLocatorAPI@@@@$0A@@std@@@std@@IEBAAEBUfile_pred@CLocatorAPI@@XZ ; std::_Tree<std::_Tset_traits<CLocatorAPI::file,CLocatorAPI::file_pred,xalloc<CLocatorAPI::file>,0> >::_Getcomp
PUBLIC	?_Buy_nonzero@?$vector@U_finddata64i32_t@@V?$xalloc@U_finddata64i32_t@@@@@std@@AEAAX_K@Z ; std::vector<_finddata64i32_t,xalloc<_finddata64i32_t> >::_Buy_nonzero
PUBLIC	??0?$_Vector_val@U?$_Simple_types@U_finddata64i32_t@@@std@@@std@@QEAA@XZ ; std::_Vector_val<std::_Simple_types<_finddata64i32_t> >::_Vector_val<std::_Simple_types<_finddata64i32_t> >
PUBLIC	??0?$xalloc@U_open_file@@@@QEAA@XZ		; xalloc<_open_file>::xalloc<_open_file>
PUBLIC	?_Orphan_range@?$vector@U_open_file@@V?$xalloc@U_open_file@@@@@std@@AEBAXPEAU_open_file@@0@Z ; std::vector<_open_file,xalloc<_open_file> >::_Orphan_range
PUBLIC	??0?$_Vector_val@U?$_Simple_types@U_open_file@@@std@@@std@@QEAA@XZ ; std::_Vector_val<std::_Simple_types<_open_file> >::_Vector_val<std::_Simple_types<_open_file> >
PUBLIC	?_Unwrapped@?$_Vector_iterator@V?$_Vector_val@U?$_Simple_types@U_open_file@@@std@@@std@@@std@@QEBAPEAU_open_file@@XZ ; std::_Vector_iterator<std::_Vector_val<std::_Simple_types<_open_file> > >::_Unwrapped
PUBLIC	?_Unwrapped@?$_Vector_iterator@V?$_Vector_val@U?$_Simple_types@U_finddata64i32_t@@@std@@@std@@@std@@QEBAPEAU_finddata64i32_t@@XZ ; std::_Vector_iterator<std::_Vector_val<std::_Simple_types<_finddata64i32_t> > >::_Unwrapped
PUBLIC	??R?$xr_special_free@$00VIWriter@@@@QEAAXAEAPEAVIWriter@@@Z ; xr_special_free<1,IWriter>::operator()
PUBLIC	??R?$xr_special_free@$00VIReader@@@@QEAAXAEAPEAVIReader@@@Z ; xr_special_free<1,IReader>::operator()
PUBLIC	??1?$_Tidy_guard@V?$vector@U_finddata64i32_t@@V?$xalloc@U_finddata64i32_t@@@@@std@@@std@@QEAA@XZ ; std::_Tidy_guard<std::vector<_finddata64i32_t,xalloc<_finddata64i32_t> > >::~_Tidy_guard<std::vector<_finddata64i32_t,xalloc<_finddata64i32_t> > >
PUBLIC	??0?$_Uninitialized_backout_al@V?$xalloc@U_finddata64i32_t@@@@@std@@QEAA@PEAU_finddata64i32_t@@AEAV?$xalloc@U_finddata64i32_t@@@@@Z ; std::_Uninitialized_backout_al<xalloc<_finddata64i32_t> >::_Uninitialized_backout_al<xalloc<_finddata64i32_t> >
PUBLIC	??1?$_Uninitialized_backout_al@V?$xalloc@U_finddata64i32_t@@@@@std@@QEAA@XZ ; std::_Uninitialized_backout_al<xalloc<_finddata64i32_t> >::~_Uninitialized_backout_al<xalloc<_finddata64i32_t> >
PUBLIC	?_Release@?$_Uninitialized_backout_al@V?$xalloc@U_finddata64i32_t@@@@@std@@QEAAPEAU_finddata64i32_t@@XZ ; std::_Uninitialized_backout_al<xalloc<_finddata64i32_t> >::_Release
PUBLIC	??1CFileStreamReader@@UEAA@XZ			; CFileStreamReader::~CFileStreamReader
PUBLIC	??_GCFileStreamReader@@UEAAPEAXI@Z		; CFileStreamReader::`scalar deleting destructor'
PUBLIC	??$xr_free@V?$basic_string@DU?$char_traits@D@std@@V?$xalloc@D@@@std@@@@YAXAEAPEAV?$basic_string@DU?$char_traits@D@std@@V?$xalloc@D@@@std@@@Z ; xr_free<std::basic_string<char,std::char_traits<char>,xalloc<char> > >
PUBLIC	??$xr_free@Uarchive@CLocatorAPI@@@@YAXAEAPEAUarchive@CLocatorAPI@@@Z ; xr_free<CLocatorAPI::archive>
PUBLIC	??$addressof@$$CBV?$_Tree_val@U?$_Tree_simple_types@U?$pair@QEBDPEAVFS_Path@@@std@@@std@@@std@@@std@@YAPEBV?$_Tree_val@U?$_Tree_simple_types@U?$pair@QEBDPEAVFS_Path@@@std@@@std@@@0@AEBV10@@Z ; std::addressof<std::_Tree_val<std::_Tree_simple_types<std::pair<char const * const,FS_Path *> > > const >
PUBLIC	??$addressof@$$CBV?$_Tree_val@U?$_Tree_simple_types@Ufile@CLocatorAPI@@@std@@@std@@@std@@YAPEBV?$_Tree_val@U?$_Tree_simple_types@Ufile@CLocatorAPI@@@std@@@0@AEBV10@@Z ; std::addressof<std::_Tree_val<std::_Tree_simple_types<CLocatorAPI::file> > const >
PUBLIC	??$swap@D$0A@@std@@YAXAEAD0@Z			; std::swap<char,0>
PUBLIC	??$xr_alloc@U_finddata64i32_t@@@@YAPEAU_finddata64i32_t@@I@Z ; xr_alloc<_finddata64i32_t>
PUBLIC	??$xr_free@U_finddata64i32_t@@@@YAXAEAPEAU_finddata64i32_t@@@Z ; xr_free<_finddata64i32_t>
PUBLIC	??$xr_free@U_open_file@@@@YAXAEAPEAU_open_file@@@Z ; xr_free<_open_file>
PUBLIC	??$_Destroy_range@V?$xalloc@V?$basic_string@DU?$char_traits@D@std@@V?$xalloc@D@@@std@@@@@std@@YAXPEAV?$basic_string@DU?$char_traits@D@std@@V?$xalloc@D@@@0@QEAV10@AEAV?$xalloc@V?$basic_string@DU?$char_traits@D@std@@V?$xalloc@D@@@std@@@@@Z ; std::_Destroy_range<xalloc<std::basic_string<char,std::char_traits<char>,xalloc<char> > > >
PUBLIC	??$?0$$V@?$_Compressed_pair@V?$xalloc@E@@V?$_Vector_val@U?$_Simple_types@E@std@@@std@@$00@std@@QEAA@U_Zero_then_variadic_args_t@1@@Z ; std::_Compressed_pair<xalloc<unsigned char>,std::_Vector_val<std::_Simple_types<unsigned char> >,1>::_Compressed_pair<xalloc<unsigned char>,std::_Vector_val<std::_Simple_types<unsigned char> >,1><>
PUBLIC	??$_Destroy_range@V?$xalloc@E@@@std@@YAXPEAEQEAEAEAV?$xalloc@E@@@Z ; std::_Destroy_range<xalloc<unsigned char> >
PUBLIC	??$_Destroy_range@V?$xalloc@Uarchive@CLocatorAPI@@@@@std@@YAXPEAUarchive@CLocatorAPI@@QEAU12@AEAV?$xalloc@Uarchive@CLocatorAPI@@@@@Z ; std::_Destroy_range<xalloc<CLocatorAPI::archive> >
PUBLIC	??$addressof@U?$pair@QEBDPEAVFS_Path@@@std@@@std@@YAPEAU?$pair@QEBDPEAVFS_Path@@@0@AEAU10@@Z ; std::addressof<std::pair<char const * const,FS_Path *> >
PUBLIC	??$addressof@V?$_Tree_val@U?$_Tree_simple_types@U?$pair@QEBDPEAVFS_Path@@@std@@@std@@@std@@@std@@YAPEAV?$_Tree_val@U?$_Tree_simple_types@U?$pair@QEBDPEAVFS_Path@@@std@@@std@@@0@AEAV10@@Z ; std::addressof<std::_Tree_val<std::_Tree_simple_types<std::pair<char const * const,FS_Path *> > > >
PUBLIC	??$_Freenode@V?$xalloc@U?$_Tree_node@Ufile@CLocatorAPI@@PEAX@std@@@@@?$_Tree_node@Ufile@CLocatorAPI@@PEAX@std@@SAXAEAV?$xalloc@U?$_Tree_node@Ufile@CLocatorAPI@@PEAX@std@@@@PEAU01@@Z ; std::_Tree_node<CLocatorAPI::file,void *>::_Freenode<xalloc<std::_Tree_node<CLocatorAPI::file,void *> > >
PUBLIC	??$addressof@V?$_Tree_val@U?$_Tree_simple_types@Ufile@CLocatorAPI@@@std@@@std@@@std@@YAPEAV?$_Tree_val@U?$_Tree_simple_types@Ufile@CLocatorAPI@@@std@@@0@AEAV10@@Z ; std::addressof<std::_Tree_val<std::_Tree_simple_types<CLocatorAPI::file> > >
PUBLIC	??$_Get_unwrapped@AEBQEAU_finddata64i32_t@@@std@@YA?A_TAEBQEAU_finddata64i32_t@@@Z ; std::_Get_unwrapped<_finddata64i32_t * const &>
PUBLIC	??$_Uninitialized_move@PEAU_finddata64i32_t@@V?$xalloc@U_finddata64i32_t@@@@@std@@YAPEAU_finddata64i32_t@@QEAU1@0PEAU1@AEAV?$xalloc@U_finddata64i32_t@@@@@Z ; std::_Uninitialized_move<_finddata64i32_t *,xalloc<_finddata64i32_t> >
PUBLIC	??$_Move_unchecked@PEAU_finddata64i32_t@@PEAU1@@std@@YAPEAU_finddata64i32_t@@PEAU1@00@Z ; std::_Move_unchecked<_finddata64i32_t *,_finddata64i32_t *>
PUBLIC	??$_Destroy_range@V?$xalloc@U_finddata64i32_t@@@@@std@@YAXPEAU_finddata64i32_t@@QEAU1@AEAV?$xalloc@U_finddata64i32_t@@@@@Z ; std::_Destroy_range<xalloc<_finddata64i32_t> >
PUBLIC	??$?0$$V@?$_Compressed_pair@V?$xalloc@U_open_file@@@@V?$_Vector_val@U?$_Simple_types@U_open_file@@@std@@@std@@$00@std@@QEAA@U_Zero_then_variadic_args_t@1@@Z ; std::_Compressed_pair<xalloc<_open_file>,std::_Vector_val<std::_Simple_types<_open_file> >,1>::_Compressed_pair<xalloc<_open_file>,std::_Vector_val<std::_Simple_types<_open_file> >,1><>
PUBLIC	??$_Destroy_range@V?$xalloc@U_open_file@@@@@std@@YAXPEAU_open_file@@QEAU1@AEAV?$xalloc@U_open_file@@@@@Z ; std::_Destroy_range<xalloc<_open_file> >
PUBLIC	??$addressof@$$CBUfile@CLocatorAPI@@@std@@YAPEBUfile@CLocatorAPI@@AEBU12@@Z ; std::addressof<CLocatorAPI::file const >
PUBLIC	??$_Emplace_one_at_back@AEBE@?$vector@EV?$xalloc@E@@@std@@AEAAAEAEAEBE@Z ; std::vector<unsigned char,xalloc<unsigned char> >::_Emplace_one_at_back<unsigned char const &>
PUBLIC	??$_Unfancy_maybe_null@E@std@@YAPEAEPEAE@Z	; std::_Unfancy_maybe_null<unsigned char>
PUBLIC	??$_Emplace_one_at_back@Uarchive@CLocatorAPI@@@?$vector@Uarchive@CLocatorAPI@@V?$xalloc@Uarchive@CLocatorAPI@@@@@std@@AEAAAEAUarchive@CLocatorAPI@@$$QEAU23@@Z ; std::vector<CLocatorAPI::archive,xalloc<CLocatorAPI::archive> >::_Emplace_one_at_back<CLocatorAPI::archive>
PUBLIC	??$move@AEAUarchive@CLocatorAPI@@@std@@YA$$QEAUarchive@CLocatorAPI@@AEAU12@@Z ; std::move<CLocatorAPI::archive &>
PUBLIC	??$addressof@V?$_Vector_val@U?$_Simple_types@Uarchive@CLocatorAPI@@@std@@@std@@@std@@YAPEAV?$_Vector_val@U?$_Simple_types@Uarchive@CLocatorAPI@@@std@@@0@AEAV10@@Z ; std::addressof<std::_Vector_val<std::_Simple_types<CLocatorAPI::archive> > >
PUBLIC	??$_Erase_head@V?$xalloc@U?$_Tree_node@U?$pair@QEBDPEAVFS_Path@@@std@@PEAX@std@@@@@?$_Tree_val@U?$_Tree_simple_types@U?$pair@QEBDPEAVFS_Path@@@std@@@std@@@std@@QEAAXAEAV?$xalloc@U?$_Tree_node@U?$pair@QEBDPEAVFS_Path@@@std@@PEAX@std@@@@@Z ; std::_Tree_val<std::_Tree_simple_types<std::pair<char const * const,FS_Path *> > >::_Erase_head<xalloc<std::_Tree_node<std::pair<char const * const,FS_Path *>,void *> > >
PUBLIC	??$_Erase_tree@V?$xalloc@U?$_Tree_node@U?$pair@QEBDPEAVFS_Path@@@std@@PEAX@std@@@@@?$_Tree_val@U?$_Tree_simple_types@U?$pair@QEBDPEAVFS_Path@@@std@@@std@@@std@@QEAAXAEAV?$xalloc@U?$_Tree_node@U?$pair@QEBDPEAVFS_Path@@@std@@PEAX@std@@@@PEAU?$_Tree_node@U?$pair@QEBDPEAVFS_Path@@@std@@PEAX@1@@Z ; std::_Tree_val<std::_Tree_simple_types<std::pair<char const * const,FS_Path *> > >::_Erase_tree<xalloc<std::_Tree_node<std::pair<char const * const,FS_Path *>,void *> > >
PUBLIC	??$_Find@PEBD@?$_Tree@V?$_Tmap_traits@PEBDPEAVFS_Path@@Upred_str@@V?$xalloc@U?$pair@QEBDPEAVFS_Path@@@std@@@@$0A@@std@@@std@@AEBAPEAU?$_Tree_node@U?$pair@QEBDPEAVFS_Path@@@std@@PEAX@1@AEBQEBD@Z ; std::_Tree<std::_Tmap_traits<char const *,FS_Path *,pred_str,xalloc<std::pair<char const * const,FS_Path *> >,0> >::_Find<char const *>
PUBLIC	??$_Erase_head@V?$xalloc@U?$_Tree_node@Ufile@CLocatorAPI@@PEAX@std@@@@@?$_Tree_val@U?$_Tree_simple_types@Ufile@CLocatorAPI@@@std@@@std@@QEAAXAEAV?$xalloc@U?$_Tree_node@Ufile@CLocatorAPI@@PEAX@std@@@@@Z ; std::_Tree_val<std::_Tree_simple_types<CLocatorAPI::file> >::_Erase_head<xalloc<std::_Tree_node<CLocatorAPI::file,void *> > >
PUBLIC	??$_Erase_tree@V?$xalloc@U?$_Tree_node@Ufile@CLocatorAPI@@PEAX@std@@@@@?$_Tree_val@U?$_Tree_simple_types@Ufile@CLocatorAPI@@@std@@@std@@QEAAXAEAV?$xalloc@U?$_Tree_node@Ufile@CLocatorAPI@@PEAX@std@@@@PEAU?$_Tree_node@Ufile@CLocatorAPI@@PEAX@1@@Z ; std::_Tree_val<std::_Tree_simple_types<CLocatorAPI::file> >::_Erase_tree<xalloc<std::_Tree_node<CLocatorAPI::file,void *> > >
PUBLIC	??$_Find@Ufile@CLocatorAPI@@@?$_Tree@V?$_Tset_traits@Ufile@CLocatorAPI@@Ufile_pred@2@V?$xalloc@Ufile@CLocatorAPI@@@@$0A@@std@@@std@@AEBAPEAU?$_Tree_node@Ufile@CLocatorAPI@@PEAX@1@AEBUfile@CLocatorAPI@@@Z ; std::_Tree<std::_Tset_traits<CLocatorAPI::file,CLocatorAPI::file_pred,xalloc<CLocatorAPI::file>,0> >::_Find<CLocatorAPI::file>
PUBLIC	??$_Find_lower_bound@Ufile@CLocatorAPI@@@?$_Tree@V?$_Tset_traits@Ufile@CLocatorAPI@@Ufile_pred@2@V?$xalloc@Ufile@CLocatorAPI@@@@$0A@@std@@@std@@IEBA?AU?$_Tree_find_result@PEAU?$_Tree_node@Ufile@CLocatorAPI@@PEAX@std@@@1@AEBUfile@CLocatorAPI@@@Z ; std::_Tree<std::_Tset_traits<CLocatorAPI::file,CLocatorAPI::file_pred,xalloc<CLocatorAPI::file>,0> >::_Find_lower_bound<CLocatorAPI::file>
PUBLIC	??$_Construct_n@AEBQEAU_finddata64i32_t@@AEBQEAU1@@?$vector@U_finddata64i32_t@@V?$xalloc@U_finddata64i32_t@@@@@std@@AEAAX_KAEBQEAU_finddata64i32_t@@1@Z ; std::vector<_finddata64i32_t,xalloc<_finddata64i32_t> >::_Construct_n<_finddata64i32_t * const &,_finddata64i32_t * const &>
PUBLIC	??$?0V?$xalloc@U_finddata64i32_t@@@@$$V@?$_Compressed_pair@V?$xalloc@U_finddata64i32_t@@@@V?$_Vector_val@U?$_Simple_types@U_finddata64i32_t@@@std@@@std@@$00@std@@QEAA@U_One_then_variadic_args_t@1@$$QEAV?$xalloc@U_finddata64i32_t@@@@@Z ; std::_Compressed_pair<xalloc<_finddata64i32_t>,std::_Vector_val<std::_Simple_types<_finddata64i32_t> >,1>::_Compressed_pair<xalloc<_finddata64i32_t>,std::_Vector_val<std::_Simple_types<_finddata64i32_t> >,1><xalloc<_finddata64i32_t> >
PUBLIC	??$_Emplace_one_at_back@AEBU_finddata64i32_t@@@?$vector@U_finddata64i32_t@@V?$xalloc@U_finddata64i32_t@@@@@std@@AEAAAEAU_finddata64i32_t@@AEBU2@@Z ; std::vector<_finddata64i32_t,xalloc<_finddata64i32_t> >::_Emplace_one_at_back<_finddata64i32_t const &>
PUBLIC	??$addressof@V?$_Vector_val@U?$_Simple_types@U_finddata64i32_t@@@std@@@std@@@std@@YAPEAV?$_Vector_val@U?$_Simple_types@U_finddata64i32_t@@@std@@@0@AEAV10@@Z ; std::addressof<std::_Vector_val<std::_Simple_types<_finddata64i32_t> > >
PUBLIC	??$_Resize@U_Value_init_tag@std@@@?$vector@U_open_file@@V?$xalloc@U_open_file@@@@@std@@AEAAX_KAEBU_Value_init_tag@1@@Z ; std::vector<_open_file,xalloc<_open_file> >::_Resize<std::_Value_init_tag>
PUBLIC	??$addressof@V?$_Vector_val@U?$_Simple_types@U_open_file@@@std@@@std@@@std@@YAPEAV?$_Vector_val@U?$_Simple_types@U_open_file@@@std@@@0@AEAV10@@Z ; std::addressof<std::_Vector_val<std::_Simple_types<_open_file> > >
PUBLIC	??$_unregister_open_file@VIReader@@@@YAXPEAVIReader@@@Z ; _unregister_open_file<IReader>
PUBLIC	??$r_open_impl@VIReader@@@CLocatorAPI@@AEAAPEAVIReader@@PEBD0@Z ; CLocatorAPI::r_open_impl<IReader>
PUBLIC	??$xr_new@VCPackReader@@PEAEPEAEI@@YAPEAVCPackReader@@AEBQEAE0AEBI@Z ; xr_new<CPackReader,unsigned char *,unsigned char *,unsigned int>
PUBLIC	??$xr_new@VCTempReader@@PEADIH@@YAPEAVCTempReader@@AEBQEADAEBIAEBH@Z ; xr_new<CTempReader,char *,unsigned int,int>
PUBLIC	??$xr_delete@VIReader@@@@YAXAEAPEAVIReader@@@Z	; xr_delete<IReader>
PUBLIC	??$xr_delete@VIWriter@@@@YAXAEAPEAVIWriter@@@Z	; xr_delete<IWriter>
PUBLIC	??$xr_new@VCFileWriter@@$$BY0CAI@D_N@@YAPEAVCFileWriter@@AEAY0CAI@$$CBDAEB_N@Z ; xr_new<CFileWriter,char [520],bool>
PUBLIC	??$xr_new@VCVirtualFileReader@@PEAD@@YAPEAVCVirtualFileReader@@AEBQEAD@Z ; xr_new<CVirtualFileReader,char *>
PUBLIC	??$xr_new@VCFileReader@@PEAD@@YAPEAVCFileReader@@AEBQEAD@Z ; xr_new<CFileReader,char *>
PUBLIC	??$_GetItem@$0CAI@@@YAPEADPEBDHAEAY0CAI@DD0_N@Z	; _GetItem<520>
PUBLIC	??$_register_open_file@VIReader@@@@YAXPEAVIReader@@PEBD@Z ; _register_open_file<IReader>
PUBLIC	??$_Get_unwrapped@AEBV?$_Vector_iterator@V?$_Vector_val@U?$_Simple_types@U_finddata64i32_t@@@std@@@std@@@std@@@std@@YA?A_TAEBV?$_Vector_iterator@V?$_Vector_val@U?$_Simple_types@U_finddata64i32_t@@@std@@@std@@@0@@Z ; std::_Get_unwrapped<std::_Vector_iterator<std::_Vector_val<std::_Simple_types<_finddata64i32_t> > > const &>
PUBLIC	??$sort@V?$_Vector_iterator@V?$_Vector_val@U?$_Simple_types@U_finddata64i32_t@@@std@@@std@@@std@@P6A_NAEBU_finddata64i32_t@@0@Z@std@@YAXV?$_Vector_iterator@V?$_Vector_val@U?$_Simple_types@U_finddata64i32_t@@@std@@@std@@@0@0P6A_NAEBU_finddata64i32_t@@1@Z@Z ; std::sort<std::_Vector_iterator<std::_Vector_val<std::_Simple_types<_finddata64i32_t> > >,bool (__cdecl*)(_finddata64i32_t const &,_finddata64i32_t const &)>
PUBLIC	??$xr_strcat@$0EAA@@@YAHAEAY0EAA@DPEBD@Z	; xr_strcat<1024>
PUBLIC	??$xr_new@VCInifile@@PEAVIReader@@$$BY0P@D@@YAPEAVCInifile@@AEBQEAVIReader@@AEAY0P@$$CBD@Z ; xr_new<CInifile,IReader *,char [15]>
PUBLIC	??$xr_new@VCTempReader@@PEAEIH@@YAPEAVCTempReader@@AEBQEAEAEBIAEBH@Z ; xr_new<CTempReader,unsigned char *,unsigned int,int>
PUBLIC	??$xr_alloc@E@@YAPEAEI@Z			; xr_alloc<unsigned char>
PUBLIC	??$insert@$0A@$0A@@?$_Tree@V?$_Tset_traits@Ufile@CLocatorAPI@@Ufile_pred@2@V?$xalloc@Ufile@CLocatorAPI@@@@$0A@@std@@@std@@QEAA?AU?$pair@V?$_Tree_const_iterator@V?$_Tree_val@U?$_Tree_simple_types@Ufile@CLocatorAPI@@@std@@@std@@@std@@_N@1@AEBUfile@CLocatorAPI@@@Z ; std::_Tree<std::_Tset_traits<CLocatorAPI::file,CLocatorAPI::file_pred,xalloc<CLocatorAPI::file>,0> >::insert<0,0>
PUBLIC	??$find_if@V?$_Vector_iterator@V?$_Vector_val@U?$_Simple_types@U_open_file@@@std@@@std@@@std@@Ueq_fname_free@@@std@@YA?AV?$_Vector_iterator@V?$_Vector_val@U?$_Simple_types@U_open_file@@@std@@@std@@@0@V10@V10@Ueq_fname_free@@@Z ; std::find_if<std::_Vector_iterator<std::_Vector_val<std::_Simple_types<_open_file> > >,eq_fname_free>
PUBLIC	??$_Get_unwrapped@AEBV?$_Vector_iterator@V?$_Vector_val@U?$_Simple_types@U_open_file@@@std@@@std@@@std@@@std@@YA?A_TAEBV?$_Vector_iterator@V?$_Vector_val@U?$_Simple_types@U_open_file@@@std@@@std@@@0@@Z ; std::_Get_unwrapped<std::_Vector_iterator<std::_Vector_val<std::_Simple_types<_open_file> > > const &>
PUBLIC	??$_Get_unwrapped@AEAV?$_Vector_iterator@V?$_Vector_val@U?$_Simple_types@U_open_file@@@std@@@std@@@std@@@std@@YA?A_TAEAV?$_Vector_iterator@V?$_Vector_val@U?$_Simple_types@U_open_file@@@std@@@std@@@0@@Z ; std::_Get_unwrapped<std::_Vector_iterator<std::_Vector_val<std::_Simple_types<_open_file> > > &>
PUBLIC	??$find_if@V?$_Vector_iterator@V?$_Vector_val@U?$_Simple_types@U_open_file@@@std@@@std@@@std@@Ueq_fname_check@@@std@@YA?AV?$_Vector_iterator@V?$_Vector_val@U?$_Simple_types@U_open_file@@@std@@@std@@@0@V10@V10@Ueq_fname_check@@@Z ; std::find_if<std::_Vector_iterator<std::_Vector_val<std::_Simple_types<_open_file> > >,eq_fname_check>
PUBLIC	?_Verify_offset@?$_Vector_const_iterator@V?$_Vector_val@U?$_Simple_types@Uarchive@CLocatorAPI@@@std@@@std@@@std@@QEBAX_J@Z ; std::_Vector_const_iterator<std::_Vector_val<std::_Simple_types<CLocatorAPI::archive> > >::_Verify_offset
PUBLIC	?_Get_first@?$_Compressed_pair@V?$xalloc@V?$basic_string@DU?$char_traits@D@std@@V?$xalloc@D@@@std@@@@V?$_Vector_val@U?$_Simple_types@V?$basic_string@DU?$char_traits@D@std@@V?$xalloc@D@@@std@@@std@@@std@@$00@std@@QEAAAEAV?$xalloc@V?$basic_string@DU?$char_traits@D@std@@V?$xalloc@D@@@std@@@@XZ ; std::_Compressed_pair<xalloc<std::basic_string<char,std::char_traits<char>,xalloc<char> > >,std::_Vector_val<std::_Simple_types<std::basic_string<char,std::char_traits<char>,xalloc<char> > > >,1>::_Get_first
PUBLIC	?_Get_first@?$_Compressed_pair@V?$xalloc@E@@V?$_Vector_val@U?$_Simple_types@E@std@@@std@@$00@std@@QEAAAEAV?$xalloc@E@@XZ ; std::_Compressed_pair<xalloc<unsigned char>,std::_Vector_val<std::_Simple_types<unsigned char> >,1>::_Get_first
PUBLIC	?_Get_first@?$_Compressed_pair@V?$xalloc@Uarchive@CLocatorAPI@@@@V?$_Vector_val@U?$_Simple_types@Uarchive@CLocatorAPI@@@std@@@std@@$00@std@@QEAAAEAV?$xalloc@Uarchive@CLocatorAPI@@@@XZ ; std::_Compressed_pair<xalloc<CLocatorAPI::archive>,std::_Vector_val<std::_Simple_types<CLocatorAPI::archive> >,1>::_Get_first
PUBLIC	?_Min@?$_Tree_val@U?$_Tree_simple_types@U?$pair@QEBDPEAVFS_Path@@@std@@@std@@@std@@SAPEAU?$_Tree_node@U?$pair@QEBDPEAVFS_Path@@@std@@PEAX@2@PEAU32@@Z ; std::_Tree_val<std::_Tree_simple_types<std::pair<char const * const,FS_Path *> > >::_Min
PUBLIC	?_Max@?$_Tree_val@U?$_Tree_simple_types@Ufile@CLocatorAPI@@@std@@@std@@SAPEAU?$_Tree_node@Ufile@CLocatorAPI@@PEAX@2@PEAU32@@Z ; std::_Tree_val<std::_Tree_simple_types<CLocatorAPI::file> >::_Max
PUBLIC	?_Lrotate@?$_Tree_val@U?$_Tree_simple_types@Ufile@CLocatorAPI@@@std@@@std@@QEAAXPEAU?$_Tree_node@Ufile@CLocatorAPI@@PEAX@2@@Z ; std::_Tree_val<std::_Tree_simple_types<CLocatorAPI::file> >::_Lrotate
PUBLIC	?_Rrotate@?$_Tree_val@U?$_Tree_simple_types@Ufile@CLocatorAPI@@@std@@@std@@QEAAXPEAU?$_Tree_node@Ufile@CLocatorAPI@@PEAX@2@@Z ; std::_Tree_val<std::_Tree_simple_types<CLocatorAPI::file> >::_Rrotate
PUBLIC	?max_size@?$xalloc@U_finddata64i32_t@@@@QEBA_KXZ ; xalloc<_finddata64i32_t>::max_size
PUBLIC	?_Get_first@?$_Compressed_pair@V?$xalloc@U_finddata64i32_t@@@@V?$_Vector_val@U?$_Simple_types@U_finddata64i32_t@@@std@@@std@@$00@std@@QEAAAEAV?$xalloc@U_finddata64i32_t@@@@XZ ; std::_Compressed_pair<xalloc<_finddata64i32_t>,std::_Vector_val<std::_Simple_types<_finddata64i32_t> >,1>::_Get_first
PUBLIC	?_Get_first@?$_Compressed_pair@V?$xalloc@U_open_file@@@@V?$_Vector_val@U?$_Simple_types@U_open_file@@@std@@@std@@$00@std@@QEAAAEAV?$xalloc@U_open_file@@@@XZ ; std::_Compressed_pair<xalloc<_open_file>,std::_Vector_val<std::_Simple_types<_open_file> >,1>::_Get_first
PUBLIC	??Y?$_Vector_const_iterator@V?$_Vector_val@U?$_Simple_types@Uarchive@CLocatorAPI@@@std@@@std@@@std@@QEAAAEAV01@_J@Z ; std::_Vector_const_iterator<std::_Vector_val<std::_Simple_types<CLocatorAPI::archive> > >::operator+=
PUBLIC	?deallocate@?$xalloc@V?$basic_string@DU?$char_traits@D@std@@V?$xalloc@D@@@std@@@@QEBAXPEAV?$basic_string@DU?$char_traits@D@std@@V?$xalloc@D@@@std@@_K@Z ; xalloc<std::basic_string<char,std::char_traits<char>,xalloc<char> > >::deallocate
PUBLIC	?_Getal@?$vector@V?$basic_string@DU?$char_traits@D@std@@V?$xalloc@D@@@std@@V?$xalloc@V?$basic_string@DU?$char_traits@D@std@@V?$xalloc@D@@@std@@@@@std@@AEAAAEAV?$xalloc@V?$basic_string@DU?$char_traits@D@std@@V?$xalloc@D@@@std@@@@XZ ; std::vector<std::basic_string<char,std::char_traits<char>,xalloc<char> >,xalloc<std::basic_string<char,std::char_traits<char>,xalloc<char> > > >::_Getal
PUBLIC	?deallocate@?$xalloc@E@@QEBAXPEAE_K@Z		; xalloc<unsigned char>::deallocate
PUBLIC	?_Getal@?$vector@EV?$xalloc@E@@@std@@AEAAAEAV?$xalloc@E@@XZ ; std::vector<unsigned char,xalloc<unsigned char> >::_Getal
PUBLIC	?deallocate@?$xalloc@Uarchive@CLocatorAPI@@@@QEBAXPEAUarchive@CLocatorAPI@@_K@Z ; xalloc<CLocatorAPI::archive>::deallocate
PUBLIC	?_Getal@?$vector@Uarchive@CLocatorAPI@@V?$xalloc@Uarchive@CLocatorAPI@@@@@std@@AEAAAEAV?$xalloc@Uarchive@CLocatorAPI@@@@XZ ; std::vector<CLocatorAPI::archive,xalloc<CLocatorAPI::archive> >::_Getal
PUBLIC	?_Get_scary@?$_Tree@V?$_Tmap_traits@PEBDPEAVFS_Path@@Upred_str@@V?$xalloc@U?$pair@QEBDPEAVFS_Path@@@std@@@@$0A@@std@@@std@@IEBAPEBV?$_Tree_val@U?$_Tree_simple_types@U?$pair@QEBDPEAVFS_Path@@@std@@@std@@@2@XZ ; std::_Tree<std::_Tmap_traits<char const *,FS_Path *,pred_str,xalloc<std::pair<char const * const,FS_Path *> >,0> >::_Get_scary
PUBLIC	?_Get_first@?$_Compressed_pair@V?$xalloc@U?$_Tree_node@U?$pair@QEBDPEAVFS_Path@@@std@@PEAX@std@@@@V?$_Tree_val@U?$_Tree_simple_types@U?$pair@QEBDPEAVFS_Path@@@std@@@std@@@std@@$00@std@@QEAAAEAV?$xalloc@U?$_Tree_node@U?$pair@QEBDPEAVFS_Path@@@std@@PEAX@std@@@@XZ ; std::_Compressed_pair<xalloc<std::_Tree_node<std::pair<char const * const,FS_Path *>,void *> >,std::_Tree_val<std::_Tree_simple_types<std::pair<char const * const,FS_Path *> > >,1>::_Get_first
PUBLIC	?_Get_scary@?$_Tree@V?$_Tset_traits@Ufile@CLocatorAPI@@Ufile_pred@2@V?$xalloc@Ufile@CLocatorAPI@@@@$0A@@std@@@std@@IEBAPEBV?$_Tree_val@U?$_Tree_simple_types@Ufile@CLocatorAPI@@@std@@@2@XZ ; std::_Tree<std::_Tset_traits<CLocatorAPI::file,CLocatorAPI::file_pred,xalloc<CLocatorAPI::file>,0> >::_Get_scary
PUBLIC	?_Min@?$_Tree_val@U?$_Tree_simple_types@Ufile@CLocatorAPI@@@std@@@std@@SAPEAU?$_Tree_node@Ufile@CLocatorAPI@@PEAX@2@PEAU32@@Z ; std::_Tree_val<std::_Tree_simple_types<CLocatorAPI::file> >::_Min
PUBLIC	?_Extract@?$_Tree_val@U?$_Tree_simple_types@Ufile@CLocatorAPI@@@std@@@std@@QEAAPEAU?$_Tree_node@Ufile@CLocatorAPI@@PEAX@2@V?$_Tree_unchecked_const_iterator@V?$_Tree_val@U?$_Tree_simple_types@Ufile@CLocatorAPI@@@std@@@std@@U_Iterator_base0@2@@2@@Z ; std::_Tree_val<std::_Tree_simple_types<CLocatorAPI::file> >::_Extract
PUBLIC	?_Get_first@?$_Compressed_pair@V?$xalloc@U?$_Tree_node@Ufile@CLocatorAPI@@PEAX@std@@@@V?$_Tree_val@U?$_Tree_simple_types@Ufile@CLocatorAPI@@@std@@@std@@$00@std@@QEAAAEAV?$xalloc@U?$_Tree_node@Ufile@CLocatorAPI@@PEAX@std@@@@XZ ; std::_Compressed_pair<xalloc<std::_Tree_node<CLocatorAPI::file,void *> >,std::_Tree_val<std::_Tree_simple_types<CLocatorAPI::file> >,1>::_Get_first
PUBLIC	??0?$xalloc@U_finddata64i32_t@@@@QEAA@AEBV0@@Z	; xalloc<_finddata64i32_t>::xalloc<_finddata64i32_t>
PUBLIC	?allocate@?$xalloc@U_finddata64i32_t@@@@QEBAPEAU_finddata64i32_t@@_KPEBX@Z ; xalloc<_finddata64i32_t>::allocate
PUBLIC	?deallocate@?$xalloc@U_finddata64i32_t@@@@QEBAXPEAU_finddata64i32_t@@_K@Z ; xalloc<_finddata64i32_t>::deallocate
PUBLIC	?max_size@?$_Normal_allocator_traits@V?$xalloc@U_finddata64i32_t@@@@@std@@SA_KAEBV?$xalloc@U_finddata64i32_t@@@@@Z ; std::_Normal_allocator_traits<xalloc<_finddata64i32_t> >::max_size
PUBLIC	?_Change_array@?$vector@U_finddata64i32_t@@V?$xalloc@U_finddata64i32_t@@@@@std@@AEAAXQEAU_finddata64i32_t@@_K1@Z ; std::vector<_finddata64i32_t,xalloc<_finddata64i32_t> >::_Change_array
PUBLIC	?_Orphan_range@?$vector@U_finddata64i32_t@@V?$xalloc@U_finddata64i32_t@@@@@std@@AEBAXPEAU_finddata64i32_t@@0@Z ; std::vector<_finddata64i32_t,xalloc<_finddata64i32_t> >::_Orphan_range
PUBLIC	?_Getal@?$vector@U_finddata64i32_t@@V?$xalloc@U_finddata64i32_t@@@@@std@@AEAAAEAV?$xalloc@U_finddata64i32_t@@@@XZ ; std::vector<_finddata64i32_t,xalloc<_finddata64i32_t> >::_Getal
PUBLIC	?_Get_first@?$_Compressed_pair@V?$xalloc@U_finddata64i32_t@@@@V?$_Vector_val@U?$_Simple_types@U_finddata64i32_t@@@std@@@std@@$00@std@@QEBAAEBV?$xalloc@U_finddata64i32_t@@@@XZ ; std::_Compressed_pair<xalloc<_finddata64i32_t>,std::_Vector_val<std::_Simple_types<_finddata64i32_t> >,1>::_Get_first
PUBLIC	?deallocate@?$xalloc@U_open_file@@@@QEBAXPEAU_open_file@@_K@Z ; xalloc<_open_file>::deallocate
PUBLIC	?_Getal@?$vector@U_open_file@@V?$xalloc@U_open_file@@@@@std@@AEAAAEAV?$xalloc@U_open_file@@@@XZ ; std::vector<_open_file,xalloc<_open_file> >::_Getal
PUBLIC	??E?$_Tree_unchecked_const_iterator@V?$_Tree_val@U?$_Tree_simple_types@U?$pair@QEBDPEAVFS_Path@@@std@@@std@@@std@@U_Iterator_base0@2@@std@@QEAAAEAV01@XZ ; std::_Tree_unchecked_const_iterator<std::_Tree_val<std::_Tree_simple_types<std::pair<char const * const,FS_Path *> > >,std::_Iterator_base0>::operator++
PUBLIC	??D?$_Tree_const_iterator@V?$_Tree_val@U?$_Tree_simple_types@U?$pair@QEBDPEAVFS_Path@@@std@@@std@@@std@@@std@@QEBAAEBU?$pair@QEBDPEAVFS_Path@@@1@XZ ; std::_Tree_const_iterator<std::_Tree_val<std::_Tree_simple_types<std::pair<char const * const,FS_Path *> > > >::operator*
PUBLIC	?_Compat@?$_Vector_const_iterator@V?$_Vector_val@U?$_Simple_types@Uarchive@CLocatorAPI@@@std@@@std@@@std@@QEBAXAEBV12@@Z ; std::_Vector_const_iterator<std::_Vector_val<std::_Simple_types<CLocatorAPI::archive> > >::_Compat
PUBLIC	??Y?$_Vector_iterator@V?$_Vector_val@U?$_Simple_types@Uarchive@CLocatorAPI@@@std@@@std@@@std@@QEAAAEAV01@_J@Z ; std::_Vector_iterator<std::_Vector_val<std::_Simple_types<CLocatorAPI::archive> > >::operator+=
PUBLIC	?_Compat@?$_Vector_const_iterator@V?$_Vector_val@U?$_Simple_types@U_finddata64i32_t@@@std@@@std@@@std@@QEBAXAEBV12@@Z ; std::_Vector_const_iterator<std::_Vector_val<std::_Simple_types<_finddata64i32_t> > >::_Compat
PUBLIC	?_Tidy@?$vector@V?$basic_string@DU?$char_traits@D@std@@V?$xalloc@D@@@std@@V?$xalloc@V?$basic_string@DU?$char_traits@D@std@@V?$xalloc@D@@@std@@@@@std@@AEAAXXZ ; std::vector<std::basic_string<char,std::char_traits<char>,xalloc<char> >,xalloc<std::basic_string<char,std::char_traits<char>,xalloc<char> > > >::_Tidy
PUBLIC	??0?$vector@EV?$xalloc@E@@@std@@QEAA@XZ		; std::vector<unsigned char,xalloc<unsigned char> >::vector<unsigned char,xalloc<unsigned char> >
PUBLIC	?size@?$vector@EV?$xalloc@E@@@std@@QEBA_KXZ	; std::vector<unsigned char,xalloc<unsigned char> >::size
PUBLIC	?_Tidy@?$vector@EV?$xalloc@E@@@std@@AEAAXXZ	; std::vector<unsigned char,xalloc<unsigned char> >::_Tidy
PUBLIC	?impl@?$IReaderBase@VIReader@@@@QEBAAEBVIReader@@XZ ; IReaderBase<IReader>::impl
PUBLIC	?size@?$vector@Uarchive@CLocatorAPI@@V?$xalloc@Uarchive@CLocatorAPI@@@@@std@@QEBA_KXZ ; std::vector<CLocatorAPI::archive,xalloc<CLocatorAPI::archive> >::size
PUBLIC	?_Tidy@?$vector@Uarchive@CLocatorAPI@@V?$xalloc@Uarchive@CLocatorAPI@@@@@std@@AEAAXXZ ; std::vector<CLocatorAPI::archive,xalloc<CLocatorAPI::archive> >::_Tidy
PUBLIC	?pointer_to@?$pointer_traits@PEAU?$pair@QEBDPEAVFS_Path@@@std@@@std@@SAPEAU?$pair@QEBDPEAVFS_Path@@@2@AEAU32@@Z ; std::pointer_traits<std::pair<char const * const,FS_Path *> *>::pointer_to
PUBLIC	?_Getal@?$_Tree@V?$_Tmap_traits@PEBDPEAVFS_Path@@Upred_str@@V?$xalloc@U?$pair@QEBDPEAVFS_Path@@@std@@@@$0A@@std@@@std@@IEAAAEAV?$xalloc@U?$_Tree_node@U?$pair@QEBDPEAVFS_Path@@@std@@PEAX@std@@@@XZ ; std::_Tree<std::_Tmap_traits<char const *,FS_Path *,pred_str,xalloc<std::pair<char const * const,FS_Path *> >,0> >::_Getal
PUBLIC	?_Get_scary@?$_Tree@V?$_Tmap_traits@PEBDPEAVFS_Path@@Upred_str@@V?$xalloc@U?$pair@QEBDPEAVFS_Path@@@std@@@@$0A@@std@@@std@@IEAAPEAV?$_Tree_val@U?$_Tree_simple_types@U?$pair@QEBDPEAVFS_Path@@@std@@@std@@@2@XZ ; std::_Tree<std::_Tmap_traits<char const *,FS_Path *,pred_str,xalloc<std::pair<char const * const,FS_Path *> >,0> >::_Get_scary
PUBLIC	?_Erase_unchecked@?$_Tree@V?$_Tset_traits@Ufile@CLocatorAPI@@Ufile_pred@2@V?$xalloc@Ufile@CLocatorAPI@@@@$0A@@std@@@std@@AEAAPEAU?$_Tree_node@Ufile@CLocatorAPI@@PEAX@2@V?$_Tree_unchecked_const_iterator@V?$_Tree_val@U?$_Tree_simple_types@Ufile@CLocatorAPI@@@std@@@std@@U_Iterator_base0@2@@2@@Z ; std::_Tree<std::_Tset_traits<CLocatorAPI::file,CLocatorAPI::file_pred,xalloc<CLocatorAPI::file>,0> >::_Erase_unchecked
PUBLIC	?_Getal@?$_Tree@V?$_Tset_traits@Ufile@CLocatorAPI@@Ufile_pred@2@V?$xalloc@Ufile@CLocatorAPI@@@@$0A@@std@@@std@@IEAAAEAV?$xalloc@U?$_Tree_node@Ufile@CLocatorAPI@@PEAX@std@@@@XZ ; std::_Tree<std::_Tset_traits<CLocatorAPI::file,CLocatorAPI::file_pred,xalloc<CLocatorAPI::file>,0> >::_Getal
PUBLIC	?_Get_scary@?$_Tree@V?$_Tset_traits@Ufile@CLocatorAPI@@Ufile_pred@2@V?$xalloc@Ufile@CLocatorAPI@@@@$0A@@std@@@std@@IEAAPEAV?$_Tree_val@U?$_Tree_simple_types@Ufile@CLocatorAPI@@@std@@@2@XZ ; std::_Tree<std::_Tset_traits<CLocatorAPI::file,CLocatorAPI::file_pred,xalloc<CLocatorAPI::file>,0> >::_Get_scary
PUBLIC	?_Orphan_ptr@?$_Tree_val@U?$_Tree_simple_types@Ufile@CLocatorAPI@@@std@@@std@@QEAAXQEAU?$_Tree_node@Ufile@CLocatorAPI@@PEAX@2@@Z ; std::_Tree_val<std::_Tree_simple_types<CLocatorAPI::file> >::_Orphan_ptr
PUBLIC	?select_on_container_copy_construction@?$_Normal_allocator_traits@V?$xalloc@U_finddata64i32_t@@@@@std@@SA?AV?$xalloc@U_finddata64i32_t@@@@AEBV3@@Z ; std::_Normal_allocator_traits<xalloc<_finddata64i32_t> >::select_on_container_copy_construction
PUBLIC	?_Reallocate_exactly@?$vector@U_finddata64i32_t@@V?$xalloc@U_finddata64i32_t@@@@@std@@AEAAX_K@Z ; std::vector<_finddata64i32_t,xalloc<_finddata64i32_t> >::_Reallocate_exactly
PUBLIC	?erase@?$vector@U_finddata64i32_t@@V?$xalloc@U_finddata64i32_t@@@@@std@@QEAA?AV?$_Vector_iterator@V?$_Vector_val@U?$_Simple_types@U_finddata64i32_t@@@std@@@std@@@2@V?$_Vector_const_iterator@V?$_Vector_val@U?$_Simple_types@U_finddata64i32_t@@@std@@@std@@@2@0@Z ; std::vector<_finddata64i32_t,xalloc<_finddata64i32_t> >::erase
PUBLIC	?max_size@?$vector@U_finddata64i32_t@@V?$xalloc@U_finddata64i32_t@@@@@std@@QEBA_KXZ ; std::vector<_finddata64i32_t,xalloc<_finddata64i32_t> >::max_size
PUBLIC	?capacity@?$vector@U_finddata64i32_t@@V?$xalloc@U_finddata64i32_t@@@@@std@@QEBA_KXZ ; std::vector<_finddata64i32_t,xalloc<_finddata64i32_t> >::capacity
PUBLIC	?_Tidy@?$vector@U_finddata64i32_t@@V?$xalloc@U_finddata64i32_t@@@@@std@@AEAAXXZ ; std::vector<_finddata64i32_t,xalloc<_finddata64i32_t> >::_Tidy
PUBLIC	?_Xlength@?$vector@U_finddata64i32_t@@V?$xalloc@U_finddata64i32_t@@@@@std@@CAXXZ ; std::vector<_finddata64i32_t,xalloc<_finddata64i32_t> >::_Xlength
PUBLIC	?_Getal@?$vector@U_finddata64i32_t@@V?$xalloc@U_finddata64i32_t@@@@@std@@AEBAAEBV?$xalloc@U_finddata64i32_t@@@@XZ ; std::vector<_finddata64i32_t,xalloc<_finddata64i32_t> >::_Getal
PUBLIC	??0?$vector@U_open_file@@V?$xalloc@U_open_file@@@@@std@@QEAA@XZ ; std::vector<_open_file,xalloc<_open_file> >::vector<_open_file,xalloc<_open_file> >
PUBLIC	?size@?$vector@U_open_file@@V?$xalloc@U_open_file@@@@@std@@QEBA_KXZ ; std::vector<_open_file,xalloc<_open_file> >::size
PUBLIC	?_Tidy@?$vector@U_open_file@@V?$xalloc@U_open_file@@@@@std@@AEAAXXZ ; std::vector<_open_file,xalloc<_open_file> >::_Tidy
PUBLIC	??0?$_Vector_const_iterator@V?$_Vector_val@U?$_Simple_types@U_open_file@@@std@@@std@@@std@@QEAA@PEAU_open_file@@PEBU_Container_base0@1@@Z ; std::_Vector_const_iterator<std::_Vector_val<std::_Simple_types<_open_file> > >::_Vector_const_iterator<std::_Vector_val<std::_Simple_types<_open_file> > >
PUBLIC	??D?$_Vector_const_iterator@V?$_Vector_val@U?$_Simple_types@U_open_file@@@std@@@std@@@std@@QEBAAEBU_open_file@@XZ ; std::_Vector_const_iterator<std::_Vector_val<std::_Simple_types<_open_file> > >::operator*
PUBLIC	??E?$_Vector_const_iterator@V?$_Vector_val@U?$_Simple_types@U_open_file@@@std@@@std@@@std@@QEAAAEAV01@XZ ; std::_Vector_const_iterator<std::_Vector_val<std::_Simple_types<_open_file> > >::operator++
PUBLIC	?_Compat@?$_Vector_const_iterator@V?$_Vector_val@U?$_Simple_types@U_open_file@@@std@@@std@@@std@@QEBAXAEBV12@@Z ; std::_Vector_const_iterator<std::_Vector_val<std::_Simple_types<_open_file> > >::_Compat
PUBLIC	??0?$_Tree_unchecked_const_iterator@V?$_Tree_val@U?$_Tree_simple_types@Ufile@CLocatorAPI@@@std@@@std@@U_Iterator_base0@2@@std@@QEAA@PEAU?$_Tree_node@Ufile@CLocatorAPI@@PEAX@1@PEBV?$_Tree_val@U?$_Tree_simple_types@Ufile@CLocatorAPI@@@std@@@1@@Z ; std::_Tree_unchecked_const_iterator<std::_Tree_val<std::_Tree_simple_types<CLocatorAPI::file> >,std::_Iterator_base0>::_Tree_unchecked_const_iterator<std::_Tree_val<std::_Tree_simple_types<CLocatorAPI::file> >,std::_Iterator_base0>
PUBLIC	??E?$_Tree_unchecked_const_iterator@V?$_Tree_val@U?$_Tree_simple_types@Ufile@CLocatorAPI@@@std@@@std@@U_Iterator_base0@2@@std@@QEAAAEAV01@XZ ; std::_Tree_unchecked_const_iterator<std::_Tree_val<std::_Tree_simple_types<CLocatorAPI::file> >,std::_Iterator_base0>::operator++
PUBLIC	?_Unwrapped@?$_Tree_const_iterator@V?$_Tree_val@U?$_Tree_simple_types@Ufile@CLocatorAPI@@@std@@@std@@@std@@QEBA?AV?$_Tree_unchecked_const_iterator@V?$_Tree_val@U?$_Tree_simple_types@Ufile@CLocatorAPI@@@std@@@std@@U_Iterator_base0@2@@2@XZ ; std::_Tree_const_iterator<std::_Tree_val<std::_Tree_simple_types<CLocatorAPI::file> > >::_Unwrapped
PUBLIC	??0?$_Tree_unchecked_const_iterator@V?$_Tree_val@U?$_Tree_simple_types@U?$pair@QEBDPEAVFS_Path@@@std@@@std@@@std@@U_Iterator_base0@2@@std@@QEAA@PEAU?$_Tree_node@U?$pair@QEBDPEAVFS_Path@@@std@@PEAX@1@PEBV?$_Tree_val@U?$_Tree_simple_types@U?$pair@QEBDPEAVFS_Path@@@std@@@std@@@1@@Z ; std::_Tree_unchecked_const_iterator<std::_Tree_val<std::_Tree_simple_types<std::pair<char const * const,FS_Path *> > >,std::_Iterator_base0>::_Tree_unchecked_const_iterator<std::_Tree_val<std::_Tree_simple_types<std::pair<char const * const,FS_Path *> > >,std::_Iterator_base0>
PUBLIC	??E?$_Tree_const_iterator@V?$_Tree_val@U?$_Tree_simple_types@U?$pair@QEBDPEAVFS_Path@@@std@@@std@@@std@@@std@@QEAAAEAV01@XZ ; std::_Tree_const_iterator<std::_Tree_val<std::_Tree_simple_types<std::pair<char const * const,FS_Path *> > > >::operator++
PUBLIC	??8?$_Tree_const_iterator@V?$_Tree_val@U?$_Tree_simple_types@U?$pair@QEBDPEAVFS_Path@@@std@@@std@@@std@@@std@@QEBA_NAEBV01@@Z ; std::_Tree_const_iterator<std::_Tree_val<std::_Tree_simple_types<std::pair<char const * const,FS_Path *> > > >::operator==
PUBLIC	??D?$_Tree_iterator@V?$_Tree_val@U?$_Tree_simple_types@U?$pair@QEBDPEAVFS_Path@@@std@@@std@@@std@@@std@@QEBAAEAU?$pair@QEBDPEAVFS_Path@@@1@XZ ; std::_Tree_iterator<std::_Tree_val<std::_Tree_simple_types<std::pair<char const * const,FS_Path *> > > >::operator*
PUBLIC	??0?$_Vector_const_iterator@V?$_Vector_val@U?$_Simple_types@Uarchive@CLocatorAPI@@@std@@@std@@@std@@QEAA@PEAUarchive@CLocatorAPI@@PEBU_Container_base0@1@@Z ; std::_Vector_const_iterator<std::_Vector_val<std::_Simple_types<CLocatorAPI::archive> > >::_Vector_const_iterator<std::_Vector_val<std::_Simple_types<CLocatorAPI::archive> > >
PUBLIC	??D?$_Vector_const_iterator@V?$_Vector_val@U?$_Simple_types@Uarchive@CLocatorAPI@@@std@@@std@@@std@@QEBAAEBUarchive@CLocatorAPI@@XZ ; std::_Vector_const_iterator<std::_Vector_val<std::_Simple_types<CLocatorAPI::archive> > >::operator*
PUBLIC	??E?$_Vector_const_iterator@V?$_Vector_val@U?$_Simple_types@Uarchive@CLocatorAPI@@@std@@@std@@@std@@QEAAAEAV01@XZ ; std::_Vector_const_iterator<std::_Vector_val<std::_Simple_types<CLocatorAPI::archive> > >::operator++
PUBLIC	??8?$_Vector_const_iterator@V?$_Vector_val@U?$_Simple_types@Uarchive@CLocatorAPI@@@std@@@std@@@std@@QEBA_NAEBV01@@Z ; std::_Vector_const_iterator<std::_Vector_val<std::_Simple_types<CLocatorAPI::archive> > >::operator==
PUBLIC	??H?$_Vector_iterator@V?$_Vector_val@U?$_Simple_types@Uarchive@CLocatorAPI@@@std@@@std@@@std@@QEBA?AV01@_J@Z ; std::_Vector_iterator<std::_Vector_val<std::_Simple_types<CLocatorAPI::archive> > >::operator+
PUBLIC	??0?$_Vector_const_iterator@V?$_Vector_val@U?$_Simple_types@U_finddata64i32_t@@@std@@@std@@@std@@QEAA@PEAU_finddata64i32_t@@PEBU_Container_base0@1@@Z ; std::_Vector_const_iterator<std::_Vector_val<std::_Simple_types<_finddata64i32_t> > >::_Vector_const_iterator<std::_Vector_val<std::_Simple_types<_finddata64i32_t> > >
PUBLIC	??D?$_Vector_const_iterator@V?$_Vector_val@U?$_Simple_types@U_finddata64i32_t@@@std@@@std@@@std@@QEBAAEBU_finddata64i32_t@@XZ ; std::_Vector_const_iterator<std::_Vector_val<std::_Simple_types<_finddata64i32_t> > >::operator*
PUBLIC	??E?$_Vector_const_iterator@V?$_Vector_val@U?$_Simple_types@U_finddata64i32_t@@@std@@@std@@@std@@QEAAAEAV01@XZ ; std::_Vector_const_iterator<std::_Vector_val<std::_Simple_types<_finddata64i32_t> > >::operator++
PUBLIC	??8?$_Vector_const_iterator@V?$_Vector_val@U?$_Simple_types@U_finddata64i32_t@@@std@@@std@@@std@@QEBA_NAEBV01@@Z ; std::_Vector_const_iterator<std::_Vector_val<std::_Simple_types<_finddata64i32_t> > >::operator==
PUBLIC	?pointer_to@?$pointer_traits@PEBUfile@CLocatorAPI@@@std@@SAPEBUfile@CLocatorAPI@@AEBU34@@Z ; std::pointer_traits<CLocatorAPI::file const *>::pointer_to
PUBLIC	??0?$_Tree_const_iterator@V?$_Tree_val@U?$_Tree_simple_types@U?$pair@QEBDPEAVFS_Path@@@std@@@std@@@std@@@std@@QEAA@PEAU?$_Tree_node@U?$pair@QEBDPEAVFS_Path@@@std@@PEAX@1@PEBV?$_Tree_val@U?$_Tree_simple_types@U?$pair@QEBDPEAVFS_Path@@@std@@@std@@@1@@Z ; std::_Tree_const_iterator<std::_Tree_val<std::_Tree_simple_types<std::pair<char const * const,FS_Path *> > > >::_Tree_const_iterator<std::_Tree_val<std::_Tree_simple_types<std::pair<char const * const,FS_Path *> > > >
PUBLIC	??0?$_Vector_iterator@V?$_Vector_val@U?$_Simple_types@Uarchive@CLocatorAPI@@@std@@@std@@@std@@QEAA@PEAUarchive@CLocatorAPI@@PEBU_Container_base0@1@@Z ; std::_Vector_iterator<std::_Vector_val<std::_Simple_types<CLocatorAPI::archive> > >::_Vector_iterator<std::_Vector_val<std::_Simple_types<CLocatorAPI::archive> > >
PUBLIC	??0?$_Tree_iterator@V?$_Tree_val@U?$_Tree_simple_types@U?$pair@QEBDPEAVFS_Path@@@std@@@std@@@std@@@std@@QEAA@PEAU?$_Tree_node@U?$pair@QEBDPEAVFS_Path@@@std@@PEAX@1@PEBV?$_Tree_val@U?$_Tree_simple_types@U?$pair@QEBDPEAVFS_Path@@@std@@@std@@@1@@Z ; std::_Tree_iterator<std::_Tree_val<std::_Tree_simple_types<std::pair<char const * const,FS_Path *> > > >::_Tree_iterator<std::_Tree_val<std::_Tree_simple_types<std::pair<char const * const,FS_Path *> > > >
PUBLIC	??0?$_Tree_const_iterator@V?$_Tree_val@U?$_Tree_simple_types@Ufile@CLocatorAPI@@@std@@@std@@@std@@QEAA@PEAU?$_Tree_node@Ufile@CLocatorAPI@@PEAX@1@PEBV?$_Tree_val@U?$_Tree_simple_types@Ufile@CLocatorAPI@@@std@@@1@@Z ; std::_Tree_const_iterator<std::_Tree_val<std::_Tree_simple_types<CLocatorAPI::file> > >::_Tree_const_iterator<std::_Tree_val<std::_Tree_simple_types<CLocatorAPI::file> > >
PUBLIC	??0?$_Vector_iterator@V?$_Vector_val@U?$_Simple_types@U_finddata64i32_t@@@std@@@std@@@std@@QEAA@PEAU_finddata64i32_t@@PEBU_Container_base0@1@@Z ; std::_Vector_iterator<std::_Vector_val<std::_Simple_types<_finddata64i32_t> > >::_Vector_iterator<std::_Vector_val<std::_Simple_types<_finddata64i32_t> > >
PUBLIC	??_G?$IReaderBase@VCStreamReader@@@@UEAAPEAXI@Z	; IReaderBase<CStreamReader>::`scalar deleting destructor'
PUBLIC	??0?$_Vector_iterator@V?$_Vector_val@U?$_Simple_types@U_open_file@@@std@@@std@@@std@@QEAA@PEAU_open_file@@PEBU_Container_base0@1@@Z ; std::_Vector_iterator<std::_Vector_val<std::_Simple_types<_open_file> > >::_Vector_iterator<std::_Vector_val<std::_Simple_types<_open_file> > >
PUBLIC	??1?$vector@V?$basic_string@DU?$char_traits@D@std@@V?$xalloc@D@@@std@@V?$xalloc@V?$basic_string@DU?$char_traits@D@std@@V?$xalloc@D@@@std@@@@@std@@QEAA@XZ ; std::vector<std::basic_string<char,std::char_traits<char>,xalloc<char> >,xalloc<std::basic_string<char,std::char_traits<char>,xalloc<char> > > >::~vector<std::basic_string<char,std::char_traits<char>,xalloc<char> >,xalloc<std::basic_string<char,std::char_traits<char>,xalloc<char> > > >
PUBLIC	??1?$vector@EV?$xalloc@E@@@std@@QEAA@XZ		; std::vector<unsigned char,xalloc<unsigned char> >::~vector<unsigned char,xalloc<unsigned char> >
PUBLIC	?push_back@?$vector@EV?$xalloc@E@@@std@@QEAAXAEBE@Z ; std::vector<unsigned char,xalloc<unsigned char> >::push_back
PUBLIC	?data@?$vector@EV?$xalloc@E@@@std@@QEAAPEAEXZ	; std::vector<unsigned char,xalloc<unsigned char> >::data
PUBLIC	??0?$xr_vector@EV?$xalloc@E@@@@QEAA@XZ		; xr_vector<unsigned char,xalloc<unsigned char> >::xr_vector<unsigned char,xalloc<unsigned char> >
PUBLIC	?size@?$xr_vector@EV?$xalloc@E@@@@QEBAIXZ	; xr_vector<unsigned char,xalloc<unsigned char> >::size
PUBLIC	?eof@?$IReaderBase@VIReader@@@@QEBAHXZ		; IReaderBase<IReader>::eof
PUBLIC	?set@?$_flags@I@@QEAAAEAU1@IH@Z			; _flags<unsigned int>::set
PUBLIC	?is@?$_flags@I@@QEBAHI@Z			; _flags<unsigned int>::is
PUBLIC	?test@?$_flags@I@@QEBAHI@Z			; _flags<unsigned int>::test
PUBLIC	??1?$vector@Uarchive@CLocatorAPI@@V?$xalloc@Uarchive@CLocatorAPI@@@@@std@@QEAA@XZ ; std::vector<CLocatorAPI::archive,xalloc<CLocatorAPI::archive> >::~vector<CLocatorAPI::archive,xalloc<CLocatorAPI::archive> >
PUBLIC	?push_back@?$vector@Uarchive@CLocatorAPI@@V?$xalloc@Uarchive@CLocatorAPI@@@@@std@@QEAAX$$QEAUarchive@CLocatorAPI@@@Z ; std::vector<CLocatorAPI::archive,xalloc<CLocatorAPI::archive> >::push_back
PUBLIC	?begin@?$vector@Uarchive@CLocatorAPI@@V?$xalloc@Uarchive@CLocatorAPI@@@@@std@@QEAA?AV?$_Vector_iterator@V?$_Vector_val@U?$_Simple_types@Uarchive@CLocatorAPI@@@std@@@std@@@2@XZ ; std::vector<CLocatorAPI::archive,xalloc<CLocatorAPI::archive> >::begin
PUBLIC	?end@?$vector@Uarchive@CLocatorAPI@@V?$xalloc@Uarchive@CLocatorAPI@@@@@std@@QEAA?AV?$_Vector_iterator@V?$_Vector_val@U?$_Simple_types@Uarchive@CLocatorAPI@@@std@@@std@@@2@XZ ; std::vector<CLocatorAPI::archive,xalloc<CLocatorAPI::archive> >::end
PUBLIC	?back@?$vector@Uarchive@CLocatorAPI@@V?$xalloc@Uarchive@CLocatorAPI@@@@@std@@QEAAAEAUarchive@CLocatorAPI@@XZ ; std::vector<CLocatorAPI::archive,xalloc<CLocatorAPI::archive> >::back
PUBLIC	?size@?$xr_vector@Uarchive@CLocatorAPI@@V?$xalloc@Uarchive@CLocatorAPI@@@@@@QEBAIXZ ; xr_vector<CLocatorAPI::archive,xalloc<CLocatorAPI::archive> >::size
PUBLIC	??A?$xr_vector@Uarchive@CLocatorAPI@@V?$xalloc@Uarchive@CLocatorAPI@@@@@@QEAAAEAUarchive@CLocatorAPI@@_K@Z ; xr_vector<CLocatorAPI::archive,xalloc<CLocatorAPI::archive> >::operator[]
PUBLIC	??1?$_Tree@V?$_Tmap_traits@PEBDPEAVFS_Path@@Upred_str@@V?$xalloc@U?$pair@QEBDPEAVFS_Path@@@std@@@@$0A@@std@@@std@@QEAA@XZ ; std::_Tree<std::_Tmap_traits<char const *,FS_Path *,pred_str,xalloc<std::pair<char const * const,FS_Path *> >,0> >::~_Tree<std::_Tmap_traits<char const *,FS_Path *,pred_str,xalloc<std::pair<char const * const,FS_Path *> >,0> >
PUBLIC	?begin@?$_Tree@V?$_Tmap_traits@PEBDPEAVFS_Path@@Upred_str@@V?$xalloc@U?$pair@QEBDPEAVFS_Path@@@std@@@@$0A@@std@@@std@@QEAA?AV?$_Tree_iterator@V?$_Tree_val@U?$_Tree_simple_types@U?$pair@QEBDPEAVFS_Path@@@std@@@std@@@std@@@2@XZ ; std::_Tree<std::_Tmap_traits<char const *,FS_Path *,pred_str,xalloc<std::pair<char const * const,FS_Path *> >,0> >::begin
PUBLIC	?end@?$_Tree@V?$_Tmap_traits@PEBDPEAVFS_Path@@Upred_str@@V?$xalloc@U?$pair@QEBDPEAVFS_Path@@@std@@@@$0A@@std@@@std@@QEAA?AV?$_Tree_iterator@V?$_Tree_val@U?$_Tree_simple_types@U?$pair@QEBDPEAVFS_Path@@@std@@@std@@@std@@@2@XZ ; std::_Tree<std::_Tmap_traits<char const *,FS_Path *,pred_str,xalloc<std::pair<char const * const,FS_Path *> >,0> >::end
PUBLIC	?find@?$_Tree@V?$_Tmap_traits@PEBDPEAVFS_Path@@Upred_str@@V?$xalloc@U?$pair@QEBDPEAVFS_Path@@@std@@@@$0A@@std@@@std@@QEAA?AV?$_Tree_iterator@V?$_Tree_val@U?$_Tree_simple_types@U?$pair@QEBDPEAVFS_Path@@@std@@@std@@@std@@@2@AEBQEBD@Z ; std::_Tree<std::_Tmap_traits<char const *,FS_Path *,pred_str,xalloc<std::pair<char const * const,FS_Path *> >,0> >::find
PUBLIC	??1?$_Tree@V?$_Tset_traits@Ufile@CLocatorAPI@@Ufile_pred@2@V?$xalloc@Ufile@CLocatorAPI@@@@$0A@@std@@@std@@QEAA@XZ ; std::_Tree<std::_Tset_traits<CLocatorAPI::file,CLocatorAPI::file_pred,xalloc<CLocatorAPI::file>,0> >::~_Tree<std::_Tset_traits<CLocatorAPI::file,CLocatorAPI::file_pred,xalloc<CLocatorAPI::file>,0> >
PUBLIC	?end@?$_Tree@V?$_Tset_traits@Ufile@CLocatorAPI@@Ufile_pred@2@V?$xalloc@Ufile@CLocatorAPI@@@@$0A@@std@@@std@@QEAA?AV?$_Tree_const_iterator@V?$_Tree_val@U?$_Tree_simple_types@Ufile@CLocatorAPI@@@std@@@std@@@2@XZ ; std::_Tree<std::_Tset_traits<CLocatorAPI::file,CLocatorAPI::file_pred,xalloc<CLocatorAPI::file>,0> >::end
PUBLIC	?erase@?$_Tree@V?$_Tset_traits@Ufile@CLocatorAPI@@Ufile_pred@2@V?$xalloc@Ufile@CLocatorAPI@@@@$0A@@std@@@std@@QEAA?AV?$_Tree_const_iterator@V?$_Tree_val@U?$_Tree_simple_types@Ufile@CLocatorAPI@@@std@@@std@@@2@V32@@Z ; std::_Tree<std::_Tset_traits<CLocatorAPI::file,CLocatorAPI::file_pred,xalloc<CLocatorAPI::file>,0> >::erase
PUBLIC	?find@?$_Tree@V?$_Tset_traits@Ufile@CLocatorAPI@@Ufile_pred@2@V?$xalloc@Ufile@CLocatorAPI@@@@$0A@@std@@@std@@QEAA?AV?$_Tree_const_iterator@V?$_Tree_val@U?$_Tree_simple_types@Ufile@CLocatorAPI@@@std@@@std@@@2@AEBUfile@CLocatorAPI@@@Z ; std::_Tree<std::_Tset_traits<CLocatorAPI::file,CLocatorAPI::file_pred,xalloc<CLocatorAPI::file>,0> >::find
PUBLIC	?lower_bound@?$_Tree@V?$_Tset_traits@Ufile@CLocatorAPI@@Ufile_pred@2@V?$xalloc@Ufile@CLocatorAPI@@@@$0A@@std@@@std@@QEAA?AV?$_Tree_const_iterator@V?$_Tree_val@U?$_Tree_simple_types@Ufile@CLocatorAPI@@@std@@@std@@@2@AEBUfile@CLocatorAPI@@@Z ; std::_Tree<std::_Tset_traits<CLocatorAPI::file,CLocatorAPI::file_pred,xalloc<CLocatorAPI::file>,0> >::lower_bound
PUBLIC	??0?$vector@U_finddata64i32_t@@V?$xalloc@U_finddata64i32_t@@@@@std@@QEAA@AEBV01@@Z ; std::vector<_finddata64i32_t,xalloc<_finddata64i32_t> >::vector<_finddata64i32_t,xalloc<_finddata64i32_t> >
PUBLIC	??1?$vector@U_finddata64i32_t@@V?$xalloc@U_finddata64i32_t@@@@@std@@QEAA@XZ ; std::vector<_finddata64i32_t,xalloc<_finddata64i32_t> >::~vector<_finddata64i32_t,xalloc<_finddata64i32_t> >
PUBLIC	?push_back@?$vector@U_finddata64i32_t@@V?$xalloc@U_finddata64i32_t@@@@@std@@QEAAXAEBU_finddata64i32_t@@@Z ; std::vector<_finddata64i32_t,xalloc<_finddata64i32_t> >::push_back
PUBLIC	?reserve@?$vector@U_finddata64i32_t@@V?$xalloc@U_finddata64i32_t@@@@@std@@QEAAX_K@Z ; std::vector<_finddata64i32_t,xalloc<_finddata64i32_t> >::reserve
PUBLIC	?begin@?$vector@U_finddata64i32_t@@V?$xalloc@U_finddata64i32_t@@@@@std@@QEAA?AV?$_Vector_iterator@V?$_Vector_val@U?$_Simple_types@U_finddata64i32_t@@@std@@@std@@@2@XZ ; std::vector<_finddata64i32_t,xalloc<_finddata64i32_t> >::begin
PUBLIC	?end@?$vector@U_finddata64i32_t@@V?$xalloc@U_finddata64i32_t@@@@@std@@QEAA?AV?$_Vector_iterator@V?$_Vector_val@U?$_Simple_types@U_finddata64i32_t@@@std@@@std@@@2@XZ ; std::vector<_finddata64i32_t,xalloc<_finddata64i32_t> >::end
PUBLIC	?clear_not_free@?$xr_vector@U_finddata64i32_t@@V?$xalloc@U_finddata64i32_t@@@@@@QEAAXXZ ; xr_vector<_finddata64i32_t,xalloc<_finddata64i32_t> >::clear_not_free
PUBLIC	??1?$IReaderBase@VCStreamReader@@@@UEAA@XZ	; IReaderBase<CStreamReader>::~IReaderBase<CStreamReader>
PUBLIC	??1?$vector@U_open_file@@V?$xalloc@U_open_file@@@@@std@@QEAA@XZ ; std::vector<_open_file,xalloc<_open_file> >::~vector<_open_file,xalloc<_open_file> >
PUBLIC	?resize@?$vector@U_open_file@@V?$xalloc@U_open_file@@@@@std@@QEAAX_K@Z ; std::vector<_open_file,xalloc<_open_file> >::resize
PUBLIC	?begin@?$vector@U_open_file@@V?$xalloc@U_open_file@@@@@std@@QEAA?AV?$_Vector_iterator@V?$_Vector_val@U?$_Simple_types@U_open_file@@@std@@@std@@@2@XZ ; std::vector<_open_file,xalloc<_open_file> >::begin
PUBLIC	?end@?$vector@U_open_file@@V?$xalloc@U_open_file@@@@@std@@QEAA?AV?$_Vector_iterator@V?$_Vector_val@U?$_Simple_types@U_open_file@@@std@@@std@@@2@XZ ; std::vector<_open_file,xalloc<_open_file> >::end
PUBLIC	?back@?$vector@U_open_file@@V?$xalloc@U_open_file@@@@@std@@QEAAAEAU_open_file@@XZ ; std::vector<_open_file,xalloc<_open_file> >::back
PUBLIC	??0?$xr_vector@U_open_file@@V?$xalloc@U_open_file@@@@@@QEAA@XZ ; xr_vector<_open_file,xalloc<_open_file> >::xr_vector<_open_file,xalloc<_open_file> >
PUBLIC	?size@?$xr_vector@U_open_file@@V?$xalloc@U_open_file@@@@@@QEBAIXZ ; xr_vector<_open_file,xalloc<_open_file> >::size
PUBLIC	??8?$_Vector_const_iterator@V?$_Vector_val@U?$_Simple_types@U_open_file@@@std@@@std@@@std@@QEBA_NAEBV01@@Z ; std::_Vector_const_iterator<std::_Vector_val<std::_Simple_types<_open_file> > >::operator==
PUBLIC	??9?$_Vector_const_iterator@V?$_Vector_val@U?$_Simple_types@U_open_file@@@std@@@std@@@std@@QEBA_NAEBV01@@Z ; std::_Vector_const_iterator<std::_Vector_val<std::_Simple_types<_open_file> > >::operator!=
PUBLIC	??D?$_Vector_iterator@V?$_Vector_val@U?$_Simple_types@U_open_file@@@std@@@std@@@std@@QEBAAEAU_open_file@@XZ ; std::_Vector_iterator<std::_Vector_val<std::_Simple_types<_open_file> > >::operator*
PUBLIC	??E?$_Vector_iterator@V?$_Vector_val@U?$_Simple_types@U_open_file@@@std@@@std@@@std@@QEAAAEAV01@XZ ; std::_Vector_iterator<std::_Vector_val<std::_Simple_types<_open_file> > >::operator++
PUBLIC	??D?$_Tree_const_iterator@V?$_Tree_val@U?$_Tree_simple_types@Ufile@CLocatorAPI@@@std@@@std@@@std@@QEBAAEBUfile@CLocatorAPI@@XZ ; std::_Tree_const_iterator<std::_Tree_val<std::_Tree_simple_types<CLocatorAPI::file> > >::operator*
PUBLIC	??C?$_Tree_const_iterator@V?$_Tree_val@U?$_Tree_simple_types@Ufile@CLocatorAPI@@@std@@@std@@@std@@QEBAPEBUfile@CLocatorAPI@@XZ ; std::_Tree_const_iterator<std::_Tree_val<std::_Tree_simple_types<CLocatorAPI::file> > >::operator->
PUBLIC	??E?$_Tree_const_iterator@V?$_Tree_val@U?$_Tree_simple_types@Ufile@CLocatorAPI@@@std@@@std@@@std@@QEAAAEAV01@XZ ; std::_Tree_const_iterator<std::_Tree_val<std::_Tree_simple_types<CLocatorAPI::file> > >::operator++
PUBLIC	??E?$_Tree_const_iterator@V?$_Tree_val@U?$_Tree_simple_types@Ufile@CLocatorAPI@@@std@@@std@@@std@@QEAA?AV01@H@Z ; std::_Tree_const_iterator<std::_Tree_val<std::_Tree_simple_types<CLocatorAPI::file> > >::operator++
PUBLIC	??8?$_Tree_const_iterator@V?$_Tree_val@U?$_Tree_simple_types@Ufile@CLocatorAPI@@@std@@@std@@@std@@QEBA_NAEBV01@@Z ; std::_Tree_const_iterator<std::_Tree_val<std::_Tree_simple_types<CLocatorAPI::file> > >::operator==
PUBLIC	??9?$_Tree_const_iterator@V?$_Tree_val@U?$_Tree_simple_types@Ufile@CLocatorAPI@@@std@@@std@@@std@@QEBA_NAEBV01@@Z ; std::_Tree_const_iterator<std::_Tree_val<std::_Tree_simple_types<CLocatorAPI::file> > >::operator!=
PUBLIC	??9?$_Tree_const_iterator@V?$_Tree_val@U?$_Tree_simple_types@U?$pair@QEBDPEAVFS_Path@@@std@@@std@@@std@@@std@@QEBA_NAEBV01@@Z ; std::_Tree_const_iterator<std::_Tree_val<std::_Tree_simple_types<std::pair<char const * const,FS_Path *> > > >::operator!=
PUBLIC	??C?$_Tree_iterator@V?$_Tree_val@U?$_Tree_simple_types@U?$pair@QEBDPEAVFS_Path@@@std@@@std@@@std@@@std@@QEBAPEAU?$pair@QEBDPEAVFS_Path@@@1@XZ ; std::_Tree_iterator<std::_Tree_val<std::_Tree_simple_types<std::pair<char const * const,FS_Path *> > > >::operator->
PUBLIC	??E?$_Tree_iterator@V?$_Tree_val@U?$_Tree_simple_types@U?$pair@QEBDPEAVFS_Path@@@std@@@std@@@std@@@std@@QEAA?AV01@H@Z ; std::_Tree_iterator<std::_Tree_val<std::_Tree_simple_types<std::pair<char const * const,FS_Path *> > > >::operator++
PUBLIC	??9?$_Vector_const_iterator@V?$_Vector_val@U?$_Simple_types@Uarchive@CLocatorAPI@@@std@@@std@@@std@@QEBA_NAEBV01@@Z ; std::_Vector_const_iterator<std::_Vector_val<std::_Simple_types<CLocatorAPI::archive> > >::operator!=
PUBLIC	??D?$_Vector_iterator@V?$_Vector_val@U?$_Simple_types@Uarchive@CLocatorAPI@@@std@@@std@@@std@@QEBAAEAUarchive@CLocatorAPI@@XZ ; std::_Vector_iterator<std::_Vector_val<std::_Simple_types<CLocatorAPI::archive> > >::operator*
PUBLIC	??C?$_Vector_iterator@V?$_Vector_val@U?$_Simple_types@Uarchive@CLocatorAPI@@@std@@@std@@@std@@QEBAPEAUarchive@CLocatorAPI@@XZ ; std::_Vector_iterator<std::_Vector_val<std::_Simple_types<CLocatorAPI::archive> > >::operator->
PUBLIC	??E?$_Vector_iterator@V?$_Vector_val@U?$_Simple_types@Uarchive@CLocatorAPI@@@std@@@std@@@std@@QEAAAEAV01@XZ ; std::_Vector_iterator<std::_Vector_val<std::_Simple_types<CLocatorAPI::archive> > >::operator++
PUBLIC	??9?$_Vector_const_iterator@V?$_Vector_val@U?$_Simple_types@U_finddata64i32_t@@@std@@@std@@@std@@QEBA_NAEBV01@@Z ; std::_Vector_const_iterator<std::_Vector_val<std::_Simple_types<_finddata64i32_t> > >::operator!=
PUBLIC	??D?$_Vector_iterator@V?$_Vector_val@U?$_Simple_types@U_finddata64i32_t@@@std@@@std@@@std@@QEBAAEAU_finddata64i32_t@@XZ ; std::_Vector_iterator<std::_Vector_val<std::_Simple_types<_finddata64i32_t> > >::operator*
PUBLIC	??E?$_Vector_iterator@V?$_Vector_val@U?$_Simple_types@U_finddata64i32_t@@@std@@@std@@@std@@QEAAAEAV01@XZ ; std::_Vector_iterator<std::_Vector_val<std::_Simple_types<_finddata64i32_t> > >::operator++
PUBLIC	?check_pathes@CLocatorAPI@@AEAAXXZ		; CLocatorAPI::check_pathes
PUBLIC	?unlock_rescan@CLocatorAPI@@QEAAXXZ		; CLocatorAPI::unlock_rescan
PUBLIC	?lock_rescan@CLocatorAPI@@QEAAXXZ		; CLocatorAPI::lock_rescan
PUBLIC	?rescan_pathes@CLocatorAPI@@QEAAXXZ		; CLocatorAPI::rescan_pathes
PUBLIC	?rescan_path@CLocatorAPI@@QEAAXPEBDH@Z		; CLocatorAPI::rescan_path
PUBLIC	?get_path@CLocatorAPI@@QEAAPEAVFS_Path@@PEBD@Z	; CLocatorAPI::get_path
PUBLIC	?file_find_it@CLocatorAPI@@AEAA?AV?$_Tree_const_iterator@V?$_Tree_val@U?$_Tree_simple_types@Ufile@CLocatorAPI@@@std@@@std@@@std@@PEBD@Z ; CLocatorAPI::file_find_it
PUBLIC	?w_open_ex@CLocatorAPI@@QEAAPEAVIWriter@@PEBD0@Z ; CLocatorAPI::w_open_ex
PUBLIC	?r_close@CLocatorAPI@@QEAAXAEAPEAVIReader@@@Z	; CLocatorAPI::r_close
PUBLIC	?r_open@CLocatorAPI@@QEAAPEAVIReader@@PEBD0@Z	; CLocatorAPI::r_open
PUBLIC	?check_for_file@CLocatorAPI@@AEAA_NPEBD0AEAY0CAI@DAEAPEBUfile@1@@Z ; CLocatorAPI::check_for_file
PUBLIC	?file_from_archive@CLocatorAPI@@AEAAXAEAPEAVIReader@@PEBDAEBUfile@1@@Z ; CLocatorAPI::file_from_archive
PUBLIC	?file_from_cache_impl@CLocatorAPI@@AEAAXAEAPEAVIReader@@PEADAEBUfile@1@@Z ; CLocatorAPI::file_from_cache_impl
PUBLIC	??1FS_File@@QEAA@XZ				; FS_File::~FS_File
PUBLIC	??1?$xr_vector@V?$basic_string@DU?$char_traits@D@std@@V?$xalloc@D@@@std@@V?$xalloc@V?$basic_string@DU?$char_traits@D@std@@V?$xalloc@D@@@std@@@@@@QEAA@XZ ; xr_vector<std::basic_string<char,std::char_traits<char>,xalloc<char> >,xalloc<std::basic_string<char,std::char_traits<char>,xalloc<char> > > >::~xr_vector<std::basic_string<char,std::char_traits<char>,xalloc<char> >,xalloc<std::basic_string<char,std::char_traits<char>,xalloc<char> > > >
PUBLIC	?exist@CLocatorAPI@@QEAAPEBUfile@1@PEBD@Z	; CLocatorAPI::exist
PUBLIC	??0?$xr_vector@U_finddata64i32_t@@V?$xalloc@U_finddata64i32_t@@@@@@QEAA@AEBV0@@Z ; xr_vector<_finddata64i32_t,xalloc<_finddata64i32_t> >::xr_vector<_finddata64i32_t,xalloc<_finddata64i32_t> >
PUBLIC	?Recurse@CLocatorAPI@@AEAA_NPEBD@Z		; CLocatorAPI::Recurse
PUBLIC	?ignore_path@@YA_NPEBD@Z			; ignore_path
PUBLIC	?ignore_name@@YA_NPEBD@Z			; ignore_name
PUBLIC	?pred_str_ff@@YA_NAEBU_finddata64i32_t@@0@Z	; pred_str_ff
PUBLIC	?ProcessOne@CLocatorAPI@@AEAAXPEBDPEAX@Z	; CLocatorAPI::ProcessOne
PUBLIC	??1archive@CLocatorAPI@@QEAA@XZ			; CLocatorAPI::archive::~archive
PUBLIC	?ProcessArchive@CLocatorAPI@@AEAAXPEBD@Z	; CLocatorAPI::ProcessArchive
PUBLIC	?close@archive@CLocatorAPI@@QEAAXXZ		; CLocatorAPI::archive::close
PUBLIC	?open@archive@CLocatorAPI@@QEAAXXZ		; CLocatorAPI::archive::open
PUBLIC	?LoadArchive@CLocatorAPI@@QEAAXAEAUarchive@1@PEBD@Z ; CLocatorAPI::LoadArchive
PUBLIC	?open_chunk@@YAPEAVIReader@@PEAXI@Z		; open_chunk
PUBLIC	?Register@CLocatorAPI@@QEAAXPEBDIIIIII_N@Z	; CLocatorAPI::Register
PUBLIC	??1?$set@Ufile@CLocatorAPI@@Ufile_pred@2@V?$xalloc@Ufile@CLocatorAPI@@@@@std@@QEAA@XZ ; std::set<CLocatorAPI::file,CLocatorAPI::file_pred,xalloc<CLocatorAPI::file> >::~set<CLocatorAPI::file,CLocatorAPI::file_pred,xalloc<CLocatorAPI::file> >
PUBLIC	??1?$map@PEBDPEAVFS_Path@@Upred_str@@V?$xalloc@U?$pair@QEBDPEAVFS_Path@@@std@@@@@std@@QEAA@XZ ; std::map<char const *,FS_Path *,pred_str,xalloc<std::pair<char const * const,FS_Path *> > >::~map<char const *,FS_Path *,pred_str,xalloc<std::pair<char const * const,FS_Path *> > >
PUBLIC	??1?$xr_set@Ufile@CLocatorAPI@@Ufile_pred@2@V?$xalloc@Ufile@CLocatorAPI@@@@@@QEAA@XZ ; xr_set<CLocatorAPI::file,CLocatorAPI::file_pred,xalloc<CLocatorAPI::file> >::~xr_set<CLocatorAPI::file,CLocatorAPI::file_pred,xalloc<CLocatorAPI::file> >
PUBLIC	??1?$xr_vector@U_finddata64i32_t@@V?$xalloc@U_finddata64i32_t@@@@@@QEAA@XZ ; xr_vector<_finddata64i32_t,xalloc<_finddata64i32_t> >::~xr_vector<_finddata64i32_t,xalloc<_finddata64i32_t> >
PUBLIC	??1?$xr_map@PEBDPEAVFS_Path@@Upred_str@@V?$xalloc@U?$pair@QEBDPEAVFS_Path@@@std@@@@@@QEAA@XZ ; xr_map<char const *,FS_Path *,pred_str,xalloc<std::pair<char const * const,FS_Path *> > >::~xr_map<char const *,FS_Path *,pred_str,xalloc<std::pair<char const * const,FS_Path *> > >
PUBLIC	??1?$xr_vector@Uarchive@CLocatorAPI@@V?$xalloc@Uarchive@CLocatorAPI@@@@@@QEAA@XZ ; xr_vector<CLocatorAPI::archive,xalloc<CLocatorAPI::archive> >::~xr_vector<CLocatorAPI::archive,xalloc<CLocatorAPI::archive> >
PUBLIC	?_dump_open_files@@YAXH@Z			; _dump_open_files
PUBLIC	?setup_reader@@YAXPEAVIReader@@AEAU_open_file@@@Z ; setup_reader
PUBLIC	??1eq_fname_free@@QEAA@XZ			; eq_fname_free::~eq_fname_free
PUBLIC	?find_free_item@@YAAEAU_open_file@@AEBVshared_str@@@Z ; find_free_item
PUBLIC	??1eq_fname_check@@QEAA@XZ			; eq_fname_check::~eq_fname_check
PUBLIC	?_check_open_file@@YAXAEBVshared_str@@@Z	; _check_open_file
PUBLIC	??1?$xr_vector@U_open_file@@V?$xalloc@U_open_file@@@@@@QEAA@XZ ; xr_vector<_open_file,xalloc<_open_file> >::~xr_vector<_open_file,xalloc<_open_file> >
PUBLIC	??Req_fname_check@@QEAA_NAEAU_open_file@@@Z	; eq_fname_check::operator()
PUBLIC	??0eq_fname_check@@QEAA@Vshared_str@@@Z		; eq_fname_check::eq_fname_check
PUBLIC	??Req_fname_free@@QEAA_NAEAU_open_file@@@Z	; eq_fname_free::operator()
PUBLIC	??0eq_fname_free@@QEAA@Vshared_str@@@Z		; eq_fname_free::eq_fname_free
PUBLIC	??R?$eq_pointer@VIReader@@@@QEAA_NAEAU_open_file@@@Z ; eq_pointer<IReader>::operator()
PUBLIC	??0?$eq_pointer@VIReader@@@@QEAA@PEAVIReader@@@Z ; eq_pointer<IReader>::eq_pointer<IReader>
PUBLIC	??1CStreamReader@@UEAA@XZ			; CStreamReader::~CStreamReader
PUBLIC	??_GCStreamReader@@UEAAPEAXI@Z			; CStreamReader::`scalar deleting destructor'
PUBLIC	??_GCPackReader@@UEAAPEAXI@Z			; CPackReader::`scalar deleting destructor'
PUBLIC	??0CPackReader@@QEAA@PEAX0H@Z			; CPackReader::CPackReader
PUBLIC	??_GCTempReader@@UEAAPEAXI@Z			; CTempReader::`scalar deleting destructor'
PUBLIC	??0CTempReader@@QEAA@PEAXHH@Z			; CTempReader::CTempReader
PUBLIC	??1?$xr_vector@EV?$xalloc@E@@@@QEAA@XZ		; xr_vector<unsigned char,xalloc<unsigned char> >::~xr_vector<unsigned char,xalloc<unsigned char> >
PUBLIC	??_GCFileWriter@@UEAAPEAXI@Z			; CFileWriter::`scalar deleting destructor'
PUBLIC	?enc_tell@CFileWriter@@UEAAIXZ			; CFileWriter::enc_tell
PUBLIC	?data_encript@CFileWriter@@UEAAXXZ		; CFileWriter::data_encript
PUBLIC	?w_encrypt@CFileWriter@@UEAAXPEBXI@Z		; CFileWriter::w_encrypt
PUBLIC	?flush@CFileWriter@@UEAAXXZ			; CFileWriter::flush
PUBLIC	?valid@CFileWriter@@UEAA_NXZ			; CFileWriter::valid
PUBLIC	?tell@CFileWriter@@UEAAIXZ			; CFileWriter::tell
PUBLIC	?seek@CFileWriter@@UEAAXI@Z			; CFileWriter::seek
PUBLIC	?w@CFileWriter@@UEAAXPEBXI@Z			; CFileWriter::w
PUBLIC	??1CFileWriter@@UEAA@XZ				; CFileWriter::~CFileWriter
PUBLIC	??0CFileWriter@@QEAA@PEBD_N@Z			; CFileWriter::CFileWriter
PUBLIC	??1CLocatorAPI@@QEAA@XZ				; CLocatorAPI::~CLocatorAPI
PUBLIC	?path_exist@CLocatorAPI@@QEAA_NPEBD@Z		; CLocatorAPI::path_exist
PUBLIC	?update_path@CLocatorAPI@@QEAAPEBDAEAY0CAI@DPEBD1@Z ; CLocatorAPI::update_path
PUBLIC	?w_close@CLocatorAPI@@QEAAXAEAPEAVIWriter@@@Z	; CLocatorAPI::w_close
PUBLIC	?g_open_files@@3V?$xr_vector@U_open_file@@V?$xalloc@U_open_file@@@@@@A ; g_open_files
EXTRN	??_EIWriter@@UEAAPEAXI@Z:PROC			; IWriter::`vector deleting destructor'
EXTRN	??_EIReader@@UEAAPEAXI@Z:PROC			; IReader::`vector deleting destructor'
EXTRN	??_E?$IReaderBase@VIReader@@@@UEAAPEAXI@Z:PROC	; IReaderBase<IReader>::`vector deleting destructor'
EXTRN	??_ECStreamReader@@UEAAPEAXI@Z:PROC		; CStreamReader::`vector deleting destructor'
EXTRN	??_ECFileWriter@@UEAAPEAXI@Z:PROC		; CFileWriter::`vector deleting destructor'
EXTRN	??_ECTempReader@@UEAAPEAXI@Z:PROC		; CTempReader::`vector deleting destructor'
EXTRN	??_ECPackReader@@UEAAPEAXI@Z:PROC		; CPackReader::`vector deleting destructor'
EXTRN	??_E?$IReaderBase@VCStreamReader@@@@UEAAPEAXI@Z:PROC ; IReaderBase<CStreamReader>::`vector deleting destructor'
EXTRN	??_ECFileStreamReader@@UEAAPEAXI@Z:PROC		; CFileStreamReader::`vector deleting destructor'
?g_open_files@@3V?$xr_vector@U_open_file@@V?$xalloc@U_open_file@@@@@@A DB 018H DUP (?) ; g_open_files
_BSS	ENDS
;	COMDAT pdata
pdata	SEGMENT
$pdata$??1?$xr_stack@IV?$xr_vector@IV?$xalloc@I@@@@@@QEAA@XZ DD imagerel $LN36
	DD	imagerel $LN36+48
	DD	imagerel $unwind$??1?$xr_stack@IV?$xr_vector@IV?$xalloc@I@@@@@@QEAA@XZ
pdata	ENDS
;	COMDAT pdata
pdata	SEGMENT
$pdata$??1?$xr_vector@IV?$xalloc@I@@@@QEAA@XZ DD imagerel $LN34
	DD	imagerel $LN34+48
	DD	imagerel $unwind$??1?$xr_vector@IV?$xalloc@I@@@@QEAA@XZ
pdata	ENDS
;	COMDAT pdata
pdata	SEGMENT
$pdata$??1?$vector@IV?$xalloc@I@@@std@@QEAA@XZ DD imagerel $LN31
	DD	imagerel $LN31+48
	DD	imagerel $unwind$??1?$vector@IV?$xalloc@I@@@std@@QEAA@XZ
pdata	ENDS
;	COMDAT pdata
pdata	SEGMENT
$pdata$?_Tidy@?$vector@IV?$xalloc@I@@@std@@AEAAXXZ DD imagerel $LN29
	DD	imagerel $LN29+48
	DD	imagerel $unwind$?_Tidy@?$vector@IV?$xalloc@I@@@std@@AEAAXXZ
pdata	ENDS
;	COMDAT pdata
pdata	SEGMENT
$pdata$??$xr_free@I@@YAXAEAPEAI@Z DD imagerel $LN24
	DD	imagerel $LN24+42
	DD	imagerel $unwind$??$xr_free@I@@YAXAEAPEAI@Z
pdata	ENDS
;	COMDAT pdata
pdata	SEGMENT
$pdata$??1IWriter@@UEAA@XZ DD imagerel $LN59
	DD	imagerel $LN59+185
	DD	imagerel $unwind$??1IWriter@@UEAA@XZ
pdata	ENDS
;	COMDAT pdata
pdata	SEGMENT
$pdata$??4shared_str@@QEAAAEAV0@PEBD@Z DD imagerel $LN68
	DD	imagerel $LN68+6
	DD	imagerel $unwind$??4shared_str@@QEAAAEAV0@PEBD@Z
pdata	ENDS
;	COMDAT pdata
pdata	SEGMENT
$pdata$0$??4shared_str@@QEAAAEAV0@PEBD@Z DD imagerel $LN68+6
	DD	imagerel $LN68+37
	DD	imagerel $chain$0$??4shared_str@@QEAAAEAV0@PEBD@Z
pdata	ENDS
;	COMDAT pdata
pdata	SEGMENT
$pdata$1$??4shared_str@@QEAAAEAV0@PEBD@Z DD imagerel $LN68+37
	DD	imagerel $LN68+42
	DD	imagerel $chain$1$??4shared_str@@QEAAAEAV0@PEBD@Z
pdata	ENDS
;	COMDAT pdata
pdata	SEGMENT
$pdata$4$??4shared_str@@QEAAAEAV0@PEBD@Z DD imagerel $LN68+42
	DD	imagerel $LN68+281
	DD	imagerel $chain$4$??4shared_str@@QEAAAEAV0@PEBD@Z
pdata	ENDS
;	COMDAT pdata
pdata	SEGMENT
$pdata$5$??4shared_str@@QEAAAEAV0@PEBD@Z DD imagerel $LN68+281
	DD	imagerel $LN68+288
	DD	imagerel $chain$5$??4shared_str@@QEAAAEAV0@PEBD@Z
pdata	ENDS
;	COMDAT pdata
pdata	SEGMENT
$pdata$6$??4shared_str@@QEAAAEAV0@PEBD@Z DD imagerel $LN68+288
	DD	imagerel $LN68+301
	DD	imagerel $chain$6$??4shared_str@@QEAAAEAV0@PEBD@Z
pdata	ENDS
;	COMDAT pdata
pdata	SEGMENT
$pdata$7$??4shared_str@@QEAAAEAV0@PEBD@Z DD imagerel $LN68+301
	DD	imagerel $LN68+316
	DD	imagerel $chain$7$??4shared_str@@QEAAAEAV0@PEBD@Z
pdata	ENDS
;	COMDAT pdata
pdata	SEGMENT
$pdata$?_sopen@@YAHQEBDHHH@Z DD imagerel $LN4
	DD	imagerel $LN4+66
	DD	imagerel $unwind$?_sopen@@YAHQEBDHHH@Z
pdata	ENDS
;	COMDAT pdata
pdata	SEGMENT
$pdata$??_G?$IReaderBase@VIReader@@@@UEAAPEAXI@Z DD imagerel $LN6
	DD	imagerel $LN6+43
	DD	imagerel $unwind$??_G?$IReaderBase@VIReader@@@@UEAAPEAXI@Z
pdata	ENDS
;	COMDAT pdata
pdata	SEGMENT
$pdata$??$xr_free@E@@YAXAEAPEAE@Z DD imagerel $LN24
	DD	imagerel $LN24+42
	DD	imagerel $unwind$??$xr_free@E@@YAXAEAPEAE@Z
pdata	ENDS
;	COMDAT pdata
pdata	SEGMENT
$pdata$sscanf DD imagerel $LN6
	DD	imagerel $LN6+82
	DD	imagerel $unwind$sscanf
pdata	ENDS
;	COMDAT pdata
pdata	SEGMENT
$pdata$_vsscanf_l DD imagerel $LN4
	DD	imagerel $LN4+81
	DD	imagerel $unwind$_vsscanf_l
pdata	ENDS
;	COMDAT pdata
pdata	SEGMENT
$pdata$??$xr_free@D@@YAXAEAPEAD@Z DD imagerel $LN24
	DD	imagerel $LN24+42
	DD	imagerel $unwind$??$xr_free@D@@YAXAEAPEAD@Z
pdata	ENDS
;	COMDAT pdata
pdata	SEGMENT
$pdata$??1?$basic_string@DU?$char_traits@D@std@@V?$xalloc@D@@@std@@QEAA@XZ DD imagerel $LN34
	DD	imagerel $LN34+61
	DD	imagerel $unwind$??1?$basic_string@DU?$char_traits@D@std@@V?$xalloc@D@@@std@@QEAA@XZ
pdata	ENDS
;	COMDAT pdata
pdata	SEGMENT
$pdata$?_Tidy_deallocate@?$basic_string@DU?$char_traits@D@std@@V?$xalloc@D@@@std@@AEAAXXZ DD imagerel $LN31
	DD	imagerel $LN31+61
	DD	imagerel $unwind$?_Tidy_deallocate@?$basic_string@DU?$char_traits@D@std@@V?$xalloc@D@@@std@@AEAAXXZ
pdata	ENDS
;	COMDAT pdata
pdata	SEGMENT
$pdata$??_GIReader@@UEAAPEAXI@Z DD imagerel $LN6
	DD	imagerel $LN6+43
	DD	imagerel $unwind$??_GIReader@@UEAAPEAXI@Z
pdata	ENDS
;	COMDAT pdata
pdata	SEGMENT
$pdata$??_GIWriter@@UEAAPEAXI@Z DD imagerel $LN6
	DD	imagerel $LN6+52
	DD	imagerel $unwind$??_GIWriter@@UEAAPEAXI@Z
pdata	ENDS
;	COMDAT pdata
pdata	SEGMENT
$pdata$??$swap@U_finddata64i32_t@@$0A@@std@@YAXAEAU_finddata64i32_t@@0@Z DD imagerel $LN7
	DD	imagerel $LN7+368
	DD	imagerel $unwind$??$swap@U_finddata64i32_t@@$0A@@std@@YAXAEAU_finddata64i32_t@@0@Z
pdata	ENDS
;	COMDAT pdata
pdata	SEGMENT
$pdata$??$_Med3_unchecked@PEAU_finddata64i32_t@@P6A_NAEBU1@0@Z@std@@YAXPEAU_finddata64i32_t@@00P6A_NAEBU1@1@Z@Z DD imagerel $LN28
	DD	imagerel $LN28+1174
	DD	imagerel $unwind$??$_Med3_unchecked@PEAU_finddata64i32_t@@P6A_NAEBU1@0@Z@std@@YAXPEAU_finddata64i32_t@@00P6A_NAEBU1@1@Z@Z
pdata	ENDS
;	COMDAT pdata
pdata	SEGMENT
$pdata$??$_Push_heap_by_index@PEAU_finddata64i32_t@@U1@P6A_NAEBU1@0@Z@std@@YAXPEAU_finddata64i32_t@@_J1$$QEAU1@P6A_NAEBU1@3@Z@Z DD imagerel $LN17
	DD	imagerel $LN17+8
	DD	imagerel $unwind$??$_Push_heap_by_index@PEAU_finddata64i32_t@@U1@P6A_NAEBU1@0@Z@std@@YAXPEAU_finddata64i32_t@@_J1$$QEAU1@P6A_NAEBU1@3@Z@Z
pdata	ENDS
;	COMDAT pdata
pdata	SEGMENT
$pdata$2$??$_Push_heap_by_index@PEAU_finddata64i32_t@@U1@P6A_NAEBU1@0@Z@std@@YAXPEAU_finddata64i32_t@@_J1$$QEAU1@P6A_NAEBU1@3@Z@Z DD imagerel $LN17+8
	DD	imagerel $LN17+50
	DD	imagerel $chain$2$??$_Push_heap_by_index@PEAU_finddata64i32_t@@U1@P6A_NAEBU1@0@Z@std@@YAXPEAU_finddata64i32_t@@_J1$$QEAU1@P6A_NAEBU1@3@Z@Z
pdata	ENDS
;	COMDAT pdata
pdata	SEGMENT
$pdata$5$??$_Push_heap_by_index@PEAU_finddata64i32_t@@U1@P6A_NAEBU1@0@Z@std@@YAXPEAU_finddata64i32_t@@_J1$$QEAU1@P6A_NAEBU1@3@Z@Z DD imagerel $LN17+50
	DD	imagerel $LN17+269
	DD	imagerel $chain$5$??$_Push_heap_by_index@PEAU_finddata64i32_t@@U1@P6A_NAEBU1@0@Z@std@@YAXPEAU_finddata64i32_t@@_J1$$QEAU1@P6A_NAEBU1@3@Z@Z
pdata	ENDS
;	COMDAT pdata
pdata	SEGMENT
$pdata$6$??$_Push_heap_by_index@PEAU_finddata64i32_t@@U1@P6A_NAEBU1@0@Z@std@@YAXPEAU_finddata64i32_t@@_J1$$QEAU1@P6A_NAEBU1@3@Z@Z DD imagerel $LN17+269
	DD	imagerel $LN17+304
	DD	imagerel $chain$6$??$_Push_heap_by_index@PEAU_finddata64i32_t@@U1@P6A_NAEBU1@0@Z@std@@YAXPEAU_finddata64i32_t@@_J1$$QEAU1@P6A_NAEBU1@3@Z@Z
pdata	ENDS
;	COMDAT pdata
pdata	SEGMENT
$pdata$7$??$_Push_heap_by_index@PEAU_finddata64i32_t@@U1@P6A_NAEBU1@0@Z@std@@YAXPEAU_finddata64i32_t@@_J1$$QEAU1@P6A_NAEBU1@3@Z@Z DD imagerel $LN17+304
	DD	imagerel $LN17+437
	DD	imagerel $chain$7$??$_Push_heap_by_index@PEAU_finddata64i32_t@@U1@P6A_NAEBU1@0@Z@std@@YAXPEAU_finddata64i32_t@@_J1$$QEAU1@P6A_NAEBU1@3@Z@Z
pdata	ENDS
;	COMDAT pdata
pdata	SEGMENT
$pdata$??$iter_swap@PEAU_finddata64i32_t@@PEAU1@@std@@YAXPEAU_finddata64i32_t@@0@Z DD imagerel $LN9
	DD	imagerel $LN9+368
	DD	imagerel $unwind$??$iter_swap@PEAU_finddata64i32_t@@PEAU1@@std@@YAXPEAU_finddata64i32_t@@0@Z
pdata	ENDS
;	COMDAT pdata
pdata	SEGMENT
$pdata$??$_Guess_median_unchecked@PEAU_finddata64i32_t@@P6A_NAEBU1@0@Z@std@@YAXPEAU_finddata64i32_t@@00P6A_NAEBU1@1@Z@Z DD imagerel $LN6
	DD	imagerel $LN6+62
	DD	imagerel $unwind$??$_Guess_median_unchecked@PEAU_finddata64i32_t@@P6A_NAEBU1@0@Z@std@@YAXPEAU_finddata64i32_t@@00P6A_NAEBU1@1@Z@Z
pdata	ENDS
;	COMDAT pdata
pdata	SEGMENT
$pdata$1$??$_Guess_median_unchecked@PEAU_finddata64i32_t@@P6A_NAEBU1@0@Z@std@@YAXPEAU_finddata64i32_t@@00P6A_NAEBU1@1@Z@Z DD imagerel $LN6+62
	DD	imagerel $LN6+165
	DD	imagerel $chain$1$??$_Guess_median_unchecked@PEAU_finddata64i32_t@@P6A_NAEBU1@0@Z@std@@YAXPEAU_finddata64i32_t@@00P6A_NAEBU1@1@Z@Z
pdata	ENDS
;	COMDAT pdata
pdata	SEGMENT
$pdata$2$??$_Guess_median_unchecked@PEAU_finddata64i32_t@@P6A_NAEBU1@0@Z@std@@YAXPEAU_finddata64i32_t@@00P6A_NAEBU1@1@Z@Z DD imagerel $LN6+165
	DD	imagerel $LN6+208
	DD	imagerel $chain$2$??$_Guess_median_unchecked@PEAU_finddata64i32_t@@P6A_NAEBU1@0@Z@std@@YAXPEAU_finddata64i32_t@@00P6A_NAEBU1@1@Z@Z
pdata	ENDS
;	COMDAT pdata
pdata	SEGMENT
$pdata$??$_Pop_heap_unchecked@PEAU_finddata64i32_t@@P6A_NAEBU1@0@Z@std@@YAXPEAU_finddata64i32_t@@0P6A_NAEBU1@1@Z@Z DD imagerel $LN9
	DD	imagerel $LN9+344
	DD	imagerel $unwind$??$_Pop_heap_unchecked@PEAU_finddata64i32_t@@P6A_NAEBU1@0@Z@std@@YAXPEAU_finddata64i32_t@@0P6A_NAEBU1@1@Z@Z
pdata	ENDS
;	COMDAT pdata
pdata	SEGMENT
$pdata$??$_Pop_heap_hole_by_index@PEAU_finddata64i32_t@@U1@P6A_NAEBU1@0@Z@std@@YAXPEAU_finddata64i32_t@@_J1$$QEAU1@P6A_NAEBU1@3@Z@Z DD imagerel $LN26
	DD	imagerel $LN26+842
	DD	imagerel $unwind$??$_Pop_heap_hole_by_index@PEAU_finddata64i32_t@@U1@P6A_NAEBU1@0@Z@std@@YAXPEAU_finddata64i32_t@@_J1$$QEAU1@P6A_NAEBU1@3@Z@Z
pdata	ENDS
;	COMDAT pdata
pdata	SEGMENT
$pdata$?_Allocate@?$_Alloc_construct_ptr@V?$xalloc@U?$_Tree_node@Ufile@CLocatorAPI@@PEAX@std@@@@@std@@QEAAXXZ DD imagerel $LN38
	DD	imagerel $LN38+74
	DD	imagerel $unwind$?_Allocate@?$_Alloc_construct_ptr@V?$xalloc@U?$_Tree_node@Ufile@CLocatorAPI@@PEAX@std@@@@@std@@QEAAXXZ
pdata	ENDS
;	COMDAT pdata
pdata	SEGMENT
$pdata$??0?$_Tree_temp_node_alloc@V?$xalloc@U?$_Tree_node@Ufile@CLocatorAPI@@PEAX@std@@@@@std@@QEAA@AEAV?$xalloc@U?$_Tree_node@Ufile@CLocatorAPI@@PEAX@std@@@@@Z DD imagerel $LN49
	DD	imagerel $LN49+80
	DD	imagerel $unwind$??0?$_Tree_temp_node_alloc@V?$xalloc@U?$_Tree_node@Ufile@CLocatorAPI@@PEAX@std@@@@@std@@QEAA@AEAV?$xalloc@U?$_Tree_node@Ufile@CLocatorAPI@@PEAX@std@@@@@Z
pdata	ENDS
;	COMDAT pdata
pdata	SEGMENT
$pdata$??_GFS_File@@QEAAPEAXI@Z DD imagerel $LN39
	DD	imagerel $LN39+66
	DD	imagerel $unwind$??_GFS_File@@QEAAPEAXI@Z
pdata	ENDS
;	COMDAT pdata
pdata	SEGMENT
$pdata$??$xr_free@U?$_Tree_node@UFS_File@@PEAX@std@@@@YAXAEAPEAU?$_Tree_node@UFS_File@@PEAX@std@@@Z DD imagerel $LN24
	DD	imagerel $LN24+42
	DD	imagerel $unwind$??$xr_free@U?$_Tree_node@UFS_File@@PEAX@std@@@@YAXAEAPEAU?$_Tree_node@UFS_File@@PEAX@std@@@Z
pdata	ENDS
;	COMDAT pdata
pdata	SEGMENT
$pdata$??$xr_free@U?$_Tree_node@U?$pair@QEBDPEAVFS_Path@@@std@@PEAX@std@@@@YAXAEAPEAU?$_Tree_node@U?$pair@QEBDPEAVFS_Path@@@std@@PEAX@std@@@Z DD imagerel $LN24
	DD	imagerel $LN24+42
	DD	imagerel $unwind$??$xr_free@U?$_Tree_node@U?$pair@QEBDPEAVFS_Path@@@std@@PEAX@std@@@@YAXAEAPEAU?$_Tree_node@U?$pair@QEBDPEAVFS_Path@@@std@@PEAX@std@@@Z
pdata	ENDS
;	COMDAT pdata
pdata	SEGMENT
$pdata$??$xr_free@U?$_Tree_node@Ufile@CLocatorAPI@@PEAX@std@@@@YAXAEAPEAU?$_Tree_node@Ufile@CLocatorAPI@@PEAX@std@@@Z DD imagerel $LN24
	DD	imagerel $LN24+42
	DD	imagerel $unwind$??$xr_free@U?$_Tree_node@Ufile@CLocatorAPI@@PEAX@std@@@@YAXAEAPEAU?$_Tree_node@Ufile@CLocatorAPI@@PEAX@std@@@Z
pdata	ENDS
;	COMDAT pdata
pdata	SEGMENT
$pdata$??$xr_alloc@Uarchive@CLocatorAPI@@@@YAPEAUarchive@CLocatorAPI@@I@Z DD imagerel $LN34
	DD	imagerel $LN34+75
	DD	imagerel $unwind$??$xr_alloc@Uarchive@CLocatorAPI@@@@YAPEAUarchive@CLocatorAPI@@I@Z
pdata	ENDS
;	COMDAT pdata
pdata	SEGMENT
$pdata$??$xr_alloc@U_open_file@@@@YAPEAU_open_file@@I@Z DD imagerel $LN34
	DD	imagerel $LN34+75
	DD	imagerel $unwind$??$xr_alloc@U_open_file@@@@YAPEAU_open_file@@I@Z
pdata	ENDS
;	COMDAT pdata
pdata	SEGMENT
$pdata$??$destroy@UFS_File@@@?$_Normal_allocator_traits@V?$xalloc@U?$_Tree_node@UFS_File@@PEAX@std@@@@@std@@SAXAEAV?$xalloc@U?$_Tree_node@UFS_File@@PEAX@std@@@@PEAUFS_File@@@Z DD imagerel $LN41
	DD	imagerel $LN41+63
	DD	imagerel $unwind$??$destroy@UFS_File@@@?$_Normal_allocator_traits@V?$xalloc@U?$_Tree_node@UFS_File@@PEAX@std@@@@@std@@SAXAEAV?$xalloc@U?$_Tree_node@UFS_File@@PEAX@std@@@@PEAUFS_File@@@Z
pdata	ENDS
;	COMDAT pdata
pdata	SEGMENT
$pdata$??$_Partition_by_median_guess_unchecked@PEAU_finddata64i32_t@@P6A_NAEBU1@0@Z@std@@YA?AU?$pair@PEAU_finddata64i32_t@@PEAU1@@0@PEAU_finddata64i32_t@@0P6A_NAEBU2@1@Z@Z DD imagerel $LN121
	DD	imagerel $LN121+3134
	DD	imagerel $unwind$??$_Partition_by_median_guess_unchecked@PEAU_finddata64i32_t@@P6A_NAEBU1@0@Z@std@@YA?AU?$pair@PEAU_finddata64i32_t@@PEAU1@@0@PEAU_finddata64i32_t@@0P6A_NAEBU2@1@Z@Z
pdata	ENDS
;	COMDAT pdata
pdata	SEGMENT
$pdata$??$_Sort_heap_unchecked@PEAU_finddata64i32_t@@P6A_NAEBU1@0@Z@std@@YAXPEAU_finddata64i32_t@@0P6A_NAEBU1@1@Z@Z DD imagerel $LN20
	DD	imagerel $LN20+38
	DD	imagerel $unwind$??$_Sort_heap_unchecked@PEAU_finddata64i32_t@@P6A_NAEBU1@0@Z@std@@YAXPEAU_finddata64i32_t@@0P6A_NAEBU1@1@Z@Z
pdata	ENDS
;	COMDAT pdata
pdata	SEGMENT
$pdata$2$??$_Sort_heap_unchecked@PEAU_finddata64i32_t@@P6A_NAEBU1@0@Z@std@@YAXPEAU_finddata64i32_t@@0P6A_NAEBU1@1@Z@Z DD imagerel $LN20+38
	DD	imagerel $LN20+439
	DD	imagerel $chain$2$??$_Sort_heap_unchecked@PEAU_finddata64i32_t@@P6A_NAEBU1@0@Z@std@@YAXPEAU_finddata64i32_t@@0P6A_NAEBU1@1@Z@Z
pdata	ENDS
;	COMDAT pdata
pdata	SEGMENT
$pdata$3$??$_Sort_heap_unchecked@PEAU_finddata64i32_t@@P6A_NAEBU1@0@Z@std@@YAXPEAU_finddata64i32_t@@0P6A_NAEBU1@1@Z@Z DD imagerel $LN20+439
	DD	imagerel $LN20+450
	DD	imagerel $chain$3$??$_Sort_heap_unchecked@PEAU_finddata64i32_t@@P6A_NAEBU1@0@Z@std@@YAXPEAU_finddata64i32_t@@0P6A_NAEBU1@1@Z@Z
pdata	ENDS
;	COMDAT pdata
pdata	SEGMENT
$pdata$??$_Make_heap_unchecked@PEAU_finddata64i32_t@@P6A_NAEBU1@0@Z@std@@YAXPEAU_finddata64i32_t@@0P6A_NAEBU1@1@Z@Z DD imagerel $LN36
	DD	imagerel $LN36+62
	DD	imagerel $unwind$??$_Make_heap_unchecked@PEAU_finddata64i32_t@@P6A_NAEBU1@0@Z@std@@YAXPEAU_finddata64i32_t@@0P6A_NAEBU1@1@Z@Z
pdata	ENDS
;	COMDAT pdata
pdata	SEGMENT
$pdata$3$??$_Make_heap_unchecked@PEAU_finddata64i32_t@@P6A_NAEBU1@0@Z@std@@YAXPEAU_finddata64i32_t@@0P6A_NAEBU1@1@Z@Z DD imagerel $LN36+62
	DD	imagerel $LN36+1002
	DD	imagerel $chain$3$??$_Make_heap_unchecked@PEAU_finddata64i32_t@@P6A_NAEBU1@0@Z@std@@YAXPEAU_finddata64i32_t@@0P6A_NAEBU1@1@Z@Z
pdata	ENDS
;	COMDAT pdata
pdata	SEGMENT
$pdata$4$??$_Make_heap_unchecked@PEAU_finddata64i32_t@@P6A_NAEBU1@0@Z@std@@YAXPEAU_finddata64i32_t@@0P6A_NAEBU1@1@Z@Z DD imagerel $LN36+1002
	DD	imagerel $LN36+1020
	DD	imagerel $chain$4$??$_Make_heap_unchecked@PEAU_finddata64i32_t@@P6A_NAEBU1@0@Z@std@@YAXPEAU_finddata64i32_t@@0P6A_NAEBU1@1@Z@Z
pdata	ENDS
;	COMDAT pdata
pdata	SEGMENT
$pdata$??$_Insertion_sort_unchecked@PEAU_finddata64i32_t@@P6A_NAEBU1@0@Z@std@@YAPEAU_finddata64i32_t@@QEAU1@0P6A_NAEBU1@1@Z@Z DD imagerel $LN34
	DD	imagerel $LN34+34
	DD	imagerel $unwind$??$_Insertion_sort_unchecked@PEAU_finddata64i32_t@@P6A_NAEBU1@0@Z@std@@YAPEAU_finddata64i32_t@@QEAU1@0P6A_NAEBU1@1@Z@Z
pdata	ENDS
;	COMDAT pdata
pdata	SEGMENT
$pdata$1$??$_Insertion_sort_unchecked@PEAU_finddata64i32_t@@P6A_NAEBU1@0@Z@std@@YAPEAU_finddata64i32_t@@QEAU1@0P6A_NAEBU1@1@Z@Z DD imagerel $LN34+34
	DD	imagerel $LN34+61
	DD	imagerel $chain$1$??$_Insertion_sort_unchecked@PEAU_finddata64i32_t@@P6A_NAEBU1@0@Z@std@@YAPEAU_finddata64i32_t@@QEAU1@0P6A_NAEBU1@1@Z@Z
pdata	ENDS
;	COMDAT pdata
pdata	SEGMENT
$pdata$4$??$_Insertion_sort_unchecked@PEAU_finddata64i32_t@@P6A_NAEBU1@0@Z@std@@YAPEAU_finddata64i32_t@@QEAU1@0P6A_NAEBU1@1@Z@Z DD imagerel $LN34+61
	DD	imagerel $LN34+679
	DD	imagerel $chain$4$??$_Insertion_sort_unchecked@PEAU_finddata64i32_t@@P6A_NAEBU1@0@Z@std@@YAPEAU_finddata64i32_t@@QEAU1@0P6A_NAEBU1@1@Z@Z
pdata	ENDS
;	COMDAT pdata
pdata	SEGMENT
$pdata$5$??$_Insertion_sort_unchecked@PEAU_finddata64i32_t@@P6A_NAEBU1@0@Z@std@@YAPEAU_finddata64i32_t@@QEAU1@0P6A_NAEBU1@1@Z@Z DD imagerel $LN34+679
	DD	imagerel $LN34+712
	DD	imagerel $chain$5$??$_Insertion_sort_unchecked@PEAU_finddata64i32_t@@P6A_NAEBU1@0@Z@std@@YAPEAU_finddata64i32_t@@QEAU1@0P6A_NAEBU1@1@Z@Z
pdata	ENDS
;	COMDAT pdata
pdata	SEGMENT
$pdata$7$??$_Insertion_sort_unchecked@PEAU_finddata64i32_t@@P6A_NAEBU1@0@Z@std@@YAPEAU_finddata64i32_t@@QEAU1@0P6A_NAEBU1@1@Z@Z DD imagerel $LN34+712
	DD	imagerel $LN34+717
	DD	imagerel $chain$7$??$_Insertion_sort_unchecked@PEAU_finddata64i32_t@@P6A_NAEBU1@0@Z@std@@YAPEAU_finddata64i32_t@@QEAU1@0P6A_NAEBU1@1@Z@Z
pdata	ENDS
;	COMDAT pdata
pdata	SEGMENT
$pdata$8$??$_Insertion_sort_unchecked@PEAU_finddata64i32_t@@P6A_NAEBU1@0@Z@std@@YAPEAU_finddata64i32_t@@QEAU1@0P6A_NAEBU1@1@Z@Z DD imagerel $LN34+717
	DD	imagerel $LN34+737
	DD	imagerel $chain$8$??$_Insertion_sort_unchecked@PEAU_finddata64i32_t@@P6A_NAEBU1@0@Z@std@@YAPEAU_finddata64i32_t@@QEAU1@0P6A_NAEBU1@1@Z@Z
pdata	ENDS
;	COMDAT pdata
pdata	SEGMENT
$pdata$??$?0AEBUfile@CLocatorAPI@@@?$_Tree_temp_node@V?$xalloc@U?$_Tree_node@Ufile@CLocatorAPI@@PEAX@std@@@@@std@@QEAA@AEAV?$xalloc@U?$_Tree_node@Ufile@CLocatorAPI@@PEAX@std@@@@PEAU?$_Tree_node@Ufile@CLocatorAPI@@PEAX@1@AEBUfile@CLocatorAPI@@@Z DD imagerel $LN59
	DD	imagerel $LN59+163
	DD	imagerel $unwind$??$?0AEBUfile@CLocatorAPI@@@?$_Tree_temp_node@V?$xalloc@U?$_Tree_node@Ufile@CLocatorAPI@@PEAX@std@@@@@std@@QEAA@AEAV?$xalloc@U?$_Tree_node@Ufile@CLocatorAPI@@PEAX@std@@@@PEAU?$_Tree_node@Ufile@CLocatorAPI@@PEAX@1@AEBUfile@CLocatorAPI@@@Z
pdata	ENDS
;	COMDAT pdata
pdata	SEGMENT
$pdata$??_G?$basic_string@DU?$char_traits@D@std@@V?$xalloc@D@@@std@@QEAAPEAXI@Z DD imagerel $LN37
	DD	imagerel $LN37+64
	DD	imagerel $unwind$??_G?$basic_string@DU?$char_traits@D@std@@V?$xalloc@D@@@std@@QEAAPEAXI@Z
pdata	ENDS
;	COMDAT pdata
pdata	SEGMENT
$pdata$?destroy@?$xalloc@V?$basic_string@DU?$char_traits@D@std@@V?$xalloc@D@@@std@@@@QEAAXPEAV?$basic_string@DU?$char_traits@D@std@@V?$xalloc@D@@@std@@@Z DD imagerel $LN39
	DD	imagerel $LN39+61
	DD	imagerel $unwind$?destroy@?$xalloc@V?$basic_string@DU?$char_traits@D@std@@V?$xalloc@D@@@std@@@@QEAAXPEAV?$basic_string@DU?$char_traits@D@std@@V?$xalloc@D@@@std@@@Z
pdata	ENDS
;	COMDAT pdata
pdata	SEGMENT
$pdata$?allocate@?$xalloc@E@@QEBAPEAE_KPEBX@Z DD imagerel $LN36
	DD	imagerel $LN36+66
	DD	imagerel $unwind$?allocate@?$xalloc@E@@QEBAPEAE_KPEBX@Z
pdata	ENDS
;	COMDAT pdata
pdata	SEGMENT
$pdata$?_Change_array@?$vector@EV?$xalloc@E@@@std@@AEAAXQEAE_K1@Z DD imagerel $LN29
	DD	imagerel $LN29+92
	DD	imagerel $unwind$?_Change_array@?$vector@EV?$xalloc@E@@@std@@AEAAXQEAE_K1@Z
pdata	ENDS
;	COMDAT pdata
pdata	SEGMENT
$pdata$?_Xlength@?$vector@EV?$xalloc@E@@@std@@CAXXZ DD imagerel $LN4
	DD	imagerel $LN4+18
	DD	imagerel $unwind$?_Xlength@?$vector@EV?$xalloc@E@@@std@@CAXXZ
pdata	ENDS
;	COMDAT pdata
pdata	SEGMENT
$pdata$?allocate@?$xalloc@Uarchive@CLocatorAPI@@@@QEBAPEAUarchive@CLocatorAPI@@_KPEBX@Z DD imagerel $LN36
	DD	imagerel $LN36+75
	DD	imagerel $unwind$?allocate@?$xalloc@Uarchive@CLocatorAPI@@@@QEBAPEAUarchive@CLocatorAPI@@_KPEBX@Z
pdata	ENDS
;	COMDAT pdata
pdata	SEGMENT
$pdata$?_Change_array@?$vector@Uarchive@CLocatorAPI@@V?$xalloc@Uarchive@CLocatorAPI@@@@@std@@AEAAXQEAUarchive@CLocatorAPI@@_K1@Z DD imagerel $LN54
	DD	imagerel $LN54+156
	DD	imagerel $unwind$?_Change_array@?$vector@Uarchive@CLocatorAPI@@V?$xalloc@Uarchive@CLocatorAPI@@@@@std@@AEAAXQEAUarchive@CLocatorAPI@@_K1@Z
pdata	ENDS
;	COMDAT pdata
pdata	SEGMENT
$pdata$?_Xlength@?$vector@Uarchive@CLocatorAPI@@V?$xalloc@Uarchive@CLocatorAPI@@@@@std@@CAXXZ DD imagerel $LN4
	DD	imagerel $LN4+18
	DD	imagerel $unwind$?_Xlength@?$vector@Uarchive@CLocatorAPI@@V?$xalloc@Uarchive@CLocatorAPI@@@@@std@@CAXXZ
pdata	ENDS
;	COMDAT pdata
pdata	SEGMENT
$pdata$?_Check_grow_by_1@?$_Tree@V?$_Tset_traits@Ufile@CLocatorAPI@@Ufile_pred@2@V?$xalloc@Ufile@CLocatorAPI@@@@$0A@@std@@@std@@IEAAXXZ DD imagerel $LN7
	DD	imagerel $LN7+31
	DD	imagerel $unwind$?_Check_grow_by_1@?$_Tree@V?$_Tset_traits@Ufile@CLocatorAPI@@Ufile_pred@2@V?$xalloc@Ufile@CLocatorAPI@@@@$0A@@std@@@std@@IEAAXXZ
pdata	ENDS
;	COMDAT pdata
pdata	SEGMENT
$pdata$?allocate@?$xalloc@U_open_file@@@@QEBAPEAU_open_file@@_KPEBX@Z DD imagerel $LN36
	DD	imagerel $LN36+75
	DD	imagerel $unwind$?allocate@?$xalloc@U_open_file@@@@QEBAPEAU_open_file@@_KPEBX@Z
pdata	ENDS
;	COMDAT pdata
pdata	SEGMENT
$pdata$?_Change_array@?$vector@U_open_file@@V?$xalloc@U_open_file@@@@@std@@AEAAXQEAU_open_file@@_K1@Z DD imagerel $LN54
	DD	imagerel $LN54+159
	DD	imagerel $unwind$?_Change_array@?$vector@U_open_file@@V?$xalloc@U_open_file@@@@@std@@AEAAXQEAU_open_file@@_K1@Z
pdata	ENDS
;	COMDAT pdata
pdata	SEGMENT
$pdata$?_Xlength@?$vector@U_open_file@@V?$xalloc@U_open_file@@@@@std@@CAXXZ DD imagerel $LN4
	DD	imagerel $LN4+18
	DD	imagerel $unwind$?_Xlength@?$vector@U_open_file@@V?$xalloc@U_open_file@@@@@std@@CAXXZ
pdata	ENDS
;	COMDAT pdata
pdata	SEGMENT
$pdata$??1?$_Tree_temp_node@V?$xalloc@U?$_Tree_node@UFS_File@@PEAX@std@@@@@std@@QEAA@XZ DD imagerel $LN73
	DD	imagerel $LN73+102
	DD	imagerel $unwind$??1?$_Tree_temp_node@V?$xalloc@U?$_Tree_node@UFS_File@@PEAX@std@@@@@std@@QEAA@XZ
pdata	ENDS
;	COMDAT pdata
pdata	SEGMENT
$pdata$??$xr_free@PEAD@@YAXAEAPEAPEAD@Z DD imagerel $LN24
	DD	imagerel $LN24+42
	DD	imagerel $unwind$??$xr_free@PEAD@@YAXAEAPEAPEAD@Z
pdata	ENDS
;	COMDAT pdata
pdata	SEGMENT
$pdata$??$xr_alloc@U?$_Tree_node@Ufile@CLocatorAPI@@PEAX@std@@@@YAPEAU?$_Tree_node@Ufile@CLocatorAPI@@PEAX@std@@I@Z DD imagerel $LN34
	DD	imagerel $LN34+56
	DD	imagerel $unwind$??$xr_alloc@U?$_Tree_node@Ufile@CLocatorAPI@@PEAX@std@@@@YAPEAU?$_Tree_node@Ufile@CLocatorAPI@@PEAX@std@@I@Z
pdata	ENDS
;	COMDAT pdata
pdata	SEGMENT
$pdata$??$destroy@V?$basic_string@DU?$char_traits@D@std@@V?$xalloc@D@@@std@@@?$_Normal_allocator_traits@V?$xalloc@V?$basic_string@DU?$char_traits@D@std@@V?$xalloc@D@@@std@@@@@std@@SAXAEAV?$xalloc@V?$basic_string@DU?$char_traits@D@std@@V?$xalloc@D@@@std@@@@PEAV?$basic_string@DU?$char_traits@D@std@@V?$xalloc@D@@@1@@Z DD imagerel $LN41
	DD	imagerel $LN41+61
	DD	imagerel $unwind$??$destroy@V?$basic_string@DU?$char_traits@D@std@@V?$xalloc@D@@@std@@@?$_Normal_allocator_traits@V?$xalloc@V?$basic_string@DU?$char_traits@D@std@@V?$xalloc@D@@@std@@@@@std@@SAXAEAV?$xalloc@V?$basic_string@DU?$char_traits@D@std@@V?$xalloc@D@@@std@@@@PEAV?$basic_string@DU?$char_traits@D@std@@V?$xalloc@D@@@1@@Z
pdata	ENDS
;	COMDAT pdata
pdata	SEGMENT
$pdata$??$_Copy_memmove@PEAU_finddata64i32_t@@PEAU1@@std@@YAPEAU_finddata64i32_t@@PEAU1@00@Z DD imagerel $LN4
	DD	imagerel $LN4+48
	DD	imagerel $unwind$??$_Copy_memmove@PEAU_finddata64i32_t@@PEAU1@@std@@YAPEAU_finddata64i32_t@@PEAU1@00@Z
pdata	ENDS
;	COMDAT pdata
pdata	SEGMENT
$pdata$??$_Emplace_reallocate@AEBE@?$vector@EV?$xalloc@E@@@std@@AEAAPEAEQEAEAEBE@Z DD imagerel $LN123
	DD	imagerel $LN123+474
	DD	imagerel $unwind$??$_Emplace_reallocate@AEBE@?$vector@EV?$xalloc@E@@@std@@AEAAPEAEQEAEAEBE@Z
pdata	ENDS
;	COMDAT pdata
pdata	SEGMENT
$pdata$?catch$0@?0???$_Emplace_reallocate@AEBE@?$vector@EV?$xalloc@E@@@std@@AEAAPEAEQEAEAEBE@Z@4HA DD imagerel ?catch$0@?0???$_Emplace_reallocate@AEBE@?$vector@EV?$xalloc@E@@@std@@AEAAPEAEQEAEAEBE@Z@4HA
	DD	imagerel ?catch$0@?0???$_Emplace_reallocate@AEBE@?$vector@EV?$xalloc@E@@@std@@AEAAPEAEQEAEAEBE@Z@4HA+35
	DD	imagerel $unwind$?catch$0@?0???$_Emplace_reallocate@AEBE@?$vector@EV?$xalloc@E@@@std@@AEAAPEAEQEAEAEBE@Z@4HA
pdata	ENDS
;	COMDAT pdata
pdata	SEGMENT
$pdata$??$_Emplace_reallocate@Uarchive@CLocatorAPI@@@?$vector@Uarchive@CLocatorAPI@@V?$xalloc@Uarchive@CLocatorAPI@@@@@std@@AEAAPEAUarchive@CLocatorAPI@@QEAU23@$$QEAU23@@Z DD imagerel $LN286
	DD	imagerel $LN286+1108
	DD	imagerel $unwind$??$_Emplace_reallocate@Uarchive@CLocatorAPI@@@?$vector@Uarchive@CLocatorAPI@@V?$xalloc@Uarchive@CLocatorAPI@@@@@std@@AEAAPEAUarchive@CLocatorAPI@@QEAU23@$$QEAU23@@Z
pdata	ENDS
;	COMDAT pdata
pdata	SEGMENT
$pdata$?catch$0@?0???$_Emplace_reallocate@Uarchive@CLocatorAPI@@@?$vector@Uarchive@CLocatorAPI@@V?$xalloc@Uarchive@CLocatorAPI@@@@@std@@AEAAPEAUarchive@CLocatorAPI@@QEAU23@$$QEAU23@@Z@4HA DD imagerel ?catch$0@?0???$_Emplace_reallocate@Uarchive@CLocatorAPI@@@?$vector@Uarchive@CLocatorAPI@@V?$xalloc@Uarchive@CLocatorAPI@@@@@std@@AEAAPEAUarchive@CLocatorAPI@@QEAU23@$$QEAU23@@Z@4HA
	DD	imagerel ?catch$0@?0???$_Emplace_reallocate@Uarchive@CLocatorAPI@@@?$vector@Uarchive@CLocatorAPI@@V?$xalloc@Uarchive@CLocatorAPI@@@@@std@@AEAAPEAUarchive@CLocatorAPI@@QEAU23@$$QEAU23@@Z@4HA+51
	DD	imagerel $unwind$?catch$0@?0???$_Emplace_reallocate@Uarchive@CLocatorAPI@@@?$vector@Uarchive@CLocatorAPI@@V?$xalloc@Uarchive@CLocatorAPI@@@@@std@@AEAAPEAUarchive@CLocatorAPI@@QEAU23@$$QEAU23@@Z@4HA
pdata	ENDS
;	COMDAT pdata
pdata	SEGMENT
$pdata$??$_Emplace_reallocate@AEBU_finddata64i32_t@@@?$vector@U_finddata64i32_t@@V?$xalloc@U_finddata64i32_t@@@@@std@@AEAAPEAU_finddata64i32_t@@QEAU2@AEBU2@@Z DD imagerel $LN86
	DD	imagerel $LN86+496
	DD	imagerel $unwind$??$_Emplace_reallocate@AEBU_finddata64i32_t@@@?$vector@U_finddata64i32_t@@V?$xalloc@U_finddata64i32_t@@@@@std@@AEAAPEAU_finddata64i32_t@@QEAU2@AEBU2@@Z
pdata	ENDS
;	COMDAT pdata
pdata	SEGMENT
$pdata$?catch$0@?0???$_Emplace_reallocate@AEBU_finddata64i32_t@@@?$vector@U_finddata64i32_t@@V?$xalloc@U_finddata64i32_t@@@@@std@@AEAAPEAU_finddata64i32_t@@QEAU2@AEBU2@@Z@4HA DD imagerel ?catch$0@?0???$_Emplace_reallocate@AEBU_finddata64i32_t@@@?$vector@U_finddata64i32_t@@V?$xalloc@U_finddata64i32_t@@@@@std@@AEAAPEAU_finddata64i32_t@@QEAU2@AEBU2@@Z@4HA
	DD	imagerel ?catch$0@?0???$_Emplace_reallocate@AEBU_finddata64i32_t@@@?$vector@U_finddata64i32_t@@V?$xalloc@U_finddata64i32_t@@@@@std@@AEAAPEAU_finddata64i32_t@@QEAU2@AEBU2@@Z@4HA+32
	DD	imagerel $unwind$?catch$0@?0???$_Emplace_reallocate@AEBU_finddata64i32_t@@@?$vector@U_finddata64i32_t@@V?$xalloc@U_finddata64i32_t@@@@@std@@AEAAPEAU_finddata64i32_t@@QEAU2@AEBU2@@Z@4HA
pdata	ENDS
;	COMDAT pdata
pdata	SEGMENT
$pdata$??$_Resize_reallocate@U_Value_init_tag@std@@@?$vector@U_open_file@@V?$xalloc@U_open_file@@@@@std@@AEAAX_KAEBU_Value_init_tag@1@@Z DD imagerel $LN204
	DD	imagerel $LN204+684
	DD	imagerel $unwind$??$_Resize_reallocate@U_Value_init_tag@std@@@?$vector@U_open_file@@V?$xalloc@U_open_file@@@@@std@@AEAAX_KAEBU_Value_init_tag@1@@Z
pdata	ENDS
;	COMDAT pdata
pdata	SEGMENT
$pdata$?catch$0@?0???$_Resize_reallocate@U_Value_init_tag@std@@@?$vector@U_open_file@@V?$xalloc@U_open_file@@@@@std@@AEAAX_KAEBU_Value_init_tag@1@@Z@4HA DD imagerel ?catch$0@?0???$_Resize_reallocate@U_Value_init_tag@std@@@?$vector@U_open_file@@V?$xalloc@U_open_file@@@@@std@@AEAAX_KAEBU_Value_init_tag@1@@Z@4HA
	DD	imagerel ?catch$0@?0???$_Resize_reallocate@U_Value_init_tag@std@@@?$vector@U_open_file@@V?$xalloc@U_open_file@@@@@std@@AEAAX_KAEBU_Value_init_tag@1@@Z@4HA+51
	DD	imagerel $unwind$?catch$0@?0???$_Resize_reallocate@U_Value_init_tag@std@@@?$vector@U_open_file@@V?$xalloc@U_open_file@@@@@std@@AEAAX_KAEBU_Value_init_tag@1@@Z@4HA
pdata	ENDS
;	COMDAT pdata
pdata	SEGMENT
$pdata$??$file_from_cache@VIReader@@@CLocatorAPI@@AEAAXAEAPEAVIReader@@PEADAEBIAEBUfile@0@AEAPEBD@Z DD imagerel $LN39
	DD	imagerel $LN39+136
	DD	imagerel $unwind$??$file_from_cache@VIReader@@@CLocatorAPI@@AEAAXAEAPEAVIReader@@PEADAEBIAEBUfile@0@AEAPEBD@Z
pdata	ENDS
;	COMDAT pdata
pdata	SEGMENT
$pdata$??$_Sort_unchecked@PEAU_finddata64i32_t@@P6A_NAEBU1@0@Z@std@@YAXPEAU_finddata64i32_t@@0_JP6A_NAEBU1@2@Z@Z DD imagerel $LN208
	DD	imagerel $LN208+212
	DD	imagerel $unwind$??$_Sort_unchecked@PEAU_finddata64i32_t@@P6A_NAEBU1@0@Z@std@@YAXPEAU_finddata64i32_t@@0_JP6A_NAEBU1@2@Z@Z
pdata	ENDS
;	COMDAT pdata
pdata	SEGMENT
$pdata$0$??$_Sort_unchecked@PEAU_finddata64i32_t@@P6A_NAEBU1@0@Z@std@@YAXPEAU_finddata64i32_t@@0_JP6A_NAEBU1@2@Z@Z DD imagerel $LN208+212
	DD	imagerel $LN208+506
	DD	imagerel $chain$0$??$_Sort_unchecked@PEAU_finddata64i32_t@@P6A_NAEBU1@0@Z@std@@YAXPEAU_finddata64i32_t@@0_JP6A_NAEBU1@2@Z@Z
pdata	ENDS
;	COMDAT pdata
pdata	SEGMENT
$pdata$1$??$_Sort_unchecked@PEAU_finddata64i32_t@@P6A_NAEBU1@0@Z@std@@YAXPEAU_finddata64i32_t@@0_JP6A_NAEBU1@2@Z@Z DD imagerel $LN208+506
	DD	imagerel $LN208+900
	DD	imagerel $chain$1$??$_Sort_unchecked@PEAU_finddata64i32_t@@P6A_NAEBU1@0@Z@std@@YAXPEAU_finddata64i32_t@@0_JP6A_NAEBU1@2@Z@Z
pdata	ENDS
;	COMDAT pdata
pdata	SEGMENT
$pdata$2$??$_Sort_unchecked@PEAU_finddata64i32_t@@P6A_NAEBU1@0@Z@std@@YAXPEAU_finddata64i32_t@@0_JP6A_NAEBU1@2@Z@Z DD imagerel $LN208+900
	DD	imagerel $LN208+1236
	DD	imagerel $chain$2$??$_Sort_unchecked@PEAU_finddata64i32_t@@P6A_NAEBU1@0@Z@std@@YAXPEAU_finddata64i32_t@@0_JP6A_NAEBU1@2@Z@Z
pdata	ENDS
;	COMDAT pdata
pdata	SEGMENT
$pdata$3$??$_Sort_unchecked@PEAU_finddata64i32_t@@P6A_NAEBU1@0@Z@std@@YAXPEAU_finddata64i32_t@@0_JP6A_NAEBU1@2@Z@Z DD imagerel $LN208+1236
	DD	imagerel $LN208+1267
	DD	imagerel $chain$3$??$_Sort_unchecked@PEAU_finddata64i32_t@@P6A_NAEBU1@0@Z@std@@YAXPEAU_finddata64i32_t@@0_JP6A_NAEBU1@2@Z@Z
pdata	ENDS
;	COMDAT pdata
pdata	SEGMENT
$pdata$??$_Emplace@AEBUfile@CLocatorAPI@@@?$_Tree@V?$_Tset_traits@Ufile@CLocatorAPI@@Ufile_pred@2@V?$xalloc@Ufile@CLocatorAPI@@@@$0A@@std@@@std@@IEAA?AU?$pair@PEAU?$_Tree_node@Ufile@CLocatorAPI@@PEAX@std@@_N@1@AEBUfile@CLocatorAPI@@@Z DD imagerel $LN122
	DD	imagerel $LN122+367
	DD	imagerel $unwind$??$_Emplace@AEBUfile@CLocatorAPI@@@?$_Tree@V?$_Tset_traits@Ufile@CLocatorAPI@@Ufile_pred@2@V?$xalloc@Ufile@CLocatorAPI@@@@$0A@@std@@@std@@IEAA?AU?$pair@PEAU?$_Tree_node@Ufile@CLocatorAPI@@PEAX@std@@_N@1@AEBUfile@CLocatorAPI@@@Z
pdata	ENDS
;	COMDAT pdata
pdata	SEGMENT
$pdata$?_Tidy@?$vector@PEADV?$xalloc@PEAD@@@std@@AEAAXXZ DD imagerel $LN29
	DD	imagerel $LN29+48
	DD	imagerel $unwind$?_Tidy@?$vector@PEADV?$xalloc@PEAD@@@std@@AEAAXXZ
pdata	ENDS
;	COMDAT pdata
pdata	SEGMENT
$pdata$??1?$vector@PEADV?$xalloc@PEAD@@@std@@QEAA@XZ DD imagerel $LN31
	DD	imagerel $LN31+48
	DD	imagerel $unwind$??1?$vector@PEADV?$xalloc@PEAD@@@std@@QEAA@XZ
pdata	ENDS
;	COMDAT pdata
pdata	SEGMENT
$pdata$?_Buy_raw@?$vector@U_finddata64i32_t@@V?$xalloc@U_finddata64i32_t@@@@@std@@AEAAX_K@Z DD imagerel $LN37
	DD	imagerel $LN37+118
	DD	imagerel $unwind$?_Buy_raw@?$vector@U_finddata64i32_t@@V?$xalloc@U_finddata64i32_t@@@@@std@@AEAAX_K@Z
pdata	ENDS
;	COMDAT pdata
pdata	SEGMENT
$pdata$??1?$xr_vector@PEADV?$xalloc@PEAD@@@@QEAA@XZ DD imagerel $LN34
	DD	imagerel $LN34+48
	DD	imagerel $unwind$??1?$xr_vector@PEADV?$xalloc@PEAD@@@@QEAA@XZ
pdata	ENDS
;	COMDAT pdata
pdata	SEGMENT
$pdata$?allocate@?$xalloc@U?$_Tree_node@Ufile@CLocatorAPI@@PEAX@std@@@@QEBAPEAU?$_Tree_node@Ufile@CLocatorAPI@@PEAX@std@@_KPEBX@Z DD imagerel $LN36
	DD	imagerel $LN36+56
	DD	imagerel $unwind$?allocate@?$xalloc@U?$_Tree_node@Ufile@CLocatorAPI@@PEAX@std@@@@QEBAPEAU?$_Tree_node@Ufile@CLocatorAPI@@PEAX@std@@_KPEBX@Z
pdata	ENDS
;	COMDAT pdata
pdata	SEGMENT
$pdata$?_Buy_nonzero@?$vector@U_finddata64i32_t@@V?$xalloc@U_finddata64i32_t@@@@@std@@AEAAX_K@Z DD imagerel $LN42
	DD	imagerel $LN42+44
	DD	imagerel $unwind$?_Buy_nonzero@?$vector@U_finddata64i32_t@@V?$xalloc@U_finddata64i32_t@@@@@std@@AEAAX_K@Z
pdata	ENDS
;	COMDAT pdata
pdata	SEGMENT
$pdata$0$?_Buy_nonzero@?$vector@U_finddata64i32_t@@V?$xalloc@U_finddata64i32_t@@@@@std@@AEAAX_K@Z DD imagerel $LN42+44
	DD	imagerel $LN42+49
	DD	imagerel $chain$0$?_Buy_nonzero@?$vector@U_finddata64i32_t@@V?$xalloc@U_finddata64i32_t@@@@@std@@AEAAX_K@Z
pdata	ENDS
;	COMDAT pdata
pdata	SEGMENT
$pdata$1$?_Buy_nonzero@?$vector@U_finddata64i32_t@@V?$xalloc@U_finddata64i32_t@@@@@std@@AEAAX_K@Z DD imagerel $LN42+49
	DD	imagerel $LN42+133
	DD	imagerel $chain$1$?_Buy_nonzero@?$vector@U_finddata64i32_t@@V?$xalloc@U_finddata64i32_t@@@@@std@@AEAAX_K@Z
pdata	ENDS
;	COMDAT pdata
pdata	SEGMENT
$pdata$3$?_Buy_nonzero@?$vector@U_finddata64i32_t@@V?$xalloc@U_finddata64i32_t@@@@@std@@AEAAX_K@Z DD imagerel $LN42+133
	DD	imagerel $LN42+139
	DD	imagerel $chain$3$?_Buy_nonzero@?$vector@U_finddata64i32_t@@V?$xalloc@U_finddata64i32_t@@@@@std@@AEAAX_K@Z
pdata	ENDS
;	COMDAT pdata
pdata	SEGMENT
$pdata$??R?$xr_special_free@$00VIWriter@@@@QEAAXAEAPEAVIWriter@@@Z DD imagerel $LN23
	DD	imagerel $LN23+61
	DD	imagerel $unwind$??R?$xr_special_free@$00VIWriter@@@@QEAAXAEAPEAVIWriter@@@Z
pdata	ENDS
;	COMDAT pdata
pdata	SEGMENT
$pdata$??R?$xr_special_free@$00VIReader@@@@QEAAXAEAPEAVIReader@@@Z DD imagerel $LN23
	DD	imagerel $LN23+61
	DD	imagerel $unwind$??R?$xr_special_free@$00VIReader@@@@QEAAXAEAPEAVIReader@@@Z
pdata	ENDS
;	COMDAT pdata
pdata	SEGMENT
$pdata$??1?$_Tidy_guard@V?$vector@U_finddata64i32_t@@V?$xalloc@U_finddata64i32_t@@@@@std@@@std@@QEAA@XZ DD imagerel $LN32
	DD	imagerel $LN32+53
	DD	imagerel $unwind$??1?$_Tidy_guard@V?$vector@U_finddata64i32_t@@V?$xalloc@U_finddata64i32_t@@@@@std@@@std@@QEAA@XZ
pdata	ENDS
;	COMDAT pdata
pdata	SEGMENT
$pdata$??_GCFileStreamReader@@UEAAPEAXI@Z DD imagerel $LN6
	DD	imagerel $LN6+43
	DD	imagerel $unwind$??_GCFileStreamReader@@UEAAPEAXI@Z
pdata	ENDS
;	COMDAT pdata
pdata	SEGMENT
$pdata$??$xr_free@V?$basic_string@DU?$char_traits@D@std@@V?$xalloc@D@@@std@@@@YAXAEAPEAV?$basic_string@DU?$char_traits@D@std@@V?$xalloc@D@@@std@@@Z DD imagerel $LN24
	DD	imagerel $LN24+42
	DD	imagerel $unwind$??$xr_free@V?$basic_string@DU?$char_traits@D@std@@V?$xalloc@D@@@std@@@@YAXAEAPEAV?$basic_string@DU?$char_traits@D@std@@V?$xalloc@D@@@std@@@Z
pdata	ENDS
;	COMDAT pdata
pdata	SEGMENT
$pdata$??$xr_free@Uarchive@CLocatorAPI@@@@YAXAEAPEAUarchive@CLocatorAPI@@@Z DD imagerel $LN24
	DD	imagerel $LN24+42
	DD	imagerel $unwind$??$xr_free@Uarchive@CLocatorAPI@@@@YAXAEAPEAUarchive@CLocatorAPI@@@Z
pdata	ENDS
;	COMDAT pdata
pdata	SEGMENT
$pdata$??$xr_alloc@U_finddata64i32_t@@@@YAPEAU_finddata64i32_t@@I@Z DD imagerel $LN34
	DD	imagerel $LN34+74
	DD	imagerel $unwind$??$xr_alloc@U_finddata64i32_t@@@@YAPEAU_finddata64i32_t@@I@Z
pdata	ENDS
;	COMDAT pdata
pdata	SEGMENT
$pdata$??$xr_free@U_finddata64i32_t@@@@YAXAEAPEAU_finddata64i32_t@@@Z DD imagerel $LN24
	DD	imagerel $LN24+42
	DD	imagerel $unwind$??$xr_free@U_finddata64i32_t@@@@YAXAEAPEAU_finddata64i32_t@@@Z
pdata	ENDS
;	COMDAT pdata
pdata	SEGMENT
$pdata$??$xr_free@U_open_file@@@@YAXAEAPEAU_open_file@@@Z DD imagerel $LN24
	DD	imagerel $LN24+42
	DD	imagerel $unwind$??$xr_free@U_open_file@@@@YAXAEAPEAU_open_file@@@Z
pdata	ENDS
;	COMDAT pdata
pdata	SEGMENT
$pdata$??$_Destroy_range@V?$xalloc@V?$basic_string@DU?$char_traits@D@std@@V?$xalloc@D@@@std@@@@@std@@YAXPEAV?$basic_string@DU?$char_traits@D@std@@V?$xalloc@D@@@0@QEAV10@AEAV?$xalloc@V?$basic_string@DU?$char_traits@D@std@@V?$xalloc@D@@@std@@@@@Z DD imagerel $LN51
	DD	imagerel $LN51+15
	DD	imagerel $unwind$??$_Destroy_range@V?$xalloc@V?$basic_string@DU?$char_traits@D@std@@V?$xalloc@D@@@std@@@@@std@@YAXPEAV?$basic_string@DU?$char_traits@D@std@@V?$xalloc@D@@@0@QEAV10@AEAV?$xalloc@V?$basic_string@DU?$char_traits@D@std@@V?$xalloc@D@@@std@@@@@Z
pdata	ENDS
;	COMDAT pdata
pdata	SEGMENT
$pdata$0$??$_Destroy_range@V?$xalloc@V?$basic_string@DU?$char_traits@D@std@@V?$xalloc@D@@@std@@@@@std@@YAXPEAV?$basic_string@DU?$char_traits@D@std@@V?$xalloc@D@@@0@QEAV10@AEAV?$xalloc@V?$basic_string@DU?$char_traits@D@std@@V?$xalloc@D@@@std@@@@@Z DD imagerel $LN51+15
	DD	imagerel $LN51+98
	DD	imagerel $chain$0$??$_Destroy_range@V?$xalloc@V?$basic_string@DU?$char_traits@D@std@@V?$xalloc@D@@@std@@@@@std@@YAXPEAV?$basic_string@DU?$char_traits@D@std@@V?$xalloc@D@@@0@QEAV10@AEAV?$xalloc@V?$basic_string@DU?$char_traits@D@std@@V?$xalloc@D@@@std@@@@@Z
pdata	ENDS
;	COMDAT pdata
pdata	SEGMENT
$pdata$1$??$_Destroy_range@V?$xalloc@V?$basic_string@DU?$char_traits@D@std@@V?$xalloc@D@@@std@@@@@std@@YAXPEAV?$basic_string@DU?$char_traits@D@std@@V?$xalloc@D@@@0@QEAV10@AEAV?$xalloc@V?$basic_string@DU?$char_traits@D@std@@V?$xalloc@D@@@std@@@@@Z DD imagerel $LN51+98
	DD	imagerel $LN51+99
	DD	imagerel $chain$1$??$_Destroy_range@V?$xalloc@V?$basic_string@DU?$char_traits@D@std@@V?$xalloc@D@@@std@@@@@std@@YAXPEAV?$basic_string@DU?$char_traits@D@std@@V?$xalloc@D@@@0@QEAV10@AEAV?$xalloc@V?$basic_string@DU?$char_traits@D@std@@V?$xalloc@D@@@std@@@@@Z
pdata	ENDS
;	COMDAT pdata
pdata	SEGMENT
$pdata$??$_Move_unchecked@PEAU_finddata64i32_t@@PEAU1@@std@@YAPEAU_finddata64i32_t@@PEAU1@00@Z DD imagerel $LN9
	DD	imagerel $LN9+48
	DD	imagerel $unwind$??$_Move_unchecked@PEAU_finddata64i32_t@@PEAU1@@std@@YAPEAU_finddata64i32_t@@PEAU1@00@Z
pdata	ENDS
;	COMDAT pdata
pdata	SEGMENT
$pdata$??$_Erase_head@V?$xalloc@U?$_Tree_node@U?$pair@QEBDPEAVFS_Path@@@std@@PEAX@std@@@@@?$_Tree_val@U?$_Tree_simple_types@U?$pair@QEBDPEAVFS_Path@@@std@@@std@@@std@@QEAAXAEAV?$xalloc@U?$_Tree_node@U?$pair@QEBDPEAVFS_Path@@@std@@PEAX@std@@@@@Z DD imagerel $LN553
	DD	imagerel $LN553+128
	DD	imagerel $unwind$??$_Erase_head@V?$xalloc@U?$_Tree_node@U?$pair@QEBDPEAVFS_Path@@@std@@PEAX@std@@@@@?$_Tree_val@U?$_Tree_simple_types@U?$pair@QEBDPEAVFS_Path@@@std@@@std@@@std@@QEAAXAEAV?$xalloc@U?$_Tree_node@U?$pair@QEBDPEAVFS_Path@@@std@@PEAX@std@@@@@Z
pdata	ENDS
;	COMDAT pdata
pdata	SEGMENT
$pdata$??$_Erase_tree@V?$xalloc@U?$_Tree_node@U?$pair@QEBDPEAVFS_Path@@@std@@PEAX@std@@@@@?$_Tree_val@U?$_Tree_simple_types@U?$pair@QEBDPEAVFS_Path@@@std@@@std@@@std@@QEAAXAEAV?$xalloc@U?$_Tree_node@U?$pair@QEBDPEAVFS_Path@@@std@@PEAX@std@@@@PEAU?$_Tree_node@U?$pair@QEBDPEAVFS_Path@@@std@@PEAX@1@@Z DD imagerel $LN523
	DD	imagerel $LN523+92
	DD	imagerel $unwind$??$_Erase_tree@V?$xalloc@U?$_Tree_node@U?$pair@QEBDPEAVFS_Path@@@std@@PEAX@std@@@@@?$_Tree_val@U?$_Tree_simple_types@U?$pair@QEBDPEAVFS_Path@@@std@@@std@@@std@@QEAAXAEAV?$xalloc@U?$_Tree_node@U?$pair@QEBDPEAVFS_Path@@@std@@PEAX@std@@@@PEAU?$_Tree_node@U?$pair@QEBDPEAVFS_Path@@@std@@PEAX@1@@Z
pdata	ENDS
;	COMDAT pdata
pdata	SEGMENT
$pdata$??$_Find@PEBD@?$_Tree@V?$_Tmap_traits@PEBDPEAVFS_Path@@Upred_str@@V?$xalloc@U?$pair@QEBDPEAVFS_Path@@@std@@@@$0A@@std@@@std@@AEBAPEAU?$_Tree_node@U?$pair@QEBDPEAVFS_Path@@@std@@PEAX@1@AEBQEBD@Z DD imagerel $LN31
	DD	imagerel $LN31+152
	DD	imagerel $unwind$??$_Find@PEBD@?$_Tree@V?$_Tmap_traits@PEBDPEAVFS_Path@@Upred_str@@V?$xalloc@U?$pair@QEBDPEAVFS_Path@@@std@@@@$0A@@std@@@std@@AEBAPEAU?$_Tree_node@U?$pair@QEBDPEAVFS_Path@@@std@@PEAX@1@AEBQEBD@Z
pdata	ENDS
;	COMDAT pdata
pdata	SEGMENT
$pdata$??$_Erase_head@V?$xalloc@U?$_Tree_node@Ufile@CLocatorAPI@@PEAX@std@@@@@?$_Tree_val@U?$_Tree_simple_types@Ufile@CLocatorAPI@@@std@@@std@@QEAAXAEAV?$xalloc@U?$_Tree_node@Ufile@CLocatorAPI@@PEAX@std@@@@@Z DD imagerel $LN553
	DD	imagerel $LN553+128
	DD	imagerel $unwind$??$_Erase_head@V?$xalloc@U?$_Tree_node@Ufile@CLocatorAPI@@PEAX@std@@@@@?$_Tree_val@U?$_Tree_simple_types@Ufile@CLocatorAPI@@@std@@@std@@QEAAXAEAV?$xalloc@U?$_Tree_node@Ufile@CLocatorAPI@@PEAX@std@@@@@Z
pdata	ENDS
;	COMDAT pdata
pdata	SEGMENT
$pdata$??$_Erase_tree@V?$xalloc@U?$_Tree_node@Ufile@CLocatorAPI@@PEAX@std@@@@@?$_Tree_val@U?$_Tree_simple_types@Ufile@CLocatorAPI@@@std@@@std@@QEAAXAEAV?$xalloc@U?$_Tree_node@Ufile@CLocatorAPI@@PEAX@std@@@@PEAU?$_Tree_node@Ufile@CLocatorAPI@@PEAX@1@@Z DD imagerel $LN523
	DD	imagerel $LN523+92
	DD	imagerel $unwind$??$_Erase_tree@V?$xalloc@U?$_Tree_node@Ufile@CLocatorAPI@@PEAX@std@@@@@?$_Tree_val@U?$_Tree_simple_types@Ufile@CLocatorAPI@@@std@@@std@@QEAAXAEAV?$xalloc@U?$_Tree_node@Ufile@CLocatorAPI@@PEAX@std@@@@PEAU?$_Tree_node@Ufile@CLocatorAPI@@PEAX@1@@Z
pdata	ENDS
;	COMDAT pdata
pdata	SEGMENT
$pdata$??$_Find@Ufile@CLocatorAPI@@@?$_Tree@V?$_Tset_traits@Ufile@CLocatorAPI@@Ufile_pred@2@V?$xalloc@Ufile@CLocatorAPI@@@@$0A@@std@@@std@@AEBAPEAU?$_Tree_node@Ufile@CLocatorAPI@@PEAX@1@AEBUfile@CLocatorAPI@@@Z DD imagerel $LN31
	DD	imagerel $LN31+152
	DD	imagerel $unwind$??$_Find@Ufile@CLocatorAPI@@@?$_Tree@V?$_Tset_traits@Ufile@CLocatorAPI@@Ufile_pred@2@V?$xalloc@Ufile@CLocatorAPI@@@@$0A@@std@@@std@@AEBAPEAU?$_Tree_node@Ufile@CLocatorAPI@@PEAX@1@AEBUfile@CLocatorAPI@@@Z
pdata	ENDS
;	COMDAT pdata
pdata	SEGMENT
$pdata$??$_Construct_n@AEBQEAU_finddata64i32_t@@AEBQEAU1@@?$vector@U_finddata64i32_t@@V?$xalloc@U_finddata64i32_t@@@@@std@@AEAAX_KAEBQEAU_finddata64i32_t@@1@Z DD imagerel $LN98
	DD	imagerel $LN98+67
	DD	imagerel $unwind$??$_Construct_n@AEBQEAU_finddata64i32_t@@AEBQEAU1@@?$vector@U_finddata64i32_t@@V?$xalloc@U_finddata64i32_t@@@@@std@@AEAAX_KAEBQEAU_finddata64i32_t@@1@Z
pdata	ENDS
;	COMDAT pdata
pdata	SEGMENT
$pdata$0$??$_Construct_n@AEBQEAU_finddata64i32_t@@AEBQEAU1@@?$vector@U_finddata64i32_t@@V?$xalloc@U_finddata64i32_t@@@@@std@@AEAAX_KAEBQEAU_finddata64i32_t@@1@Z DD imagerel $LN98+67
	DD	imagerel $LN98+72
	DD	imagerel $chain$0$??$_Construct_n@AEBQEAU_finddata64i32_t@@AEBQEAU1@@?$vector@U_finddata64i32_t@@V?$xalloc@U_finddata64i32_t@@@@@std@@AEAAX_KAEBQEAU_finddata64i32_t@@1@Z
pdata	ENDS
;	COMDAT pdata
pdata	SEGMENT
$pdata$1$??$_Construct_n@AEBQEAU_finddata64i32_t@@AEBQEAU1@@?$vector@U_finddata64i32_t@@V?$xalloc@U_finddata64i32_t@@@@@std@@AEAAX_KAEBQEAU_finddata64i32_t@@1@Z DD imagerel $LN98+72
	DD	imagerel $LN98+160
	DD	imagerel $chain$1$??$_Construct_n@AEBQEAU_finddata64i32_t@@AEBQEAU1@@?$vector@U_finddata64i32_t@@V?$xalloc@U_finddata64i32_t@@@@@std@@AEAAX_KAEBQEAU_finddata64i32_t@@1@Z
pdata	ENDS
;	COMDAT pdata
pdata	SEGMENT
$pdata$2$??$_Construct_n@AEBQEAU_finddata64i32_t@@AEBQEAU1@@?$vector@U_finddata64i32_t@@V?$xalloc@U_finddata64i32_t@@@@@std@@AEAAX_KAEBQEAU_finddata64i32_t@@1@Z DD imagerel $LN98+160
	DD	imagerel $LN98+347
	DD	imagerel $chain$2$??$_Construct_n@AEBQEAU_finddata64i32_t@@AEBQEAU1@@?$vector@U_finddata64i32_t@@V?$xalloc@U_finddata64i32_t@@@@@std@@AEAAX_KAEBQEAU_finddata64i32_t@@1@Z
pdata	ENDS
;	COMDAT pdata
pdata	SEGMENT
$pdata$3$??$_Construct_n@AEBQEAU_finddata64i32_t@@AEBQEAU1@@?$vector@U_finddata64i32_t@@V?$xalloc@U_finddata64i32_t@@@@@std@@AEAAX_KAEBQEAU_finddata64i32_t@@1@Z DD imagerel $LN98+347
	DD	imagerel $LN98+354
	DD	imagerel $chain$3$??$_Construct_n@AEBQEAU_finddata64i32_t@@AEBQEAU1@@?$vector@U_finddata64i32_t@@V?$xalloc@U_finddata64i32_t@@@@@std@@AEAAX_KAEBQEAU_finddata64i32_t@@1@Z
pdata	ENDS
;	COMDAT pdata
pdata	SEGMENT
$pdata$??$_unregister_open_file@VIReader@@@@YAXPEAVIReader@@@Z DD imagerel $LN68
	DD	imagerel $LN68+140
	DD	imagerel $unwind$??$_unregister_open_file@VIReader@@@@YAXPEAVIReader@@@Z
pdata	ENDS
;	COMDAT pdata
pdata	SEGMENT
$pdata$??$r_open_impl@VIReader@@@CLocatorAPI@@AEAAPEAVIReader@@PEBD0@Z DD imagerel $LN494
	DD	imagerel $LN494+622
	DD	imagerel $unwind$??$r_open_impl@VIReader@@@CLocatorAPI@@AEAAPEAVIReader@@PEBD0@Z
pdata	ENDS
;	COMDAT pdata
pdata	SEGMENT
$pdata$2$??$r_open_impl@VIReader@@@CLocatorAPI@@AEAAPEAVIReader@@PEBD0@Z DD imagerel $LN494+622
	DD	imagerel $LN494+1350
	DD	imagerel $chain$2$??$r_open_impl@VIReader@@@CLocatorAPI@@AEAAPEAVIReader@@PEBD0@Z
pdata	ENDS
;	COMDAT pdata
pdata	SEGMENT
$pdata$3$??$r_open_impl@VIReader@@@CLocatorAPI@@AEAAPEAVIReader@@PEBD0@Z DD imagerel $LN494+1350
	DD	imagerel $LN494+1439
	DD	imagerel $chain$3$??$r_open_impl@VIReader@@@CLocatorAPI@@AEAAPEAVIReader@@PEBD0@Z
pdata	ENDS
;	COMDAT pdata
pdata	SEGMENT
$pdata$4$??$r_open_impl@VIReader@@@CLocatorAPI@@AEAAPEAVIReader@@PEBD0@Z DD imagerel $LN494+1439
	DD	imagerel $LN494+1472
	DD	imagerel $chain$4$??$r_open_impl@VIReader@@@CLocatorAPI@@AEAAPEAVIReader@@PEBD0@Z
pdata	ENDS
;	COMDAT pdata
pdata	SEGMENT
$pdata$??$xr_new@VCPackReader@@PEAEPEAEI@@YAPEAVCPackReader@@AEBQEAE0AEBI@Z DD imagerel $LN40
	DD	imagerel $LN40+109
	DD	imagerel $unwind$??$xr_new@VCPackReader@@PEAEPEAEI@@YAPEAVCPackReader@@AEBQEAE0AEBI@Z
pdata	ENDS
;	COMDAT pdata
pdata	SEGMENT
$pdata$??$xr_new@VCTempReader@@PEADIH@@YAPEAVCTempReader@@AEBQEADAEBIAEBH@Z DD imagerel $LN40
	DD	imagerel $LN40+104
	DD	imagerel $unwind$??$xr_new@VCTempReader@@PEADIH@@YAPEAVCTempReader@@AEBQEADAEBIAEBH@Z
pdata	ENDS
;	COMDAT pdata
pdata	SEGMENT
$pdata$??$xr_delete@VIReader@@@@YAXAEAPEAVIReader@@@Z DD imagerel $LN26
	DD	imagerel $LN26+17
	DD	imagerel $unwind$??$xr_delete@VIReader@@@@YAXAEAPEAVIReader@@@Z
pdata	ENDS
;	COMDAT pdata
pdata	SEGMENT
$pdata$0$??$xr_delete@VIReader@@@@YAXAEAPEAVIReader@@@Z DD imagerel $LN26+17
	DD	imagerel $LN26+68
	DD	imagerel $chain$0$??$xr_delete@VIReader@@@@YAXAEAPEAVIReader@@@Z
pdata	ENDS
;	COMDAT pdata
pdata	SEGMENT
$pdata$1$??$xr_delete@VIReader@@@@YAXAEAPEAVIReader@@@Z DD imagerel $LN26+68
	DD	imagerel $LN26+74
	DD	imagerel $chain$1$??$xr_delete@VIReader@@@@YAXAEAPEAVIReader@@@Z
pdata	ENDS
;	COMDAT pdata
pdata	SEGMENT
$pdata$??$xr_delete@VIWriter@@@@YAXAEAPEAVIWriter@@@Z DD imagerel $LN26
	DD	imagerel $LN26+17
	DD	imagerel $unwind$??$xr_delete@VIWriter@@@@YAXAEAPEAVIWriter@@@Z
pdata	ENDS
;	COMDAT pdata
pdata	SEGMENT
$pdata$0$??$xr_delete@VIWriter@@@@YAXAEAPEAVIWriter@@@Z DD imagerel $LN26+17
	DD	imagerel $LN26+68
	DD	imagerel $chain$0$??$xr_delete@VIWriter@@@@YAXAEAPEAVIWriter@@@Z
pdata	ENDS
;	COMDAT pdata
pdata	SEGMENT
$pdata$1$??$xr_delete@VIWriter@@@@YAXAEAPEAVIWriter@@@Z DD imagerel $LN26+68
	DD	imagerel $LN26+74
	DD	imagerel $chain$1$??$xr_delete@VIWriter@@@@YAXAEAPEAVIWriter@@@Z
pdata	ENDS
;	COMDAT pdata
pdata	SEGMENT
$pdata$??$xr_new@VCFileWriter@@$$BY0CAI@D_N@@YAPEAVCFileWriter@@AEAY0CAI@$$CBDAEB_N@Z DD imagerel $LN33
	DD	imagerel $LN33+89
	DD	imagerel $unwind$??$xr_new@VCFileWriter@@$$BY0CAI@D_N@@YAPEAVCFileWriter@@AEAY0CAI@$$CBDAEB_N@Z
pdata	ENDS
;	COMDAT pdata
pdata	SEGMENT
$pdata$??$xr_new@VCVirtualFileReader@@PEAD@@YAPEAVCVirtualFileReader@@AEBQEAD@Z DD imagerel $LN33
	DD	imagerel $LN33+73
	DD	imagerel $unwind$??$xr_new@VCVirtualFileReader@@PEAD@@YAPEAVCVirtualFileReader@@AEBQEAD@Z
pdata	ENDS
;	COMDAT pdata
pdata	SEGMENT
$pdata$??$xr_new@VCFileReader@@PEAD@@YAPEAVCFileReader@@AEBQEAD@Z DD imagerel $LN57
	DD	imagerel $LN57+295
	DD	imagerel $unwind$??$xr_new@VCFileReader@@PEAD@@YAPEAVCFileReader@@AEBQEAD@Z
pdata	ENDS
;	COMDAT pdata
pdata	SEGMENT
$pdata$??$_GetItem@$0CAI@@@YAPEADPEBDHAEAY0CAI@DD0_N@Z DD imagerel $LN4
	DD	imagerel $LN4+30
	DD	imagerel $unwind$??$_GetItem@$0CAI@@@YAPEADPEBDHAEAY0CAI@DD0_N@Z
pdata	ENDS
;	COMDAT pdata
pdata	SEGMENT
$pdata$??$_register_open_file@VIReader@@@@YAXPEAVIReader@@PEBD@Z DD imagerel $LN223
	DD	imagerel $LN223+12
	DD	imagerel $unwind$??$_register_open_file@VIReader@@@@YAXPEAVIReader@@PEBD@Z
pdata	ENDS
;	COMDAT pdata
pdata	SEGMENT
$pdata$6$??$_register_open_file@VIReader@@@@YAXPEAVIReader@@PEBD@Z DD imagerel $LN223+12
	DD	imagerel $LN223+507
	DD	imagerel $chain$6$??$_register_open_file@VIReader@@@@YAXPEAVIReader@@PEBD@Z
pdata	ENDS
;	COMDAT pdata
pdata	SEGMENT
$pdata$7$??$_register_open_file@VIReader@@@@YAXPEAVIReader@@PEBD@Z DD imagerel $LN223+507
	DD	imagerel $LN223+528
	DD	imagerel $chain$7$??$_register_open_file@VIReader@@@@YAXPEAVIReader@@PEBD@Z
pdata	ENDS
;	COMDAT pdata
pdata	SEGMENT
$pdata$8$??$_register_open_file@VIReader@@@@YAXPEAVIReader@@PEBD@Z DD imagerel $LN223+528
	DD	imagerel $LN223+555
	DD	imagerel $chain$8$??$_register_open_file@VIReader@@@@YAXPEAVIReader@@PEBD@Z
pdata	ENDS
;	COMDAT pdata
pdata	SEGMENT
$pdata$9$??$_register_open_file@VIReader@@@@YAXPEAVIReader@@PEBD@Z DD imagerel $LN223+555
	DD	imagerel $LN223+812
	DD	imagerel $chain$9$??$_register_open_file@VIReader@@@@YAXPEAVIReader@@PEBD@Z
pdata	ENDS
;	COMDAT pdata
pdata	SEGMENT
$pdata$??$xr_new@VCInifile@@PEAVIReader@@$$BY0P@D@@YAPEAVCInifile@@AEBQEAVIReader@@AEAY0P@$$CBD@Z DD imagerel $LN84
	DD	imagerel $LN84+158
	DD	imagerel $unwind$??$xr_new@VCInifile@@PEAVIReader@@$$BY0P@D@@YAPEAVCInifile@@AEBQEAVIReader@@AEAY0P@$$CBD@Z
pdata	ENDS
;	COMDAT pdata
pdata	SEGMENT
$pdata$??$xr_new@VCTempReader@@PEAEIH@@YAPEAVCTempReader@@AEBQEAEAEBIAEBH@Z DD imagerel $LN40
	DD	imagerel $LN40+104
	DD	imagerel $unwind$??$xr_new@VCTempReader@@PEAEIH@@YAPEAVCTempReader@@AEBQEAEAEBIAEBH@Z
pdata	ENDS
;	COMDAT pdata
pdata	SEGMENT
$pdata$??$xr_alloc@E@@YAPEAEI@Z DD imagerel $LN34
	DD	imagerel $LN34+66
	DD	imagerel $unwind$??$xr_alloc@E@@YAPEAEI@Z
pdata	ENDS
;	COMDAT pdata
pdata	SEGMENT
$pdata$??$insert@$0A@$0A@@?$_Tree@V?$_Tset_traits@Ufile@CLocatorAPI@@Ufile_pred@2@V?$xalloc@Ufile@CLocatorAPI@@@@$0A@@std@@@std@@QEAA?AU?$pair@V?$_Tree_const_iterator@V?$_Tree_val@U?$_Tree_simple_types@Ufile@CLocatorAPI@@@std@@@std@@@std@@_N@1@AEBUfile@CLocatorAPI@@@Z DD imagerel $LN130
	DD	imagerel $LN130+366
	DD	imagerel $unwind$??$insert@$0A@$0A@@?$_Tree@V?$_Tset_traits@Ufile@CLocatorAPI@@Ufile_pred@2@V?$xalloc@Ufile@CLocatorAPI@@@@$0A@@std@@@std@@QEAA?AU?$pair@V?$_Tree_const_iterator@V?$_Tree_val@U?$_Tree_simple_types@Ufile@CLocatorAPI@@@std@@@std@@@std@@_N@1@AEBUfile@CLocatorAPI@@@Z
pdata	ENDS
;	COMDAT pdata
pdata	SEGMENT
$pdata$?_Extract@?$_Tree_val@U?$_Tree_simple_types@Ufile@CLocatorAPI@@@std@@@std@@QEAAPEAU?$_Tree_node@Ufile@CLocatorAPI@@PEAX@2@V?$_Tree_unchecked_const_iterator@V?$_Tree_val@U?$_Tree_simple_types@Ufile@CLocatorAPI@@@std@@@std@@U_Iterator_base0@2@@2@@Z DD imagerel $LN115
	DD	imagerel $LN115+435
	DD	imagerel $unwind$?_Extract@?$_Tree_val@U?$_Tree_simple_types@Ufile@CLocatorAPI@@@std@@@std@@QEAAPEAU?$_Tree_node@Ufile@CLocatorAPI@@PEAX@2@V?$_Tree_unchecked_const_iterator@V?$_Tree_val@U?$_Tree_simple_types@Ufile@CLocatorAPI@@@std@@@std@@U_Iterator_base0@2@@2@@Z
pdata	ENDS
;	COMDAT pdata
pdata	SEGMENT
$pdata$0$?_Extract@?$_Tree_val@U?$_Tree_simple_types@Ufile@CLocatorAPI@@@std@@@std@@QEAAPEAU?$_Tree_node@Ufile@CLocatorAPI@@PEAX@2@V?$_Tree_unchecked_const_iterator@V?$_Tree_val@U?$_Tree_simple_types@Ufile@CLocatorAPI@@@std@@@std@@U_Iterator_base0@2@@2@@Z DD imagerel $LN115+435
	DD	imagerel $LN115+935
	DD	imagerel $chain$0$?_Extract@?$_Tree_val@U?$_Tree_simple_types@Ufile@CLocatorAPI@@@std@@@std@@QEAAPEAU?$_Tree_node@Ufile@CLocatorAPI@@PEAX@2@V?$_Tree_unchecked_const_iterator@V?$_Tree_val@U?$_Tree_simple_types@Ufile@CLocatorAPI@@@std@@@std@@U_Iterator_base0@2@@2@@Z
pdata	ENDS
;	COMDAT pdata
pdata	SEGMENT
$pdata$1$?_Extract@?$_Tree_val@U?$_Tree_simple_types@Ufile@CLocatorAPI@@@std@@@std@@QEAAPEAU?$_Tree_node@Ufile@CLocatorAPI@@PEAX@2@V?$_Tree_unchecked_const_iterator@V?$_Tree_val@U?$_Tree_simple_types@Ufile@CLocatorAPI@@@std@@@std@@U_Iterator_base0@2@@2@@Z DD imagerel $LN115+935
	DD	imagerel $LN115+970
	DD	imagerel $chain$1$?_Extract@?$_Tree_val@U?$_Tree_simple_types@Ufile@CLocatorAPI@@@std@@@std@@QEAAPEAU?$_Tree_node@Ufile@CLocatorAPI@@PEAX@2@V?$_Tree_unchecked_const_iterator@V?$_Tree_val@U?$_Tree_simple_types@Ufile@CLocatorAPI@@@std@@@std@@U_Iterator_base0@2@@2@@Z
pdata	ENDS
;	COMDAT pdata
pdata	SEGMENT
$pdata$?allocate@?$xalloc@U_finddata64i32_t@@@@QEBAPEAU_finddata64i32_t@@_KPEBX@Z DD imagerel $LN36
	DD	imagerel $LN36+74
	DD	imagerel $unwind$?allocate@?$xalloc@U_finddata64i32_t@@@@QEBAPEAU_finddata64i32_t@@_KPEBX@Z
pdata	ENDS
;	COMDAT pdata
pdata	SEGMENT
$pdata$?_Change_array@?$vector@U_finddata64i32_t@@V?$xalloc@U_finddata64i32_t@@@@@std@@AEAAXQEAU_finddata64i32_t@@_K1@Z DD imagerel $LN29
	DD	imagerel $LN29+104
	DD	imagerel $unwind$?_Change_array@?$vector@U_finddata64i32_t@@V?$xalloc@U_finddata64i32_t@@@@@std@@AEAAXQEAU_finddata64i32_t@@_K1@Z
pdata	ENDS
;	COMDAT pdata
pdata	SEGMENT
$pdata$?_Tidy@?$vector@V?$basic_string@DU?$char_traits@D@std@@V?$xalloc@D@@@std@@V?$xalloc@V?$basic_string@DU?$char_traits@D@std@@V?$xalloc@D@@@std@@@@@std@@AEAAXXZ DD imagerel $LN29
	DD	imagerel $LN29+65
	DD	imagerel $unwind$?_Tidy@?$vector@V?$basic_string@DU?$char_traits@D@std@@V?$xalloc@D@@@std@@V?$xalloc@V?$basic_string@DU?$char_traits@D@std@@V?$xalloc@D@@@std@@@@@std@@AEAAXXZ
pdata	ENDS
;	COMDAT pdata
pdata	SEGMENT
$pdata$?_Tidy@?$vector@EV?$xalloc@E@@@std@@AEAAXXZ DD imagerel $LN29
	DD	imagerel $LN29+48
	DD	imagerel $unwind$?_Tidy@?$vector@EV?$xalloc@E@@@std@@AEAAXXZ
pdata	ENDS
;	COMDAT pdata
pdata	SEGMENT
$pdata$?_Tidy@?$vector@Uarchive@CLocatorAPI@@V?$xalloc@Uarchive@CLocatorAPI@@@@@std@@AEAAXXZ DD imagerel $LN54
	DD	imagerel $LN54+21
	DD	imagerel $unwind$?_Tidy@?$vector@Uarchive@CLocatorAPI@@V?$xalloc@Uarchive@CLocatorAPI@@@@@std@@AEAAXXZ
pdata	ENDS
;	COMDAT pdata
pdata	SEGMENT
$pdata$0$?_Tidy@?$vector@Uarchive@CLocatorAPI@@V?$xalloc@Uarchive@CLocatorAPI@@@@@std@@AEAAXXZ DD imagerel $LN54+21
	DD	imagerel $LN54+98
	DD	imagerel $chain$0$?_Tidy@?$vector@Uarchive@CLocatorAPI@@V?$xalloc@Uarchive@CLocatorAPI@@@@@std@@AEAAXXZ
pdata	ENDS
;	COMDAT pdata
pdata	SEGMENT
$pdata$1$?_Tidy@?$vector@Uarchive@CLocatorAPI@@V?$xalloc@Uarchive@CLocatorAPI@@@@@std@@AEAAXXZ DD imagerel $LN54+98
	DD	imagerel $LN54+104
	DD	imagerel $chain$1$?_Tidy@?$vector@Uarchive@CLocatorAPI@@V?$xalloc@Uarchive@CLocatorAPI@@@@@std@@AEAAXXZ
pdata	ENDS
;	COMDAT pdata
pdata	SEGMENT
$pdata$?_Erase_unchecked@?$_Tree@V?$_Tset_traits@Ufile@CLocatorAPI@@Ufile_pred@2@V?$xalloc@Ufile@CLocatorAPI@@@@$0A@@std@@@std@@AEAAPEAU?$_Tree_node@Ufile@CLocatorAPI@@PEAX@2@V?$_Tree_unchecked_const_iterator@V?$_Tree_val@U?$_Tree_simple_types@Ufile@CLocatorAPI@@@std@@@std@@U_Iterator_base0@2@@2@@Z DD imagerel $LN54
	DD	imagerel $LN54+116
	DD	imagerel $unwind$?_Erase_unchecked@?$_Tree@V?$_Tset_traits@Ufile@CLocatorAPI@@Ufile_pred@2@V?$xalloc@Ufile@CLocatorAPI@@@@$0A@@std@@@std@@AEAAPEAU?$_Tree_node@Ufile@CLocatorAPI@@PEAX@2@V?$_Tree_unchecked_const_iterator@V?$_Tree_val@U?$_Tree_simple_types@Ufile@CLocatorAPI@@@std@@@std@@U_Iterator_base0@2@@2@@Z
pdata	ENDS
;	COMDAT pdata
pdata	SEGMENT
$pdata$?_Reallocate_exactly@?$vector@U_finddata64i32_t@@V?$xalloc@U_finddata64i32_t@@@@@std@@AEAAX_K@Z DD imagerel $LN70
	DD	imagerel $LN70+180
	DD	imagerel $unwind$?_Reallocate_exactly@?$vector@U_finddata64i32_t@@V?$xalloc@U_finddata64i32_t@@@@@std@@AEAAX_K@Z
pdata	ENDS
;	COMDAT pdata
pdata	SEGMENT
$pdata$?catch$0@?0??_Reallocate_exactly@?$vector@U_finddata64i32_t@@V?$xalloc@U_finddata64i32_t@@@@@std@@AEAAX_K@Z@4HA DD imagerel ?catch$0@?0??_Reallocate_exactly@?$vector@U_finddata64i32_t@@V?$xalloc@U_finddata64i32_t@@@@@std@@AEAAX_K@Z@4HA
	DD	imagerel ?catch$0@?0??_Reallocate_exactly@?$vector@U_finddata64i32_t@@V?$xalloc@U_finddata64i32_t@@@@@std@@AEAAX_K@Z@4HA+32
	DD	imagerel $unwind$?catch$0@?0??_Reallocate_exactly@?$vector@U_finddata64i32_t@@V?$xalloc@U_finddata64i32_t@@@@@std@@AEAAX_K@Z@4HA
pdata	ENDS
;	COMDAT pdata
pdata	SEGMENT
$pdata$?erase@?$vector@U_finddata64i32_t@@V?$xalloc@U_finddata64i32_t@@@@@std@@QEAA?AV?$_Vector_iterator@V?$_Vector_val@U?$_Simple_types@U_finddata64i32_t@@@std@@@std@@@2@V?$_Vector_const_iterator@V?$_Vector_val@U?$_Simple_types@U_finddata64i32_t@@@std@@@std@@@2@0@Z DD imagerel $LN18
	DD	imagerel $LN18+29
	DD	imagerel $unwind$?erase@?$vector@U_finddata64i32_t@@V?$xalloc@U_finddata64i32_t@@@@@std@@QEAA?AV?$_Vector_iterator@V?$_Vector_val@U?$_Simple_types@U_finddata64i32_t@@@std@@@std@@@2@V?$_Vector_const_iterator@V?$_Vector_val@U?$_Simple_types@U_finddata64i32_t@@@std@@@std@@@2@0@Z
pdata	ENDS
;	COMDAT pdata
pdata	SEGMENT
$pdata$0$?erase@?$vector@U_finddata64i32_t@@V?$xalloc@U_finddata64i32_t@@@@@std@@QEAA?AV?$_Vector_iterator@V?$_Vector_val@U?$_Simple_types@U_finddata64i32_t@@@std@@@std@@@2@V?$_Vector_const_iterator@V?$_Vector_val@U?$_Simple_types@U_finddata64i32_t@@@std@@@std@@@2@0@Z DD imagerel $LN18+29
	DD	imagerel $LN18+90
	DD	imagerel $chain$0$?erase@?$vector@U_finddata64i32_t@@V?$xalloc@U_finddata64i32_t@@@@@std@@QEAA?AV?$_Vector_iterator@V?$_Vector_val@U?$_Simple_types@U_finddata64i32_t@@@std@@@std@@@2@V?$_Vector_const_iterator@V?$_Vector_val@U?$_Simple_types@U_finddata64i32_t@@@std@@@std@@@2@0@Z
pdata	ENDS
;	COMDAT pdata
pdata	SEGMENT
$pdata$1$?erase@?$vector@U_finddata64i32_t@@V?$xalloc@U_finddata64i32_t@@@@@std@@QEAA?AV?$_Vector_iterator@V?$_Vector_val@U?$_Simple_types@U_finddata64i32_t@@@std@@@std@@@2@V?$_Vector_const_iterator@V?$_Vector_val@U?$_Simple_types@U_finddata64i32_t@@@std@@@std@@@2@0@Z DD imagerel $LN18+90
	DD	imagerel $LN18+112
	DD	imagerel $chain$1$?erase@?$vector@U_finddata64i32_t@@V?$xalloc@U_finddata64i32_t@@@@@std@@QEAA?AV?$_Vector_iterator@V?$_Vector_val@U?$_Simple_types@U_finddata64i32_t@@@std@@@std@@@2@V?$_Vector_const_iterator@V?$_Vector_val@U?$_Simple_types@U_finddata64i32_t@@@std@@@std@@@2@0@Z
pdata	ENDS
;	COMDAT pdata
pdata	SEGMENT
$pdata$?_Tidy@?$vector@U_finddata64i32_t@@V?$xalloc@U_finddata64i32_t@@@@@std@@AEAAXXZ DD imagerel $LN29
	DD	imagerel $LN29+48
	DD	imagerel $unwind$?_Tidy@?$vector@U_finddata64i32_t@@V?$xalloc@U_finddata64i32_t@@@@@std@@AEAAXXZ
pdata	ENDS
;	COMDAT pdata
pdata	SEGMENT
$pdata$?_Xlength@?$vector@U_finddata64i32_t@@V?$xalloc@U_finddata64i32_t@@@@@std@@CAXXZ DD imagerel $LN4
	DD	imagerel $LN4+18
	DD	imagerel $unwind$?_Xlength@?$vector@U_finddata64i32_t@@V?$xalloc@U_finddata64i32_t@@@@@std@@CAXXZ
pdata	ENDS
;	COMDAT pdata
pdata	SEGMENT
$pdata$?_Tidy@?$vector@U_open_file@@V?$xalloc@U_open_file@@@@@std@@AEAAXXZ DD imagerel $LN54
	DD	imagerel $LN54+21
	DD	imagerel $unwind$?_Tidy@?$vector@U_open_file@@V?$xalloc@U_open_file@@@@@std@@AEAAXXZ
pdata	ENDS
;	COMDAT pdata
pdata	SEGMENT
$pdata$0$?_Tidy@?$vector@U_open_file@@V?$xalloc@U_open_file@@@@@std@@AEAAXXZ DD imagerel $LN54+21
	DD	imagerel $LN54+101
	DD	imagerel $chain$0$?_Tidy@?$vector@U_open_file@@V?$xalloc@U_open_file@@@@@std@@AEAAXXZ
pdata	ENDS
;	COMDAT pdata
pdata	SEGMENT
$pdata$1$?_Tidy@?$vector@U_open_file@@V?$xalloc@U_open_file@@@@@std@@AEAAXXZ DD imagerel $LN54+101
	DD	imagerel $LN54+107
	DD	imagerel $chain$1$?_Tidy@?$vector@U_open_file@@V?$xalloc@U_open_file@@@@@std@@AEAAXXZ
pdata	ENDS
;	COMDAT pdata
pdata	SEGMENT
$pdata$??_G?$IReaderBase@VCStreamReader@@@@UEAAPEAXI@Z DD imagerel $LN6
	DD	imagerel $LN6+43
	DD	imagerel $unwind$??_G?$IReaderBase@VCStreamReader@@@@UEAAPEAXI@Z
pdata	ENDS
;	COMDAT pdata
pdata	SEGMENT
$pdata$??1?$vector@V?$basic_string@DU?$char_traits@D@std@@V?$xalloc@D@@@std@@V?$xalloc@V?$basic_string@DU?$char_traits@D@std@@V?$xalloc@D@@@std@@@@@std@@QEAA@XZ DD imagerel $LN31
	DD	imagerel $LN31+65
	DD	imagerel $unwind$??1?$vector@V?$basic_string@DU?$char_traits@D@std@@V?$xalloc@D@@@std@@V?$xalloc@V?$basic_string@DU?$char_traits@D@std@@V?$xalloc@D@@@std@@@@@std@@QEAA@XZ
pdata	ENDS
;	COMDAT pdata
pdata	SEGMENT
$pdata$??1?$vector@EV?$xalloc@E@@@std@@QEAA@XZ DD imagerel $LN31
	DD	imagerel $LN31+48
	DD	imagerel $unwind$??1?$vector@EV?$xalloc@E@@@std@@QEAA@XZ
pdata	ENDS
;	COMDAT pdata
pdata	SEGMENT
$pdata$??1?$vector@Uarchive@CLocatorAPI@@V?$xalloc@Uarchive@CLocatorAPI@@@@@std@@QEAA@XZ DD imagerel $LN56
	DD	imagerel $LN56+21
	DD	imagerel $unwind$??1?$vector@Uarchive@CLocatorAPI@@V?$xalloc@Uarchive@CLocatorAPI@@@@@std@@QEAA@XZ
pdata	ENDS
;	COMDAT pdata
pdata	SEGMENT
$pdata$0$??1?$vector@Uarchive@CLocatorAPI@@V?$xalloc@Uarchive@CLocatorAPI@@@@@std@@QEAA@XZ DD imagerel $LN56+21
	DD	imagerel $LN56+98
	DD	imagerel $chain$0$??1?$vector@Uarchive@CLocatorAPI@@V?$xalloc@Uarchive@CLocatorAPI@@@@@std@@QEAA@XZ
pdata	ENDS
;	COMDAT pdata
pdata	SEGMENT
$pdata$1$??1?$vector@Uarchive@CLocatorAPI@@V?$xalloc@Uarchive@CLocatorAPI@@@@@std@@QEAA@XZ DD imagerel $LN56+98
	DD	imagerel $LN56+104
	DD	imagerel $chain$1$??1?$vector@Uarchive@CLocatorAPI@@V?$xalloc@Uarchive@CLocatorAPI@@@@@std@@QEAA@XZ
pdata	ENDS
;	COMDAT pdata
pdata	SEGMENT
$pdata$??1?$_Tree@V?$_Tmap_traits@PEBDPEAVFS_Path@@Upred_str@@V?$xalloc@U?$pair@QEBDPEAVFS_Path@@@std@@@@$0A@@std@@@std@@QEAA@XZ DD imagerel $LN555
	DD	imagerel $LN555+107
	DD	imagerel $unwind$??1?$_Tree@V?$_Tmap_traits@PEBDPEAVFS_Path@@Upred_str@@V?$xalloc@U?$pair@QEBDPEAVFS_Path@@@std@@@@$0A@@std@@@std@@QEAA@XZ
pdata	ENDS
;	COMDAT pdata
pdata	SEGMENT
$pdata$?find@?$_Tree@V?$_Tmap_traits@PEBDPEAVFS_Path@@Upred_str@@V?$xalloc@U?$pair@QEBDPEAVFS_Path@@@std@@@@$0A@@std@@@std@@QEAA?AV?$_Tree_iterator@V?$_Tree_val@U?$_Tree_simple_types@U?$pair@QEBDPEAVFS_Path@@@std@@@std@@@std@@@2@AEBQEBD@Z DD imagerel $LN40
	DD	imagerel $LN40+29
	DD	imagerel $unwind$?find@?$_Tree@V?$_Tmap_traits@PEBDPEAVFS_Path@@Upred_str@@V?$xalloc@U?$pair@QEBDPEAVFS_Path@@@std@@@@$0A@@std@@@std@@QEAA?AV?$_Tree_iterator@V?$_Tree_val@U?$_Tree_simple_types@U?$pair@QEBDPEAVFS_Path@@@std@@@std@@@std@@@2@AEBQEBD@Z
pdata	ENDS
;	COMDAT pdata
pdata	SEGMENT
$pdata$0$?find@?$_Tree@V?$_Tmap_traits@PEBDPEAVFS_Path@@Upred_str@@V?$xalloc@U?$pair@QEBDPEAVFS_Path@@@std@@@@$0A@@std@@@std@@QEAA?AV?$_Tree_iterator@V?$_Tree_val@U?$_Tree_simple_types@U?$pair@QEBDPEAVFS_Path@@@std@@@std@@@std@@@2@AEBQEBD@Z DD imagerel $LN40+29
	DD	imagerel $LN40+111
	DD	imagerel $chain$0$?find@?$_Tree@V?$_Tmap_traits@PEBDPEAVFS_Path@@Upred_str@@V?$xalloc@U?$pair@QEBDPEAVFS_Path@@@std@@@@$0A@@std@@@std@@QEAA?AV?$_Tree_iterator@V?$_Tree_val@U?$_Tree_simple_types@U?$pair@QEBDPEAVFS_Path@@@std@@@std@@@std@@@2@AEBQEBD@Z
pdata	ENDS
;	COMDAT pdata
pdata	SEGMENT
$pdata$1$?find@?$_Tree@V?$_Tmap_traits@PEBDPEAVFS_Path@@Upred_str@@V?$xalloc@U?$pair@QEBDPEAVFS_Path@@@std@@@@$0A@@std@@@std@@QEAA?AV?$_Tree_iterator@V?$_Tree_val@U?$_Tree_simple_types@U?$pair@QEBDPEAVFS_Path@@@std@@@std@@@std@@@2@AEBQEBD@Z DD imagerel $LN40+111
	DD	imagerel $LN40+177
	DD	imagerel $chain$1$?find@?$_Tree@V?$_Tmap_traits@PEBDPEAVFS_Path@@Upred_str@@V?$xalloc@U?$pair@QEBDPEAVFS_Path@@@std@@@@$0A@@std@@@std@@QEAA?AV?$_Tree_iterator@V?$_Tree_val@U?$_Tree_simple_types@U?$pair@QEBDPEAVFS_Path@@@std@@@std@@@std@@@2@AEBQEBD@Z
pdata	ENDS
;	COMDAT pdata
pdata	SEGMENT
$pdata$??1?$_Tree@V?$_Tset_traits@Ufile@CLocatorAPI@@Ufile_pred@2@V?$xalloc@Ufile@CLocatorAPI@@@@$0A@@std@@@std@@QEAA@XZ DD imagerel $LN555
	DD	imagerel $LN555+107
	DD	imagerel $unwind$??1?$_Tree@V?$_Tset_traits@Ufile@CLocatorAPI@@Ufile_pred@2@V?$xalloc@Ufile@CLocatorAPI@@@@$0A@@std@@@std@@QEAA@XZ
pdata	ENDS
;	COMDAT pdata
pdata	SEGMENT
$pdata$?erase@?$_Tree@V?$_Tset_traits@Ufile@CLocatorAPI@@Ufile_pred@2@V?$xalloc@Ufile@CLocatorAPI@@@@$0A@@std@@@std@@QEAA?AV?$_Tree_const_iterator@V?$_Tree_val@U?$_Tree_simple_types@Ufile@CLocatorAPI@@@std@@@std@@@2@V32@@Z DD imagerel $LN12
	DD	imagerel $LN12+29
	DD	imagerel $unwind$?erase@?$_Tree@V?$_Tset_traits@Ufile@CLocatorAPI@@Ufile_pred@2@V?$xalloc@Ufile@CLocatorAPI@@@@$0A@@std@@@std@@QEAA?AV?$_Tree_const_iterator@V?$_Tree_val@U?$_Tree_simple_types@Ufile@CLocatorAPI@@@std@@@std@@@2@V32@@Z
pdata	ENDS
;	COMDAT pdata
pdata	SEGMENT
$pdata$?find@?$_Tree@V?$_Tset_traits@Ufile@CLocatorAPI@@Ufile_pred@2@V?$xalloc@Ufile@CLocatorAPI@@@@$0A@@std@@@std@@QEAA?AV?$_Tree_const_iterator@V?$_Tree_val@U?$_Tree_simple_types@Ufile@CLocatorAPI@@@std@@@std@@@2@AEBUfile@CLocatorAPI@@@Z DD imagerel $LN38
	DD	imagerel $LN38+29
	DD	imagerel $unwind$?find@?$_Tree@V?$_Tset_traits@Ufile@CLocatorAPI@@Ufile_pred@2@V?$xalloc@Ufile@CLocatorAPI@@@@$0A@@std@@@std@@QEAA?AV?$_Tree_const_iterator@V?$_Tree_val@U?$_Tree_simple_types@Ufile@CLocatorAPI@@@std@@@std@@@2@AEBUfile@CLocatorAPI@@@Z
pdata	ENDS
;	COMDAT pdata
pdata	SEGMENT
$pdata$0$?find@?$_Tree@V?$_Tset_traits@Ufile@CLocatorAPI@@Ufile_pred@2@V?$xalloc@Ufile@CLocatorAPI@@@@$0A@@std@@@std@@QEAA?AV?$_Tree_const_iterator@V?$_Tree_val@U?$_Tree_simple_types@Ufile@CLocatorAPI@@@std@@@std@@@2@AEBUfile@CLocatorAPI@@@Z DD imagerel $LN38+29
	DD	imagerel $LN38+111
	DD	imagerel $chain$0$?find@?$_Tree@V?$_Tset_traits@Ufile@CLocatorAPI@@Ufile_pred@2@V?$xalloc@Ufile@CLocatorAPI@@@@$0A@@std@@@std@@QEAA?AV?$_Tree_const_iterator@V?$_Tree_val@U?$_Tree_simple_types@Ufile@CLocatorAPI@@@std@@@std@@@2@AEBUfile@CLocatorAPI@@@Z
pdata	ENDS
;	COMDAT pdata
pdata	SEGMENT
$pdata$1$?find@?$_Tree@V?$_Tset_traits@Ufile@CLocatorAPI@@Ufile_pred@2@V?$xalloc@Ufile@CLocatorAPI@@@@$0A@@std@@@std@@QEAA?AV?$_Tree_const_iterator@V?$_Tree_val@U?$_Tree_simple_types@Ufile@CLocatorAPI@@@std@@@std@@@2@AEBUfile@CLocatorAPI@@@Z DD imagerel $LN38+111
	DD	imagerel $LN38+177
	DD	imagerel $chain$1$?find@?$_Tree@V?$_Tset_traits@Ufile@CLocatorAPI@@Ufile_pred@2@V?$xalloc@Ufile@CLocatorAPI@@@@$0A@@std@@@std@@QEAA?AV?$_Tree_const_iterator@V?$_Tree_val@U?$_Tree_simple_types@Ufile@CLocatorAPI@@@std@@@std@@@2@AEBUfile@CLocatorAPI@@@Z
pdata	ENDS
;	COMDAT pdata
pdata	SEGMENT
$pdata$?lower_bound@?$_Tree@V?$_Tset_traits@Ufile@CLocatorAPI@@Ufile_pred@2@V?$xalloc@Ufile@CLocatorAPI@@@@$0A@@std@@@std@@QEAA?AV?$_Tree_const_iterator@V?$_Tree_val@U?$_Tree_simple_types@Ufile@CLocatorAPI@@@std@@@std@@@2@AEBUfile@CLocatorAPI@@@Z DD imagerel $LN25
	DD	imagerel $LN25+21
	DD	imagerel $unwind$?lower_bound@?$_Tree@V?$_Tset_traits@Ufile@CLocatorAPI@@Ufile_pred@2@V?$xalloc@Ufile@CLocatorAPI@@@@$0A@@std@@@std@@QEAA?AV?$_Tree_const_iterator@V?$_Tree_val@U?$_Tree_simple_types@Ufile@CLocatorAPI@@@std@@@std@@@2@AEBUfile@CLocatorAPI@@@Z
pdata	ENDS
;	COMDAT pdata
pdata	SEGMENT
$pdata$0$?lower_bound@?$_Tree@V?$_Tset_traits@Ufile@CLocatorAPI@@Ufile_pred@2@V?$xalloc@Ufile@CLocatorAPI@@@@$0A@@std@@@std@@QEAA?AV?$_Tree_const_iterator@V?$_Tree_val@U?$_Tree_simple_types@Ufile@CLocatorAPI@@@std@@@std@@@2@AEBUfile@CLocatorAPI@@@Z DD imagerel $LN25+21
	DD	imagerel $LN25+105
	DD	imagerel $chain$0$?lower_bound@?$_Tree@V?$_Tset_traits@Ufile@CLocatorAPI@@Ufile_pred@2@V?$xalloc@Ufile@CLocatorAPI@@@@$0A@@std@@@std@@QEAA?AV?$_Tree_const_iterator@V?$_Tree_val@U?$_Tree_simple_types@Ufile@CLocatorAPI@@@std@@@std@@@2@AEBUfile@CLocatorAPI@@@Z
pdata	ENDS
;	COMDAT pdata
pdata	SEGMENT
$pdata$1$?lower_bound@?$_Tree@V?$_Tset_traits@Ufile@CLocatorAPI@@Ufile_pred@2@V?$xalloc@Ufile@CLocatorAPI@@@@$0A@@std@@@std@@QEAA?AV?$_Tree_const_iterator@V?$_Tree_val@U?$_Tree_simple_types@Ufile@CLocatorAPI@@@std@@@std@@@2@AEBUfile@CLocatorAPI@@@Z DD imagerel $LN25+105
	DD	imagerel $LN25+116
	DD	imagerel $chain$1$?lower_bound@?$_Tree@V?$_Tset_traits@Ufile@CLocatorAPI@@Ufile_pred@2@V?$xalloc@Ufile@CLocatorAPI@@@@$0A@@std@@@std@@QEAA?AV?$_Tree_const_iterator@V?$_Tree_val@U?$_Tree_simple_types@Ufile@CLocatorAPI@@@std@@@std@@@2@AEBUfile@CLocatorAPI@@@Z
pdata	ENDS
;	COMDAT pdata
pdata	SEGMENT
$pdata$??0?$vector@U_finddata64i32_t@@V?$xalloc@U_finddata64i32_t@@@@@std@@QEAA@AEBV01@@Z DD imagerel $LN104
	DD	imagerel $LN104+101
	DD	imagerel $unwind$??0?$vector@U_finddata64i32_t@@V?$xalloc@U_finddata64i32_t@@@@@std@@QEAA@AEBV01@@Z
pdata	ENDS
;	COMDAT pdata
pdata	SEGMENT
$pdata$0$??0?$vector@U_finddata64i32_t@@V?$xalloc@U_finddata64i32_t@@@@@std@@QEAA@AEBV01@@Z DD imagerel $LN104+101
	DD	imagerel $LN104+106
	DD	imagerel $chain$0$??0?$vector@U_finddata64i32_t@@V?$xalloc@U_finddata64i32_t@@@@@std@@QEAA@AEBV01@@Z
pdata	ENDS
;	COMDAT pdata
pdata	SEGMENT
$pdata$1$??0?$vector@U_finddata64i32_t@@V?$xalloc@U_finddata64i32_t@@@@@std@@QEAA@AEBV01@@Z DD imagerel $LN104+106
	DD	imagerel $LN104+192
	DD	imagerel $chain$1$??0?$vector@U_finddata64i32_t@@V?$xalloc@U_finddata64i32_t@@@@@std@@QEAA@AEBV01@@Z
pdata	ENDS
;	COMDAT pdata
pdata	SEGMENT
$pdata$2$??0?$vector@U_finddata64i32_t@@V?$xalloc@U_finddata64i32_t@@@@@std@@QEAA@AEBV01@@Z DD imagerel $LN104+192
	DD	imagerel $LN104+365
	DD	imagerel $chain$2$??0?$vector@U_finddata64i32_t@@V?$xalloc@U_finddata64i32_t@@@@@std@@QEAA@AEBV01@@Z
pdata	ENDS
;	COMDAT pdata
pdata	SEGMENT
$pdata$3$??0?$vector@U_finddata64i32_t@@V?$xalloc@U_finddata64i32_t@@@@@std@@QEAA@AEBV01@@Z DD imagerel $LN104+365
	DD	imagerel $LN104+391
	DD	imagerel $chain$3$??0?$vector@U_finddata64i32_t@@V?$xalloc@U_finddata64i32_t@@@@@std@@QEAA@AEBV01@@Z
pdata	ENDS
;	COMDAT pdata
pdata	SEGMENT
$pdata$??1?$vector@U_finddata64i32_t@@V?$xalloc@U_finddata64i32_t@@@@@std@@QEAA@XZ DD imagerel $LN31
	DD	imagerel $LN31+48
	DD	imagerel $unwind$??1?$vector@U_finddata64i32_t@@V?$xalloc@U_finddata64i32_t@@@@@std@@QEAA@XZ
pdata	ENDS
;	COMDAT pdata
pdata	SEGMENT
$pdata$??1?$vector@U_open_file@@V?$xalloc@U_open_file@@@@@std@@QEAA@XZ DD imagerel $LN56
	DD	imagerel $LN56+21
	DD	imagerel $unwind$??1?$vector@U_open_file@@V?$xalloc@U_open_file@@@@@std@@QEAA@XZ
pdata	ENDS
;	COMDAT pdata
pdata	SEGMENT
$pdata$0$??1?$vector@U_open_file@@V?$xalloc@U_open_file@@@@@std@@QEAA@XZ DD imagerel $LN56+21
	DD	imagerel $LN56+101
	DD	imagerel $chain$0$??1?$vector@U_open_file@@V?$xalloc@U_open_file@@@@@std@@QEAA@XZ
pdata	ENDS
;	COMDAT pdata
pdata	SEGMENT
$pdata$1$??1?$vector@U_open_file@@V?$xalloc@U_open_file@@@@@std@@QEAA@XZ DD imagerel $LN56+101
	DD	imagerel $LN56+107
	DD	imagerel $chain$1$??1?$vector@U_open_file@@V?$xalloc@U_open_file@@@@@std@@QEAA@XZ
pdata	ENDS
;	COMDAT pdata
pdata	SEGMENT
$pdata$??E?$_Tree_const_iterator@V?$_Tree_val@U?$_Tree_simple_types@Ufile@CLocatorAPI@@@std@@@std@@@std@@QEAAAEAV01@XZ DD imagerel $LN4
	DD	imagerel $LN4+20
	DD	imagerel $unwind$??E?$_Tree_const_iterator@V?$_Tree_val@U?$_Tree_simple_types@Ufile@CLocatorAPI@@@std@@@std@@@std@@QEAAAEAV01@XZ
pdata	ENDS
;	COMDAT pdata
pdata	SEGMENT
$pdata$??E?$_Tree_const_iterator@V?$_Tree_val@U?$_Tree_simple_types@Ufile@CLocatorAPI@@@std@@@std@@@std@@QEAA?AV01@H@Z DD imagerel $LN6
	DD	imagerel $LN6+26
	DD	imagerel $unwind$??E?$_Tree_const_iterator@V?$_Tree_val@U?$_Tree_simple_types@Ufile@CLocatorAPI@@@std@@@std@@@std@@QEAA?AV01@H@Z
pdata	ENDS
pdata	SEGMENT
$pdata$?check_pathes@CLocatorAPI@@AEAAXXZ DD imagerel $LN17
	DD	imagerel $LN17+64
	DD	imagerel $unwind$?check_pathes@CLocatorAPI@@AEAAXXZ
$pdata$?rescan_pathes@CLocatorAPI@@QEAAXXZ DD imagerel $LN73
	DD	imagerel $LN73+29
	DD	imagerel $unwind$?rescan_pathes@CLocatorAPI@@QEAAXXZ
$pdata$0$?rescan_pathes@CLocatorAPI@@QEAAXXZ DD imagerel $LN73+29
	DD	imagerel $LN73+154
	DD	imagerel $chain$0$?rescan_pathes@CLocatorAPI@@QEAAXXZ
$pdata$1$?rescan_pathes@CLocatorAPI@@QEAAXXZ DD imagerel $LN73+154
	DD	imagerel $LN73+165
	DD	imagerel $chain$1$?rescan_pathes@CLocatorAPI@@QEAAXXZ
$pdata$?rescan_path@CLocatorAPI@@QEAAXPEBDH@Z DD imagerel $LN119
	DD	imagerel $LN119+115
	DD	imagerel $unwind$?rescan_path@CLocatorAPI@@QEAAXPEBDH@Z
$pdata$2$?rescan_path@CLocatorAPI@@QEAAXPEBDH@Z DD imagerel $LN119+115
	DD	imagerel $LN119+389
	DD	imagerel $chain$2$?rescan_path@CLocatorAPI@@QEAAXPEBDH@Z
$pdata$3$?rescan_path@CLocatorAPI@@QEAAXPEBDH@Z DD imagerel $LN119+389
	DD	imagerel $LN119+402
	DD	imagerel $chain$3$?rescan_path@CLocatorAPI@@QEAAXPEBDH@Z
$pdata$?get_path@CLocatorAPI@@QEAAPEAVFS_Path@@PEBD@Z DD imagerel $LN67
	DD	imagerel $LN67+220
	DD	imagerel $unwind$?get_path@CLocatorAPI@@QEAAPEAVFS_Path@@PEBD@Z
$pdata$?file_find_it@CLocatorAPI@@AEAA?AV?$_Tree_const_iterator@V?$_Tree_val@U?$_Tree_simple_types@Ufile@CLocatorAPI@@@std@@@std@@@std@@PEBD@Z DD imagerel $LN24
	DD	imagerel $LN24+145
	DD	imagerel $unwind$?file_find_it@CLocatorAPI@@AEAA?AV?$_Tree_const_iterator@V?$_Tree_val@U?$_Tree_simple_types@Ufile@CLocatorAPI@@@std@@@std@@@std@@PEBD@Z
$pdata$?w_open_ex@CLocatorAPI@@QEAAPEAVIWriter@@PEBD0@Z DD imagerel $LN224
	DD	imagerel $LN224+20
	DD	imagerel $unwind$?w_open_ex@CLocatorAPI@@QEAAPEAVIWriter@@PEBD0@Z
$pdata$2$?w_open_ex@CLocatorAPI@@QEAAPEAVIWriter@@PEBD0@Z DD imagerel $LN224+20
	DD	imagerel $LN224+374
	DD	imagerel $chain$2$?w_open_ex@CLocatorAPI@@QEAAPEAVIWriter@@PEBD0@Z
$pdata$3$?w_open_ex@CLocatorAPI@@QEAAPEAVIWriter@@PEBD0@Z DD imagerel $LN224+374
	DD	imagerel $LN224+484
	DD	imagerel $chain$3$?w_open_ex@CLocatorAPI@@QEAAPEAVIWriter@@PEBD0@Z
$pdata$4$?w_open_ex@CLocatorAPI@@QEAAPEAVIWriter@@PEBD0@Z DD imagerel $LN224+484
	DD	imagerel $LN224+527
	DD	imagerel $chain$4$?w_open_ex@CLocatorAPI@@QEAAPEAVIWriter@@PEBD0@Z
$pdata$5$?w_open_ex@CLocatorAPI@@QEAAPEAVIWriter@@PEBD0@Z DD imagerel $LN224+527
	DD	imagerel $LN224+658
	DD	imagerel $chain$5$?w_open_ex@CLocatorAPI@@QEAAPEAVIWriter@@PEBD0@Z
$pdata$?r_close@CLocatorAPI@@QEAAXAEAPEAVIReader@@@Z DD imagerel $LN97
	DD	imagerel $LN97+30
	DD	imagerel $unwind$?r_close@CLocatorAPI@@QEAAXAEAPEAVIReader@@@Z
$pdata$0$?r_close@CLocatorAPI@@QEAAXAEAPEAVIReader@@@Z DD imagerel $LN97+30
	DD	imagerel $LN97+145
	DD	imagerel $chain$0$?r_close@CLocatorAPI@@QEAAXAEAPEAVIReader@@@Z
$pdata$1$?r_close@CLocatorAPI@@QEAAXAEAPEAVIReader@@@Z DD imagerel $LN97+145
	DD	imagerel $LN97+220
	DD	imagerel $chain$1$?r_close@CLocatorAPI@@QEAAXAEAPEAVIReader@@@Z
$pdata$?check_for_file@CLocatorAPI@@AEAA_NPEBD0AEAY0CAI@DAEAPEBUfile@1@@Z DD imagerel $LN75
	DD	imagerel $LN75+278
	DD	imagerel $unwind$?check_for_file@CLocatorAPI@@AEAA_NPEBD0AEAY0CAI@DAEAPEBUfile@1@@Z
$pdata$?file_from_archive@CLocatorAPI@@AEAAXAEAPEAVIReader@@PEBDAEBUfile@1@@Z DD imagerel $LN297
	DD	imagerel $LN297+586
	DD	imagerel $unwind$?file_from_archive@CLocatorAPI@@AEAAXAEAPEAVIReader@@PEBDAEBUfile@1@@Z
$pdata$?file_from_cache_impl@CLocatorAPI@@AEAAXAEAPEAVIReader@@PEADAEBUfile@1@@Z DD imagerel $LN37
	DD	imagerel $LN37+127
	DD	imagerel $unwind$?file_from_cache_impl@CLocatorAPI@@AEAAXAEAPEAVIReader@@PEADAEBUfile@1@@Z
pdata	ENDS
;	COMDAT pdata
pdata	SEGMENT
$pdata$??1FS_File@@QEAA@XZ DD imagerel $LN36
	DD	imagerel $LN36+63
	DD	imagerel $unwind$??1FS_File@@QEAA@XZ
pdata	ENDS
;	COMDAT pdata
pdata	SEGMENT
$pdata$??1?$xr_vector@V?$basic_string@DU?$char_traits@D@std@@V?$xalloc@D@@@std@@V?$xalloc@V?$basic_string@DU?$char_traits@D@std@@V?$xalloc@D@@@std@@@@@@QEAA@XZ DD imagerel $LN34
	DD	imagerel $LN34+65
	DD	imagerel $unwind$??1?$xr_vector@V?$basic_string@DU?$char_traits@D@std@@V?$xalloc@D@@@std@@V?$xalloc@V?$basic_string@DU?$char_traits@D@std@@V?$xalloc@D@@@std@@@@@@QEAA@XZ
pdata	ENDS
pdata	SEGMENT
$pdata$?exist@CLocatorAPI@@QEAAPEBUfile@1@PEBD@Z DD imagerel $LN73
	DD	imagerel $LN73+51
	DD	imagerel $unwind$?exist@CLocatorAPI@@QEAAPEBUfile@1@PEBD@Z
pdata	ENDS
;	COMDAT pdata
pdata	SEGMENT
$pdata$??0?$xr_vector@U_finddata64i32_t@@V?$xalloc@U_finddata64i32_t@@@@@@QEAA@AEBV0@@Z DD imagerel $LN107
	DD	imagerel $LN107+101
	DD	imagerel $unwind$??0?$xr_vector@U_finddata64i32_t@@V?$xalloc@U_finddata64i32_t@@@@@@QEAA@AEBV0@@Z
pdata	ENDS
;	COMDAT pdata
pdata	SEGMENT
$pdata$0$??0?$xr_vector@U_finddata64i32_t@@V?$xalloc@U_finddata64i32_t@@@@@@QEAA@AEBV0@@Z DD imagerel $LN107+101
	DD	imagerel $LN107+106
	DD	imagerel $chain$0$??0?$xr_vector@U_finddata64i32_t@@V?$xalloc@U_finddata64i32_t@@@@@@QEAA@AEBV0@@Z
pdata	ENDS
;	COMDAT pdata
pdata	SEGMENT
$pdata$1$??0?$xr_vector@U_finddata64i32_t@@V?$xalloc@U_finddata64i32_t@@@@@@QEAA@AEBV0@@Z DD imagerel $LN107+106
	DD	imagerel $LN107+192
	DD	imagerel $chain$1$??0?$xr_vector@U_finddata64i32_t@@V?$xalloc@U_finddata64i32_t@@@@@@QEAA@AEBV0@@Z
pdata	ENDS
;	COMDAT pdata
pdata	SEGMENT
$pdata$2$??0?$xr_vector@U_finddata64i32_t@@V?$xalloc@U_finddata64i32_t@@@@@@QEAA@AEBV0@@Z DD imagerel $LN107+192
	DD	imagerel $LN107+365
	DD	imagerel $chain$2$??0?$xr_vector@U_finddata64i32_t@@V?$xalloc@U_finddata64i32_t@@@@@@QEAA@AEBV0@@Z
pdata	ENDS
;	COMDAT pdata
pdata	SEGMENT
$pdata$3$??0?$xr_vector@U_finddata64i32_t@@V?$xalloc@U_finddata64i32_t@@@@@@QEAA@AEBV0@@Z DD imagerel $LN107+365
	DD	imagerel $LN107+391
	DD	imagerel $chain$3$??0?$xr_vector@U_finddata64i32_t@@V?$xalloc@U_finddata64i32_t@@@@@@QEAA@AEBV0@@Z
pdata	ENDS
pdata	SEGMENT
$pdata$?Recurse@CLocatorAPI@@AEAA_NPEBD@Z DD imagerel $LN336
	DD	imagerel $LN336+236
	DD	imagerel $unwind$?Recurse@CLocatorAPI@@AEAA_NPEBD@Z
$pdata$1$?Recurse@CLocatorAPI@@AEAA_NPEBD@Z DD imagerel $LN336+236
	DD	imagerel $LN336+1591
	DD	imagerel $chain$1$?Recurse@CLocatorAPI@@AEAA_NPEBD@Z
$pdata$2$?Recurse@CLocatorAPI@@AEAA_NPEBD@Z DD imagerel $LN336+1591
	DD	imagerel $LN336+1615
	DD	imagerel $chain$2$?Recurse@CLocatorAPI@@AEAA_NPEBD@Z
$pdata$3$?Recurse@CLocatorAPI@@AEAA_NPEBD@Z DD imagerel $LN336+1615
	DD	imagerel $LN336+1621
	DD	imagerel $chain$3$?Recurse@CLocatorAPI@@AEAA_NPEBD@Z
$pdata$?ignore_path@@YA_NPEBD@Z DD imagerel $LN6
	DD	imagerel $LN6+72
	DD	imagerel $unwind$?ignore_path@@YA_NPEBD@Z
$pdata$?ProcessOne@CLocatorAPI@@AEAAXPEBDPEAX@Z DD imagerel $LN224
	DD	imagerel $LN224+594
	DD	imagerel $unwind$?ProcessOne@CLocatorAPI@@AEAAXPEBDPEAX@Z
$pdata$?ProcessArchive@CLocatorAPI@@AEAAXPEBD@Z DD imagerel $LN283
	DD	imagerel $LN283+16
	DD	imagerel $unwind$?ProcessArchive@CLocatorAPI@@AEAAXPEBD@Z
$pdata$4$?ProcessArchive@CLocatorAPI@@AEAAXPEBD@Z DD imagerel $LN283+16
	DD	imagerel $LN283+66
	DD	imagerel $chain$4$?ProcessArchive@CLocatorAPI@@AEAAXPEBD@Z
$pdata$5$?ProcessArchive@CLocatorAPI@@AEAAXPEBD@Z DD imagerel $LN283+66
	DD	imagerel $LN283+311
	DD	imagerel $chain$5$?ProcessArchive@CLocatorAPI@@AEAAXPEBD@Z
$pdata$6$?ProcessArchive@CLocatorAPI@@AEAAXPEBD@Z DD imagerel $LN283+311
	DD	imagerel $LN283+871
	DD	imagerel $chain$6$?ProcessArchive@CLocatorAPI@@AEAAXPEBD@Z
$pdata$7$?ProcessArchive@CLocatorAPI@@AEAAXPEBD@Z DD imagerel $LN283+871
	DD	imagerel $LN283+883
	DD	imagerel $chain$7$?ProcessArchive@CLocatorAPI@@AEAAXPEBD@Z
$pdata$8$?ProcessArchive@CLocatorAPI@@AEAAXPEBD@Z DD imagerel $LN283+883
	DD	imagerel $LN283+992
	DD	imagerel $chain$8$?ProcessArchive@CLocatorAPI@@AEAAXPEBD@Z
$pdata$?close@archive@CLocatorAPI@@QEAAXXZ DD imagerel $LN4
	DD	imagerel $LN4+51
	DD	imagerel $unwind$?close@archive@CLocatorAPI@@QEAAXXZ
$pdata$?open@archive@CLocatorAPI@@QEAAXXZ DD imagerel $LN29
	DD	imagerel $LN29+35
	DD	imagerel $unwind$?open@archive@CLocatorAPI@@QEAAXXZ
$pdata$2$?open@archive@CLocatorAPI@@QEAAXXZ DD imagerel $LN29+35
	DD	imagerel $LN29+207
	DD	imagerel $chain$2$?open@archive@CLocatorAPI@@QEAAXXZ
$pdata$3$?open@archive@CLocatorAPI@@QEAAXXZ DD imagerel $LN29+207
	DD	imagerel $LN29+330
	DD	imagerel $chain$3$?open@archive@CLocatorAPI@@QEAAXXZ
$pdata$4$?open@archive@CLocatorAPI@@QEAAXXZ DD imagerel $LN29+330
	DD	imagerel $LN29+336
	DD	imagerel $chain$4$?open@archive@CLocatorAPI@@QEAAXXZ
$pdata$?LoadArchive@CLocatorAPI@@QEAAXAEAUarchive@1@PEBD@Z DD imagerel $LN332
	DD	imagerel $LN332+45
	DD	imagerel $unwind$?LoadArchive@CLocatorAPI@@QEAAXAEAUarchive@1@PEBD@Z
$pdata$3$?LoadArchive@CLocatorAPI@@QEAAXAEAUarchive@1@PEBD@Z DD imagerel $LN332+45
	DD	imagerel $LN332+1364
	DD	imagerel $chain$3$?LoadArchive@CLocatorAPI@@QEAAXAEAUarchive@1@PEBD@Z
$pdata$4$?LoadArchive@CLocatorAPI@@QEAAXAEAUarchive@1@PEBD@Z DD imagerel $LN332+1364
	DD	imagerel $LN332+1475
	DD	imagerel $chain$4$?LoadArchive@CLocatorAPI@@QEAAXAEAUarchive@1@PEBD@Z
$pdata$?open_chunk@@YAPEAVIReader@@PEAXI@Z DD imagerel $LN166
	DD	imagerel $LN166+462
	DD	imagerel $unwind$?open_chunk@@YAPEAVIReader@@PEAXI@Z
$pdata$?Register@CLocatorAPI@@QEAAXPEBDIIIIII_N@Z DD imagerel $LN286
	DD	imagerel $LN286+386
	DD	imagerel $unwind$?Register@CLocatorAPI@@QEAAXPEBDIIIIII_N@Z
$pdata$1$?Register@CLocatorAPI@@QEAAXPEBDIIIIII_N@Z DD imagerel $LN286+386
	DD	imagerel $LN286+1124
	DD	imagerel $chain$1$?Register@CLocatorAPI@@QEAAXPEBDIIIIII_N@Z
$pdata$2$?Register@CLocatorAPI@@QEAAXPEBDIIIIII_N@Z DD imagerel $LN286+1124
	DD	imagerel $LN286+1150
	DD	imagerel $chain$2$?Register@CLocatorAPI@@QEAAXPEBDIIIIII_N@Z
$pdata$3$?Register@CLocatorAPI@@QEAAXPEBDIIIIII_N@Z DD imagerel $LN286+1150
	DD	imagerel $LN286+1156
	DD	imagerel $chain$3$?Register@CLocatorAPI@@QEAAXPEBDIIIIII_N@Z
pdata	ENDS
;	COMDAT pdata
pdata	SEGMENT
$pdata$??1?$xr_vector@U_finddata64i32_t@@V?$xalloc@U_finddata64i32_t@@@@@@QEAA@XZ DD imagerel $LN34
	DD	imagerel $LN34+48
	DD	imagerel $unwind$??1?$xr_vector@U_finddata64i32_t@@V?$xalloc@U_finddata64i32_t@@@@@@QEAA@XZ
pdata	ENDS
pdata	SEGMENT
$pdata$?_dump_open_files@@YAXH@Z DD imagerel $LN72
	DD	imagerel $LN72+37
	DD	imagerel $unwind$?_dump_open_files@@YAXH@Z
$pdata$0$?_dump_open_files@@YAXH@Z DD imagerel $LN72+37
	DD	imagerel $LN72+122
	DD	imagerel $chain$0$?_dump_open_files@@YAXH@Z
$pdata$1$?_dump_open_files@@YAXH@Z DD imagerel $LN72+122
	DD	imagerel $LN72+175
	DD	imagerel $chain$1$?_dump_open_files@@YAXH@Z
$pdata$?find_free_item@@YAAEAU_open_file@@AEBVshared_str@@@Z DD imagerel $LN181
	DD	imagerel $LN181+103
	DD	imagerel $unwind$?find_free_item@@YAAEAU_open_file@@AEBVshared_str@@@Z
$pdata$0$?find_free_item@@YAAEAU_open_file@@AEBVshared_str@@@Z DD imagerel $LN181+103
	DD	imagerel $LN181+327
	DD	imagerel $chain$0$?find_free_item@@YAAEAU_open_file@@AEBVshared_str@@@Z
$pdata$1$?find_free_item@@YAAEAU_open_file@@AEBVshared_str@@@Z DD imagerel $LN181+327
	DD	imagerel $LN181+336
	DD	imagerel $chain$1$?find_free_item@@YAAEAU_open_file@@AEBVshared_str@@@Z
pdata	ENDS
;	COMDAT pdata
pdata	SEGMENT
$pdata$??__Fg_open_files@@YAXXZ DD imagerel ??__Fg_open_files@@YAXXZ
	DD	imagerel ??__Fg_open_files@@YAXXZ+23
	DD	imagerel $unwind$??__Fg_open_files@@YAXXZ
pdata	ENDS
;	COMDAT pdata
pdata	SEGMENT
$pdata$0$??__Fg_open_files@@YAXXZ DD imagerel ??__Fg_open_files@@YAXXZ+23
	DD	imagerel ??__Fg_open_files@@YAXXZ+115
	DD	imagerel $chain$0$??__Fg_open_files@@YAXXZ
pdata	ENDS
;	COMDAT pdata
pdata	SEGMENT
$pdata$1$??__Fg_open_files@@YAXXZ DD imagerel ??__Fg_open_files@@YAXXZ+115
	DD	imagerel ??__Fg_open_files@@YAXXZ+120
	DD	imagerel $chain$1$??__Fg_open_files@@YAXXZ
pdata	ENDS
;	COMDAT pdata
pdata	SEGMENT
$pdata$??_GCStreamReader@@UEAAPEAXI@Z DD imagerel $LN6
	DD	imagerel $LN6+43
	DD	imagerel $unwind$??_GCStreamReader@@UEAAPEAXI@Z
pdata	ENDS
;	COMDAT pdata
pdata	SEGMENT
$pdata$??_GCPackReader@@UEAAPEAXI@Z DD imagerel $LN9
	DD	imagerel $LN9+77
	DD	imagerel $unwind$??_GCPackReader@@UEAAPEAXI@Z
pdata	ENDS
;	COMDAT pdata
pdata	SEGMENT
$pdata$??_GCTempReader@@UEAAPEAXI@Z DD imagerel $LN31
	DD	imagerel $LN31+97
	DD	imagerel $unwind$??_GCTempReader@@UEAAPEAXI@Z
pdata	ENDS
;	COMDAT pdata
pdata	SEGMENT
$pdata$??1?$xr_vector@EV?$xalloc@E@@@@QEAA@XZ DD imagerel $LN34
	DD	imagerel $LN34+48
	DD	imagerel $unwind$??1?$xr_vector@EV?$xalloc@E@@@@QEAA@XZ
pdata	ENDS
;	COMDAT pdata
pdata	SEGMENT
$pdata$??_GCFileWriter@@UEAAPEAXI@Z DD imagerel $LN50
	DD	imagerel $LN50+182
	DD	imagerel $unwind$??_GCFileWriter@@UEAAPEAXI@Z
pdata	ENDS
;	COMDAT pdata
pdata	SEGMENT
$pdata$?data_encript@CFileWriter@@UEAAXXZ DD imagerel $LN12
	DD	imagerel $LN12+51
	DD	imagerel $unwind$?data_encript@CFileWriter@@UEAAXXZ
pdata	ENDS
;	COMDAT pdata
pdata	SEGMENT
$pdata$?w_encrypt@CFileWriter@@UEAAXPEBXI@Z DD imagerel $LN21
	DD	imagerel $LN21+16
	DD	imagerel $unwind$?w_encrypt@CFileWriter@@UEAAXPEBXI@Z
pdata	ENDS
;	COMDAT pdata
pdata	SEGMENT
$pdata$1$?w_encrypt@CFileWriter@@UEAAXPEBXI@Z DD imagerel $LN21+16
	DD	imagerel $LN21+97
	DD	imagerel $chain$1$?w_encrypt@CFileWriter@@UEAAXPEBXI@Z
pdata	ENDS
;	COMDAT pdata
pdata	SEGMENT
$pdata$2$?w_encrypt@CFileWriter@@UEAAXPEBXI@Z DD imagerel $LN21+97
	DD	imagerel $LN21+98
	DD	imagerel $chain$2$?w_encrypt@CFileWriter@@UEAAXPEBXI@Z
pdata	ENDS
;	COMDAT pdata
pdata	SEGMENT
$pdata$?w@CFileWriter@@UEAAXPEBXI@Z DD imagerel $LN29
	DD	imagerel $LN29+40
	DD	imagerel $unwind$?w@CFileWriter@@UEAAXPEBXI@Z
pdata	ENDS
;	COMDAT pdata
pdata	SEGMENT
$pdata$2$?w@CFileWriter@@UEAAXPEBXI@Z DD imagerel $LN29+40
	DD	imagerel $LN29+79
	DD	imagerel $chain$2$?w@CFileWriter@@UEAAXPEBXI@Z
pdata	ENDS
;	COMDAT pdata
pdata	SEGMENT
$pdata$3$?w@CFileWriter@@UEAAXPEBXI@Z DD imagerel $LN29+79
	DD	imagerel $LN29+230
	DD	imagerel $chain$3$?w@CFileWriter@@UEAAXPEBXI@Z
pdata	ENDS
;	COMDAT pdata
pdata	SEGMENT
$pdata$4$?w@CFileWriter@@UEAAXPEBXI@Z DD imagerel $LN29+230
	DD	imagerel $LN29+345
	DD	imagerel $chain$4$?w@CFileWriter@@UEAAXPEBXI@Z
pdata	ENDS
;	COMDAT pdata
pdata	SEGMENT
$pdata$5$?w@CFileWriter@@UEAAXPEBXI@Z DD imagerel $LN29+345
	DD	imagerel $LN29+354
	DD	imagerel $chain$5$?w@CFileWriter@@UEAAXPEBXI@Z
pdata	ENDS
;	COMDAT pdata
pdata	SEGMENT
$pdata$??1CFileWriter@@UEAA@XZ DD imagerel $LN46
	DD	imagerel $LN46+147
	DD	imagerel $unwind$??1CFileWriter@@UEAA@XZ
pdata	ENDS
;	COMDAT pdata
pdata	SEGMENT
$pdata$??0CFileWriter@@QEAA@PEBD_N@Z DD imagerel $LN94
	DD	imagerel $LN94+16
	DD	imagerel $unwind$??0CFileWriter@@QEAA@PEBD_N@Z
pdata	ENDS
;	COMDAT pdata
pdata	SEGMENT
$pdata$1$??0CFileWriter@@QEAA@PEBD_N@Z DD imagerel $LN94+16
	DD	imagerel $LN94+171
	DD	imagerel $chain$1$??0CFileWriter@@QEAA@PEBD_N@Z
pdata	ENDS
;	COMDAT pdata
pdata	SEGMENT
$pdata$3$??0CFileWriter@@QEAA@PEBD_N@Z DD imagerel $LN94+171
	DD	imagerel $LN94+410
	DD	imagerel $chain$3$??0CFileWriter@@QEAA@PEBD_N@Z
pdata	ENDS
;	COMDAT pdata
pdata	SEGMENT
$pdata$4$??0CFileWriter@@QEAA@PEBD_N@Z DD imagerel $LN94+410
	DD	imagerel $LN94+429
	DD	imagerel $chain$4$??0CFileWriter@@QEAA@PEBD_N@Z
pdata	ENDS
;	COMDAT pdata
pdata	SEGMENT
$pdata$5$??0CFileWriter@@QEAA@PEBD_N@Z DD imagerel $LN94+429
	DD	imagerel $LN94+472
	DD	imagerel $chain$5$??0CFileWriter@@QEAA@PEBD_N@Z
pdata	ENDS
;	COMDAT pdata
pdata	SEGMENT
$pdata$6$??0CFileWriter@@QEAA@PEBD_N@Z DD imagerel $LN94+472
	DD	imagerel $LN94+650
	DD	imagerel $chain$6$??0CFileWriter@@QEAA@PEBD_N@Z
pdata	ENDS
pdata	SEGMENT
$pdata$??1CLocatorAPI@@QEAA@XZ DD imagerel $LN139
	DD	imagerel $LN139+280
	DD	imagerel $unwind$??1CLocatorAPI@@QEAA@XZ
$pdata$?path_exist@CLocatorAPI@@QEAA_NPEBD@Z DD imagerel $LN56
	DD	imagerel $LN56+196
	DD	imagerel $unwind$?path_exist@CLocatorAPI@@QEAA_NPEBD@Z
$pdata$?update_path@CLocatorAPI@@QEAAPEBDAEAY0CAI@DPEBD1@Z DD imagerel $LN4
	DD	imagerel $LN4+48
	DD	imagerel $unwind$?update_path@CLocatorAPI@@QEAAPEBDAEAY0CAI@DPEBD1@Z
$pdata$?w_close@CLocatorAPI@@QEAAXAEAPEAVIWriter@@@Z DD imagerel $LN48
	DD	imagerel $LN48+30
	DD	imagerel $unwind$?w_close@CLocatorAPI@@QEAAXAEAPEAVIWriter@@@Z
$pdata$0$?w_close@CLocatorAPI@@QEAAXAEAPEAVIWriter@@@Z DD imagerel $LN48+30
	DD	imagerel $LN48+34
	DD	imagerel $chain$0$?w_close@CLocatorAPI@@QEAAXAEAPEAVIWriter@@@Z
$pdata$1$?w_close@CLocatorAPI@@QEAAXAEAPEAVIWriter@@@Z DD imagerel $LN48+34
	DD	imagerel $LN48+172
	DD	imagerel $chain$1$?w_close@CLocatorAPI@@QEAAXAEAPEAVIWriter@@@Z
$pdata$2$?w_close@CLocatorAPI@@QEAAXAEAPEAVIWriter@@@Z DD imagerel $LN48+172
	DD	imagerel $LN48+225
	DD	imagerel $chain$2$?w_close@CLocatorAPI@@QEAAXAEAPEAVIWriter@@@Z
$pdata$3$?w_close@CLocatorAPI@@QEAAXAEAPEAVIWriter@@@Z DD imagerel $LN48+225
	DD	imagerel $LN48+238
	DD	imagerel $chain$3$?w_close@CLocatorAPI@@QEAAXAEAPEAVIWriter@@@Z
$pdata$4$?w_close@CLocatorAPI@@QEAAXAEAPEAVIWriter@@@Z DD imagerel $LN48+238
	DD	imagerel $LN48+318
	DD	imagerel $chain$4$?w_close@CLocatorAPI@@QEAAXAEAPEAVIWriter@@@Z
$pdata$5$?w_close@CLocatorAPI@@QEAAXAEAPEAVIWriter@@@Z DD imagerel $LN48+318
	DD	imagerel $LN48+327
	DD	imagerel $chain$5$?w_close@CLocatorAPI@@QEAAXAEAPEAVIWriter@@@Z
;	COMDAT xdata
xdata	SEGMENT
$chain$6$??0CFileWriter@@QEAA@PEBD_N@Z DD 021H
	DD	imagerel $LN94
	DD	imagerel $LN94+16
	DD	imagerel $unwind$??0CFileWriter@@QEAA@PEBD_N@Z
xdata	ENDS
;	COMDAT xdata
xdata	SEGMENT
$chain$5$??0CFileWriter@@QEAA@PEBD_N@Z DD 020021H
	DD	017c400H
	DD	imagerel $LN94
	DD	imagerel $LN94+16
	DD	imagerel $unwind$??0CFileWriter@@QEAA@PEBD_N@Z
xdata	ENDS
;	COMDAT xdata
xdata	SEGMENT
$chain$4$??0CFileWriter@@QEAA@PEBD_N@Z DD 021H
	DD	imagerel $LN94+16
	DD	imagerel $LN94+171
	DD	imagerel $chain$1$??0CFileWriter@@QEAA@PEBD_N@Z
xdata	ENDS
;	COMDAT xdata
xdata	SEGMENT
$chain$3$??0CFileWriter@@QEAA@PEBD_N@Z DD 040d21H
	DD	0ef40dH
	DD	0156408H
	DD	imagerel $LN94+16
	DD	imagerel $LN94+171
	DD	imagerel $chain$1$??0CFileWriter@@QEAA@PEBD_N@Z
xdata	ENDS
;	COMDAT xdata
xdata	SEGMENT
$chain$1$??0CFileWriter@@QEAA@PEBD_N@Z DD 040821H
	DD	017c408H
	DD	0145404H
	DD	imagerel $LN94
	DD	imagerel $LN94+16
	DD	imagerel $unwind$??0CFileWriter@@QEAA@PEBD_N@Z
xdata	ENDS
;	COMDAT xdata
xdata	SEGMENT
$unwind$??0CFileWriter@@QEAA@PEBD_N@Z DD 050d01H
	DD	0e009e20dH
	DD	07005d007H
	DD	03004H
xdata	ENDS
;	COMDAT xdata
xdata	SEGMENT
$unwind$??1CFileWriter@@UEAA@XZ DD 040a01H
	DD	06340aH
	DD	07006320aH
xdata	ENDS
;	COMDAT xdata
xdata	SEGMENT
$chain$5$?w@CFileWriter@@UEAAXPEBXI@Z DD 021H
	DD	imagerel $LN29
	DD	imagerel $LN29+40
	DD	imagerel $unwind$?w@CFileWriter@@UEAAXPEBXI@Z
xdata	ENDS
;	COMDAT xdata
xdata	SEGMENT
$chain$4$?w@CFileWriter@@UEAAXPEBXI@Z DD 021H
	DD	imagerel $LN29+40
	DD	imagerel $LN29+79
	DD	imagerel $chain$2$?w@CFileWriter@@UEAAXPEBXI@Z
xdata	ENDS
;	COMDAT xdata
xdata	SEGMENT
$chain$3$?w@CFileWriter@@UEAAXPEBXI@Z DD 020421H
	DD	0f5404H
	DD	imagerel $LN29+40
	DD	imagerel $LN29+79
	DD	imagerel $chain$2$?w@CFileWriter@@UEAAXPEBXI@Z
xdata	ENDS
;	COMDAT xdata
xdata	SEGMENT
$chain$2$?w@CFileWriter@@UEAAXPEBXI@Z DD 061321H
	DD	011f413H
	DD	010c408H
	DD	0e3404H
	DD	imagerel $LN29
	DD	imagerel $LN29+40
	DD	imagerel $unwind$?w@CFileWriter@@UEAAXPEBXI@Z
xdata	ENDS
;	COMDAT xdata
xdata	SEGMENT
$unwind$?w@CFileWriter@@UEAAXPEBXI@Z DD 040b01H
	DD	0e007920bH
	DD	060047005H
xdata	ENDS
;	COMDAT xdata
xdata	SEGMENT
$chain$2$?w_encrypt@CFileWriter@@UEAAXPEBXI@Z DD 021H
	DD	imagerel $LN21
	DD	imagerel $LN21+16
	DD	imagerel $unwind$?w_encrypt@CFileWriter@@UEAAXPEBXI@Z
xdata	ENDS
;	COMDAT xdata
xdata	SEGMENT
$chain$1$?w_encrypt@CFileWriter@@UEAAXPEBXI@Z DD 040d21H
	DD	07640dH
	DD	065405H
	DD	imagerel $LN21
	DD	imagerel $LN21+16
	DD	imagerel $unwind$?w_encrypt@CFileWriter@@UEAAXPEBXI@Z
xdata	ENDS
;	COMDAT xdata
xdata	SEGMENT
$unwind$?w_encrypt@CFileWriter@@UEAAXPEBXI@Z DD 041001H
	DD	083410H
	DD	0700c3210H
xdata	ENDS
;	COMDAT xdata
xdata	SEGMENT
$unwind$?data_encript@CFileWriter@@UEAAXXZ DD 020601H
	DD	030023206H
xdata	ENDS
;	COMDAT xdata
xdata	SEGMENT
$unwind$??_GCFileWriter@@UEAAPEAXI@Z DD 060f01H
	DD	07640fH
	DD	06340fH
	DD	0700b320fH
xdata	ENDS
;	COMDAT xdata
xdata	SEGMENT
$unwind$??1?$xr_vector@EV?$xalloc@E@@@@QEAA@XZ DD 020601H
	DD	030023206H
xdata	ENDS
;	COMDAT xdata
xdata	SEGMENT
$unwind$??_GCTempReader@@UEAAPEAXI@Z DD 040a01H
	DD	06340aH
	DD	07006320aH
xdata	ENDS
;	COMDAT xdata
xdata	SEGMENT
$unwind$??_GCPackReader@@UEAAPEAXI@Z DD 040a01H
	DD	06340aH
	DD	07006320aH
xdata	ENDS
;	COMDAT xdata
xdata	SEGMENT
$unwind$??_GCStreamReader@@UEAAPEAXI@Z DD 020601H
	DD	030023206H
xdata	ENDS
;	COMDAT xdata
xdata	SEGMENT
$chain$1$??__Fg_open_files@@YAXXZ DD 021H
	DD	imagerel ??__Fg_open_files@@YAXXZ
	DD	imagerel ??__Fg_open_files@@YAXXZ+23
	DD	imagerel $unwind$??__Fg_open_files@@YAXXZ
xdata	ENDS
;	COMDAT xdata
xdata	SEGMENT
$chain$0$??__Fg_open_files@@YAXXZ DD 020521H
	DD	043405H
	DD	imagerel ??__Fg_open_files@@YAXXZ
	DD	imagerel ??__Fg_open_files@@YAXXZ+23
	DD	imagerel $unwind$??__Fg_open_files@@YAXXZ
xdata	ENDS
;	COMDAT xdata
xdata	SEGMENT
$unwind$??__Fg_open_files@@YAXXZ DD 010401H
	DD	04204H
xdata	ENDS
;	COMDAT xdata
xdata	SEGMENT
$unwind$??1?$xr_vector@U_finddata64i32_t@@V?$xalloc@U_finddata64i32_t@@@@@@QEAA@XZ DD 020601H
	DD	030023206H
xdata	ENDS
;	COMDAT xdata
xdata	SEGMENT
$chain$3$??0?$xr_vector@U_finddata64i32_t@@V?$xalloc@U_finddata64i32_t@@@@@@QEAA@AEBV0@@Z DD 021H
	DD	imagerel $LN107
	DD	imagerel $LN107+101
	DD	imagerel $unwind$??0?$xr_vector@U_finddata64i32_t@@V?$xalloc@U_finddata64i32_t@@@@@@QEAA@AEBV0@@Z
xdata	ENDS
;	COMDAT xdata
xdata	SEGMENT
$chain$2$??0?$xr_vector@U_finddata64i32_t@@V?$xalloc@U_finddata64i32_t@@@@@@QEAA@AEBV0@@Z DD 021H
	DD	imagerel $LN107+101
	DD	imagerel $LN107+106
	DD	imagerel $chain$0$??0?$xr_vector@U_finddata64i32_t@@V?$xalloc@U_finddata64i32_t@@@@@@QEAA@AEBV0@@Z
xdata	ENDS
;	COMDAT xdata
xdata	SEGMENT
$chain$1$??0?$xr_vector@U_finddata64i32_t@@V?$xalloc@U_finddata64i32_t@@@@@@QEAA@AEBV0@@Z DD 020521H
	DD	075405H
	DD	imagerel $LN107+101
	DD	imagerel $LN107+106
	DD	imagerel $chain$0$??0?$xr_vector@U_finddata64i32_t@@V?$xalloc@U_finddata64i32_t@@@@@@QEAA@AEBV0@@Z
xdata	ENDS
;	COMDAT xdata
xdata	SEGMENT
$chain$0$??0?$xr_vector@U_finddata64i32_t@@V?$xalloc@U_finddata64i32_t@@@@@@QEAA@AEBV0@@Z DD 020521H
	DD	063405H
	DD	imagerel $LN107
	DD	imagerel $LN107+101
	DD	imagerel $unwind$??0?$xr_vector@U_finddata64i32_t@@V?$xalloc@U_finddata64i32_t@@@@@@QEAA@AEBV0@@Z
xdata	ENDS
;	COMDAT xdata
xdata	SEGMENT
$unwind$??0?$xr_vector@U_finddata64i32_t@@V?$xalloc@U_finddata64i32_t@@@@@@QEAA@AEBV0@@Z DD 061001H
	DD	097410H
	DD	086410H
	DD	0e00c3210H
xdata	ENDS
;	COMDAT xdata
xdata	SEGMENT
$unwind$??1?$xr_vector@V?$basic_string@DU?$char_traits@D@std@@V?$xalloc@D@@@std@@V?$xalloc@V?$basic_string@DU?$char_traits@D@std@@V?$xalloc@D@@@std@@@@@@QEAA@XZ DD 020601H
	DD	030023206H
xdata	ENDS
;	COMDAT xdata
xdata	SEGMENT
$unwind$??1FS_File@@QEAA@XZ DD 020601H
	DD	030023206H
xdata	ENDS
xdata	SEGMENT
$unwind$?check_pathes@CLocatorAPI@@AEAAXXZ DD 020601H
	DD	030023206H
$unwind$?rescan_pathes@CLocatorAPI@@QEAAXXZ DD 040a01H
	DD	07340aH
	DD	06006320aH
$chain$0$?rescan_pathes@CLocatorAPI@@QEAAXXZ DD 020521H
	DD	067405H
	DD	imagerel $LN73
	DD	imagerel $LN73+29
	DD	imagerel $unwind$?rescan_pathes@CLocatorAPI@@QEAAXXZ
$chain$1$?rescan_pathes@CLocatorAPI@@QEAAXXZ DD 021H
	DD	imagerel $LN73
	DD	imagerel $LN73+29
	DD	imagerel $unwind$?rescan_pathes@CLocatorAPI@@QEAAXXZ
$unwind$?rescan_path@CLocatorAPI@@QEAAXPEBDH@Z DD 060d01H
	DD	0f009320dH
	DD	0c005d007H
	DD	030025003H
$chain$2$?rescan_path@CLocatorAPI@@QEAAXPEBDH@Z DD 061621H
	DD	0ce416H
	DD	0b7411H
	DD	0a6405H
	DD	imagerel $LN119
	DD	imagerel $LN119+115
	DD	imagerel $unwind$?rescan_path@CLocatorAPI@@QEAAXPEBDH@Z
$chain$3$?rescan_path@CLocatorAPI@@QEAAXPEBDH@Z DD 021H
	DD	imagerel $LN119
	DD	imagerel $LN119+115
	DD	imagerel $unwind$?rescan_path@CLocatorAPI@@QEAAXPEBDH@Z
$unwind$?get_path@CLocatorAPI@@QEAAPEAVFS_Path@@PEBD@Z DD 020601H
	DD	030029206H
$unwind$?file_find_it@CLocatorAPI@@AEAA?AV?$_Tree_const_iterator@V?$_Tree_val@U?$_Tree_simple_types@Ufile@CLocatorAPI@@@std@@@std@@@std@@PEBD@Z DD 071201H
	DD	04f6412H
	DD	04e3412H
	DD	04c0112H
	DD	0700bH
$unwind$?w_open_ex@CLocatorAPI@@QEAAPEAVIWriter@@PEBD0@Z DD 061401H
	DD	0510114H
	DD	0c00bd00dH
	DD	030086009H
$chain$2$?w_open_ex@CLocatorAPI@@QEAAPEAVIWriter@@PEBD0@Z DD 061921H
	DD	059e419H
	DD	0587412H
	DD	0565404H
	DD	imagerel $LN224
	DD	imagerel $LN224+20
	DD	imagerel $unwind$?w_open_ex@CLocatorAPI@@QEAAPEAVIWriter@@PEBD0@Z
$chain$3$?w_open_ex@CLocatorAPI@@QEAAPEAVIWriter@@PEBD0@Z DD 020821H
	DD	050f408H
	DD	imagerel $LN224+20
	DD	imagerel $LN224+374
	DD	imagerel $chain$2$?w_open_ex@CLocatorAPI@@QEAAPEAVIWriter@@PEBD0@Z
$chain$4$?w_open_ex@CLocatorAPI@@QEAAPEAVIWriter@@PEBD0@Z DD 021H
	DD	imagerel $LN224+20
	DD	imagerel $LN224+374
	DD	imagerel $chain$2$?w_open_ex@CLocatorAPI@@QEAAPEAVIWriter@@PEBD0@Z
$chain$5$?w_open_ex@CLocatorAPI@@QEAAPEAVIWriter@@PEBD0@Z DD 021H
	DD	imagerel $LN224
	DD	imagerel $LN224+20
	DD	imagerel $unwind$?w_open_ex@CLocatorAPI@@QEAAPEAVIWriter@@PEBD0@Z
$unwind$?r_close@CLocatorAPI@@QEAAXAEAPEAVIReader@@@Z DD 040a01H
	DD	07340aH
	DD	06006320aH
$chain$0$?r_close@CLocatorAPI@@QEAAXAEAPEAVIReader@@@Z DD 020521H
	DD	067405H
	DD	imagerel $LN97
	DD	imagerel $LN97+30
	DD	imagerel $unwind$?r_close@CLocatorAPI@@QEAAXAEAPEAVIReader@@@Z
$chain$1$?r_close@CLocatorAPI@@QEAAXAEAPEAVIReader@@@Z DD 021H
	DD	imagerel $LN97
	DD	imagerel $LN97+30
