; Listing generated by Microsoft (R) Optimizing Compiler Version 19.35.32217.1 

include listing.inc

INCLUDELIB OLDNAMES

PUBLIC	??_C@_01CLKCMJKC@?5@				; `string'
PUBLIC	??_C@_05DIALNFFA@?$CFs?5?$CFd@			; `string'
PUBLIC	??_C@_05INKFKLBN@?$CFs?5?$CFi@			; `string'
PUBLIC	??_C@_05KDNLHNC@?$CFs?5?$CFf@			; `string'
PUBLIC	??_C@_0O@LEOODNAC@?$CFs?5?$CI?$CFf?0?$CFf?0?$CFf?$CJ@ ; `string'
PUBLIC	??_C@_0DF@PAGJPMKE@?$CFs?3?6?$CFf?0?$CFf?0?$CFf?0?$CFf?6?$CFf?0?$CFf?0?$CFf?0?$CFf?6?$CFf?0@ ; `string'
PUBLIC	??_C@_07OMNKEAIN@InitLog@			; `string'
PUBLIC	??_C@_0EF@GBLDAJIA@C?3?2Users?2Mahito?2Desktop?2Night?5o@ ; `string'
PUBLIC	??_C@_0O@EOBOPHIF@LogFile?$DN?$DNNULL@		; `string'
PUBLIC	??_C@_0P@ELNFEFLI@?9save_old_logs@		; `string'
PUBLIC	??_C@_04FPOLKAEB@?4log@				; `string'
PUBLIC	??_C@_0N@DLNOPBIC@Nearest_Log_@			; `string'
PUBLIC	??_C@_0M@ELAFAGEF@Nearest_Log@			; `string'
PUBLIC	??_C@_06DMJLOKKG@$logs$@			; `string'
PUBLIC	??_C@_07EKBDHKL@log?3?5?$CFs@			; `string'
PUBLIC	??_C@_05NAOIJFC@Error@				; `string'
PUBLIC	??_C@_0BH@FLDDKOBP@Can?8t?5create?5log?5file?4@	; `string'
PUBLIC	??_C@_0N@BIDLGLPE@NearestStage@			; `string'
PUBLIC	??_C@_0DC@IPGLPGJJ@NearestStage?5Discord?3?5https?3?1?1d@ ; `string'
PUBLIC	??_C@_0CO@MJCDFIHG@NearestStage?5VK?3?5https?3?1?1vk?4com@ ; `string'
PUBLIC	?_OptionsStorage@?1??__local_stdio_printf_options@@9@4_KA ; `__local_stdio_printf_options'::`2'::_OptionsStorage
PUBLIC	?writerfile@@3PEAVIWriter@@EA			; writerfile
PUBLIC	?LogFile@@3PEAV?$xr_vector@Vshared_str@@V?$xalloc@Vshared_str@@@@@@EA ; LogFile
PUBLIC	?LogExecCB@@3HA					; LogExecCB
EXTRN	__imp_abort:PROC
EXTRN	__imp_MessageBoxA:PROC
EXTRN	__imp___stdio_common_vsnprintf_s:PROC
EXTRN	__imp___stdio_common_vsprintf:PROC
EXTRN	__imp_OutputDebugStringA:PROC
;	COMDAT ?ignore_always@?3??InitLog@@YAXXZ@4_NA
_BSS	SEGMENT
?ignore_always@?3??InitLog@@YAXXZ@4_NA DB 01H DUP (?)	; `InitLog'::`4'::ignore_always
_BSS	ENDS
;	COMDAT ?_OptionsStorage@?1??__local_stdio_printf_options@@9@4_KA
_BSS	SEGMENT
?_OptionsStorage@?1??__local_stdio_printf_options@@9@4_KA DQ 01H DUP (?) ; `__local_stdio_printf_options'::`2'::_OptionsStorage
	ALIGN	8

?writerfile@@3PEAVIWriter@@EA DQ 01H DUP (?)		; writerfile
?LogFile@@3PEAV?$xr_vector@Vshared_str@@V?$xalloc@Vshared_str@@@@@@EA DQ 01H DUP (?) ; LogFile
?LogCB@@3P6AXPEBD@ZEA DQ 01H DUP (?)			; LogCB
_BSS	ENDS
;	COMDAT ??_C@_0CO@MJCDFIHG@NearestStage?5VK?3?5https?3?1?1vk?4com@
CONST	SEGMENT
??_C@_0CO@MJCDFIHG@NearestStage?5VK?3?5https?3?1?1vk?4com@ DB 'NearestSta'
	DB	'ge VK: https://vk.com/neareststage ', 00H	; `string'
CONST	ENDS
;	COMDAT ??_C@_0DC@IPGLPGJJ@NearestStage?5Discord?3?5https?3?1?1d@
CONST	SEGMENT
??_C@_0DC@IPGLPGJJ@NearestStage?5Discord?3?5https?3?1?1d@ DB 'NearestStag'
	DB	'e Discord: https://discord.gg/YGUxMg3f', 00H ; `string'
CONST	ENDS
;	COMDAT ??_C@_0N@BIDLGLPE@NearestStage@
CONST	SEGMENT
??_C@_0N@BIDLGLPE@NearestStage@ DB 'NearestStage', 00H	; `string'
CONST	ENDS
;	COMDAT ??_C@_0BH@FLDDKOBP@Can?8t?5create?5log?5file?4@
CONST	SEGMENT
??_C@_0BH@FLDDKOBP@Can?8t?5create?5log?5file?4@ DB 'Can''t create log fil'
	DB	'e.', 00H					; `string'
CONST	ENDS
;	COMDAT ??_C@_05NAOIJFC@Error@
CONST	SEGMENT
??_C@_05NAOIJFC@Error@ DB 'Error', 00H			; `string'
CONST	ENDS
;	COMDAT ??_C@_07EKBDHKL@log?3?5?$CFs@
CONST	SEGMENT
??_C@_07EKBDHKL@log?3?5?$CFs@ DB 'log: %s', 00H		; `string'
CONST	ENDS
;	COMDAT ??_C@_06DMJLOKKG@$logs$@
CONST	SEGMENT
??_C@_06DMJLOKKG@$logs$@ DB '$logs$', 00H		; `string'
CONST	ENDS
;	COMDAT ??_C@_0M@ELAFAGEF@Nearest_Log@
CONST	SEGMENT
??_C@_0M@ELAFAGEF@Nearest_Log@ DB 'Nearest_Log', 00H	; `string'
CONST	ENDS
;	COMDAT ??_C@_0N@DLNOPBIC@Nearest_Log_@
CONST	SEGMENT
??_C@_0N@DLNOPBIC@Nearest_Log_@ DB 'Nearest_Log_', 00H	; `string'
CONST	ENDS
;	COMDAT ??_C@_04FPOLKAEB@?4log@
CONST	SEGMENT
??_C@_04FPOLKAEB@?4log@ DB '.log', 00H			; `string'
CONST	ENDS
;	COMDAT ??_C@_0P@ELNFEFLI@?9save_old_logs@
CONST	SEGMENT
??_C@_0P@ELNFEFLI@?9save_old_logs@ DB '-save_old_logs', 00H ; `string'
CONST	ENDS
;	COMDAT ??_C@_0O@EOBOPHIF@LogFile?$DN?$DNNULL@
CONST	SEGMENT
??_C@_0O@EOBOPHIF@LogFile?$DN?$DNNULL@ DB 'LogFile==NULL', 00H ; `string'
CONST	ENDS
;	COMDAT ??_C@_0EF@GBLDAJIA@C?3?2Users?2Mahito?2Desktop?2Night?5o@
CONST	SEGMENT
??_C@_0EF@GBLDAJIA@C?3?2Users?2Mahito?2Desktop?2Night?5o@ DB 'C:\Users\Ma'
	DB	'hito\Desktop\Night outing\Night-outing\src\xrCore\log.cpp', 00H ; `string'
CONST	ENDS
;	COMDAT ??_C@_07OMNKEAIN@InitLog@
CONST	SEGMENT
??_C@_07OMNKEAIN@InitLog@ DB 'InitLog', 00H		; `string'
CONST	ENDS
;	COMDAT ??_C@_0DF@PAGJPMKE@?$CFs?3?6?$CFf?0?$CFf?0?$CFf?0?$CFf?6?$CFf?0?$CFf?0?$CFf?0?$CFf?6?$CFf?0@
CONST	SEGMENT
??_C@_0DF@PAGJPMKE@?$CFs?3?6?$CFf?0?$CFf?0?$CFf?0?$CFf?6?$CFf?0?$CFf?0?$CFf?0?$CFf?6?$CFf?0@ DB '%'
	DB	's:', 0aH, '%f,%f,%f,%f', 0aH, '%f,%f,%f,%f', 0aH, '%f,%f,%f,%'
	DB	'f', 0aH, '%f,%f,%f,%f', 0aH, 00H		; `string'
CONST	ENDS
;	COMDAT ??_C@_0O@LEOODNAC@?$CFs?5?$CI?$CFf?0?$CFf?0?$CFf?$CJ@
CONST	SEGMENT
??_C@_0O@LEOODNAC@?$CFs?5?$CI?$CFf?0?$CFf?0?$CFf?$CJ@ DB '%s (%f,%f,%f)', 00H ; `string'
CONST	ENDS
;	COMDAT ??_C@_05KDNLHNC@?$CFs?5?$CFf@
CONST	SEGMENT
??_C@_05KDNLHNC@?$CFs?5?$CFf@ DB '%s %f', 00H		; `string'
CONST	ENDS
;	COMDAT ??_C@_05INKFKLBN@?$CFs?5?$CFi@
CONST	SEGMENT
??_C@_05INKFKLBN@?$CFs?5?$CFi@ DB '%s %i', 00H		; `string'
CONST	ENDS
;	COMDAT ??_C@_05DIALNFFA@?$CFs?5?$CFd@
CONST	SEGMENT
??_C@_05DIALNFFA@?$CFs?5?$CFd@ DB '%s %d', 00H		; `string'
CONST	ENDS
;	COMDAT ??_C@_01CLKCMJKC@?5@
CONST	SEGMENT
??_C@_01CLKCMJKC@?5@ DB ' ', 00H			; `string'
	ORG $+153
?LogExecCB@@3HA DD 01H					; LogExecCB
PUBLIC	??0CTimer@@QEAA@XZ				; CTimer::CTimer
PUBLIC	??0CTimerBase@@QEAA@XZ				; CTimerBase::CTimerBase
PUBLIC	??0shared_str@@QEAA@PEBD@Z			; shared_str::shared_str
PUBLIC	?_set@shared_str@@QEAAXPEBD@Z			; shared_str::_set
PUBLIC	?_dec@shared_str@@IEAAXXZ			; shared_str::_dec
PUBLIC	??1shared_str@@QEAA@XZ				; shared_str::~shared_str
PUBLIC	?w_string@IWriter@@QEAAXPEBD@Z			; IWriter::w_string
PUBLIC	?w_u8@IWriter@@QEAAXE@Z				; IWriter::w_u8
PUBLIC	_vsnprintf
PUBLIC	_vsnprintf_l
PUBLIC	__local_stdio_printf_options
PUBLIC	?xr_sprintf@@YAHPEAD_KPEBDZZ			; xr_sprintf
PUBLIC	vsnprintf_s
PUBLIC	_vsnprintf_s_l
PUBLIC	?strstr@@YAPEADQEADQEBD@Z			; strstr
PUBLIC	??0shared_str@@QEAA@AEBV0@@Z			; shared_str::shared_str
PUBLIC	?_set@shared_str@@QEAAXAEBV1@@Z			; shared_str::_set
PUBLIC	?c_str@shared_str@@QEBAPEBDXZ			; shared_str::c_str
PUBLIC	??$construct@Vshared_str@@V1@@?$_Normal_allocator_traits@V?$xalloc@Vshared_str@@@@@std@@SAXAEAV?$xalloc@Vshared_str@@@@PEAVshared_str@@$$QEAV3@@Z ; std::_Normal_allocator_traits<xalloc<shared_str> >::construct<shared_str,shared_str>
PUBLIC	??$forward@Vshared_str@@@std@@YA$$QEAVshared_str@@AEAV1@@Z ; std::forward<shared_str>
PUBLIC	??$_Emplace_back@Vshared_str@@@?$_Uninitialized_backout_al@V?$xalloc@Vshared_str@@@@@std@@QEAAX$$QEAVshared_str@@@Z ; std::_Uninitialized_backout_al<xalloc<shared_str> >::_Emplace_back<shared_str>
PUBLIC	??$move@AEAVshared_str@@@std@@YA$$QEAVshared_str@@AEAV1@@Z ; std::move<shared_str &>
PUBLIC	?construct@?$xalloc@Vshared_str@@@@QEAAXPEAVshared_str@@AEBV2@@Z ; xalloc<shared_str>::construct
PUBLIC	??$construct@Vshared_str@@AEAV1@@?$_Normal_allocator_traits@V?$xalloc@Vshared_str@@@@@std@@SAXAEAV?$xalloc@Vshared_str@@@@PEAVshared_str@@AEAV3@@Z ; std::_Normal_allocator_traits<xalloc<shared_str> >::construct<shared_str,shared_str &>
PUBLIC	??$forward@AEAVshared_str@@@std@@YAAEAVshared_str@@AEAV1@@Z ; std::forward<shared_str &>
PUBLIC	??$_Get_unwrapped@AEBQEAVshared_str@@@std@@YA?A_TAEBQEAVshared_str@@@Z ; std::_Get_unwrapped<shared_str * const &>
PUBLIC	??$_Uninitialized_move@PEAVshared_str@@V?$xalloc@Vshared_str@@@@@std@@YAPEAVshared_str@@QEAV1@0PEAV1@AEAV?$xalloc@Vshared_str@@@@@Z ; std::_Uninitialized_move<shared_str *,xalloc<shared_str> >
PUBLIC	??$construct@Vshared_str@@AEBV1@@?$_Normal_allocator_traits@V?$xalloc@Vshared_str@@@@@std@@SAXAEAV?$xalloc@Vshared_str@@@@PEAVshared_str@@AEBV3@@Z ; std::_Normal_allocator_traits<xalloc<shared_str> >::construct<shared_str,shared_str const &>
PUBLIC	??_Gshared_str@@QEAAPEAXI@Z			; shared_str::`scalar deleting destructor'
PUBLIC	?destroy@?$xalloc@Vshared_str@@@@QEAAXPEAVshared_str@@@Z ; xalloc<shared_str>::destroy
PUBLIC	?_Calculate_growth@?$vector@Vshared_str@@V?$xalloc@Vshared_str@@@@@std@@AEBA_K_K@Z ; std::vector<shared_str,xalloc<shared_str> >::_Calculate_growth
PUBLIC	?_Orphan_range@?$vector@Vshared_str@@V?$xalloc@Vshared_str@@@@@std@@AEBAXPEAVshared_str@@0@Z ; std::vector<shared_str,xalloc<shared_str> >::_Orphan_range
PUBLIC	??$_Emplace_back@AEAVshared_str@@@?$_Uninitialized_backout_al@V?$xalloc@Vshared_str@@@@@std@@QEAAXAEAVshared_str@@@Z ; std::_Uninitialized_backout_al<xalloc<shared_str> >::_Emplace_back<shared_str &>
PUBLIC	??$move@AEAPEAVshared_str@@@std@@YA$$QEAPEAVshared_str@@AEAPEAV1@@Z ; std::move<shared_str * &>
PUBLIC	??$destroy@Vshared_str@@@?$_Normal_allocator_traits@V?$xalloc@Vshared_str@@@@@std@@SAXAEAV?$xalloc@Vshared_str@@@@PEAVshared_str@@@Z ; std::_Normal_allocator_traits<xalloc<shared_str> >::destroy<shared_str>
PUBLIC	??$_Unfancy@Vshared_str@@@std@@YAPEAVshared_str@@PEAV1@@Z ; std::_Unfancy<shared_str>
PUBLIC	??$_Emplace_reallocate@AEBVshared_str@@@?$vector@Vshared_str@@V?$xalloc@Vshared_str@@@@@std@@AEAAPEAVshared_str@@QEAV2@AEBV2@@Z ; std::vector<shared_str,xalloc<shared_str> >::_Emplace_reallocate<shared_str const &>
PUBLIC	??$_Emplace_back_with_unused_capacity@AEBVshared_str@@@?$vector@Vshared_str@@V?$xalloc@Vshared_str@@@@@std@@AEAAAEAVshared_str@@AEBV2@@Z ; std::vector<shared_str,xalloc<shared_str> >::_Emplace_back_with_unused_capacity<shared_str const &>
PUBLIC	??$forward@AEBVshared_str@@@std@@YAAEBVshared_str@@AEBV1@@Z ; std::forward<shared_str const &>
PUBLIC	??0?$xalloc@Vshared_str@@@@QEAA@XZ		; xalloc<shared_str>::xalloc<shared_str>
PUBLIC	??0?$_Vector_val@U?$_Simple_types@Vshared_str@@@std@@@std@@QEAA@XZ ; std::_Vector_val<std::_Simple_types<shared_str> >::_Vector_val<std::_Simple_types<shared_str> >
PUBLIC	??0?$_Uninitialized_backout_al@V?$xalloc@Vshared_str@@@@@std@@QEAA@PEAVshared_str@@AEAV?$xalloc@Vshared_str@@@@@Z ; std::_Uninitialized_backout_al<xalloc<shared_str> >::_Uninitialized_backout_al<xalloc<shared_str> >
PUBLIC	??1?$_Uninitialized_backout_al@V?$xalloc@Vshared_str@@@@@std@@QEAA@XZ ; std::_Uninitialized_backout_al<xalloc<shared_str> >::~_Uninitialized_backout_al<xalloc<shared_str> >
PUBLIC	?_Release@?$_Uninitialized_backout_al@V?$xalloc@Vshared_str@@@@@std@@QEAAPEAVshared_str@@XZ ; std::_Uninitialized_backout_al<xalloc<shared_str> >::_Release
PUBLIC	??$xr_alloc@Vshared_str@@@@YAPEAVshared_str@@I@Z ; xr_alloc<shared_str>
PUBLIC	??$xr_free@Vshared_str@@@@YAXAEAPEAVshared_str@@@Z ; xr_free<shared_str>
PUBLIC	??$?0$$V@?$_Compressed_pair@V?$xalloc@Vshared_str@@@@V?$_Vector_val@U?$_Simple_types@Vshared_str@@@std@@@std@@$00@std@@QEAA@U_Zero_then_variadic_args_t@1@@Z ; std::_Compressed_pair<xalloc<shared_str>,std::_Vector_val<std::_Simple_types<shared_str> >,1>::_Compressed_pair<xalloc<shared_str>,std::_Vector_val<std::_Simple_types<shared_str> >,1><>
PUBLIC	??$_Get_unwrapped@PEAVshared_str@@@std@@YA?A_T$$QEAPEAVshared_str@@@Z ; std::_Get_unwrapped<shared_str *>
PUBLIC	??$_Uninitialized_copy@PEAVshared_str@@PEAV1@V?$xalloc@Vshared_str@@@@@std@@YAPEAVshared_str@@PEAV1@00AEAV?$xalloc@Vshared_str@@@@@Z ; std::_Uninitialized_copy<shared_str *,shared_str *,xalloc<shared_str> >
PUBLIC	??$_Destroy_range@V?$xalloc@Vshared_str@@@@@std@@YAXPEAVshared_str@@QEAV1@AEAV?$xalloc@Vshared_str@@@@@Z ; std::_Destroy_range<xalloc<shared_str> >
PUBLIC	??$_Emplace_one_at_back@AEBVshared_str@@@?$vector@Vshared_str@@V?$xalloc@Vshared_str@@@@@std@@AEAAAEAVshared_str@@AEBV2@@Z ; std::vector<shared_str,xalloc<shared_str> >::_Emplace_one_at_back<shared_str const &>
PUBLIC	?max_size@?$xalloc@Vshared_str@@@@QEBA_KXZ	; xalloc<shared_str>::max_size
PUBLIC	?_Get_first@?$_Compressed_pair@V?$xalloc@Vshared_str@@@@V?$_Vector_val@U?$_Simple_types@Vshared_str@@@std@@@std@@$00@std@@QEAAAEAV?$xalloc@Vshared_str@@@@XZ ; std::_Compressed_pair<xalloc<shared_str>,std::_Vector_val<std::_Simple_types<shared_str> >,1>::_Get_first
PUBLIC	?_Get_first@?$_Compressed_pair@V?$xalloc@Vshared_str@@@@V?$_Vector_val@U?$_Simple_types@Vshared_str@@@std@@@std@@$00@std@@QEBAAEBV?$xalloc@Vshared_str@@@@XZ ; std::_Compressed_pair<xalloc<shared_str>,std::_Vector_val<std::_Simple_types<shared_str> >,1>::_Get_first
PUBLIC	?allocate@?$xalloc@Vshared_str@@@@QEBAPEAVshared_str@@_KPEBX@Z ; xalloc<shared_str>::allocate
PUBLIC	?deallocate@?$xalloc@Vshared_str@@@@QEBAXPEAVshared_str@@_K@Z ; xalloc<shared_str>::deallocate
PUBLIC	?max_size@?$_Normal_allocator_traits@V?$xalloc@Vshared_str@@@@@std@@SA_KAEBV?$xalloc@Vshared_str@@@@@Z ; std::_Normal_allocator_traits<xalloc<shared_str> >::max_size
PUBLIC	?_Change_array@?$vector@Vshared_str@@V?$xalloc@Vshared_str@@@@@std@@AEAAXQEAVshared_str@@_K1@Z ; std::vector<shared_str,xalloc<shared_str> >::_Change_array
PUBLIC	?_Getal@?$vector@Vshared_str@@V?$xalloc@Vshared_str@@@@@std@@AEAAAEAV?$xalloc@Vshared_str@@@@XZ ; std::vector<shared_str,xalloc<shared_str> >::_Getal
PUBLIC	?_Getal@?$vector@Vshared_str@@V?$xalloc@Vshared_str@@@@@std@@AEBAAEBV?$xalloc@Vshared_str@@@@XZ ; std::vector<shared_str,xalloc<shared_str> >::_Getal
PUBLIC	??0?$vector@Vshared_str@@V?$xalloc@Vshared_str@@@@@std@@QEAA@XZ ; std::vector<shared_str,xalloc<shared_str> >::vector<shared_str,xalloc<shared_str> >
PUBLIC	?max_size@?$vector@Vshared_str@@V?$xalloc@Vshared_str@@@@@std@@QEBA_KXZ ; std::vector<shared_str,xalloc<shared_str> >::max_size
PUBLIC	?capacity@?$vector@Vshared_str@@V?$xalloc@Vshared_str@@@@@std@@QEBA_KXZ ; std::vector<shared_str,xalloc<shared_str> >::capacity
PUBLIC	?_Tidy@?$vector@Vshared_str@@V?$xalloc@Vshared_str@@@@@std@@AEAAXXZ ; std::vector<shared_str,xalloc<shared_str> >::_Tidy
PUBLIC	?_Xlength@?$vector@Vshared_str@@V?$xalloc@Vshared_str@@@@@std@@CAXXZ ; std::vector<shared_str,xalloc<shared_str> >::_Xlength
PUBLIC	??1?$vector@Vshared_str@@V?$xalloc@Vshared_str@@@@@std@@QEAA@XZ ; std::vector<shared_str,xalloc<shared_str> >::~vector<shared_str,xalloc<shared_str> >
PUBLIC	?push_back@?$vector@Vshared_str@@V?$xalloc@Vshared_str@@@@@std@@QEAAXAEBVshared_str@@@Z ; std::vector<shared_str,xalloc<shared_str> >::push_back
PUBLIC	??0?$xr_vector@Vshared_str@@V?$xalloc@Vshared_str@@@@@@QEAA@XZ ; xr_vector<shared_str,xalloc<shared_str> >::xr_vector<shared_str,xalloc<shared_str> >
PUBLIC	?Log@@YAXPEBDI@Z				; Log
PUBLIC	?Log@@YAXPEBD0@Z				; Log
PUBLIC	?Log@@YAXPEBD@Z					; Log
PUBLIC	?AddOne@@YAXPEBD@Z				; AddOne
PUBLIC	?FlushLog@@YAXXZ				; FlushLog
PUBLIC	??1?$xr_vector@Vshared_str@@V?$xalloc@Vshared_str@@@@@@QEAA@XZ ; xr_vector<shared_str,xalloc<shared_str> >::~xr_vector<shared_str,xalloc<shared_str> >
PUBLIC	?Msg@@YAXPEBDZZ					; Msg
PUBLIC	?PreLoadVector@@3V?$xr_vector@Vshared_str@@V?$xalloc@Vshared_str@@@@@@A ; PreLoadVector
PUBLIC	?time_log@@3VCTimer@@A				; time_log
?logCS@@3VxrCriticalSection@@A DQ 01H DUP (?)		; logCS
?PreLoadVector@@3V?$xr_vector@Vshared_str@@V?$xalloc@Vshared_str@@@@@@A DB 018H DUP (?) ; PreLoadVector
_BSS	ENDS
;	COMDAT pdata
pdata	SEGMENT
$pdata$??0shared_str@@QEAA@PEBD@Z DD imagerel $LN68
	DD	imagerel $LN68+11
	DD	imagerel $unwind$??0shared_str@@QEAA@PEBD@Z
pdata	ENDS
;	COMDAT pdata
pdata	SEGMENT
$pdata$0$??0shared_str@@QEAA@PEBD@Z DD imagerel $LN68+11
	DD	imagerel $LN68+42
	DD	imagerel $chain$0$??0shared_str@@QEAA@PEBD@Z
pdata	ENDS
;	COMDAT pdata
pdata	SEGMENT
$pdata$1$??0shared_str@@QEAA@PEBD@Z DD imagerel $LN68+42
	DD	imagerel $LN68+47
	DD	imagerel $chain$1$??0shared_str@@QEAA@PEBD@Z
pdata	ENDS
;	COMDAT pdata
pdata	SEGMENT
$pdata$4$??0shared_str@@QEAA@PEBD@Z DD imagerel $LN68+47
	DD	imagerel $LN68+296
	DD	imagerel $chain$4$??0shared_str@@QEAA@PEBD@Z
pdata	ENDS
;	COMDAT pdata
pdata	SEGMENT
$pdata$5$??0shared_str@@QEAA@PEBD@Z DD imagerel $LN68+296
	DD	imagerel $LN68+303
	DD	imagerel $chain$5$??0shared_str@@QEAA@PEBD@Z
pdata	ENDS
;	COMDAT pdata
pdata	SEGMENT
$pdata$6$??0shared_str@@QEAA@PEBD@Z DD imagerel $LN68+303
	DD	imagerel $LN68+316
	DD	imagerel $chain$6$??0shared_str@@QEAA@PEBD@Z
pdata	ENDS
;	COMDAT pdata
pdata	SEGMENT
$pdata$7$??0shared_str@@QEAA@PEBD@Z DD imagerel $LN68+316
	DD	imagerel $LN68+333
	DD	imagerel $chain$7$??0shared_str@@QEAA@PEBD@Z
pdata	ENDS
;	COMDAT pdata
pdata	SEGMENT
$pdata$?_set@shared_str@@QEAAXPEBD@Z DD imagerel $LN66
	DD	imagerel $LN66+6
	DD	imagerel $unwind$?_set@shared_str@@QEAAXPEBD@Z
pdata	ENDS
;	COMDAT pdata
pdata	SEGMENT
$pdata$0$?_set@shared_str@@QEAAXPEBD@Z DD imagerel $LN66+6
	DD	imagerel $LN66+37
	DD	imagerel $chain$0$?_set@shared_str@@QEAAXPEBD@Z
pdata	ENDS
;	COMDAT pdata
pdata	SEGMENT
$pdata$1$?_set@shared_str@@QEAAXPEBD@Z DD imagerel $LN66+37
	DD	imagerel $LN66+42
	DD	imagerel $chain$1$?_set@shared_str@@QEAAXPEBD@Z
pdata	ENDS
;	COMDAT pdata
pdata	SEGMENT
$pdata$4$?_set@shared_str@@QEAAXPEBD@Z DD imagerel $LN66+42
	DD	imagerel $LN66+281
	DD	imagerel $chain$4$?_set@shared_str@@QEAAXPEBD@Z
pdata	ENDS
;	COMDAT pdata
pdata	SEGMENT
$pdata$5$?_set@shared_str@@QEAAXPEBD@Z DD imagerel $LN66+281
	DD	imagerel $LN66+288
	DD	imagerel $chain$5$?_set@shared_str@@QEAAXPEBD@Z
pdata	ENDS
;	COMDAT pdata
pdata	SEGMENT
$pdata$6$?_set@shared_str@@QEAAXPEBD@Z DD imagerel $LN66+288
	DD	imagerel $LN66+301
	DD	imagerel $chain$6$?_set@shared_str@@QEAAXPEBD@Z
pdata	ENDS
;	COMDAT pdata
pdata	SEGMENT
$pdata$7$?_set@shared_str@@QEAAXPEBD@Z DD imagerel $LN66+301
	DD	imagerel $LN66+313
	DD	imagerel $chain$7$?_set@shared_str@@QEAAXPEBD@Z
pdata	ENDS
;	COMDAT pdata
pdata	SEGMENT
$pdata$?w_string@IWriter@@QEAAXPEBD@Z DD imagerel $LN11
	DD	imagerel $LN11+88
	DD	imagerel $unwind$?w_string@IWriter@@QEAAXPEBD@Z
pdata	ENDS
;	COMDAT pdata
pdata	SEGMENT
$pdata$?w_u8@IWriter@@QEAAXE@Z DD imagerel $LN4
	DD	imagerel $LN4+30
	DD	imagerel $unwind$?w_u8@IWriter@@QEAAXE@Z
pdata	ENDS
;	COMDAT pdata
pdata	SEGMENT
$pdata$_vsnprintf DD imagerel $LN6
	DD	imagerel $LN6+94
	DD	imagerel $unwind$_vsnprintf
pdata	ENDS
;	COMDAT pdata
pdata	SEGMENT
$pdata$_vsnprintf_l DD imagerel $LN4
	DD	imagerel $LN4+96
	DD	imagerel $unwind$_vsnprintf_l
pdata	ENDS
;	COMDAT pdata
pdata	SEGMENT
$pdata$?xr_sprintf@@YAHPEAD_KPEBDZZ DD imagerel $LN8
	DD	imagerel $LN8+101
	DD	imagerel $unwind$?xr_sprintf@@YAHPEAD_KPEBDZZ
pdata	ENDS
;	COMDAT pdata
pdata	SEGMENT
$pdata$vsnprintf_s DD imagerel $LN6
	DD	imagerel $LN6+110
	DD	imagerel $unwind$vsnprintf_s
pdata	ENDS
;	COMDAT pdata
pdata	SEGMENT
$pdata$_vsnprintf_s_l DD imagerel $LN4
	DD	imagerel $LN4+110
	DD	imagerel $unwind$_vsnprintf_s_l
pdata	ENDS
;	COMDAT pdata
pdata	SEGMENT
$pdata$??$_Emplace_reallocate@AEBVshared_str@@@?$vector@Vshared_str@@V?$xalloc@Vshared_str@@@@@std@@AEAAPEAVshared_str@@QEAV2@AEBV2@@Z DD imagerel $LN192
	DD	imagerel $LN192+750
	DD	imagerel $unwind$??$_Emplace_reallocate@AEBVshared_str@@@?$vector@Vshared_str@@V?$xalloc@Vshared_str@@@@@std@@AEAAPEAVshared_str@@QEAV2@AEBV2@@Z
pdata	ENDS
;	COMDAT pdata
pdata	SEGMENT
$pdata$?catch$0@?0???$_Emplace_reallocate@AEBVshared_str@@@?$vector@Vshared_str@@V?$xalloc@Vshared_str@@@@@std@@AEAAPEAVshared_str@@QEAV2@AEBV2@@Z@4HA DD imagerel ?catch$0@?0???$_Emplace_reallocate@AEBVshared_str@@@?$vector@Vshared_str@@V?$xalloc@Vshared_str@@@@@std@@AEAAPEAVshared_str@@QEAV2@AEBV2@@Z@4HA
	DD	imagerel ?catch$0@?0???$_Emplace_reallocate@AEBVshared_str@@@?$vector@Vshared_str@@V?$xalloc@Vshared_str@@@@@std@@AEAAPEAVshared_str@@QEAV2@AEBV2@@Z@4HA+51
	DD	imagerel $unwind$?catch$0@?0???$_Emplace_reallocate@AEBVshared_str@@@?$vector@Vshared_str@@V?$xalloc@Vshared_str@@@@@std@@AEAAPEAVshared_str@@QEAV2@AEBV2@@Z@4HA
pdata	ENDS
;	COMDAT pdata
pdata	SEGMENT
$pdata$??$xr_free@Vshared_str@@@@YAXAEAPEAVshared_str@@@Z DD imagerel $LN24
	DD	imagerel $LN24+42
	DD	imagerel $unwind$??$xr_free@Vshared_str@@@@YAXAEAPEAVshared_str@@@Z
pdata	ENDS
;	COMDAT pdata
pdata	SEGMENT
$pdata$?_Change_array@?$vector@Vshared_str@@V?$xalloc@Vshared_str@@@@@std@@AEAAXQEAVshared_str@@_K1@Z DD imagerel $LN51
	DD	imagerel $LN51+140
	DD	imagerel $unwind$?_Change_array@?$vector@Vshared_str@@V?$xalloc@Vshared_str@@@@@std@@AEAAXQEAVshared_str@@_K1@Z
pdata	ENDS
;	COMDAT pdata
pdata	SEGMENT
$pdata$?_Tidy@?$vector@Vshared_str@@V?$xalloc@Vshared_str@@@@@std@@AEAAXXZ DD imagerel $LN51
	DD	imagerel $LN51+21
	DD	imagerel $unwind$?_Tidy@?$vector@Vshared_str@@V?$xalloc@Vshared_str@@@@@std@@AEAAXXZ
pdata	ENDS
;	COMDAT pdata
pdata	SEGMENT
$pdata$0$?_Tidy@?$vector@Vshared_str@@V?$xalloc@Vshared_str@@@@@std@@AEAAXXZ DD imagerel $LN51+21
	DD	imagerel $LN51+98
	DD	imagerel $chain$0$?_Tidy@?$vector@Vshared_str@@V?$xalloc@Vshared_str@@@@@std@@AEAAXXZ
pdata	ENDS
;	COMDAT pdata
pdata	SEGMENT
$pdata$1$?_Tidy@?$vector@Vshared_str@@V?$xalloc@Vshared_str@@@@@std@@AEAAXXZ DD imagerel $LN51+98
	DD	imagerel $LN51+104
	DD	imagerel $chain$1$?_Tidy@?$vector@Vshared_str@@V?$xalloc@Vshared_str@@@@@std@@AEAAXXZ
pdata	ENDS
;	COMDAT pdata
pdata	SEGMENT
$pdata$?_Xlength@?$vector@Vshared_str@@V?$xalloc@Vshared_str@@@@@std@@CAXXZ DD imagerel $LN4
	DD	imagerel $LN4+18
	DD	imagerel $unwind$?_Xlength@?$vector@Vshared_str@@V?$xalloc@Vshared_str@@@@@std@@CAXXZ
pdata	ENDS
;	COMDAT pdata
pdata	SEGMENT
$pdata$??1?$vector@Vshared_str@@V?$xalloc@Vshared_str@@@@@std@@QEAA@XZ DD imagerel $LN53
	DD	imagerel $LN53+21
	DD	imagerel $unwind$??1?$vector@Vshared_str@@V?$xalloc@Vshared_str@@@@@std@@QEAA@XZ
pdata	ENDS
;	COMDAT pdata
pdata	SEGMENT
$pdata$0$??1?$vector@Vshared_str@@V?$xalloc@Vshared_str@@@@@std@@QEAA@XZ DD imagerel $LN53+21
	DD	imagerel $LN53+98
	DD	imagerel $chain$0$??1?$vector@Vshared_str@@V?$xalloc@Vshared_str@@@@@std@@QEAA@XZ
pdata	ENDS
;	COMDAT pdata
pdata	SEGMENT
$pdata$1$??1?$vector@Vshared_str@@V?$xalloc@Vshared_str@@@@@std@@QEAA@XZ DD imagerel $LN53+98
	DD	imagerel $LN53+104
	DD	imagerel $chain$1$??1?$vector@Vshared_str@@V?$xalloc@Vshared_str@@@@@std@@QEAA@XZ
pdata	ENDS
pdata	SEGMENT
$pdata$?Log@@YAXPEBDI@Z DD imagerel $LN6
	DD	imagerel $LN6+77
	DD	imagerel $unwind$?Log@@YAXPEBDI@Z
$pdata$?Log@@YAXPEBD0@Z DD imagerel $LN13
	DD	imagerel $LN13+129
	DD	imagerel $unwind$?Log@@YAXPEBD0@Z
$pdata$?Log@@YAXPEBD@Z DD imagerel $LN163
	DD	imagerel $LN163+290
	DD	imagerel $unwind$?Log@@YAXPEBD@Z
$pdata$?AddOne@@YAXPEBD@Z DD imagerel $LN75
	DD	imagerel $LN75+80
	DD	imagerel $unwind$?AddOne@@YAXPEBD@Z
pdata	ENDS
;	COMDAT pdata
pdata	SEGMENT
$pdata$??__FPreLoadVector@@YAXXZ DD imagerel ??__FPreLoadVector@@YAXXZ
	DD	imagerel ??__FPreLoadVector@@YAXXZ+23
	DD	imagerel $unwind$??__FPreLoadVector@@YAXXZ
pdata	ENDS
;	COMDAT pdata
pdata	SEGMENT
$pdata$0$??__FPreLoadVector@@YAXXZ DD imagerel ??__FPreLoadVector@@YAXXZ+23
	DD	imagerel ??__FPreLoadVector@@YAXXZ+112
	DD	imagerel $chain$0$??__FPreLoadVector@@YAXXZ
pdata	ENDS
;	COMDAT pdata
pdata	SEGMENT
$pdata$1$??__FPreLoadVector@@YAXXZ DD imagerel ??__FPreLoadVector@@YAXXZ+112
	DD	imagerel ??__FPreLoadVector@@YAXXZ+117
	DD	imagerel $chain$1$??__FPreLoadVector@@YAXXZ
pdata	ENDS
;	COMDAT pdata
pdata	SEGMENT
$pdata$??__FlogCS@@YAXXZ DD imagerel ??__FlogCS@@YAXXZ
	DD	imagerel ??__FlogCS@@YAXXZ+57
	DD	imagerel $unwind$??__FlogCS@@YAXXZ
pdata	ENDS
;	COMDAT pdata
pdata	SEGMENT
$pdata$??__ElogCS@@YAXXZ DD imagerel ??__ElogCS@@YAXXZ
	DD	imagerel ??__ElogCS@@YAXXZ+79
	DD	imagerel $unwind$??__ElogCS@@YAXXZ
pdata	ENDS
pdata	SEGMENT
$pdata$?Msg@@YAXPEBDZZ DD imagerel $LN9
	DD	imagerel $LN9+123
	DD	imagerel $unwind$?Msg@@YAXPEBDZZ
?time_log@@3VCTimer@@A DB 020H DUP (?)
	DD	03f800000r			; 1	; time_log
	DB	4 DUP(00H)
	DQ	0000000000000000H
	DQ	0000000000000000H
CONST	ENDS
;	COMDAT xdata
xdata	SEGMENT
$unwind$??__ElogCS@@YAXXZ DD 010401H
	DD	04204H
xdata	ENDS
;	COMDAT xdata
xdata	SEGMENT
$unwind$??__FlogCS@@YAXXZ DD 010401H
	DD	04204H
xdata	ENDS
;	COMDAT xdata
xdata	SEGMENT
$chain$1$??__FPreLoadVector@@YAXXZ DD 021H
	DD	imagerel ??__FPreLoadVector@@YAXXZ
	DD	imagerel ??__FPreLoadVector@@YAXXZ+23
	DD	imagerel $unwind$??__FPreLoadVector@@YAXXZ
xdata	ENDS
;	COMDAT xdata
xdata	SEGMENT
$chain$0$??__FPreLoadVector@@YAXXZ DD 020521H
	DD	043405H
	DD	imagerel ??__FPreLoadVector@@YAXXZ
	DD	imagerel ??__FPreLoadVector@@YAXXZ+23
	DD	imagerel $unwind$??__FPreLoadVector@@YAXXZ
xdata	ENDS
;	COMDAT xdata
xdata	SEGMENT
$unwind$??__FPreLoadVector@@YAXXZ DD 010401H
	DD	04204H
xdata	ENDS
xdata	SEGMENT
$unwind$?Log@@YAXPEBDI@Z DD 035051201H
	DD	083412H
	DD	05206330bH
	DD	05002H
$unwind$?Log@@YAXPEBD0@Z DD 035030b01H
	DD	05206330bH
	DD	05002H
$unwind$?Log@@YAXPEBD@Z DD 025071a01H
	DD	07741aH
	DD	06340fH
	DD	03206230bH
	DD	05002H
$unwind$?AddOne@@YAXPEBD@Z DD 020601H
	DD	030023206H
$unwind$?Msg@@YAXPEBDZZ DD 041c01H
	DD	0107011cH
	DD	030147015H
xdata	ENDS
;	COMDAT xdata
xdata	SEGMENT
$chain$1$??1?$vector@Vshared_str@@V?$xalloc@Vshared_str@@@@@std@@QEAA@XZ DD 021H
	DD	imagerel $LN53
	DD	imagerel $LN53+21
	DD	imagerel $unwind$??1?$vector@Vshared_str@@V?$xalloc@Vshared_str@@@@@std@@QEAA@XZ
xdata	ENDS
;	COMDAT xdata
xdata	SEGMENT
$chain$0$??1?$vector@Vshared_str@@V?$xalloc@Vshared_str@@@@@std@@QEAA@XZ DD 020521H
	DD	067405H
	DD	imagerel $LN53
	DD	imagerel $LN53+21
	DD	imagerel $unwind$??1?$vector@Vshared_str@@V?$xalloc@Vshared_str@@@@@std@@QEAA@XZ
xdata	ENDS
;	COMDAT xdata
xdata	SEGMENT
$unwind$??1?$vector@Vshared_str@@V?$xalloc@Vshared_str@@@@@std@@QEAA@XZ DD 020601H
	DD	030023206H
xdata	ENDS
;	COMDAT xdata
xdata	SEGMENT
$unwind$?_Xlength@?$vector@Vshared_str@@V?$xalloc@Vshared_str@@@@@std@@CAXXZ DD 010401H
	DD	04204H
xdata	ENDS
;	COMDAT xdata
xdata	SEGMENT
$chain$1$?_Tidy@?$vector@Vshared_str@@V?$xalloc@Vshared_str@@@@@std@@AEAAXXZ DD 021H
	DD	imagerel $LN51
	DD	imagerel $LN51+21
	DD	imagerel $unwind$?_Tidy@?$vector@Vshared_str@@V?$xalloc@Vshared_str@@@@@std@@AEAAXXZ
xdata	ENDS
;	COMDAT xdata
xdata	SEGMENT
$chain$0$?_Tidy@?$vector@Vshared_str@@V?$xalloc@Vshared_str@@@@@std@@AEAAXXZ DD 020521H
	DD	067405H
	DD	imagerel $LN51
	DD	imagerel $LN51+21
	DD	imagerel $unwind$?_Tidy@?$vector@Vshared_str@@V?$xalloc@Vshared_str@@@@@std@@AEAAXXZ
xdata	ENDS
;	COMDAT xdata
xdata	SEGMENT
$unwind$?_Tidy@?$vector@Vshared_str@@V?$xalloc@Vshared_str@@@@@std@@AEAAXXZ DD 020601H
	DD	030023206H
xdata	ENDS
;	COMDAT xdata
xdata	SEGMENT
$unwind$?_Change_array@?$vector@Vshared_str@@V?$xalloc@Vshared_str@@@@@std@@AEAAXQEAVshared_str@@_K1@Z DD 081401H
	DD	086414H
	DD	075414H
	DD	063414H
	DD	070103214H
xdata	ENDS
;	COMDAT xdata
xdata	SEGMENT
$unwind$??$xr_free@Vshared_str@@@@YAXAEAPEAVshared_str@@@Z DD 020601H
	DD	030023206H
xdata	ENDS
;	COMDAT voltbl
voltbl	SEGMENT
_volmd	DB	00H
voltbl	ENDS
;	COMDAT xdata
xdata	SEGMENT
$unwind$?catch$0@?0???$_Emplace_reallocate@AEBVshared_str@@@?$vector@Vshared_str@@V?$xalloc@Vshared_str@@@@@std@@AEAAPEAVshared_str@@QEAV2@AEBV2@@Z@4HA DD 020a01H
	DD	05006320aH
xdata	ENDS
;	COMDAT xdata
xdata	SEGMENT
$ip2state$??$_Emplace_reallocate@AEBVshared_str@@@?$vector@Vshared_str@@V?$xalloc@Vshared_str@@@@@std@@AEAAPEAVshared_str@@QEAV2@AEBV2@@Z DB 06H
	DB	00H
	DB	00H
	DB	0b1H, 02H
	DB	02H
	DB	'-', 08H
	DB	00H
xdata	ENDS
;	COMDAT xdata
xdata	SEGMENT
$handlerMap$??$_Emplace_reallocate@AEBVshared_str@@@?$vector@Vshared_str@@V?$xalloc@Vshared_str@@@@@std@@AEAAPEAVshared_str@@QEAV2@AEBV2@@Z DB 02H
	DB	00H
	DD	imagerel ?catch$0@?0???$_Emplace_reallocate@AEBVshared_str@@@?$vector@Vshared_str@@V?$xalloc@Vshared_str@@@@@std@@AEAAPEAVshared_str@@QEAV2@AEBV2@@Z@4HA
xdata	ENDS
;	COMDAT xdata
xdata	SEGMENT
$tryMap$??$_Emplace_reallocate@AEBVshared_str@@@?$vector@Vshared_str@@V?$xalloc@Vshared_str@@@@@std@@AEAAPEAVshared_str@@QEAV2@AEBV2@@Z DB 02H
	DB	00H
	DB	00H
	DB	02H
	DD	imagerel $handlerMap$??$_Emplace_reallocate@AEBVshared_str@@@?$vector@Vshared_str@@V?$xalloc@Vshared_str@@@@@std@@AEAAPEAVshared_str@@QEAV2@AEBV2@@Z
xdata	ENDS
;	COMDAT xdata
xdata	SEGMENT
$stateUnwindMap$??$_Emplace_reallocate@AEBVshared_str@@@?$vector@Vshared_str@@V?$xalloc@Vshared_str@@@@@std@@AEAAPEAVshared_str@@QEAV2@AEBV2@@Z DB 04H
	DB	08H
	DB	010H
xdata	ENDS
;	COMDAT xdata
xdata	SEGMENT
$cppxdata$??$_Emplace_reallocate@AEBVshared_str@@@?$vector@Vshared_str@@V?$xalloc@Vshared_str@@@@@std@@AEAAPEAVshared_str@@QEAV2@AEBV2@@Z DB 018H
	DD	imagerel $stateUnwindMap$??$_Emplace_reallocate@AEBVshared_str@@@?$vector@Vshared_str@@V?$xalloc@Vshared_str@@@@@std@@AEAAPEAVshared_str@@QEAV2@AEBV2@@Z
	DD	imagerel $tryMap$??$_Emplace_reallocate@AEBVshared_str@@@?$vector@Vshared_str@@V?$xalloc@Vshared_str@@@@@std@@AEAAPEAVshared_str@@QEAV2@AEBV2@@Z
	DD	imagerel $ip2state$??$_Emplace_reallocate@AEBVshared_str@@@?$vector@Vshared_str@@V?$xalloc@Vshared_str@@@@@std@@AEAAPEAVshared_str@@QEAV2@AEBV2@@Z
xdata	ENDS
;	COMDAT xdata
xdata	SEGMENT
$unwind$??$_Emplace_reallocate@AEBVshared_str@@@?$vector@Vshared_str@@V?$xalloc@Vshared_str@@@@@std@@AEAAPEAVshared_str@@QEAV2@AEBV2@@Z DD 0b1a19H
	DD	01d641aH
	DD	01c341aH
	DD	014011aH
	DD	0e011f013H
	DD	0c00dd00fH
	DD	0700bH
	DD	imagerel __CxxFrameHandler4
	DD	imagerel $cppxdata$??$_Emplace_reallocate@AEBVshared_str@@@?$vector@Vshared_str@@V?$xalloc@Vshared_str@@@@@std@@AEAAPEAVshared_str@@QEAV2@AEBV2@@Z
xdata	ENDS
;	COMDAT xdata
xdata	SEGMENT
$unwind$_vsnprintf_s_l DD 081401H
	DD	0c6414H
	DD	0b5414H
	DD	0a3414H
	DD	070107214H
xdata	ENDS
;	COMDAT xdata
xdata	SEGMENT
$unwind$vsnprintf_s DD 081401H
	DD	0c6414H
	DD	0b5414H
	DD	0a3414H
	DD	070107214H
xdata	ENDS
;	COMDAT xdata
xdata	SEGMENT
$unwind$?xr_sprintf@@YAHPEAD_KPEBDZZ DD 061401H
	DD	0e0107214H
	DD	0600d700eH
	DD	0300b500cH
xdata	ENDS
;	COMDAT xdata
xdata	SEGMENT
$unwind$_vsnprintf_l DD 060f01H
	DD	09640fH
	DD	08340fH
	DD	0700b520fH
xdata	ENDS
;	COMDAT xdata
xdata	SEGMENT
$unwind$_vsnprintf DD 060f01H
	DD	09640fH
	DD	08340fH
	DD	0700b520fH
xdata	ENDS
;	COMDAT xdata
xdata	SEGMENT
$unwind$?w_u8@IWriter@@QEAAXE@Z DD 010801H
	DD	04208H
xdata	ENDS
;	COMDAT xdata
xdata	SEGMENT
$unwind$?w_string@IWriter@@QEAAXPEBD@Z DD 020601H
	DD	030023206H
xdata	ENDS
;	COMDAT xdata
xdata	SEGMENT
$chain$7$?_set@shared_str@@QEAAXPEBD@Z DD 021H
	DD	imagerel $LN66
	DD	imagerel $LN66+6
	DD	imagerel $unwind$?_set@shared_str@@QEAAXPEBD@Z
xdata	ENDS
;	COMDAT xdata
xdata	SEGMENT
$chain$6$?_set@shared_str@@QEAAXPEBD@Z DD 021H
	DD	imagerel $LN66+6
	DD	imagerel $LN66+37
	DD	imagerel $chain$0$?_set@shared_str@@QEAAXPEBD@Z
xdata	ENDS
;	COMDAT xdata
xdata	SEGMENT
$chain$5$?_set@shared_str@@QEAAXPEBD@Z DD 021H
	DD	imagerel $LN66+37
	DD	imagerel $LN66+42
	DD	imagerel $chain$1$?_set@shared_str@@QEAAXPEBD@Z
xdata	ENDS
;	COMDAT xdata
xdata	SEGMENT
$chain$4$?_set@shared_str@@QEAAXPEBD@Z DD 060f21H
	DD	08e40fH
	DD	09740aH
	DD	0e6405H
	DD	imagerel $LN66+37
	DD	imagerel $LN66+42
	DD	imagerel $chain$1$?_set@shared_str@@QEAAXPEBD@Z
xdata	ENDS
;	COMDAT xdata
xdata	SEGMENT
$chain$1$?_set@shared_str@@QEAAXPEBD@Z DD 020521H
	DD	0c3405H
	DD	imagerel $LN66+6
	DD	imagerel $LN66+37
	DD	imagerel $chain$0$?_set@shared_str@@QEAAXPEBD@Z
xdata	ENDS
;	COMDAT xdata
xdata	SEGMENT
$chain$0$?_set@shared_str@@QEAAXPEBD@Z DD 020521H
	DD	0d5405H
	DD	imagerel $LN66
	DD	imagerel $LN66+6
	DD	imagerel $unwind$?_set@shared_str@@QEAAXPEBD@Z
xdata	ENDS
;	COMDAT xdata
xdata	SEGMENT
$unwind$?_set@shared_str@@QEAAXPEBD@Z DD 020601H
	DD	0f0029206H
xdata	ENDS
;	COMDAT xdata
xdata	SEGMENT
$chain$7$??0shared_str@@QEAA@PEBD@Z DD 021H
	DD	imagerel $LN68
	DD	imagerel $LN68+11
	DD	imagerel $unwind$??0shared_str@@QEAA@PEBD@Z
xdata	ENDS
;	COMDAT xdata
xdata	SEGMENT
$chain$6$??0shared_str@@QEAA@PEBD@Z DD 021H
	DD	imagerel $LN68+11
	DD	imagerel $LN68+42
	DD	imagerel $chain$0$??0shared_str@@QEAA@PEBD@Z
xdata	ENDS
;	COMDAT xdata
xdata	SEGMENT
$chain$5$??0shared_str@@QEAA@PEBD@Z DD 021H
	DD	imagerel $LN68+42
	DD	imagerel $LN68+47
	DD	imagerel $chain$1$??0shared_str@@QEAA@PEBD@Z
xdata	ENDS
;	COMDAT xdata
xdata	SEGMENT
$chain$4$??0shared_str@@QEAA@PEBD@Z DD 060f21H
	DD	08c40fH
	DD	0f740aH
	DD	0e6405H
	DD	imagerel $LN68+42
	DD	imagerel $LN68+47
	DD	imagerel $chain$1$??0shared_str@@QEAA@PEBD@Z
xdata	ENDS
;	COMDAT xdata
xdata	SEGMENT
$chain$1$??0shared_str@@QEAA@PEBD@Z DD 020521H
	DD	0c3405H
	DD	imagerel $LN68+11
	DD	imagerel $LN68+42
	DD	imagerel $chain$0$??0shared_str@@QEAA@PEBD@Z
xdata	ENDS
;	COMDAT xdata
xdata	SEGMENT
$chain$0$??0shared_str@@QEAA@PEBD@Z DD 020521H
	DD	0d5405H
	DD	imagerel $LN68
	DD	imagerel $LN68+11
	DD	imagerel $unwind$??0shared_str@@QEAA@PEBD@Z
xdata	ENDS
;	COMDAT xdata
xdata	SEGMENT
$unwind$??0shared_str@@QEAA@PEBD@Z DD 030801H
	DD	0f0048208H
	DD	0e002H
?logCS$initializer$@@3P6AXXZEA DQ FLAT:??__ElogCS@@YAXXZ ; logCS$initializer$
?PreLoadVector$initializer$@@3P6AXXZEA DQ FLAT:??__EPreLoadVector@@YAXXZ ; PreLoadVector$initializer$
; Function compile flags: /Ogtpy
; File C:\Users\Mahito\Desktop\Night outing\Night-outing\src\xrCore\log.cpp
; File C:\Program Files (x86)\Windows Kits\10\Include\10.0.26100.0\ucrt\stdio.h
; File C:\Users\Mahito\Desktop\Night outing\Night-outing\src\xrCore\log.cpp
; File C:\Program Files (x86)\Windows Kits\10\Include\10.0.26100.0\ucrt\stdio.h
; File C:\Users\Mahito\Desktop\Night outing\Night-outing\src\xrCore\log.cpp
_TEXT	SEGMENT
buf$ = 48
format$ = 2128
?Msg@@YAXPEBDZZ PROC					; Msg

; 91   : {

$LN9:
	mov	rax, rsp
	mov	QWORD PTR [rax+8], rcx
	mov	QWORD PTR [rax+16], rdx
	mov	QWORD PTR [rax+24], r8
	mov	QWORD PTR [rax+32], r9
	push	rbx
	push	rdi
	sub	rsp, 2104				; 00000838H
	mov	rbx, rcx

; 92   : 	va_list		mark;
; 93   : 	string2048	buf;
; 94   : 	va_start	(mark, format );

	lea	rdi, QWORD PTR [rax+16]
; File C:\Program Files (x86)\Windows Kits\10\Include\10.0.26100.0\ucrt\stdio.h

; 1392 :         int const _Result = __stdio_common_vsprintf(

	call	__local_stdio_printf_options
	mov	QWORD PTR [rsp+40], rdi
	lea	rdx, QWORD PTR buf$[rsp]
	mov	r9, rbx
	mov	QWORD PTR [rsp+32], 0
	mov	r8d, 2047				; 000007ffH
	mov	rcx, QWORD PTR [rax]
	or	rcx, 1
	call	QWORD PTR __imp___stdio_common_vsprintf

; 1396 :         return _Result < 0 ? -1 : _Result;

	mov	ecx, -1
; File C:\Users\Mahito\Desktop\Night outing\Night-outing\src\xrCore\log.cpp

; 95   : 	int sz		= _vsnprintf(buf, sizeof(buf)-1, format, mark ); buf[sizeof(buf)-1]=0;

	mov	BYTE PTR buf$[rsp+2047], 0
; File C:\Program Files (x86)\Windows Kits\10\Include\10.0.26100.0\ucrt\stdio.h

; 1396 :         return _Result < 0 ? -1 : _Result;

	test	eax, eax
	cmovs	eax, ecx
; File C:\Users\Mahito\Desktop\Night outing\Night-outing\src\xrCore\log.cpp

; 97   : 	if (sz)		Log(buf);

	test	eax, eax
	je	SHORT $LN2@Msg
	lea	rcx, QWORD PTR buf$[rsp]
	call	?Log@@YAXPEBD@Z				; Log
$LN2@Msg:

; 98   : }

	add	rsp, 2104				; 00000838H
	pop	rdi
	pop	rbx
	ret	0
?Msg@@YAXPEBDZZ ENDP					; Msg
_TEXT	ENDS
; Function compile flags: /Ogtpy
; File C:\Users\Mahito\Desktop\Night outing\Night-outing\src\xrCore\log.cpp
; File C:\Users\Mahito\Desktop\Night outing\Night-outing\src\xrCore\xrMemory_subst_msvc.cpp
; File C:\Users\Mahito\Desktop\Night outing\Night-outing\src\xrCore\xrSyncronize.cpp
; File C:\Users\Mahito\Desktop\Night outing\Night-outing\src\xrCore\log.cpp
;	COMDAT ??__ElogCS@@YAXXZ
text$di	SEGMENT
??__ElogCS@@YAXXZ PROC					; `dynamic initializer for 'logCS'', COMDAT

; 19   : 	static xrCriticalSection	logCS;

	sub	rsp, 40					; 00000028H
; File C:\Users\Mahito\Desktop\Night outing\Night-outing\src\xrCore\xrMemory_subst_msvc.cpp

; 39   : 	stat_calls++;

	inc	DWORD PTR ?Memory@@3VxrMemory@@A

; 40   : 
; 41   : #ifdef PURE_ALLOC
; 42   : 	if (g_use_pure_alloc)
; 43   : 	{
; 44   : 		//void* result = malloc(size);
; 45   : 		void* result = _aligned_malloc(size, PURE_MEMORY_ALIGNMENT);

	mov	edx, 16
	lea	ecx, QWORD PTR [rdx+24]
	call	QWORD PTR __imp__aligned_malloc

; 46   : #ifdef PURE_MEMORY_FILL_ZERO
; 47   : 		if (result)

	test	rax, rax
	je	SHORT $LN9@dynamic
	vpxor	xmm0, xmm0, xmm0

; 48   : 			memset(result, 0, size);

	xor	ecx, ecx
	vmovups	YMMWORD PTR [rax], ymm0
	mov	QWORD PTR [rax+32], rcx
$LN9@dynamic:
; File C:\Users\Mahito\Desktop\Night outing\Night-outing\src\xrCore\xrSyncronize.cpp

; 40   : 	pmutex							= xr_alloc<CRITICAL_SECTION>(1);

	mov	QWORD PTR ?logCS@@3VxrCriticalSection@@A, rax

; 41   : 	InitializeCriticalSection		( (CRITICAL_SECTION*)pmutex	);

	mov	rcx, rax
	vzeroupper
	call	QWORD PTR __imp_InitializeCriticalSection
; File C:\Users\Mahito\Desktop\Night outing\Night-outing\src\xrCore\log.cpp

; 19   : 	static xrCriticalSection	logCS;

	lea	rcx, OFFSET FLAT:??__FlogCS@@YAXXZ	; `dynamic atexit destructor for 'logCS''
	call	atexit
	add	rsp, 40					; 00000028H
	ret	0
??__ElogCS@@YAXXZ ENDP					; `dynamic initializer for 'logCS''
text$di	ENDS
; Function compile flags: /Ogtpy
; File C:\Users\Mahito\Desktop\Night outing\Night-outing\src\xrCore\xrSyncronize.cpp
; File C:\Users\Mahito\Desktop\Night outing\Night-outing\src\xrCore\xrMemory.h
; File C:\Users\Mahito\Desktop\Night outing\Night-outing\src\xrCore\xrMemory_subst_msvc.cpp
; File C:\Users\Mahito\Desktop\Night outing\Night-outing\src\xrCore\xrMemory.h
;	COMDAT ??__FlogCS@@YAXXZ
text$yd	SEGMENT
??__FlogCS@@YAXXZ PROC					; `dynamic atexit destructor for 'logCS'', COMDAT
	sub	rsp, 40					; 00000028H
; File C:\Users\Mahito\Desktop\Night outing\Night-outing\src\xrCore\xrSyncronize.cpp

; 46   : 	DeleteCriticalSection			( (CRITICAL_SECTION*)pmutex	);

	mov	rcx, QWORD PTR ?logCS@@3VxrCriticalSection@@A
	call	QWORD PTR __imp_DeleteCriticalSection
; File C:\Users\Mahito\Desktop\Night outing\Night-outing\src\xrCore\xrMemory.h

; 69   : 	if (P)

	mov	rcx, QWORD PTR ?logCS@@3VxrCriticalSection@@A
	test	rcx, rcx
	je	SHORT $LN6@dynamic
; File C:\Users\Mahito\Desktop\Night outing\Night-outing\src\xrCore\xrMemory_subst_msvc.cpp

; 99   : 	stat_calls++;

	inc	DWORD PTR ?Memory@@3VxrMemory@@A

; 100  : 
; 101  : #ifdef PURE_ALLOC
; 102  : 	if (g_use_pure_alloc)
; 103  : 	{
; 104  : 		//free(P);
; 105  : 		_aligned_free(P);

	call	QWORD PTR __imp__aligned_free
; File C:\Users\Mahito\Desktop\Night outing\Night-outing\src\xrCore\xrMemory.h

; 72   : 		P = NULL;

	mov	QWORD PTR ?logCS@@3VxrCriticalSection@@A, 0
$LN6@dynamic:
	add	rsp, 40					; 00000028H
	ret	0
??__FlogCS@@YAXXZ ENDP					; `dynamic atexit destructor for 'logCS''
text$yd	ENDS
; Function compile flags: /Ogtpy
; File C:\Users\Mahito\Desktop\Night outing\Night-outing\src\xrCore\log.cpp
;	COMDAT ??__EPreLoadVector@@YAXXZ
text$di	SEGMENT
??__EPreLoadVector@@YAXXZ PROC				; `dynamic initializer for 'PreLoadVector'', COMDAT

; 22   : xr_vector<shared_str> PreLoadVector;

	lea	rcx, OFFSET FLAT:??__FPreLoadVector@@YAXXZ ; `dynamic atexit destructor for 'PreLoadVector''
	jmp	atexit
??__EPreLoadVector@@YAXXZ ENDP				; `dynamic initializer for 'PreLoadVector''
text$di	ENDS
; Function compile flags: /Ogtpy
; File C:\Program Files\Microsoft Visual Studio\2022\Community\VC\Tools\MSVC\14.35.32215\include\vector
; File C:\Program Files\Microsoft Visual Studio\2022\Community\VC\Tools\MSVC\14.35.32215\include\xmemory
; File C:\Users\Mahito\Desktop\Night outing\Night-outing\src\xrCore\xrstring.h
; File C:\Program Files\Microsoft Visual Studio\2022\Community\VC\Tools\MSVC\14.35.32215\include\xmemory
; File C:\Users\Mahito\Desktop\Night outing\Night-outing\src\xrCore\xrMemory.h
; File C:\Users\Mahito\Desktop\Night outing\Night-outing\src\xrCore\xrMemory_subst_msvc.cpp
; File C:\Program Files\Microsoft Visual Studio\2022\Community\VC\Tools\MSVC\14.35.32215\include\vector
;	COMDAT ??__FPreLoadVector@@YAXXZ
text$yd	SEGMENT
??__FPreLoadVector@@YAXXZ PROC				; `dynamic atexit destructor for 'PreLoadVector'', COMDAT
	sub	rsp, 40					; 00000028H

; 2107 :         if (_Myfirst) { // destroy and deallocate old array

	mov	rcx, QWORD PTR ?PreLoadVector@@3V?$xr_vector@Vshared_str@@V?$xalloc@Vshared_str@@@@@@A
	test	rcx, rcx
	je	SHORT $LN8@dynamic

; 2108 :             _Destroy_range(_Myfirst, _Mylast, _Al);

	mov	rdx, QWORD PTR ?PreLoadVector@@3V?$xr_vector@Vshared_str@@V?$xalloc@Vshared_str@@@@@@A+8
	mov	QWORD PTR [rsp+32], rbx
; File C:\Program Files\Microsoft Visual Studio\2022\Community\VC\Tools\MSVC\14.35.32215\include\xmemory

; 946  :         for (; _First != _Last; ++_First) {

	xor	ebx, ebx
	cmp	rcx, rdx
	je	SHORT $LN12@dynamic
$LL13@dynamic:
; File C:\Users\Mahito\Desktop\Night outing\Night-outing\src\xrCore\xrstring.h

; 61   : 	void				_dec		()								{	if (0==p_) return;	p_->dwReference--; 	if (0==p_->dwReference)	p_=0;						}

	mov	rax, QWORD PTR [rcx]
	test	rax, rax
	je	SHORT $LN26@dynamic
	dec	DWORD PTR [rax]
	mov	rax, QWORD PTR [rcx]
	cmp	DWORD PTR [rax], ebx
	jne	SHORT $LN26@dynamic
	mov	QWORD PTR [rcx], rbx
$LN26@dynamic:
; File C:\Program Files\Microsoft Visual Studio\2022\Community\VC\Tools\MSVC\14.35.32215\include\xmemory

; 946  :         for (; _First != _Last; ++_First) {

	add	rcx, 8
	cmp	rcx, rdx
	jne	SHORT $LL13@dynamic
	mov	rcx, QWORD PTR ?PreLoadVector@@3V?$xr_vector@Vshared_str@@V?$xalloc@Vshared_str@@@@@@A
$LN12@dynamic:
; File C:\Users\Mahito\Desktop\Night outing\Night-outing\src\xrCore\xrMemory.h

; 69   : 	if (P)

	test	rcx, rcx
	je	SHORT $LN31@dynamic
; File C:\Users\Mahito\Desktop\Night outing\Night-outing\src\xrCore\xrMemory_subst_msvc.cpp

; 99   : 	stat_calls++;

	inc	DWORD PTR ?Memory@@3VxrMemory@@A

; 100  : 
; 101  : #ifdef PURE_ALLOC
; 102  : 	if (g_use_pure_alloc)
; 103  : 	{
; 104  : 		//free(P);
; 105  : 		_aligned_free(P);

	call	QWORD PTR __imp__aligned_free
$LN31@dynamic:
	vpxor	xmm0, xmm0, xmm0
; File C:\Program Files\Microsoft Visual Studio\2022\Community\VC\Tools\MSVC\14.35.32215\include\vector

; 2112 :             _Myfirst = nullptr;

	mov	QWORD PTR ?PreLoadVector@@3V?$xr_vector@Vshared_str@@V?$xalloc@Vshared_str@@@@@@A, rbx

; 2113 :             _Mylast  = nullptr;

	mov	rbx, QWORD PTR [rsp+32]
	vmovdqu	XMMWORD PTR ?PreLoadVector@@3V?$xr_vector@Vshared_str@@V?$xalloc@Vshared_str@@@@@@A+8, xmm0
$LN8@dynamic:
	add	rsp, 40					; 00000028H
	ret	0
??__FPreLoadVector@@YAXXZ ENDP				; `dynamic atexit destructor for 'PreLoadVector''
text$yd	ENDS
; Function compile flags: /Ogtpy
;	COMDAT ??1?$xr_vector@Vshared_str@@V?$xalloc@Vshared_str@@@@@@QEAA@XZ
_TEXT	SEGMENT
this$ = 8
??1?$xr_vector@Vshared_str@@V?$xalloc@Vshared_str@@@@@@QEAA@XZ PROC ; xr_vector<shared_str,xalloc<shared_str> >::~xr_vector<shared_str,xalloc<shared_str> >, COMDAT
	jmp	??1?$vector@Vshared_str@@V?$xalloc@Vshared_str@@@@@std@@QEAA@XZ ; std::vector<shared_str,xalloc<shared_str> >::~vector<shared_str,xalloc<shared_str> >
??1?$xr_vector@Vshared_str@@V?$xalloc@Vshared_str@@@@@@QEAA@XZ ENDP ; xr_vector<shared_str,xalloc<shared_str> >::~xr_vector<shared_str,xalloc<shared_str> >
_TEXT	ENDS
; Function compile flags: /Ogtpy
; File C:\Users\Mahito\Desktop\Night outing\Night-outing\src\xrCore\log.cpp
_TEXT	SEGMENT
?FlushLog@@YAXXZ PROC					; FlushLog

; 34   :  
; 35   : }

	ret	0
?FlushLog@@YAXXZ ENDP					; FlushLog
_TEXT	ENDS
; Function compile flags: /Ogtpy
; File C:\Users\Mahito\Desktop\Night outing\Night-outing\src\xrCore\log.cpp
; File C:\Users\Mahito\Desktop\Night outing\Night-outing\src\xrCore\xrSyncronize.cpp
; File C:\Users\Mahito\Desktop\Night outing\Night-outing\src\xrCore\log.cpp
; File C:\Users\Mahito\Desktop\Night outing\Night-outing\src\xrCore\xrSyncronize.cpp
; File C:\Users\Mahito\Desktop\Night outing\Night-outing\src\xrCore\log.cpp
; File C:\Users\Mahito\Desktop\Night outing\Night-outing\src\xrCore\xrSyncronize.cpp
; File C:\Users\Mahito\Desktop\Night outing\Night-outing\src\xrCore\log.cpp
_TEXT	SEGMENT
split$ = 48
?AddOne@@YAXPEBD@Z PROC					; AddOne

; 38   : {

$LN75:
	push	rbx
	sub	rsp, 32					; 00000020H
	mov	rbx, rcx
; File C:\Users\Mahito\Desktop\Night outing\Night-outing\src\xrCore\xrSyncronize.cpp

; 64   : 	EnterCriticalSection			( (CRITICAL_SECTION*)pmutex );

	mov	rcx, QWORD PTR ?logCS@@3VxrCriticalSection@@A
	call	QWORD PTR __imp_EnterCriticalSection
; File C:\Users\Mahito\Desktop\Night outing\Night-outing\src\xrCore\log.cpp

; 41   : 	OutputDebugString	(split);

	mov	rcx, rbx
	call	QWORD PTR __imp_OutputDebugStringA

; 42   : 	OutputDebugString	("\n");

	lea	rcx, OFFSET FLAT:??_C@_01EEMJAFIK@?6@
	call	QWORD PTR __imp_OutputDebugStringA

; 43   :  
; 44   : 	{
; 45   : 		if (LogFile)
; 46   : 		{
; 47   : 			shared_str			temp = shared_str(split);
; 48   : 
; 49   : 			LogFile->push_back(temp);
; 50   : 
; 51   : 			if (writerfile)
; 52   : 			{
; 53   : 				writerfile->w_string(split);
; 54   : 				writerfile->flush();
; 55   : 			}
; 56   : 		}
; 57   : 	}
; 58   : 
; 59   : 	//exec CallBack
; 60   : 	if (LogExecCB&&LogCB)

	mov	rax, QWORD PTR ?LogCB@@3P6AXPEBD@ZEA
	test	rax, rax
	je	SHORT $LN4@AddOne

; 61   : 		LogCB(split);

	mov	rcx, rbx
	call	rax
$LN4@AddOne:
; File C:\Users\Mahito\Desktop\Night outing\Night-outing\src\xrCore\xrSyncronize.cpp

; 69   : 	LeaveCriticalSection			( (CRITICAL_SECTION*)pmutex );

	mov	rcx, QWORD PTR ?logCS@@3VxrCriticalSection@@A
; File C:\Users\Mahito\Desktop\Night outing\Night-outing\src\xrCore\log.cpp

; 64   : }

	add	rsp, 32					; 00000020H
	pop	rbx
; File C:\Users\Mahito\Desktop\Night outing\Night-outing\src\xrCore\xrSyncronize.cpp

; 69   : 	LeaveCriticalSection			( (CRITICAL_SECTION*)pmutex );

	rex_jmp	QWORD PTR __imp_LeaveCriticalSection
?AddOne@@YAXPEBD@Z ENDP					; AddOne
_TEXT	ENDS
; Function compile flags: /Ogtpy
; File C:\Users\Mahito\Desktop\Night outing\Night-outing\src\xrCore\log.cpp
; File C:\Users\Mahito\Desktop\Night outing\Night-outing\src\xrCore\_std_extensions.h
; File C:\Users\Mahito\Desktop\Night outing\Night-outing\src\xrCore\log.cpp
; File C:\Users\Mahito\Desktop\Night outing\Night-outing\src\xrCore\_std_extensions.h
; File C:\Users\Mahito\Desktop\Night outing\Night-outing\src\xrCore\log.cpp
; File C:\Users\Mahito\Desktop\Night outing\Night-outing\src\xrCore\xrSyncronize.cpp
; File C:\Users\Mahito\Desktop\Night outing\Night-outing\src\xrCore\log.cpp
; File C:\Users\Mahito\Desktop\Night outing\Night-outing\src\xrCore\xrSyncronize.cpp
; File C:\Users\Mahito\Desktop\Night outing\Night-outing\src\xrCore\log.cpp
; File C:\Users\Mahito\Desktop\Night outing\Night-outing\src\xrCore\xrSyncronize.cpp
; File C:\Users\Mahito\Desktop\Night outing\Night-outing\src\xrCore\log.cpp
; File C:\Users\Mahito\Desktop\Night outing\Night-outing\src\xrCore\xrSyncronize.cpp
; File C:\Users\Mahito\Desktop\Night outing\Night-outing\src\xrCore\log.cpp
_TEXT	SEGMENT
s$ = 16
?Log@@YAXPEBD@Z PROC					; Log

; 67   : {

$LN163:
	push	rbp
	sub	rsp, 32					; 00000020H
	lea	rbp, QWORD PTR [rsp+32]
	mov	QWORD PTR [rbp+16], rbx
; File C:\Users\Mahito\Desktop\Night outing\Night-outing\src\xrCore\_std_extensions.h

; 186  : {	return (u32)strlen(S);			}

	mov	rax, -1
	mov	QWORD PTR [rbp+24], rdi
; File C:\Users\Mahito\Desktop\Night outing\Night-outing\src\xrCore\log.cpp

; 67   : {

	mov	rdi, rcx
	npad	3
$LL160@Log:
; File C:\Users\Mahito\Desktop\Night outing\Night-outing\src\xrCore\_std_extensions.h

; 186  : {	return (u32)strlen(S);			}

	inc	rax
	cmp	BYTE PTR [rcx+rax], 0
	jne	SHORT $LL160@Log
; File C:\Users\Mahito\Desktop\Night outing\Night-outing\src\xrCore\log.cpp

; 72   : 	PSTR split  = (PSTR)_alloca( (length + 1) * sizeof(char) );

	inc	eax
	mov	ecx, eax
	add	rax, 15
	cmp	rax, rcx
	ja	SHORT $LN159@Log
	mov	rax, 1152921504606846960		; 0ffffffffffffff0H
$LN159@Log:
	and	rax, -16
	call	__chkstk

; 73   : #else
; 74   : 	PSTR split  = (PSTR)alloca( (length + 1) * sizeof(char) );
; 75   : #endif
; 76   : 	for (i=0,j=0; s[i]!=0; i++) {

	movzx	ecx, BYTE PTR [rdi]
	sub	rsp, rax
	xor	edx, edx
	lea	rbx, QWORD PTR [rsp+32]
	test	cl, cl
	je	SHORT $LN3@Log
	xor	eax, eax
	npad	4
$LL4@Log:

; 77   : 		if (s[i]=='\n') {

	cmp	cl, 10
	jne	SHORT $LN5@Log

; 78   : 			split[j]=0;	// end of line

	mov	BYTE PTR [rax+rbx], 0

; 79   : 			if (split[0]==0) { split[0]=' '; split[1]=0; }

	cmp	BYTE PTR [rbx], 0
	jne	SHORT $LN7@Log
	mov	WORD PTR [rbx], 32			; 00000020H
$LN7@Log:
; File C:\Users\Mahito\Desktop\Night outing\Night-outing\src\xrCore\xrSyncronize.cpp

; 64   : 	EnterCriticalSection			( (CRITICAL_SECTION*)pmutex );

	mov	rcx, QWORD PTR ?logCS@@3VxrCriticalSection@@A
	call	QWORD PTR __imp_EnterCriticalSection
; File C:\Users\Mahito\Desktop\Night outing\Night-outing\src\xrCore\log.cpp

; 41   : 	OutputDebugString	(split);

	mov	rcx, rbx
	call	QWORD PTR __imp_OutputDebugStringA

; 42   : 	OutputDebugString	("\n");

	lea	rcx, OFFSET FLAT:??_C@_01EEMJAFIK@?6@
	call	QWORD PTR __imp_OutputDebugStringA

; 43   :  
; 44   : 	{
; 45   : 		if (LogFile)
; 46   : 		{
; 47   : 			shared_str			temp = shared_str(split);
; 48   : 
; 49   : 			LogFile->push_back(temp);
; 50   : 
; 51   : 			if (writerfile)
; 52   : 			{
; 53   : 				writerfile->w_string(split);
; 54   : 				writerfile->flush();
; 55   : 			}
; 56   : 		}
; 57   : 	}
; 58   : 
; 59   : 	//exec CallBack
; 60   : 	if (LogExecCB&&LogCB)

	mov	rax, QWORD PTR ?LogCB@@3P6AXPEBD@ZEA
	test	rax, rax
	je	SHORT $LN84@Log

; 61   : 		LogCB(split);

	mov	rcx, rbx
	call	rax
$LN84@Log:
; File C:\Users\Mahito\Desktop\Night outing\Night-outing\src\xrCore\xrSyncronize.cpp

; 69   : 	LeaveCriticalSection			( (CRITICAL_SECTION*)pmutex );

	mov	rcx, QWORD PTR ?logCS@@3VxrCriticalSection@@A
	call	QWORD PTR __imp_LeaveCriticalSection
; File C:\Users\Mahito\Desktop\Night outing\Night-outing\src\xrCore\log.cpp

; 81   : 			j=0;

	xor	edx, edx
	xor	eax, eax

; 82   : 		} else {

	jmp	SHORT $LN2@Log
$LN5@Log:

; 83   : 			split[j++]=s[i];

	inc	edx
	mov	BYTE PTR [rax+rbx], cl
	inc	rax
$LN2@Log:

; 73   : #else
; 74   : 	PSTR split  = (PSTR)alloca( (length + 1) * sizeof(char) );
; 75   : #endif
; 76   : 	for (i=0,j=0; s[i]!=0; i++) {

	movzx	ecx, BYTE PTR [rdi+1]
	inc	rdi
	test	cl, cl
	jne	SHORT $LL4@Log
$LN3@Log:

; 84   : 		}
; 85   : 	}
; 86   : 	split[j]=0;

	movsxd	rax, edx
	mov	BYTE PTR [rax+rbx], 0
; File C:\Users\Mahito\Desktop\Night outing\Night-outing\src\xrCore\xrSyncronize.cpp

; 64   : 	EnterCriticalSection			( (CRITICAL_SECTION*)pmutex );

	mov	rcx, QWORD PTR ?logCS@@3VxrCriticalSection@@A
	call	QWORD PTR __imp_EnterCriticalSection
; File C:\Users\Mahito\Desktop\Night outing\Night-outing\src\xrCore\log.cpp

; 41   : 	OutputDebugString	(split);

	mov	rcx, rbx
	call	QWORD PTR __imp_OutputDebugStringA

; 42   : 	OutputDebugString	("\n");

	lea	rcx, OFFSET FLAT:??_C@_01EEMJAFIK@?6@
	call	QWORD PTR __imp_OutputDebugStringA

; 43   :  
; 44   : 	{
; 45   : 		if (LogFile)
; 46   : 		{
; 47   : 			shared_str			temp = shared_str(split);
; 48   : 
; 49   : 			LogFile->push_back(temp);
; 50   : 
; 51   : 			if (writerfile)
; 52   : 			{
; 53   : 				writerfile->w_string(split);
; 54   : 				writerfile->flush();
; 55   : 			}
; 56   : 		}
; 57   : 	}
; 58   : 
; 59   : 	//exec CallBack
; 60   : 	if (LogExecCB&&LogCB)

	mov	rax, QWORD PTR ?LogCB@@3P6AXPEBD@ZEA
	test	rax, rax
	je	SHORT $LN12@Log

; 61   : 		LogCB(split);

	mov	rcx, rbx
	call	rax
$LN12@Log:
; File C:\Users\Mahito\Desktop\Night outing\Night-outing\src\xrCore\xrSyncronize.cpp

; 69   : 	LeaveCriticalSection			( (CRITICAL_SECTION*)pmutex );

	mov	rcx, QWORD PTR ?logCS@@3VxrCriticalSection@@A
	call	QWORD PTR __imp_LeaveCriticalSection
; File C:\Users\Mahito\Desktop\Night outing\Night-outing\src\xrCore\log.cpp

; 88   : }

	mov	rbx, QWORD PTR [rbp+16]
	mov	rdi, QWORD PTR [rbp+24]
	mov	rsp, rbp
	pop	rbp
	ret	0
?Log@@YAXPEBD@Z ENDP					; Log
_TEXT	ENDS
; Function compile flags: /Ogtpy
; File C:\Users\Mahito\Desktop\Night outing\Night-outing\src\xrCore\log.cpp
; File C:\Users\Mahito\Desktop\Night outing\Night-outing\src\xrCore\_std_extensions.h
; File C:\Users\Mahito\Desktop\Night outing\Night-outing\src\xrCore\log.cpp
_TEXT	SEGMENT
msg$ = 16
dop$ = 24
?Log@@YAXPEBD0@Z PROC					; Log

; 100  : void Log				(const char *msg, const char *dop) {

$LN13:
	push	rbp
	sub	rsp, 48					; 00000030H
	lea	rbp, QWORD PTR [rsp+48]
	mov	r8, rcx

; 101  : 	if (!dop) {

	test	rdx, rdx
	je	SHORT $LN11@Log
; File C:\Users\Mahito\Desktop\Night outing\Night-outing\src\xrCore\_std_extensions.h

; 186  : {	return (u32)strlen(S);			}

	mov	rax, -1
	mov	rcx, rax
	npad	3
$LL10@Log:
	inc	rcx
	cmp	BYTE PTR [r8+rcx], 0
	jne	SHORT $LL10@Log
	npad	6
$LL9@Log:
	inc	rax
	cmp	BYTE PTR [rdx+rax], 0
	jne	SHORT $LL9@Log
; File C:\Users\Mahito\Desktop\Night outing\Night-outing\src\xrCore\log.cpp

; 106  : 	u32			buffer_size = (xr_strlen(msg) + 1 + xr_strlen(dop) + 1) * sizeof(char);

	add	eax, 2
	add	ecx, eax

; 107  : 	PSTR buf	= (PSTR)_alloca( buffer_size );

	mov	eax, ecx
	lea	r9, QWORD PTR [rcx+15]
	cmp	r9, rax
	ja	SHORT $LN8@Log
	mov	r9, 1152921504606846960			; 0ffffffffffffff0H
$LN8@Log:
	and	r9, -16
	mov	rax, r9
	call	__chkstk
	sub	rsp, r9

; 108  : 	strconcat	(buffer_size, buf, msg, " ", dop);

	mov	QWORD PTR [rsp+32], rdx
	lea	r11, QWORD PTR [rsp+48]
	mov	rdx, r11
	call	?strconcat@@YAPEADHPEADPEBD11@Z		; strconcat

; 109  : 	Log			(buf);

	mov	rcx, r11
$LN11@Log:

; 110  : }

	call	?Log@@YAXPEBD@Z				; Log
	mov	rsp, rbp
	pop	rbp
	ret	0
?Log@@YAXPEBD0@Z ENDP					; Log
_TEXT	ENDS
; Function compile flags: /Ogtpy
; File C:\Users\Mahito\Desktop\Night outing\Night-outing\src\xrCore\log.cpp
_TEXT	SEGMENT
msg$dead$ = 16
dop$ = 24
?Log@@YAXPEBDI@Z PROC					; Log

; 112  : void Log				(const char *msg, u32 dop) {

$LN6:
	push	rbp
	sub	rsp, 48					; 00000030H
	lea	rbp, QWORD PTR [rsp+48]

; 113  : 	u32			buffer_size = (xr_strlen(msg) + 1 + 10 + 1) * sizeof(char);
; 114  : 	PSTR buf	= (PSTR)_alloca( buffer_size );

	mov	eax, DWORD PTR [rsp]
	mov	QWORD PTR [rbp+16], rbx
	sub	rsp, 32					; 00000020H
	lea	rbx, QWORD PTR [rsp+48]
	mov	eax, DWORD PTR [rbx]

; 115  : 
; 116  : 	xr_sprintf	(buf, buffer_size, "%s %d", msg, dop);

	mov	DWORD PTR [rsp+32], edx
	lea	r9, OFFSET FLAT:??_C@_0BB@JJHONFGH@?9?9?9?9total?5count?$DN@
	mov	edx, 28
	lea	r8, OFFSET FLAT:??_C@_05DIALNFFA@?$CFs?5?$CFd@
	mov	rcx, rbx
	call	?xr_sprintf@@YAHPEAD_KPEBDZZ		; xr_sprintf

; 117  : 	Log			(buf);

	mov	rcx, rbx
	call	?Log@@YAXPEBD@Z				; Log

; 118  : }

	mov	rbx, QWORD PTR [rbp+16]
	mov	rsp, rbp
	pop	rbp
	ret	0
?Log@@YAXPEBDI@Z ENDP					; Log
_TEXT	ENDS
; Function compile flags: /Ogtpy
; File C:\Users\Mahito\Desktop\Night outing\Night-outing\src\xrCore\_stl_extensions.h
; File C:\Program Files\Microsoft Visual Studio\2022\Community\VC\Tools\MSVC\14.35.32215\include\vector
; File C:\Users\Mahito\Desktop\Night outing\Night-outing\src\xrCore\_stl_extensions.h
;	COMDAT ??0?$xr_vector@Vshared_str@@V?$xalloc@Vshared_str@@@@@@QEAA@XZ
_TEXT	SEGMENT
this$ = 8
??0?$xr_vector@Vshared_str@@V?$xalloc@Vshared_str@@@@@@QEAA@XZ PROC ; xr_vector<shared_str,xalloc<shared_str> >::xr_vector<shared_str,xalloc<shared_str> >, COMDAT
; File C:\Program Files\Microsoft Visual Studio\2022\Community\VC\Tools\MSVC\14.35.32215\include\vector

; 390  :     _CONSTEXPR20 _Vector_val() noexcept : _Myfirst(), _Mylast(), _Myend() {}

	xor	eax, eax
	mov	QWORD PTR [rcx], rax
	mov	QWORD PTR [rcx+8], rax
	mov	QWORD PTR [rcx+16], rax
; File C:\Users\Mahito\Desktop\Night outing\Night-outing\src\xrCore\_stl_extensions.h

; 123  : 			xr_vector			()									: inherited	()					{}

	mov	rax, rcx
	ret	0
??0?$xr_vector@Vshared_str@@V?$xalloc@Vshared_str@@@@@@QEAA@XZ ENDP ; xr_vector<shared_str,xalloc<shared_str> >::xr_vector<shared_str,xalloc<shared_str> >
_TEXT	ENDS
; Function compile flags: /Ogtpy
; File C:\Program Files\Microsoft Visual Studio\2022\Community\VC\Tools\MSVC\14.35.32215\include\vector
; File C:\Users\Mahito\Desktop\Night outing\Night-outing\src\xrCore\xrstring.h
; File C:\Program Files\Microsoft Visual Studio\2022\Community\VC\Tools\MSVC\14.35.32215\include\vector
;	COMDAT ?push_back@?$vector@Vshared_str@@V?$xalloc@Vshared_str@@@@@std@@QEAAXAEBVshared_str@@@Z
_TEXT	SEGMENT
this$ = 8
_Val$ = 16
?push_back@?$vector@Vshared_str@@V?$xalloc@Vshared_str@@@@@std@@QEAAXAEBVshared_str@@@Z PROC ; std::vector<shared_str,xalloc<shared_str> >::push_back, COMDAT

; 935  :     _CONSTEXPR20 void push_back(const _Ty& _Val) { // insert element at end, provide strong guarantee

	mov	r8, rdx

; 844  :         if (_Mylast != _My_data._Myend) {

	mov	rdx, QWORD PTR [rcx+8]
	cmp	rdx, QWORD PTR [rcx+16]
	je	SHORT $LN4@push_back
; File C:\Users\Mahito\Desktop\Night outing\Night-outing\src\xrCore\xrstring.h

; 74   : 						shared_str	(shared_str const &rhs)			{	p_ = 0;	_set(rhs);								}

	mov	QWORD PTR [rdx], 0

; 64   : 	void				_set		(shared_str const &rhs)			{	str_value* v = rhs.p_; if (0!=v) v->dwReference++; _dec(); p_ = v;							}

	mov	rax, QWORD PTR [r8]
	test	rax, rax
	je	SHORT $LN15@push_back
	inc	DWORD PTR [rax]
$LN15@push_back:

; 61   : 	void				_dec		()								{	if (0==p_) return;	p_->dwReference--; 	if (0==p_->dwReference)	p_=0;						}

	mov	r8, QWORD PTR [rdx]
	test	r8, r8
	je	SHORT $LN19@push_back
	dec	DWORD PTR [r8]
$LN19@push_back:

; 64   : 	void				_set		(shared_str const &rhs)			{	str_value* v = rhs.p_; if (0!=v) v->dwReference++; _dec(); p_ = v;							}

	mov	QWORD PTR [rdx], rax
; File C:\Program Files\Microsoft Visual Studio\2022\Community\VC\Tools\MSVC\14.35.32215\include\vector

; 869  :         ++_Mylast;

	add	QWORD PTR [rcx+8], 8

; 936  :         _Emplace_one_at_back(_Val);
; 937  :     }

	ret	0
$LN4@push_back:

; 848  :         return *_Emplace_reallocate(_Mylast, _STD forward<_Valty>(_Val)...);

	jmp	??$_Emplace_reallocate@AEBVshared_str@@@?$vector@Vshared_str@@V?$xalloc@Vshared_str@@@@@std@@AEAAPEAVshared_str@@QEAV2@AEBV2@@Z ; std::vector<shared_str,xalloc<shared_str> >::_Emplace_reallocate<shared_str const &>
?push_back@?$vector@Vshared_str@@V?$xalloc@Vshared_str@@@@@std@@QEAAXAEBVshared_str@@@Z ENDP ; std::vector<shared_str,xalloc<shared_str> >::push_back
_TEXT	ENDS
; Function compile flags: /Ogtpy
; File C:\Program Files\Microsoft Visual Studio\2022\Community\VC\Tools\MSVC\14.35.32215\include\vector
; File C:\Program Files\Microsoft Visual Studio\2022\Community\VC\Tools\MSVC\14.35.32215\include\xmemory
; File C:\Users\Mahito\Desktop\Night outing\Night-outing\src\xrCore\xrstring.h
; File C:\Program Files\Microsoft Visual Studio\2022\Community\VC\Tools\MSVC\14.35.32215\include\xmemory
; File C:\Program Files\Microsoft Visual Studio\2022\Community\VC\Tools\MSVC\14.35.32215\include\vector
; File C:\Users\Mahito\Desktop\Night outing\Night-outing\src\xrCore\xrMemory.h
; File C:\Users\Mahito\Desktop\Night outing\Night-outing\src\xrCore\xrMemory_subst_msvc.cpp
; File C:\Program Files\Microsoft Visual Studio\2022\Community\VC\Tools\MSVC\14.35.32215\include\vector
;	COMDAT ??1?$vector@Vshared_str@@V?$xalloc@Vshared_str@@@@@std@@QEAA@XZ
_TEXT	SEGMENT
this$ = 48
??1?$vector@Vshared_str@@V?$xalloc@Vshared_str@@@@@std@@QEAA@XZ PROC ; std::vector<shared_str,xalloc<shared_str> >::~vector<shared_str,xalloc<shared_str> >, COMDAT

; 829  :     _CONSTEXPR20 ~vector() noexcept {

$LN53:
	push	rbx
	sub	rsp, 32					; 00000020H

; 2107 :         if (_Myfirst) { // destroy and deallocate old array

	mov	rax, QWORD PTR [rcx]

; 829  :     _CONSTEXPR20 ~vector() noexcept {

	mov	rbx, rcx

; 2107 :         if (_Myfirst) { // destroy and deallocate old array

	test	rax, rax
	je	SHORT $LN4@vector

; 2108 :             _Destroy_range(_Myfirst, _Mylast, _Al);

	mov	rdx, QWORD PTR [rcx+8]
	mov	QWORD PTR [rsp+48], rdi
; File C:\Program Files\Microsoft Visual Studio\2022\Community\VC\Tools\MSVC\14.35.32215\include\xmemory

; 946  :         for (; _First != _Last; ++_First) {

	xor	edi, edi
	cmp	rax, rdx
	je	SHORT $LN8@vector
$LL9@vector:
; File C:\Users\Mahito\Desktop\Night outing\Night-outing\src\xrCore\xrstring.h

; 61   : 	void				_dec		()								{	if (0==p_) return;	p_->dwReference--; 	if (0==p_->dwReference)	p_=0;						}

	mov	rcx, QWORD PTR [rax]
	test	rcx, rcx
	je	SHORT $LN22@vector
	dec	DWORD PTR [rcx]
	mov	rcx, QWORD PTR [rax]
	cmp	DWORD PTR [rcx], edi
	jne	SHORT $LN22@vector
	mov	QWORD PTR [rax], rdi
$LN22@vector:
; File C:\Program Files\Microsoft Visual Studio\2022\Community\VC\Tools\MSVC\14.35.32215\include\xmemory

; 946  :         for (; _First != _Last; ++_First) {

	add	rax, 8
	cmp	rax, rdx
	jne	SHORT $LL9@vector
$LN8@vector:
; File C:\Program Files\Microsoft Visual Studio\2022\Community\VC\Tools\MSVC\14.35.32215\include\vector

; 2110 :             _Al.deallocate(_Myfirst, static_cast<size_type>(_Myend - _Myfirst));

	mov	rcx, QWORD PTR [rbx]
; File C:\Users\Mahito\Desktop\Night outing\Night-outing\src\xrCore\xrMemory.h

; 69   : 	if (P)

	test	rcx, rcx
	je	SHORT $LN27@vector
; File C:\Users\Mahito\Desktop\Night outing\Night-outing\src\xrCore\xrMemory_subst_msvc.cpp

; 99   : 	stat_calls++;

	inc	DWORD PTR ?Memory@@3VxrMemory@@A

; 100  : 
; 101  : #ifdef PURE_ALLOC
; 102  : 	if (g_use_pure_alloc)
; 103  : 	{
; 104  : 		//free(P);
; 105  : 		_aligned_free(P);

	call	QWORD PTR __imp__aligned_free
$LN27@vector:
; File C:\Program Files\Microsoft Visual Studio\2022\Community\VC\Tools\MSVC\14.35.32215\include\vector

; 2112 :             _Myfirst = nullptr;

	mov	QWORD PTR [rbx], rdi

; 2113 :             _Mylast  = nullptr;

	mov	QWORD PTR [rbx+8], rdi

; 2114 :             _Myend   = nullptr;

	mov	QWORD PTR [rbx+16], rdi
	mov	rdi, QWORD PTR [rsp+48]
$LN4@vector:

; 830  :         _Tidy();
; 831  : #if _ITERATOR_DEBUG_LEVEL != 0
; 832  :         auto&& _Alproxy = _GET_PROXY_ALLOCATOR(_Alty, _Getal());
; 833  :         _Delete_plain_internal(_Alproxy, _STD exchange(_Mypair._Myval2._Myproxy, nullptr));
; 834  : #endif // _ITERATOR_DEBUG_LEVEL != 0
; 835  :     }

	add	rsp, 32					; 00000020H
	pop	rbx
	ret	0
??1?$vector@Vshared_str@@V?$xalloc@Vshared_str@@@@@std@@QEAA@XZ ENDP ; std::vector<shared_str,xalloc<shared_str> >::~vector<shared_str,xalloc<shared_str> >
_TEXT	ENDS
; Function compile flags: /Ogtpy
; File C:\Program Files\Microsoft Visual Studio\2022\Community\VC\Tools\MSVC\14.35.32215\include\vector
;	COMDAT ?_Xlength@?$vector@Vshared_str@@V?$xalloc@Vshared_str@@@@@std@@CAXXZ
_TEXT	SEGMENT
?_Xlength@?$vector@Vshared_str@@V?$xalloc@Vshared_str@@@@@std@@CAXXZ PROC ; std::vector<shared_str,xalloc<shared_str> >::_Xlength, COMDAT

; 2200 :     [[noreturn]] static void _Xlength() {

$LN4:
	sub	rsp, 40					; 00000028H

; 2201 :         _Xlength_error("vector too long");

	lea	rcx, OFFSET FLAT:??_C@_0BA@FOIKENOD@vector?5too?5long@
	call	QWORD PTR __imp_?_Xlength_error@std@@YAXPEBD@Z
	int	3
$LN3@Xlength:
?_Xlength@?$vector@Vshared_str@@V?$xalloc@Vshared_str@@@@@std@@CAXXZ ENDP ; std::vector<shared_str,xalloc<shared_str> >::_Xlength
_TEXT	ENDS
; Function compile flags: /Ogtpy
; File C:\Program Files\Microsoft Visual Studio\2022\Community\VC\Tools\MSVC\14.35.32215\include\vector
; File C:\Program Files\Microsoft Visual Studio\2022\Community\VC\Tools\MSVC\14.35.32215\include\xmemory
; File C:\Users\Mahito\Desktop\Night outing\Night-outing\src\xrCore\xrstring.h
; File C:\Program Files\Microsoft Visual Studio\2022\Community\VC\Tools\MSVC\14.35.32215\include\xmemory
; File C:\Program Files\Microsoft Visual Studio\2022\Community\VC\Tools\MSVC\14.35.32215\include\vector
; File C:\Users\Mahito\Desktop\Night outing\Night-outing\src\xrCore\xrMemory.h
; File C:\Users\Mahito\Desktop\Night outing\Night-outing\src\xrCore\xrMemory_subst_msvc.cpp
; File C:\Program Files\Microsoft Visual Studio\2022\Community\VC\Tools\MSVC\14.35.32215\include\vector
;	COMDAT ?_Tidy@?$vector@Vshared_str@@V?$xalloc@Vshared_str@@@@@std@@AEAAXXZ
_TEXT	SEGMENT
this$ = 48
?_Tidy@?$vector@Vshared_str@@V?$xalloc@Vshared_str@@@@@std@@AEAAXXZ PROC ; std::vector<shared_str,xalloc<shared_str> >::_Tidy, COMDAT

; 2098 :     _CONSTEXPR20 void _Tidy() noexcept { // free all storage

$LN51:
	push	rbx
	sub	rsp, 32					; 00000020H

; 2099 :         auto& _Al         = _Getal();
; 2100 :         auto& _My_data    = _Mypair._Myval2;
; 2101 :         pointer& _Myfirst = _My_data._Myfirst;
; 2102 :         pointer& _Mylast  = _My_data._Mylast;
; 2103 :         pointer& _Myend   = _My_data._Myend;
; 2104 : 
; 2105 :         _My_data._Orphan_all();
; 2106 : 
; 2107 :         if (_Myfirst) { // destroy and deallocate old array

	mov	rax, QWORD PTR [rcx]
	mov	rbx, rcx
	test	rax, rax
	je	SHORT $LN2@Tidy

; 2108 :             _Destroy_range(_Myfirst, _Mylast, _Al);

	mov	rdx, QWORD PTR [rcx+8]
	mov	QWORD PTR [rsp+48], rdi
; File C:\Program Files\Microsoft Visual Studio\2022\Community\VC\Tools\MSVC\14.35.32215\include\xmemory

; 946  :         for (; _First != _Last; ++_First) {

	xor	edi, edi
	cmp	rax, rdx
	je	SHORT $LN6@Tidy
$LL7@Tidy:
; File C:\Users\Mahito\Desktop\Night outing\Night-outing\src\xrCore\xrstring.h

; 61   : 	void				_dec		()								{	if (0==p_) return;	p_->dwReference--; 	if (0==p_->dwReference)	p_=0;						}

	mov	rcx, QWORD PTR [rax]
	test	rcx, rcx
	je	SHORT $LN20@Tidy
	dec	DWORD PTR [rcx]
	mov	rcx, QWORD PTR [rax]
	cmp	DWORD PTR [rcx], edi
	jne	SHORT $LN20@Tidy
	mov	QWORD PTR [rax], rdi
$LN20@Tidy:
; File C:\Program Files\Microsoft Visual Studio\2022\Community\VC\Tools\MSVC\14.35.32215\include\xmemory

; 946  :         for (; _First != _Last; ++_First) {

	add	rax, 8
	cmp	rax, rdx
	jne	SHORT $LL7@Tidy
$LN6@Tidy:
; File C:\Program Files\Microsoft Visual Studio\2022\Community\VC\Tools\MSVC\14.35.32215\include\vector

; 2110 :             _Al.deallocate(_Myfirst, static_cast<size_type>(_Myend - _Myfirst));

	mov	rcx, QWORD PTR [rbx]
; File C:\Users\Mahito\Desktop\Night outing\Night-outing\src\xrCore\xrMemory.h

; 69   : 	if (P)

	test	rcx, rcx
	je	SHORT $LN25@Tidy
; File C:\Users\Mahito\Desktop\Night outing\Night-outing\src\xrCore\xrMemory_subst_msvc.cpp

; 99   : 	stat_calls++;

	inc	DWORD PTR ?Memory@@3VxrMemory@@A

; 100  : 
; 101  : #ifdef PURE_ALLOC
; 102  : 	if (g_use_pure_alloc)
; 103  : 	{
; 104  : 		//free(P);
; 105  : 		_aligned_free(P);

	call	QWORD PTR __imp__aligned_free
$LN25@Tidy:
; File C:\Program Files\Microsoft Visual Studio\2022\Community\VC\Tools\MSVC\14.35.32215\include\vector

; 2112 :             _Myfirst = nullptr;

	mov	QWORD PTR [rbx], rdi

; 2113 :             _Mylast  = nullptr;

	mov	QWORD PTR [rbx+8], rdi

; 2114 :             _Myend   = nullptr;

	mov	QWORD PTR [rbx+16], rdi
	mov	rdi, QWORD PTR [rsp+48]
$LN2@Tidy:

; 2115 :         }
; 2116 :     }

	add	rsp, 32					; 00000020H
	pop	rbx
	ret	0
?_Tidy@?$vector@Vshared_str@@V?$xalloc@Vshared_str@@@@@std@@AEAAXXZ ENDP ; std::vector<shared_str,xalloc<shared_str> >::_Tidy
_TEXT	ENDS
; Function compile flags: /Ogtpy
; File C:\Program Files\Microsoft Visual Studio\2022\Community\VC\Tools\MSVC\14.35.32215\include\vector
;	COMDAT ?capacity@?$vector@Vshared_str@@V?$xalloc@Vshared_str@@@@@std@@QEBA_KXZ
_TEXT	SEGMENT
this$ = 8
?capacity@?$vector@Vshared_str@@V?$xalloc@Vshared_str@@@@@std@@QEBA_KXZ PROC ; std::vector<shared_str,xalloc<shared_str> >::capacity, COMDAT

; 1941 :         auto& _My_data = _Mypair._Myval2;
; 1942 :         return static_cast<size_type>(_My_data._Myend - _My_data._Myfirst);

	mov	rax, QWORD PTR [rcx+16]
	sub	rax, QWORD PTR [rcx]
	sar	rax, 3

; 1943 :     }

	ret	0
?capacity@?$vector@Vshared_str@@V?$xalloc@Vshared_str@@@@@std@@QEBA_KXZ ENDP ; std::vector<shared_str,xalloc<shared_str> >::capacity
_TEXT	ENDS
; Function compile flags: /Ogtpy
; File C:\Program Files\Microsoft Visual Studio\2022\Community\VC\Tools\MSVC\14.35.32215\include\vector
;	COMDAT ?max_size@?$vector@Vshared_str@@V?$xalloc@Vshared_str@@@@@std@@QEBA_KXZ
_TEXT	SEGMENT
this$dead$ = 8
?max_size@?$vector@Vshared_str@@V?$xalloc@Vshared_str@@@@@std@@QEBA_KXZ PROC ; std::vector<shared_str,xalloc<shared_str> >::max_size, COMDAT

; 1936 :         return (_STD min)(

	mov	rax, 2305843009213693951		; 1fffffffffffffffH

; 1937 :             static_cast<size_type>((numeric_limits<difference_type>::max)()), _Alty_traits::max_size(_Getal()));
; 1938 :     }

	ret	0
?max_size@?$vector@Vshared_str@@V?$xalloc@Vshared_str@@@@@std@@QEBA_KXZ ENDP ; std::vector<shared_str,xalloc<shared_str> >::max_size
_TEXT	ENDS
; Function compile flags: /Ogtpy
; File C:\Program Files\Microsoft Visual Studio\2022\Community\VC\Tools\MSVC\14.35.32215\include\vector
;	COMDAT ??0?$vector@Vshared_str@@V?$xalloc@Vshared_str@@@@@std@@QEAA@XZ
_TEXT	SEGMENT
this$ = 8
??0?$vector@Vshared_str@@V?$xalloc@Vshared_str@@@@@std@@QEAA@XZ PROC ; std::vector<shared_str,xalloc<shared_str> >::vector<shared_str,xalloc<shared_str> >, COMDAT

; 390  :     _CONSTEXPR20 _Vector_val() noexcept : _Myfirst(), _Mylast(), _Myend() {}

	xor	eax, eax
	mov	QWORD PTR [rcx], rax
	mov	QWORD PTR [rcx+8], rax
	mov	QWORD PTR [rcx+16], rax

; 674  :         _Mypair._Myval2._Alloc_proxy(_GET_PROXY_ALLOCATOR(_Alty, _Getal()));
; 675  :     }

	mov	rax, rcx
	ret	0
??0?$vector@Vshared_str@@V?$xalloc@Vshared_str@@@@@std@@QEAA@XZ ENDP ; std::vector<shared_str,xalloc<shared_str> >::vector<shared_str,xalloc<shared_str> >
_TEXT	ENDS
; Function compile flags: /Ogtpy
; File C:\Program Files\Microsoft Visual Studio\2022\Community\VC\Tools\MSVC\14.35.32215\include\vector
;	COMDAT ?_Getal@?$vector@Vshared_str@@V?$xalloc@Vshared_str@@@@@std@@AEBAAEBV?$xalloc@Vshared_str@@@@XZ
_TEXT	SEGMENT
this$ = 8
?_Getal@?$vector@Vshared_str@@V?$xalloc@Vshared_str@@@@@std@@AEBAAEBV?$xalloc@Vshared_str@@@@XZ PROC ; std::vector<shared_str,xalloc<shared_str> >::_Getal, COMDAT

; 2248 :         return _Mypair._Get_first();

	mov	rax, rcx

; 2249 :     }

	ret	0
?_Getal@?$vector@Vshared_str@@V?$xalloc@Vshared_str@@@@@std@@AEBAAEBV?$xalloc@Vshared_str@@@@XZ ENDP ; std::vector<shared_str,xalloc<shared_str> >::_Getal
_TEXT	ENDS
; Function compile flags: /Ogtpy
; File C:\Program Files\Microsoft Visual Studio\2022\Community\VC\Tools\MSVC\14.35.32215\include\vector
;	COMDAT ?_Getal@?$vector@Vshared_str@@V?$xalloc@Vshared_str@@@@@std@@AEAAAEAV?$xalloc@Vshared_str@@@@XZ
_TEXT	SEGMENT
this$ = 8
?_Getal@?$vector@Vshared_str@@V?$xalloc@Vshared_str@@@@@std@@AEAAAEAV?$xalloc@Vshared_str@@@@XZ PROC ; std::vector<shared_str,xalloc<shared_str> >::_Getal, COMDAT

; 2244 :         return _Mypair._Get_first();

	mov	rax, rcx

; 2245 :     }

	ret	0
?_Getal@?$vector@Vshared_str@@V?$xalloc@Vshared_str@@@@@std@@AEAAAEAV?$xalloc@Vshared_str@@@@XZ ENDP ; std::vector<shared_str,xalloc<shared_str> >::_Getal
_TEXT	ENDS
; Function compile flags: /Ogtpy
; File C:\Program Files\Microsoft Visual Studio\2022\Community\VC\Tools\MSVC\14.35.32215\include\vector
; File C:\Program Files\Microsoft Visual Studio\2022\Community\VC\Tools\MSVC\14.35.32215\include\xmemory
; File C:\Users\Mahito\Desktop\Night outing\Night-outing\src\xrCore\xrstring.h
; File C:\Program Files\Microsoft Visual Studio\2022\Community\VC\Tools\MSVC\14.35.32215\include\xmemory
; File C:\Program Files\Microsoft Visual Studio\2022\Community\VC\Tools\MSVC\14.35.32215\include\vector
; File C:\Users\Mahito\Desktop\Night outing\Night-outing\src\xrCore\xrMemory.h
; File C:\Users\Mahito\Desktop\Night outing\Night-outing\src\xrCore\xrMemory_subst_msvc.cpp
; File C:\Program Files\Microsoft Visual Studio\2022\Community\VC\Tools\MSVC\14.35.32215\include\vector
;	COMDAT ?_Change_array@?$vector@Vshared_str@@V?$xalloc@Vshared_str@@@@@std@@AEAAXQEAVshared_str@@_K1@Z
_TEXT	SEGMENT
this$ = 48
_Newvec$ = 56
_Newsize$ = 64
_Newcapacity$ = 72
?_Change_array@?$vector@Vshared_str@@V?$xalloc@Vshared_str@@@@@std@@AEAAXQEAVshared_str@@_K1@Z PROC ; std::vector<shared_str,xalloc<shared_str> >::_Change_array, COMDAT

; 2076 :     _CONSTEXPR20 void _Change_array(const pointer _Newvec, const size_type _Newsize, const size_type _Newcapacity) {

$LN51:
	mov	QWORD PTR [rsp+8], rbx
	mov	QWORD PTR [rsp+16], rbp
	mov	QWORD PTR [rsp+24], rsi
	push	rdi
	sub	rsp, 32					; 00000020H

; 2077 :         // orphan all iterators, discard old array, acquire new array
; 2078 :         auto& _Al         = _Getal();
; 2079 :         auto& _My_data    = _Mypair._Myval2;
; 2080 :         pointer& _Myfirst = _My_data._Myfirst;
; 2081 :         pointer& _Mylast  = _My_data._Mylast;
; 2082 :         pointer& _Myend   = _My_data._Myend;
; 2083 : 
; 2084 :         _My_data._Orphan_all();
; 2085 : 
; 2086 :         if (_Myfirst) { // destroy and deallocate old array

	mov	rax, QWORD PTR [rcx]
	mov	rsi, r9
	mov	rbp, r8
	mov	rdi, rdx
	mov	rbx, rcx
	test	rax, rax
	je	SHORT $LN25@Change_arr

; 2087 :             _Destroy_range(_Myfirst, _Mylast, _Al);

	mov	r10, QWORD PTR [rcx+8]
; File C:\Program Files\Microsoft Visual Studio\2022\Community\VC\Tools\MSVC\14.35.32215\include\xmemory

; 946  :         for (; _First != _Last; ++_First) {

	cmp	rax, r10
	je	SHORT $LN6@Change_arr
	xor	edx, edx
$LL7@Change_arr:
; File C:\Users\Mahito\Desktop\Night outing\Night-outing\src\xrCore\xrstring.h

; 61   : 	void				_dec		()								{	if (0==p_) return;	p_->dwReference--; 	if (0==p_->dwReference)	p_=0;						}

	mov	rcx, QWORD PTR [rax]
	test	rcx, rcx
	je	SHORT $LN20@Change_arr
	dec	DWORD PTR [rcx]
	mov	rcx, QWORD PTR [rax]
	cmp	DWORD PTR [rcx], edx
	jne	SHORT $LN20@Change_arr
	mov	QWORD PTR [rax], rdx
$LN20@Change_arr:
; File C:\Program Files\Microsoft Visual Studio\2022\Community\VC\Tools\MSVC\14.35.32215\include\xmemory

; 946  :         for (; _First != _Last; ++_First) {

	add	rax, 8
	cmp	rax, r10
	jne	SHORT $LL7@Change_arr
$LN6@Change_arr:
; File C:\Program Files\Microsoft Visual Studio\2022\Community\VC\Tools\MSVC\14.35.32215\include\vector

; 2089 :             _Al.deallocate(_Myfirst, static_cast<size_type>(_Myend - _Myfirst));

	mov	rcx, QWORD PTR [rbx]
; File C:\Users\Mahito\Desktop\Night outing\Night-outing\src\xrCore\xrMemory.h

; 69   : 	if (P)

	test	rcx, rcx
	je	SHORT $LN25@Change_arr
; File C:\Users\Mahito\Desktop\Night outing\Night-outing\src\xrCore\xrMemory_subst_msvc.cpp

; 99   : 	stat_calls++;

	inc	DWORD PTR ?Memory@@3VxrMemory@@A

; 100  : 
; 101  : #ifdef PURE_ALLOC
; 102  : 	if (g_use_pure_alloc)
; 103  : 	{
; 104  : 		//free(P);
; 105  : 		_aligned_free(P);

	call	QWORD PTR __imp__aligned_free
$LN25@Change_arr:
; File C:\Program Files\Microsoft Visual Studio\2022\Community\VC\Tools\MSVC\14.35.32215\include\vector

; 2093 :         _Mylast  = _Newvec + _Newsize;

	lea	rax, QWORD PTR [rdi+rbp*8]
	mov	QWORD PTR [rbx], rdi

; 2094 :         _Myend   = _Newvec + _Newcapacity;
; 2095 :         _ASAN_VECTOR_CREATE;
; 2096 :     }

	mov	rbp, QWORD PTR [rsp+56]
	mov	QWORD PTR [rbx+8], rax
	lea	rax, QWORD PTR [rdi+rsi*8]
	mov	rsi, QWORD PTR [rsp+64]
	mov	QWORD PTR [rbx+16], rax
	mov	rbx, QWORD PTR [rsp+48]
	add	rsp, 32					; 00000020H
	pop	rdi
	ret	0
?_Change_array@?$vector@Vshared_str@@V?$xalloc@Vshared_str@@@@@std@@AEAAXQEAVshared_str@@_K1@Z ENDP ; std::vector<shared_str,xalloc<shared_str> >::_Change_array
_TEXT	ENDS
; Function compile flags: /Ogtpy
; File C:\Program Files\Microsoft Visual Studio\2022\Community\VC\Tools\MSVC\14.35.32215\include\xmemory
;	COMDAT ?max_size@?$_Normal_allocator_traits@V?$xalloc@Vshared_str@@@@@std@@SA_KAEBV?$xalloc@Vshared_str@@@@@Z
_TEXT	SEGMENT
_Al$dead$ = 8
?max_size@?$_Normal_allocator_traits@V?$xalloc@Vshared_str@@@@@std@@SA_KAEBV?$xalloc@Vshared_str@@@@@Z PROC ; std::_Normal_allocator_traits<xalloc<shared_str> >::max_size, COMDAT

; 590  :         if constexpr (_Has_max_size<_Alloc>::value) {
; 591  :             return _Al.max_size();

	mov	rax, 2305843009213693951		; 1fffffffffffffffH

; 592  :         } else {
; 593  :             return (numeric_limits<size_type>::max)() / sizeof(value_type);
; 594  :         }
; 595  :     }

	ret	0
?max_size@?$_Normal_allocator_traits@V?$xalloc@Vshared_str@@@@@std@@SA_KAEBV?$xalloc@Vshared_str@@@@@Z ENDP ; std::_Normal_allocator_traits<xalloc<shared_str> >::max_size
_TEXT	ENDS
; Function compile flags: /Ogtpy
; File C:\Users\Mahito\Desktop\Night outing\Night-outing\src\xrCore\_stl_extensions.h
; File C:\Users\Mahito\Desktop\Night outing\Night-outing\src\xrCore\xrMemory.h
; File C:\Users\Mahito\Desktop\Night outing\Night-outing\src\xrCore\xrMemory_subst_msvc.cpp
; File C:\Users\Mahito\Desktop\Night outing\Night-outing\src\xrCore\_stl_extensions.h
;	COMDAT ?deallocate@?$xalloc@Vshared_str@@@@QEBAXPEAVshared_str@@_K@Z
_TEXT	SEGMENT
this$dead$ = 8
p$ = 16
n$dead$ = 24
?deallocate@?$xalloc@Vshared_str@@@@QEBAXPEAVshared_str@@_K@Z PROC ; xalloc<shared_str>::deallocate, COMDAT
; File C:\Users\Mahito\Desktop\Night outing\Night-outing\src\xrCore\xrMemory.h

; 69   : 	if (P)

	test	rdx, rdx
	je	SHORT $LN4@deallocate
; File C:\Users\Mahito\Desktop\Night outing\Night-outing\src\xrCore\xrMemory_subst_msvc.cpp

; 99   : 	stat_calls++;

	inc	DWORD PTR ?Memory@@3VxrMemory@@A

; 100  : 
; 101  : #ifdef PURE_ALLOC
; 102  : 	if (g_use_pure_alloc)
; 103  : 	{
; 104  : 		//free(P);
; 105  : 		_aligned_free(P);

	mov	rcx, rdx
	rex_jmp	QWORD PTR __imp__aligned_free
$LN4@deallocate:
; File C:\Users\Mahito\Desktop\Night outing\Night-outing\src\xrCore\_stl_extensions.h

; 83   : 							void					deallocate		(pointer p, size_type n) const			{	xr_free	(p);				}

	ret	0
?deallocate@?$xalloc@Vshared_str@@@@QEBAXPEAVshared_str@@_K@Z ENDP ; xalloc<shared_str>::deallocate
_TEXT	ENDS
; Function compile flags: /Ogtpy
; File C:\Users\Mahito\Desktop\Night outing\Night-outing\src\xrCore\_stl_extensions.h
; File C:\Users\Mahito\Desktop\Night outing\Night-outing\src\xrCore\xrMemory.h
; File C:\Users\Mahito\Desktop\Night outing\Night-outing\src\xrCore\_stl_extensions.h
;	COMDAT ?allocate@?$xalloc@Vshared_str@@@@QEBAPEAVshared_str@@_KPEBX@Z
_TEXT	SEGMENT
this$dead$ = 8
n$ = 16
p$dead$ = 24
?allocate@?$xalloc@Vshared_str@@@@QEBAPEAVshared_str@@_KPEBX@Z PROC ; xalloc<shared_str>::allocate, COMDAT
; File C:\Users\Mahito\Desktop\Night outing\Night-outing\src\xrCore\xrMemory.h

; 64   : IC T* xr_alloc(u32 count) { return (T*)Memory.mem_alloc(count * sizeof(T)); }

	mov	edx, edx
	lea	rcx, OFFSET FLAT:?Memory@@3VxrMemory@@A	; Memory
	shl	rdx, 3
	jmp	?mem_alloc@xrMemory@@QEAAPEAX_K@Z	; xrMemory::mem_alloc
?allocate@?$xalloc@Vshared_str@@@@QEBAPEAVshared_str@@_KPEBX@Z ENDP ; xalloc<shared_str>::allocate
_TEXT	ENDS
; Function compile flags: /Ogtpy
; File C:\Program Files\Microsoft Visual Studio\2022\Community\VC\Tools\MSVC\14.35.32215\include\xmemory
;	COMDAT ?_Get_first@?$_Compressed_pair@V?$xalloc@Vshared_str@@@@V?$_Vector_val@U?$_Simple_types@Vshared_str@@@std@@@std@@$00@std@@QEBAAEBV?$xalloc@Vshared_str@@@@XZ
_TEXT	SEGMENT
this$ = 8
?_Get_first@?$_Compressed_pair@V?$xalloc@Vshared_str@@@@V?$_Vector_val@U?$_Simple_types@Vshared_str@@@std@@@std@@$00@std@@QEBAAEBV?$xalloc@Vshared_str@@@@XZ PROC ; std::_Compressed_pair<xalloc<shared_str>,std::_Vector_val<std::_Simple_types<shared_str> >,1>::_Get_first, COMDAT

; 1387 :         return *this;

	mov	rax, rcx

; 1388 :     }

	ret	0
?_Get_first@?$_Compressed_pair@V?$xalloc@Vshared_str@@@@V?$_Vector_val@U?$_Simple_types@Vshared_str@@@std@@@std@@$00@std@@QEBAAEBV?$xalloc@Vshared_str@@@@XZ ENDP ; std::_Compressed_pair<xalloc<shared_str>,std::_Vector_val<std::_Simple_types<shared_str> >,1>::_Get_first
_TEXT	ENDS
; Function compile flags: /Ogtpy
; File C:\Program Files\Microsoft Visual Studio\2022\Community\VC\Tools\MSVC\14.35.32215\include\xmemory
;	COMDAT ?_Get_first@?$_Compressed_pair@V?$xalloc@Vshared_str@@@@V?$_Vector_val@U?$_Simple_types@Vshared_str@@@std@@@std@@$00@std@@QEAAAEAV?$xalloc@Vshared_str@@@@XZ
_TEXT	SEGMENT
this$ = 8
?_Get_first@?$_Compressed_pair@V?$xalloc@Vshared_str@@@@V?$_Vector_val@U?$_Simple_types@Vshared_str@@@std@@@std@@$00@std@@QEAAAEAV?$xalloc@Vshared_str@@@@XZ PROC ; std::_Compressed_pair<xalloc<shared_str>,std::_Vector_val<std::_Simple_types<shared_str> >,1>::_Get_first, COMDAT

; 1383 :         return *this;

	mov	rax, rcx

; 1384 :     }

	ret	0
?_Get_first@?$_Compressed_pair@V?$xalloc@Vshared_str@@@@V?$_Vector_val@U?$_Simple_types@Vshared_str@@@std@@@std@@$00@std@@QEAAAEAV?$xalloc@Vshared_str@@@@XZ ENDP ; std::_Compressed_pair<xalloc<shared_str>,std::_Vector_val<std::_Simple_types<shared_str> >,1>::_Get_first
_TEXT	ENDS
; Function compile flags: /Ogtpy
; File C:\Users\Mahito\Desktop\Night outing\Night-outing\src\xrCore\_stl_extensions.h
;	COMDAT ?max_size@?$xalloc@Vshared_str@@@@QEBA_KXZ
_TEXT	SEGMENT
this$dead$ = 8
?max_size@?$xalloc@Vshared_str@@@@QEBA_KXZ PROC		; xalloc<shared_str>::max_size, COMDAT

; 87   : 							size_type				max_size		() const								{	size_type _Count = (size_type)(-1) / sizeof (T);	return (0 < _Count ? _Count : 1);	}

	mov	rax, 2305843009213693951		; 1fffffffffffffffH
	ret	0
?max_size@?$xalloc@Vshared_str@@@@QEBA_KXZ ENDP		; xalloc<shared_str>::max_size
_TEXT	ENDS
; Function compile flags: /Ogtpy
; File C:\Program Files\Microsoft Visual Studio\2022\Community\VC\Tools\MSVC\14.35.32215\include\vector
; File C:\Users\Mahito\Desktop\Night outing\Night-outing\src\xrCore\xrstring.h
; File C:\Program Files\Microsoft Visual Studio\2022\Community\VC\Tools\MSVC\14.35.32215\include\vector
;	COMDAT ??$_Emplace_one_at_back@AEBVshared_str@@@?$vector@Vshared_str@@V?$xalloc@Vshared_str@@@@@std@@AEAAAEAVshared_str@@AEBV2@@Z
_TEXT	SEGMENT
this$ = 8
<_Val_0>$ = 16
??$_Emplace_one_at_back@AEBVshared_str@@@?$vector@Vshared_str@@V?$xalloc@Vshared_str@@@@@std@@AEAAAEAVshared_str@@AEBV2@@Z PROC ; std::vector<shared_str,xalloc<shared_str> >::_Emplace_one_at_back<shared_str const &>, COMDAT

; 839  :     _CONSTEXPR20 _Ty& _Emplace_one_at_back(_Valty&&... _Val) {

	mov	r8, rdx
	mov	r9, rcx

; 840  :         // insert by perfectly forwarding into element at end, provide strong guarantee
; 841  :         auto& _My_data   = _Mypair._Myval2;
; 842  :         pointer& _Mylast = _My_data._Mylast;
; 843  : 
; 844  :         if (_Mylast != _My_data._Myend) {

	mov	rdx, QWORD PTR [rcx+8]
	cmp	rdx, QWORD PTR [rcx+16]
	je	SHORT $LN2@Emplace_on
; File C:\Users\Mahito\Desktop\Night outing\Night-outing\src\xrCore\xrstring.h

; 74   : 						shared_str	(shared_str const &rhs)			{	p_ = 0;	_set(rhs);								}

	mov	QWORD PTR [rdx], 0

; 64   : 	void				_set		(shared_str const &rhs)			{	str_value* v = rhs.p_; if (0!=v) v->dwReference++; _dec(); p_ = v;							}

	mov	rax, QWORD PTR [r8]
	test	rax, rax
	je	SHORT $LN13@Emplace_on
	inc	DWORD PTR [rax]
$LN13@Emplace_on:

; 61   : 	void				_dec		()								{	if (0==p_) return;	p_->dwReference--; 	if (0==p_->dwReference)	p_=0;						}

	mov	rcx, QWORD PTR [rdx]
	test	rcx, rcx
	je	SHORT $LN17@Emplace_on
	dec	DWORD PTR [rcx]
$LN17@Emplace_on:

; 64   : 	void				_set		(shared_str const &rhs)			{	str_value* v = rhs.p_; if (0!=v) v->dwReference++; _dec(); p_ = v;							}

	mov	QWORD PTR [rdx], rax
; File C:\Program Files\Microsoft Visual Studio\2022\Community\VC\Tools\MSVC\14.35.32215\include\vector

; 868  :         _Ty& _Result = *_Mylast;

	mov	rax, QWORD PTR [r9+8]

; 869  :         ++_Mylast;

	lea	rcx, QWORD PTR [rax+8]
	mov	QWORD PTR [r9+8], rcx

; 849  :     }

	ret	0
$LN2@Emplace_on:

; 845  :             return _Emplace_back_with_unused_capacity(_STD forward<_Valty>(_Val)...);
; 846  :         }
; 847  : 
; 848  :         return *_Emplace_reallocate(_Mylast, _STD forward<_Valty>(_Val)...);

	jmp	??$_Emplace_reallocate@AEBVshared_str@@@?$vector@Vshared_str@@V?$xalloc@Vshared_str@@@@@std@@AEAAPEAVshared_str@@QEAV2@AEBV2@@Z ; std::vector<shared_str,xalloc<shared_str> >::_Emplace_reallocate<shared_str const &>
??$_Emplace_one_at_back@AEBVshared_str@@@?$vector@Vshared_str@@V?$xalloc@Vshared_str@@@@@std@@AEAAAEAVshared_str@@AEBV2@@Z ENDP ; std::vector<shared_str,xalloc<shared_str> >::_Emplace_one_at_back<shared_str const &>
_TEXT	ENDS
; Function compile flags: /Ogtpy
; File C:\Program Files\Microsoft Visual Studio\2022\Community\VC\Tools\MSVC\14.35.32215\include\xmemory
; File C:\Users\Mahito\Desktop\Night outing\Night-outing\src\xrCore\xrstring.h
; File C:\Program Files\Microsoft Visual Studio\2022\Community\VC\Tools\MSVC\14.35.32215\include\xmemory
;	COMDAT ??$_Destroy_range@V?$xalloc@Vshared_str@@@@@std@@YAXPEAVshared_str@@QEAV1@AEAV?$xalloc@Vshared_str@@@@@Z
_TEXT	SEGMENT
_First$ = 8
_Last$ = 16
_Al$dead$ = 24
??$_Destroy_range@V?$xalloc@Vshared_str@@@@@std@@YAXPEAVshared_str@@QEAV1@AEAV?$xalloc@Vshared_str@@@@@Z PROC ; std::_Destroy_range<xalloc<shared_str> >, COMDAT

; 946  :         for (; _First != _Last; ++_First) {

	cmp	rcx, rdx
	je	SHORT $LN3@Destroy_ra
	xor	r8d, r8d
$LL4@Destroy_ra:
; File C:\Users\Mahito\Desktop\Night outing\Night-outing\src\xrCore\xrstring.h

; 61   : 	void				_dec		()								{	if (0==p_) return;	p_->dwReference--; 	if (0==p_->dwReference)	p_=0;						}

	mov	rax, QWORD PTR [rcx]
	test	rax, rax
	je	SHORT $LN17@Destroy_ra
	dec	DWORD PTR [rax]
	mov	rax, QWORD PTR [rcx]
	cmp	DWORD PTR [rax], r8d
	jne	SHORT $LN17@Destroy_ra
	mov	QWORD PTR [rcx], r8
$LN17@Destroy_ra:
; File C:\Program Files\Microsoft Visual Studio\2022\Community\VC\Tools\MSVC\14.35.32215\include\xmemory

; 946  :         for (; _First != _Last; ++_First) {

	add	rcx, 8
	cmp	rcx, rdx
	jne	SHORT $LL4@Destroy_ra
$LN3@Destroy_ra:

; 947  :             allocator_traits<_Alloc>::destroy(_Al, _Unfancy(_First));
; 948  :         }
; 949  :     }
; 950  : }

	ret	0
??$_Destroy_range@V?$xalloc@Vshared_str@@@@@std@@YAXPEAVshared_str@@QEAV1@AEAV?$xalloc@Vshared_str@@@@@Z ENDP ; std::_Destroy_range<xalloc<shared_str> >
_TEXT	ENDS
; Function compile flags: /Ogtpy
; File C:\Program Files\Microsoft Visual Studio\2022\Community\VC\Tools\MSVC\14.35.32215\include\xmemory
; File C:\Users\Mahito\Desktop\Night outing\Night-outing\src\xrCore\xrstring.h
; File C:\Program Files\Microsoft Visual Studio\2022\Community\VC\Tools\MSVC\14.35.32215\include\xmemory
;	COMDAT ??$_Uninitialized_copy@PEAVshared_str@@PEAV1@V?$xalloc@Vshared_str@@@@@std@@YAPEAVshared_str@@PEAV1@00AEAV?$xalloc@Vshared_str@@@@@Z
_TEXT	SEGMENT
_First$ = 8
_Last$ = 16
_Dest$ = 24
_Al$dead$ = 32
??$_Uninitialized_copy@PEAVshared_str@@PEAV1@V?$xalloc@Vshared_str@@@@@std@@YAPEAVshared_str@@PEAV1@00AEAV?$xalloc@Vshared_str@@@@@Z PROC ; std::_Uninitialized_copy<shared_str *,shared_str *,xalloc<shared_str> >, COMDAT

; 1677 :     _InIt _First, _Se _Last, _Alloc_ptr_t<_Alloc> _Dest, _Alloc& _Al) {

	mov	r9, rcx

; 1678 :     // copy [_First, _Last) to raw _Dest, using _Al
; 1679 :     // note: only called internally from elsewhere in the STL
; 1680 :     using _Ptrval = typename _Alloc::value_type*;
; 1681 : 
; 1682 : #ifdef __cpp_lib_concepts
; 1683 :     auto _UFirst = _RANGES _Unwrap_iter<_Se>(_STD move(_First));
; 1684 :     auto _ULast  = _RANGES _Unwrap_sent<_InIt>(_STD move(_Last));
; 1685 : #else // ^^^ __cpp_lib_concepts / !__cpp_lib_concepts vvv
; 1686 :     // In pre-concepts world, _Uninitialized_copy should only ever be called with an iterator
; 1687 :     // and sentinel of the same type, so `_Get_unwrapped` is fine to call.
; 1688 :     auto _UFirst = _Get_unwrapped(_STD move(_First));
; 1689 :     auto _ULast = _Get_unwrapped(_STD move(_Last));
; 1690 : #endif // ^^^ !__cpp_lib_concepts ^^^
; 1691 : 
; 1692 :     constexpr bool _Can_memmove = _Sent_copy_cat<decltype(_UFirst), decltype(_ULast), _Ptrval>::_Bitcopy_constructible
; 1693 :                                && _Uses_default_construct<_Alloc, _Ptrval, decltype(*_UFirst)>::value;
; 1694 : 
; 1695 :     if constexpr (_Can_memmove) {
; 1696 : #if _HAS_CXX20
; 1697 :         if (!_STD is_constant_evaluated())
; 1698 : #endif // _HAS_CXX20
; 1699 :         {
; 1700 :             if constexpr (is_same_v<decltype(_UFirst), decltype(_ULast)>) {
; 1701 :                 _Copy_memmove(_To_address(_UFirst), _To_address(_ULast), _Unfancy(_Dest));
; 1702 :                 _Dest += _ULast - _UFirst;
; 1703 :             } else {
; 1704 :                 const auto _Count = static_cast<size_t>(_ULast - _UFirst);
; 1705 :                 _Copy_memmove_n(_To_address(_UFirst), _Count, _Unfancy(_Dest));
; 1706 :                 _Dest += _Count;
; 1707 :             }
; 1708 :             return _Dest;
; 1709 :         }
; 1710 :     }
; 1711 : 
; 1712 :     _Uninitialized_backout_al<_Alloc> _Backout{_Dest, _Al};
; 1713 :     for (; _UFirst != _ULast; ++_UFirst) {

	cmp	rcx, rdx
	je	SHORT $LN53@Uninitiali

; 1649 :     _CONSTEXPR20 _Uninitialized_backout_al(pointer _Dest, _Alloc& _Al_) : _First(_Dest), _Last(_Dest), _Al(_Al_) {}

	sub	r9, r8
	xor	r10d, r10d
	npad	2
$LL4@Uninitiali:
; File C:\Users\Mahito\Desktop\Night outing\Night-outing\src\xrCore\xrstring.h

; 74   : 						shared_str	(shared_str const &rhs)			{	p_ = 0;	_set(rhs);								}

	mov	QWORD PTR [r8], r10

; 64   : 	void				_set		(shared_str const &rhs)			{	str_value* v = rhs.p_; if (0!=v) v->dwReference++; _dec(); p_ = v;							}

	mov	rax, QWORD PTR [r9+r8]
	test	rax, rax
	je	SHORT $LN15@Uninitiali
	inc	DWORD PTR [rax]
$LN15@Uninitiali:

; 61   : 	void				_dec		()								{	if (0==p_) return;	p_->dwReference--; 	if (0==p_->dwReference)	p_=0;						}

	mov	rcx, QWORD PTR [r8]
	test	rcx, rcx
	je	SHORT $LN19@Uninitiali
	dec	DWORD PTR [rcx]
$LN19@Uninitiali:

; 64   : 	void				_set		(shared_str const &rhs)			{	str_value* v = rhs.p_; if (0!=v) v->dwReference++; _dec(); p_ = v;							}

	mov	QWORD PTR [r8], rax
; File C:\Program Files\Microsoft Visual Studio\2022\Community\VC\Tools\MSVC\14.35.32215\include\xmemory

; 1661 :         ++_Last;

	add	r8, 8

; 1678 :     // copy [_First, _Last) to raw _Dest, using _Al
; 1679 :     // note: only called internally from elsewhere in the STL
; 1680 :     using _Ptrval = typename _Alloc::value_type*;
; 1681 : 
; 1682 : #ifdef __cpp_lib_concepts
; 1683 :     auto _UFirst = _RANGES _Unwrap_iter<_Se>(_STD move(_First));
; 1684 :     auto _ULast  = _RANGES _Unwrap_sent<_InIt>(_STD move(_Last));
; 1685 : #else // ^^^ __cpp_lib_concepts / !__cpp_lib_concepts vvv
; 1686 :     // In pre-concepts world, _Uninitialized_copy should only ever be called with an iterator
; 1687 :     // and sentinel of the same type, so `_Get_unwrapped` is fine to call.
; 1688 :     auto _UFirst = _Get_unwrapped(_STD move(_First));
; 1689 :     auto _ULast = _Get_unwrapped(_STD move(_Last));
; 1690 : #endif // ^^^ !__cpp_lib_concepts ^^^
; 1691 : 
; 1692 :     constexpr bool _Can_memmove = _Sent_copy_cat<decltype(_UFirst), decltype(_ULast), _Ptrval>::_Bitcopy_constructible
; 1693 :                                && _Uses_default_construct<_Alloc, _Ptrval, decltype(*_UFirst)>::value;
; 1694 : 
; 1695 :     if constexpr (_Can_memmove) {
; 1696 : #if _HAS_CXX20
; 1697 :         if (!_STD is_constant_evaluated())
; 1698 : #endif // _HAS_CXX20
; 1699 :         {
; 1700 :             if constexpr (is_same_v<decltype(_UFirst), decltype(_ULast)>) {
; 1701 :                 _Copy_memmove(_To_address(_UFirst), _To_address(_ULast), _Unfancy(_Dest));
; 1702 :                 _Dest += _ULast - _UFirst;
; 1703 :             } else {
; 1704 :                 const auto _Count = static_cast<size_t>(_ULast - _UFirst);
; 1705 :                 _Copy_memmove_n(_To_address(_UFirst), _Count, _Unfancy(_Dest));
; 1706 :                 _Dest += _Count;
; 1707 :             }
; 1708 :             return _Dest;
; 1709 :         }
; 1710 :     }
; 1711 : 
; 1712 :     _Uninitialized_backout_al<_Alloc> _Backout{_Dest, _Al};
; 1713 :     for (; _UFirst != _ULast; ++_UFirst) {

	lea	rax, QWORD PTR [r9+r8]
	cmp	rax, rdx
	jne	SHORT $LL4@Uninitiali
$LN53@Uninitiali:

; 1714 :         _Backout._Emplace_back(*_UFirst);
; 1715 :     }
; 1716 : 
; 1717 :     return _Backout._Release();
; 1718 : }

	mov	rax, r8
	ret	0
??$_Uninitialized_copy@PEAVshared_str@@PEAV1@V?$xalloc@Vshared_str@@@@@std@@YAPEAVshared_str@@PEAV1@00AEAV?$xalloc@Vshared_str@@@@@Z ENDP ; std::_Uninitialized_copy<shared_str *,shared_str *,xalloc<shared_str> >
_TEXT	ENDS
; Function compile flags: /Ogtpy
; File C:\Program Files\Microsoft Visual Studio\2022\Community\VC\Tools\MSVC\14.35.32215\include\xutility
;	COMDAT ??$_Get_unwrapped@PEAVshared_str@@@std@@YA?A_T$$QEAPEAVshared_str@@@Z
_TEXT	SEGMENT
_It$ = 8
??$_Get_unwrapped@PEAVshared_str@@@std@@YA?A_T$$QEAPEAVshared_str@@@Z PROC ; std::_Get_unwrapped<shared_str *>, COMDAT

; 957  :     // unwrap an iterator previously subjected to _Adl_verify_range or otherwise validated
; 958  :     if constexpr (is_pointer_v<decay_t<_Iter>>) { // special-case pointers and arrays
; 959  :         return _It + 0;

	mov	rax, QWORD PTR [rcx]

; 960  :     } else if constexpr (_Unwrappable_v<_Iter>) {
; 961  :         return static_cast<_Iter&&>(_It)._Unwrapped();
; 962  :     } else {
; 963  :         return static_cast<_Iter&&>(_It);
; 964  :     }
; 965  : }

	ret	0
??$_Get_unwrapped@PEAVshared_str@@@std@@YA?A_T$$QEAPEAVshared_str@@@Z ENDP ; std::_Get_unwrapped<shared_str *>
_TEXT	ENDS
; Function compile flags: /Ogtpy
; File C:\Program Files\Microsoft Visual Studio\2022\Community\VC\Tools\MSVC\14.35.32215\include\xmemory
; File C:\Program Files\Microsoft Visual Studio\2022\Community\VC\Tools\MSVC\14.35.32215\include\vector
; File C:\Program Files\Microsoft Visual Studio\2022\Community\VC\Tools\MSVC\14.35.32215\include\xmemory
;	COMDAT ??$?0$$V@?$_Compressed_pair@V?$xalloc@Vshared_str@@@@V?$_Vector_val@U?$_Simple_types@Vshared_str@@@std@@@std@@$00@std@@QEAA@U_Zero_then_variadic_args_t@1@@Z
_TEXT	SEGMENT
this$ = 8
__formal$dead$ = 16
??$?0$$V@?$_Compressed_pair@V?$xalloc@Vshared_str@@@@V?$_Vector_val@U?$_Simple_types@Vshared_str@@@std@@@std@@$00@std@@QEAA@U_Zero_then_variadic_args_t@1@@Z PROC ; std::_Compressed_pair<xalloc<shared_str>,std::_Vector_val<std::_Simple_types<shared_str> >,1>::_Compressed_pair<xalloc<shared_str>,std::_Vector_val<std::_Simple_types<shared_str> >,1><>, COMDAT
; File C:\Program Files\Microsoft Visual Studio\2022\Community\VC\Tools\MSVC\14.35.32215\include\vector

; 390  :     _CONSTEXPR20 _Vector_val() noexcept : _Myfirst(), _Mylast(), _Myend() {}

	xor	eax, eax
	mov	QWORD PTR [rcx], rax
	mov	QWORD PTR [rcx+8], rax
	mov	QWORD PTR [rcx+16], rax
; File C:\Program Files\Microsoft Visual Studio\2022\Community\VC\Tools\MSVC\14.35.32215\include\xmemory

; 1375 :         : _Ty1(), _Myval2(_STD forward<_Other2>(_Val2)...) {}

	mov	rax, rcx
	ret	0
??$?0$$V@?$_Compressed_pair@V?$xalloc@Vshared_str@@@@V?$_Vector_val@U?$_Simple_types@Vshared_str@@@std@@@std@@$00@std@@QEAA@U_Zero_then_variadic_args_t@1@@Z ENDP ; std::_Compressed_pair<xalloc<shared_str>,std::_Vector_val<std::_Simple_types<shared_str> >,1>::_Compressed_pair<xalloc<shared_str>,std::_Vector_val<std::_Simple_types<shared_str> >,1><>
_TEXT	ENDS
; Function compile flags: /Ogtpy
; File C:\Users\Mahito\Desktop\Night outing\Night-outing\src\xrCore\xrMemory.h
; File C:\Users\Mahito\Desktop\Night outing\Night-outing\src\xrCore\xrMemory_subst_msvc.cpp
; File C:\Users\Mahito\Desktop\Night outing\Night-outing\src\xrCore\xrMemory.h
;	COMDAT ??$xr_free@Vshared_str@@@@YAXAEAPEAVshared_str@@@Z
_TEXT	SEGMENT
P$ = 48
??$xr_free@Vshared_str@@@@YAXAEAPEAVshared_str@@@Z PROC	; xr_free<shared_str>, COMDAT

; 68   : {

$LN24:
	push	rbx
	sub	rsp, 32					; 00000020H
	mov	rbx, rcx

; 69   : 	if (P)

	mov	rcx, QWORD PTR [rcx]
	test	rcx, rcx
	je	SHORT $LN2@xr_free
; File C:\Users\Mahito\Desktop\Night outing\Night-outing\src\xrCore\xrMemory_subst_msvc.cpp

; 99   : 	stat_calls++;

	inc	DWORD PTR ?Memory@@3VxrMemory@@A

; 100  : 
; 101  : #ifdef PURE_ALLOC
; 102  : 	if (g_use_pure_alloc)
; 103  : 	{
; 104  : 		//free(P);
; 105  : 		_aligned_free(P);

	call	QWORD PTR __imp__aligned_free
; File C:\Users\Mahito\Desktop\Night outing\Night-outing\src\xrCore\xrMemory.h

; 72   : 		P = NULL;

	mov	QWORD PTR [rbx], 0
$LN2@xr_free:

; 73   : 	};
; 74   : }

	add	rsp, 32					; 00000020H
	pop	rbx
	ret	0
??$xr_free@Vshared_str@@@@YAXAEAPEAVshared_str@@@Z ENDP	; xr_free<shared_str>
_TEXT	ENDS
; Function compile flags: /Ogtpy
; File C:\Users\Mahito\Desktop\Night outing\Night-outing\src\xrCore\xrMemory.h
;	COMDAT ??$xr_alloc@Vshared_str@@@@YAPEAVshared_str@@I@Z
_TEXT	SEGMENT
count$ = 8
??$xr_alloc@Vshared_str@@@@YAPEAVshared_str@@I@Z PROC	; xr_alloc<shared_str>, COMDAT

; 64   : IC T* xr_alloc(u32 count) { return (T*)Memory.mem_alloc(count * sizeof(T)); }

	mov	edx, ecx
	lea	rcx, OFFSET FLAT:?Memory@@3VxrMemory@@A	; Memory
	shl	rdx, 3
	jmp	?mem_alloc@xrMemory@@QEAAPEAX_K@Z	; xrMemory::mem_alloc
??$xr_alloc@Vshared_str@@@@YAPEAVshared_str@@I@Z ENDP	; xr_alloc<shared_str>
_TEXT	ENDS
; Function compile flags: /Ogtpy
; File C:\Program Files\Microsoft Visual Studio\2022\Community\VC\Tools\MSVC\14.35.32215\include\xmemory
;	COMDAT ?_Release@?$_Uninitialized_backout_al@V?$xalloc@Vshared_str@@@@@std@@QEAAPEAVshared_str@@XZ
_TEXT	SEGMENT
this$ = 8
?_Release@?$_Uninitialized_backout_al@V?$xalloc@Vshared_str@@@@@std@@QEAAPEAVshared_str@@XZ PROC ; std::_Uninitialized_backout_al<xalloc<shared_str> >::_Release, COMDAT

; 1665 :         _First = _Last;

	mov	rax, QWORD PTR [rcx+8]
	mov	QWORD PTR [rcx], rax

; 1666 :         return _Last;
; 1667 :     }

	ret	0
?_Release@?$_Uninitialized_backout_al@V?$xalloc@Vshared_str@@@@@std@@QEAAPEAVshared_str@@XZ ENDP ; std::_Uninitialized_backout_al<xalloc<shared_str> >::_Release
_TEXT	ENDS
; Function compile flags: /Ogtpy
; File C:\Program Files\Microsoft Visual Studio\2022\Community\VC\Tools\MSVC\14.35.32215\include\xmemory
; File C:\Users\Mahito\Desktop\Night outing\Night-outing\src\xrCore\xrstring.h
; File C:\Program Files\Microsoft Visual Studio\2022\Community\VC\Tools\MSVC\14.35.32215\include\xmemory
;	COMDAT ??1?$_Uninitialized_backout_al@V?$xalloc@Vshared_str@@@@@std@@QEAA@XZ
_TEXT	SEGMENT
this$ = 8
??1?$_Uninitialized_backout_al@V?$xalloc@Vshared_str@@@@@std@@QEAA@XZ PROC ; std::_Uninitialized_backout_al<xalloc<shared_str> >::~_Uninitialized_backout_al<xalloc<shared_str> >, COMDAT

; 1655 :         _Destroy_range(_First, _Last, _Al);

	mov	rdx, QWORD PTR [rcx+8]
	mov	rax, QWORD PTR [rcx]

; 946  :         for (; _First != _Last; ++_First) {

	cmp	rax, rdx
	je	SHORT $LN5@Uninitiali
	xor	r8d, r8d
	npad	1
$LL6@Uninitiali:
; File C:\Users\Mahito\Desktop\Night outing\Night-outing\src\xrCore\xrstring.h

; 61   : 	void				_dec		()								{	if (0==p_) return;	p_->dwReference--; 	if (0==p_->dwReference)	p_=0;						}

	mov	rcx, QWORD PTR [rax]
	test	rcx, rcx
	je	SHORT $LN19@Uninitiali
	dec	DWORD PTR [rcx]
	mov	rcx, QWORD PTR [rax]
	cmp	DWORD PTR [rcx], r8d
	jne	SHORT $LN19@Uninitiali
	mov	QWORD PTR [rax], r8
$LN19@Uninitiali:
; File C:\Program Files\Microsoft Visual Studio\2022\Community\VC\Tools\MSVC\14.35.32215\include\xmemory

; 946  :         for (; _First != _Last; ++_First) {

	add	rax, 8
	cmp	rax, rdx
	jne	SHORT $LL6@Uninitiali
$LN5@Uninitiali:

; 1656 :     }

	ret	0
??1?$_Uninitialized_backout_al@V?$xalloc@Vshared_str@@@@@std@@QEAA@XZ ENDP ; std::_Uninitialized_backout_al<xalloc<shared_str> >::~_Uninitialized_backout_al<xalloc<shared_str> >
_TEXT	ENDS
; Function compile flags: /Ogtpy
; File C:\Program Files\Microsoft Visual Studio\2022\Community\VC\Tools\MSVC\14.35.32215\include\xmemory
;	COMDAT ??0?$_Uninitialized_backout_al@V?$xalloc@Vshared_str@@@@@std@@QEAA@PEAVshared_str@@AEAV?$xalloc@Vshared_str@@@@@Z
_TEXT	SEGMENT
this$ = 8
_Dest$ = 16
_Al_$ = 24
??0?$_Uninitialized_backout_al@V?$xalloc@Vshared_str@@@@@std@@QEAA@PEAVshared_str@@AEAV?$xalloc@Vshared_str@@@@@Z PROC ; std::_Uninitialized_backout_al<xalloc<shared_str> >::_Uninitialized_backout_al<xalloc<shared_str> >, COMDAT

; 1649 :     _CONSTEXPR20 _Uninitialized_backout_al(pointer _Dest, _Alloc& _Al_) : _First(_Dest), _Last(_Dest), _Al(_Al_) {}

	mov	QWORD PTR [rcx], rdx
	mov	rax, rcx
	mov	QWORD PTR [rcx+8], rdx
	mov	QWORD PTR [rcx+16], r8
	ret	0
??0?$_Uninitialized_backout_al@V?$xalloc@Vshared_str@@@@@std@@QEAA@PEAVshared_str@@AEAV?$xalloc@Vshared_str@@@@@Z ENDP ; std::_Uninitialized_backout_al<xalloc<shared_str> >::_Uninitialized_backout_al<xalloc<shared_str> >
_TEXT	ENDS
; Function compile flags: /Ogtpy
; File C:\Program Files\Microsoft Visual Studio\2022\Community\VC\Tools\MSVC\14.35.32215\include\vector
;	COMDAT ??0?$_Vector_val@U?$_Simple_types@Vshared_str@@@std@@@std@@QEAA@XZ
_TEXT	SEGMENT
this$ = 8
??0?$_Vector_val@U?$_Simple_types@Vshared_str@@@std@@@std@@QEAA@XZ PROC ; std::_Vector_val<std::_Simple_types<shared_str> >::_Vector_val<std::_Simple_types<shared_str> >, COMDAT

; 390  :     _CONSTEXPR20 _Vector_val() noexcept : _Myfirst(), _Mylast(), _Myend() {}

	xor	eax, eax
	mov	QWORD PTR [rcx], rax
	mov	QWORD PTR [rcx+8], rax
	mov	QWORD PTR [rcx+16], rax
	mov	rax, rcx
	ret	0
??0?$_Vector_val@U?$_Simple_types@Vshared_str@@@std@@@std@@QEAA@XZ ENDP ; std::_Vector_val<std::_Simple_types<shared_str> >::_Vector_val<std::_Simple_types<shared_str> >
_TEXT	ENDS
; Function compile flags: /Ogtpy
; File C:\Users\Mahito\Desktop\Night outing\Night-outing\src\xrCore\_stl_extensions.h
;	COMDAT ??0?$xalloc@Vshared_str@@@@QEAA@XZ
_TEXT	SEGMENT
this$ = 8
??0?$xalloc@Vshared_str@@@@QEAA@XZ PROC			; xalloc<shared_str>::xalloc<shared_str>, COMDAT

; 77   : 													xalloc			()										{	}

	mov	rax, rcx
	ret	0
??0?$xalloc@Vshared_str@@@@QEAA@XZ ENDP			; xalloc<shared_str>::xalloc<shared_str>
_TEXT	ENDS
; Function compile flags: /Ogtpy
; File C:\Program Files\Microsoft Visual Studio\2022\Community\VC\Tools\MSVC\14.35.32215\include\type_traits
;	COMDAT ??$forward@AEBVshared_str@@@std@@YAAEBVshared_str@@AEBV1@@Z
_TEXT	SEGMENT
_Arg$ = 8
??$forward@AEBVshared_str@@@std@@YAAEBVshared_str@@AEBV1@@Z PROC ; std::forward<shared_str const &>, COMDAT

; 1427 :     return static_cast<_Ty&&>(_Arg);

	mov	rax, rcx

; 1428 : }

	ret	0
??$forward@AEBVshared_str@@@std@@YAAEBVshared_str@@AEBV1@@Z ENDP ; std::forward<shared_str const &>
_TEXT	ENDS
; Function compile flags: /Ogtpy
; File C:\Program Files\Microsoft Visual Studio\2022\Community\VC\Tools\MSVC\14.35.32215\include\vector
; File C:\Users\Mahito\Desktop\Night outing\Night-outing\src\xrCore\_stl_extensions.h
; File C:\Program Files\Microsoft Visual Studio\2022\Community\VC\Tools\MSVC\14.35.32215\include\vector
; File C:\Users\Mahito\Desktop\Night outing\Night-outing\src\xrCore\xrstring.h
; File C:\Program Files\Microsoft Visual Studio\2022\Community\VC\Tools\MSVC\14.35.32215\include\vector
;	COMDAT ??$_Emplace_back_with_unused_capacity@AEBVshared_str@@@?$vector@Vshared_str@@V?$xalloc@Vshared_str@@@@@std@@AEAAAEAVshared_str@@AEBV2@@Z
_TEXT	SEGMENT
this$ = 8
<_Val_0>$ = 16
??$_Emplace_back_with_unused_capacity@AEBVshared_str@@@?$vector@Vshared_str@@V?$xalloc@Vshared_str@@@@@std@@AEAAAEAVshared_str@@AEBV2@@Z PROC ; std::vector<shared_str,xalloc<shared_str> >::_Emplace_back_with_unused_capacity<shared_str const &>, COMDAT
; File C:\Users\Mahito\Desktop\Night outing\Night-outing\src\xrCore\_stl_extensions.h

; 85   : 							void					construct		(pointer p, const T& _Val)				{	::new(p) T(_Val);	}

	mov	r8, QWORD PTR [rcx+8]
; File C:\Program Files\Microsoft Visual Studio\2022\Community\VC\Tools\MSVC\14.35.32215\include\vector

; 852  :     _CONSTEXPR20 _Ty& _Emplace_back_with_unused_capacity(_Valty&&... _Val) {

	mov	r9, rcx
; File C:\Users\Mahito\Desktop\Night outing\Night-outing\src\xrCore\xrstring.h

; 74   : 						shared_str	(shared_str const &rhs)			{	p_ = 0;	_set(rhs);								}

	mov	QWORD PTR [r8], 0

; 64   : 	void				_set		(shared_str const &rhs)			{	str_value* v = rhs.p_; if (0!=v) v->dwReference++; _dec(); p_ = v;							}

	mov	rax, QWORD PTR [rdx]
	test	rax, rax
	je	SHORT $LN10@Emplace_ba
	inc	DWORD PTR [rax]
$LN10@Emplace_ba:

; 61   : 	void				_dec		()								{	if (0==p_) return;	p_->dwReference--; 	if (0==p_->dwReference)	p_=0;						}

	mov	rdx, QWORD PTR [r8]
	test	rdx, rdx
	je	SHORT $LN14@Emplace_ba
	dec	DWORD PTR [rdx]
$LN14@Emplace_ba:

; 64   : 	void				_set		(shared_str const &rhs)			{	str_value* v = rhs.p_; if (0!=v) v->dwReference++; _dec(); p_ = v;							}

	mov	QWORD PTR [r8], rax
; File C:\Program Files\Microsoft Visual Studio\2022\Community\VC\Tools\MSVC\14.35.32215\include\vector

; 868  :         _Ty& _Result = *_Mylast;

	mov	rax, QWORD PTR [rcx+8]

; 869  :         ++_Mylast;

	lea	rcx, QWORD PTR [rax+8]
	mov	QWORD PTR [r9+8], rcx

; 870  : 
; 871  :         return _Result;
; 872  :     }

	ret	0
??$_Emplace_back_with_unused_capacity@AEBVshared_str@@@?$vector@Vshared_str@@V?$xalloc@Vshared_str@@@@@std@@AEAAAEAVshared_str@@AEBV2@@Z ENDP ; std::vector<shared_str,xalloc<shared_str> >::_Emplace_back_with_unused_capacity<shared_str const &>
_TEXT	ENDS
; Function compile flags: /Ogtpy
; File C:\Program Files\Microsoft Visual Studio\2022\Community\VC\Tools\MSVC\14.35.32215\include\vector
; File C:\Users\Mahito\Desktop\Night outing\Night-outing\src\xrCore\xrMemory.h
; File C:\Program Files\Microsoft Visual Studio\2022\Community\VC\Tools\MSVC\14.35.32215\include\vector
; File C:\Users\Mahito\Desktop\Night outing\Night-outing\src\xrCore\xrstring.h
; File C:\Program Files\Microsoft Visual Studio\2022\Community\VC\Tools\MSVC\14.35.32215\include\vector
; File C:\Program Files\Microsoft Visual Studio\2022\Community\VC\Tools\MSVC\14.35.32215\include\xmemory
; File C:\Users\Mahito\Desktop\Night outing\Night-outing\src\xrCore\xrstring.h
; File C:\Program Files\Microsoft Visual Studio\2022\Community\VC\Tools\MSVC\14.35.32215\include\xmemory
; File C:\Users\Mahito\Desktop\Night outing\Night-outing\src\xrCore\xrstring.h
; File C:\Program Files\Microsoft Visual Studio\2022\Community\VC\Tools\MSVC\14.35.32215\include\xmemory
; File C:\Program Files\Microsoft Visual Studio\2022\Community\VC\Tools\MSVC\14.35.32215\include\vector
; File C:\Program Files\Microsoft Visual Studio\2022\Community\VC\Tools\MSVC\14.35.32215\include\xmemory
; File C:\Users\Mahito\Desktop\Night outing\Night-outing\src\xrCore\xrstring.h
; File C:\Program Files\Microsoft Visual Studio\2022\Community\VC\Tools\MSVC\14.35.32215\include\xmemory
; File C:\Users\Mahito\Desktop\Night outing\Night-outing\src\xrCore\xrstring.h
; File C:\Program Files\Microsoft Visual Studio\2022\Community\VC\Tools\MSVC\14.35.32215\include\xmemory
; File C:\Program Files\Microsoft Visual Studio\2022\Community\VC\Tools\MSVC\14.35.32215\include\vector
; File C:\Program Files\Microsoft Visual Studio\2022\Community\VC\Tools\MSVC\14.35.32215\include\xmemory
; File C:\Users\Mahito\Desktop\Night outing\Night-outing\src\xrCore\xrstring.h
; File C:\Program Files\Microsoft Visual Studio\2022\Community\VC\Tools\MSVC\14.35.32215\include\xmemory
; File C:\Users\Mahito\Desktop\Night outing\Night-outing\src\xrCore\xrstring.h
; File C:\Program Files\Microsoft Visual Studio\2022\Community\VC\Tools\MSVC\14.35.32215\include\xmemory
; File C:\Program Files\Microsoft Visual Studio\2022\Community\VC\Tools\MSVC\14.35.32215\include\vector
;	COMDAT ??$_Emplace_reallocate@AEBVshared_str@@@?$vector@Vshared_str@@V?$xalloc@Vshared_str@@@@@std@@AEAAPEAVshared_str@@QEAV2@AEBV2@@Z
_TEXT	SEGMENT
_Constructed_first$ = 32
_UFirst$1 = 40
_First$ = 48
_UFirst$2 = 56
_First$ = 64
_UFirst$3 = 72
_First$ = 80
_Backout$4 = 88
_Backout$5 = 112
_Backout$6 = 136
_Constructed_last$ = 208
this$ = 208
_Newvec$ = 216
_Whereptr$ = 216
<_Val_0>$ = 224
??$_Emplace_reallocate@AEBVshared_str@@@?$vector@Vshared_str@@V?$xalloc@Vshared_str@@@@@std@@AEAAPEAVshared_str@@QEAV2@AEBV2@@Z PROC ; std::vector<shared_str,xalloc<shared_str> >::_Emplace_reallocate<shared_str const &>, COMDAT

; 875  :     _CONSTEXPR20 pointer _Emplace_reallocate(const pointer _Whereptr, _Valty&&... _Val) {

$LN192:
	mov	QWORD PTR [rsp+24], rbx
	mov	QWORD PTR [rsp+32], rsi
	push	rdi
	push	r12
	push	r13
	push	r14
	push	r15
	sub	rsp, 160				; 000000a0H
	mov	rsi, r8
	mov	rbx, rdx
	mov	r14, rcx

; 876  :         // reallocate and insert by perfectly forwarding _Val at _Whereptr
; 877  :         _Alty& _Al        = _Getal();
; 878  :         auto& _My_data    = _Mypair._Myval2;
; 879  :         pointer& _Myfirst = _My_data._Myfirst;
; 880  :         pointer& _Mylast  = _My_data._Mylast;
; 881  : 
; 882  :         _STL_INTERNAL_CHECK(_Mylast == _My_data._Myend); // check that we have no unused capacity
; 883  : 
; 884  :         const auto _Whereoff = static_cast<size_type>(_Whereptr - _Myfirst);

	mov	rdx, QWORD PTR [rcx]
	mov	rdi, rbx
	sub	rdi, rdx
	sar	rdi, 3

; 885  :         const auto _Oldsize  = static_cast<size_type>(_Mylast - _Myfirst);

	mov	rax, QWORD PTR [rcx+8]
	sub	rax, rdx
	sar	rax, 3

; 886  : 
; 887  :         if (_Oldsize == max_size()) {

	mov	r15, 2305843009213693951		; 1fffffffffffffffH
	cmp	rax, r15
	je	$LN191@Emplace_re

; 889  :         }
; 890  : 
; 891  :         const size_type _Newsize     = _Oldsize + 1;

	lea	r12, QWORD PTR [rax+1]

; 1942 :         return static_cast<size_type>(_My_data._Myend - _My_data._Myfirst);

	mov	rcx, QWORD PTR [rcx+16]
	sub	rcx, rdx
	sar	rcx, 3

; 2029 :         if (_Oldcapacity > _Max - _Oldcapacity / 2) {

	mov	rdx, rcx
	shr	rdx, 1
	mov	rax, r15
	sub	rax, rdx
	cmp	rcx, rax
	ja	SHORT $LN13@Emplace_re

; 2030 :             return _Max; // geometric growth would overflow
; 2031 :         }
; 2032 : 
; 2033 :         const size_type _Geometric = _Oldcapacity + _Oldcapacity / 2;

	lea	r15, QWORD PTR [rdx+rcx]

; 2034 : 
; 2035 :         if (_Geometric < _Newsize) {

	cmp	r15, r12
	cmovb	r15, r12
$LN13@Emplace_re:
; File C:\Users\Mahito\Desktop\Night outing\Night-outing\src\xrCore\xrMemory.h

; 64   : IC T* xr_alloc(u32 count) { return (T*)Memory.mem_alloc(count * sizeof(T)); }

	mov	edx, r15d
	shl	rdx, 3
	lea	rcx, OFFSET FLAT:?Memory@@3VxrMemory@@A	; Memory
	call	?mem_alloc@xrMemory@@QEAAPEAX_K@Z	; xrMemory::mem_alloc
	mov	r11, rax
	mov	QWORD PTR _Newvec$[rsp], rax
; File C:\Program Files\Microsoft Visual Studio\2022\Community\VC\Tools\MSVC\14.35.32215\include\vector

; 895  :         const pointer _Constructed_last = _Newvec + _Whereoff + 1;

	lea	rdi, QWORD PTR [rax+rdi*8]
	lea	rcx, QWORD PTR [rdi+8]
	mov	QWORD PTR _Constructed_last$[rsp], rcx

; 896  :         pointer _Constructed_first      = _Constructed_last;

	mov	QWORD PTR _Constructed_first$[rsp], rcx
; File C:\Users\Mahito\Desktop\Night outing\Night-outing\src\xrCore\xrstring.h

; 74   : 						shared_str	(shared_str const &rhs)			{	p_ = 0;	_set(rhs);								}

	xor	r13d, r13d
	mov	QWORD PTR [rdi], r13

; 64   : 	void				_set		(shared_str const &rhs)			{	str_value* v = rhs.p_; if (0!=v) v->dwReference++; _dec(); p_ = v;							}

	mov	rdx, QWORD PTR [rsi]
	test	rdx, rdx
	je	SHORT $LN28@Emplace_re
	inc	DWORD PTR [rdx]
$LN28@Emplace_re:

; 61   : 	void				_dec		()								{	if (0==p_) return;	p_->dwReference--; 	if (0==p_->dwReference)	p_=0;						}

	mov	rax, QWORD PTR [rdi]
	test	rax, rax
	je	SHORT $LN32@Emplace_re
	dec	DWORD PTR [rax]
	mov	rax, QWORD PTR [rdi]
	cmp	DWORD PTR [rax], r13d
	jne	SHORT $LN32@Emplace_re
	mov	QWORD PTR [rdi], r13
$LN32@Emplace_re:

; 64   : 	void				_set		(shared_str const &rhs)			{	str_value* v = rhs.p_; if (0!=v) v->dwReference++; _dec(); p_ = v;							}

	mov	QWORD PTR [rdi], rdx
; File C:\Program Files\Microsoft Visual Studio\2022\Community\VC\Tools\MSVC\14.35.32215\include\vector

; 900  :         _Constructed_first = _Newvec + _Whereoff;

	mov	QWORD PTR _Constructed_first$[rsp], rdi

; 901  : 
; 902  :         if (_Whereptr == _Mylast) { // at back, provide strong guarantee

	mov	r10, QWORD PTR [r14+8]
	mov	r8, QWORD PTR [r14]
	cmp	rbx, r10
	jne	$LN4@Emplace_re
; File C:\Program Files\Microsoft Visual Studio\2022\Community\VC\Tools\MSVC\14.35.32215\include\xmemory

; 1688 :     auto _UFirst = _Get_unwrapped(_STD move(_First));

	mov	QWORD PTR _UFirst$1[rsp], r8

; 1649 :     _CONSTEXPR20 _Uninitialized_backout_al(pointer _Dest, _Alloc& _Al_) : _First(_Dest), _Last(_Dest), _Al(_Al_) {}

	mov	QWORD PTR _Backout$4[rsp], r11
	mov	rcx, r11
	mov	QWORD PTR _Backout$4[rsp+8], rcx
	mov	QWORD PTR _Backout$4[rsp+16], r14

; 1713 :     for (; _UFirst != _ULast; ++_UFirst) {

	mov	rdx, r11
	mov	r9, r11
$LL37@Emplace_re:
	cmp	r8, r10
	je	SHORT $LN36@Emplace_re
; File C:\Users\Mahito\Desktop\Night outing\Night-outing\src\xrCore\xrstring.h

; 74   : 						shared_str	(shared_str const &rhs)			{	p_ = 0;	_set(rhs);								}

	mov	QWORD PTR [rdx], r13

; 64   : 	void				_set		(shared_str const &rhs)			{	str_value* v = rhs.p_; if (0!=v) v->dwReference++; _dec(); p_ = v;							}

	mov	rcx, QWORD PTR [r8]
	test	rcx, rcx
	je	SHORT $LN48@Emplace_re
	inc	DWORD PTR [rcx]
$LN48@Emplace_re:

; 61   : 	void				_dec		()								{	if (0==p_) return;	p_->dwReference--; 	if (0==p_->dwReference)	p_=0;						}

	mov	r9, QWORD PTR [rdx]
	test	r9, r9
	je	SHORT $LN52@Emplace_re
	mov	eax, DWORD PTR [r9]
	dec	eax
	mov	DWORD PTR [r9], eax
	mov	rax, QWORD PTR [rdx]
	cmp	DWORD PTR [rax], r13d
	jne	SHORT $LN52@Emplace_re
	mov	QWORD PTR [rdx], r13
$LN52@Emplace_re:

; 64   : 	void				_set		(shared_str const &rhs)			{	str_value* v = rhs.p_; if (0!=v) v->dwReference++; _dec(); p_ = v;							}

	mov	QWORD PTR [rdx], rcx
	lea	rcx, QWORD PTR [rdx+8]
	mov	r9, rcx
; File C:\Program Files\Microsoft Visual Studio\2022\Community\VC\Tools\MSVC\14.35.32215\include\xmemory

; 1661 :         ++_Last;

	mov	QWORD PTR _Backout$4[rsp+8], rcx

; 1713 :     for (; _UFirst != _ULast; ++_UFirst) {

	add	r8, 8
	mov	QWORD PTR _UFirst$1[rsp], r8
	mov	rdx, rcx
	jmp	SHORT $LL37@Emplace_re
$LN36@Emplace_re:

; 1665 :         _First = _Last;

	mov	QWORD PTR _Backout$4[rsp], rcx
$LN186@Emplace_re:

; 946  :         for (; _First != _Last; ++_First) {

	mov	QWORD PTR _First$[rsp], rcx
	cmp	rcx, r9
	je	SHORT $LN60@Emplace_re
; File C:\Users\Mahito\Desktop\Night outing\Night-outing\src\xrCore\xrstring.h

; 61   : 	void				_dec		()								{	if (0==p_) return;	p_->dwReference--; 	if (0==p_->dwReference)	p_=0;						}

	mov	rax, QWORD PTR [rcx]
	test	rax, rax
	je	SHORT $LN74@Emplace_re
	dec	DWORD PTR [rax]
	mov	rax, QWORD PTR [rcx]
	cmp	DWORD PTR [rax], r13d
	jne	SHORT $LN74@Emplace_re
	mov	QWORD PTR [rcx], r13
$LN74@Emplace_re:
; File C:\Program Files\Microsoft Visual Studio\2022\Community\VC\Tools\MSVC\14.35.32215\include\xmemory

; 946  :         for (; _First != _Last; ++_First) {

	add	rcx, 8
	jmp	SHORT $LN186@Emplace_re
$LN60@Emplace_re:
; File C:\Program Files\Microsoft Visual Studio\2022\Community\VC\Tools\MSVC\14.35.32215\include\vector

; 908  :         } else { // provide basic guarantee

	jmp	$LN5@Emplace_re
$LN4@Emplace_re:
; File C:\Program Files\Microsoft Visual Studio\2022\Community\VC\Tools\MSVC\14.35.32215\include\xmemory

; 1789 :     auto _UFirst      = _Get_unwrapped(_First);

	mov	QWORD PTR _UFirst$2[rsp], r8

; 1649 :     _CONSTEXPR20 _Uninitialized_backout_al(pointer _Dest, _Alloc& _Al_) : _First(_Dest), _Last(_Dest), _Al(_Al_) {}

	mov	QWORD PTR _Backout$5[rsp], r11
	mov	rdx, r11
	mov	QWORD PTR _Backout$5[rsp+8], rdx
	mov	QWORD PTR _Backout$5[rsp+16], r14

; 1803 :     for (; _UFirst != _ULast; ++_UFirst) {

	mov	r9, r11
	mov	r10, r11
	npad	1
$LL81@Emplace_re:
	cmp	r8, rbx
	je	SHORT $LN80@Emplace_re
; File C:\Users\Mahito\Desktop\Night outing\Night-outing\src\xrCore\xrstring.h

; 74   : 						shared_str	(shared_str const &rhs)			{	p_ = 0;	_set(rhs);								}

	mov	QWORD PTR [r9], r13

; 64   : 	void				_set		(shared_str const &rhs)			{	str_value* v = rhs.p_; if (0!=v) v->dwReference++; _dec(); p_ = v;							}

	mov	rdx, QWORD PTR [r8]
	test	rdx, rdx
	je	SHORT $LN92@Emplace_re
	inc	DWORD PTR [rdx]
$LN92@Emplace_re:

; 61   : 	void				_dec		()								{	if (0==p_) return;	p_->dwReference--; 	if (0==p_->dwReference)	p_=0;						}

	mov	r10, QWORD PTR [r9]
	test	r10, r10
	je	SHORT $LN96@Emplace_re
	mov	eax, DWORD PTR [r10]
	dec	eax
	mov	DWORD PTR [r10], eax
	mov	rax, QWORD PTR [r9]
	cmp	DWORD PTR [rax], r13d
	jne	SHORT $LN96@Emplace_re
	mov	QWORD PTR [r9], r13
$LN96@Emplace_re:

; 64   : 	void				_set		(shared_str const &rhs)			{	str_value* v = rhs.p_; if (0!=v) v->dwReference++; _dec(); p_ = v;							}

	mov	QWORD PTR [r9], rdx
	lea	rdx, QWORD PTR [r9+8]
	mov	r10, rdx
; File C:\Program Files\Microsoft Visual Studio\2022\Community\VC\Tools\MSVC\14.35.32215\include\xmemory

; 1661 :         ++_Last;

	mov	QWORD PTR _Backout$5[rsp+8], rdx

; 1803 :     for (; _UFirst != _ULast; ++_UFirst) {

	add	r8, 8
	mov	QWORD PTR _UFirst$2[rsp], r8
	mov	r9, rdx
	jmp	SHORT $LL81@Emplace_re
$LN80@Emplace_re:

; 1665 :         _First = _Last;

	mov	QWORD PTR _Backout$5[rsp], rdx
$LN187@Emplace_re:

; 946  :         for (; _First != _Last; ++_First) {

	mov	QWORD PTR _First$[rsp], rdx
	cmp	rdx, r10
	je	SHORT $LN104@Emplace_re
; File C:\Users\Mahito\Desktop\Night outing\Night-outing\src\xrCore\xrstring.h

; 61   : 	void				_dec		()								{	if (0==p_) return;	p_->dwReference--; 	if (0==p_->dwReference)	p_=0;						}

	mov	rax, QWORD PTR [rdx]
	test	rax, rax
	je	SHORT $LN118@Emplace_re
	dec	DWORD PTR [rax]
	mov	rax, QWORD PTR [rdx]
	cmp	DWORD PTR [rax], r13d
	jne	SHORT $LN118@Emplace_re
	mov	QWORD PTR [rdx], r13
$LN118@Emplace_re:
; File C:\Program Files\Microsoft Visual Studio\2022\Community\VC\Tools\MSVC\14.35.32215\include\xmemory

; 946  :         for (; _First != _Last; ++_First) {

	add	rdx, 8
	jmp	SHORT $LN187@Emplace_re
$LN104@Emplace_re:
; File C:\Program Files\Microsoft Visual Studio\2022\Community\VC\Tools\MSVC\14.35.32215\include\vector

; 910  :             _Constructed_first = _Newvec;

	mov	QWORD PTR _Constructed_first$[rsp], r11

; 911  :             _Uninitialized_move(_Whereptr, _Mylast, _Newvec + _Whereoff + 1, _Al);

	mov	r9, QWORD PTR [r14+8]
; File C:\Program Files\Microsoft Visual Studio\2022\Community\VC\Tools\MSVC\14.35.32215\include\xmemory

; 1789 :     auto _UFirst      = _Get_unwrapped(_First);

	mov	QWORD PTR _UFirst$3[rsp], rbx

; 1649 :     _CONSTEXPR20 _Uninitialized_backout_al(pointer _Dest, _Alloc& _Al_) : _First(_Dest), _Last(_Dest), _Al(_Al_) {}

	mov	QWORD PTR _Backout$6[rsp], rcx
	mov	QWORD PTR _Backout$6[rsp+8], rcx
	mov	QWORD PTR _Backout$6[rsp+16], r14

; 1803 :     for (; _UFirst != _ULast; ++_UFirst) {

	mov	r8, rcx
$LN188@Emplace_re:
	mov	rdx, rcx
	cmp	rbx, r9
	je	SHORT $LN124@Emplace_re
; File C:\Users\Mahito\Desktop\Night outing\Night-outing\src\xrCore\xrstring.h

; 74   : 						shared_str	(shared_str const &rhs)			{	p_ = 0;	_set(rhs);								}

	mov	QWORD PTR [rcx], r13

; 64   : 	void				_set		(shared_str const &rhs)			{	str_value* v = rhs.p_; if (0!=v) v->dwReference++; _dec(); p_ = v;							}

	mov	rcx, QWORD PTR [rbx]
	test	rcx, rcx
	je	SHORT $LN136@Emplace_re
	inc	DWORD PTR [rcx]
$LN136@Emplace_re:

; 61   : 	void				_dec		()								{	if (0==p_) return;	p_->dwReference--; 	if (0==p_->dwReference)	p_=0;						}

	mov	r8, QWORD PTR [rdx]
	test	r8, r8
	je	SHORT $LN140@Emplace_re
	mov	eax, DWORD PTR [r8]
	dec	eax
	mov	DWORD PTR [r8], eax
	mov	rax, QWORD PTR [rdx]
	cmp	DWORD PTR [rax], r13d
	jne	SHORT $LN140@Emplace_re
	mov	QWORD PTR [rdx], r13
$LN140@Emplace_re:

; 64   : 	void				_set		(shared_str const &rhs)			{	str_value* v = rhs.p_; if (0!=v) v->dwReference++; _dec(); p_ = v;							}

	mov	QWORD PTR [rdx], rcx
	lea	rcx, QWORD PTR [rdx+8]
	mov	r8, rcx
; File C:\Program Files\Microsoft Visual Studio\2022\Community\VC\Tools\MSVC\14.35.32215\include\xmemory

; 1661 :         ++_Last;

	mov	QWORD PTR _Backout$6[rsp+8], rcx

; 1803 :     for (; _UFirst != _ULast; ++_UFirst) {

	add	rbx, 8
	mov	QWORD PTR _UFirst$3[rsp], rbx
	jmp	SHORT $LN188@Emplace_re
$LN124@Emplace_re:

; 1665 :         _First = _Last;

	mov	QWORD PTR _Backout$6[rsp], rcx
$LN189@Emplace_re:

; 946  :         for (; _First != _Last; ++_First) {

	mov	QWORD PTR _First$[rsp], rcx
	cmp	rcx, r8
	je	SHORT $LN148@Emplace_re
; File C:\Users\Mahito\Desktop\Night outing\Night-outing\src\xrCore\xrstring.h

; 61   : 	void				_dec		()								{	if (0==p_) return;	p_->dwReference--; 	if (0==p_->dwReference)	p_=0;						}

	mov	rax, QWORD PTR [rcx]
	test	rax, rax
	je	SHORT $LN162@Emplace_re
	dec	DWORD PTR [rax]
	mov	rax, QWORD PTR [rcx]
	cmp	DWORD PTR [rax], r13d
	jne	SHORT $LN162@Emplace_re
	mov	QWORD PTR [rcx], r13
$LN162@Emplace_re:
; File C:\Program Files\Microsoft Visual Studio\2022\Community\VC\Tools\MSVC\14.35.32215\include\xmemory

; 946  :         for (; _First != _Last; ++_First) {

	add	rcx, 8
	jmp	SHORT $LN189@Emplace_re
$LN148@Emplace_re:
$LN5@Emplace_re:
; File C:\Program Files\Microsoft Visual Studio\2022\Community\VC\Tools\MSVC\14.35.32215\include\vector

; 919  :         _Change_array(_Newvec, _Newsize, _Newcapacity);

	mov	r9, r15
	mov	r8, r12
	mov	rdx, r11
	mov	rcx, r14
	call	?_Change_array@?$vector@Vshared_str@@V?$xalloc@Vshared_str@@@@@std@@AEAAXQEAVshared_str@@_K1@Z ; std::vector<shared_str,xalloc<shared_str> >::_Change_array

; 920  :         return _Newvec + _Whereoff;

	mov	rax, rdi

; 921  :     }

	lea	r11, QWORD PTR [rsp+160]
	mov	rbx, QWORD PTR [r11+64]
	mov	rsi, QWORD PTR [r11+72]
	mov	rsp, r11
	pop	r15
	pop	r14
	pop	r13
	pop	r12
	pop	rdi
	ret	0
$LN191@Emplace_re:

; 888  :             _Xlength();

	call	?_Xlength@?$vector@Vshared_str@@V?$xalloc@Vshared_str@@@@@std@@CAXXZ ; std::vector<shared_str,xalloc<shared_str> >::_Xlength
	int	3
$LN185@Emplace_re:
??$_Emplace_reallocate@AEBVshared_str@@@?$vector@Vshared_str@@V?$xalloc@Vshared_str@@@@@std@@AEAAPEAVshared_str@@QEAV2@AEBV2@@Z ENDP ; std::vector<shared_str,xalloc<shared_str> >::_Emplace_reallocate<shared_str const &>
_TEXT	ENDS
; Function compile flags: /Ogtpy
;	COMDAT text$x
text$x	SEGMENT
_Constructed_first$ = 32
_UFirst$1 = 40
_First$ = 48
_UFirst$2 = 56
_First$ = 64
_UFirst$3 = 72
_First$ = 80
_Backout$4 = 88
_Backout$5 = 112
_Backout$6 = 136
_Constructed_last$ = 208
this$ = 208
_Newvec$ = 216
_Whereptr$ = 216
<_Val_0>$ = 224
?catch$0@?0???$_Emplace_reallocate@AEBVshared_str@@@?$vector@Vshared_str@@V?$xalloc@Vshared_str@@@@@std@@AEAAPEAVshared_str@@QEAV2@AEBV2@@Z@4HA PROC ; `std::vector<shared_str,xalloc<shared_str> >::_Emplace_reallocate<shared_str const &>'::`1'::catch$0

; 913  :         _CATCH_ALL

	mov	QWORD PTR [rsp+16], rdx
	push	rbp
	sub	rsp, 32					; 00000020H
	mov	rbp, rdx
__catch$??$_Emplace_reallocate@AEBVshared_str@@@?$vector@Vshared_str@@V?$xalloc@Vshared_str@@@@@std@@AEAAPEAVshared_str@@QEAV2@AEBV2@@Z$0:

; 914  :         _Destroy_range(_Constructed_first, _Constructed_last, _Al);

	mov	rdx, QWORD PTR _Constructed_last$[rbp]
	mov	rcx, QWORD PTR _Constructed_first$[rbp]
	call	??$_Destroy_range@V?$xalloc@Vshared_str@@@@@std@@YAXPEAVshared_str@@QEAV1@AEAV?$xalloc@Vshared_str@@@@@Z ; std::_Destroy_range<xalloc<shared_str> >

; 915  :         _Al.deallocate(_Newvec, _Newcapacity);

	mov	rdx, QWORD PTR _Newvec$[rbp]
	call	?deallocate@?$xalloc@Vshared_str@@@@QEBAXPEAVshared_str@@_K@Z ; xalloc<shared_str>::deallocate

; 916  :         _RERAISE;

	xor	edx, edx
	xor	ecx, ecx
	call	_CxxThrowException
	npad	1
?catch$0@?0???$_Emplace_reallocate@AEBVshared_str@@@?$vector@Vshared_str@@V?$xalloc@Vshared_str@@@@@std@@AEAAPEAVshared_str@@QEAV2@AEBV2@@Z@4HA ENDP ; `std::vector<shared_str,xalloc<shared_str> >::_Emplace_reallocate<shared_str const &>'::`1'::catch$0
text$x	ENDS
; Function compile flags: /Ogtpy
; File C:\Program Files\Microsoft Visual Studio\2022\Community\VC\Tools\MSVC\14.35.32215\include\xstddef
;	COMDAT ??$_Unfancy@Vshared_str@@@std@@YAPEAVshared_str@@PEAV1@@Z
_TEXT	SEGMENT
_Ptr$ = 8
??$_Unfancy@Vshared_str@@@std@@YAPEAVshared_str@@PEAV1@@Z PROC ; std::_Unfancy<shared_str>, COMDAT

; 294  :     return _Ptr;

	mov	rax, rcx

; 295  : }

	ret	0
??$_Unfancy@Vshared_str@@@std@@YAPEAVshared_str@@PEAV1@@Z ENDP ; std::_Unfancy<shared_str>
_TEXT	ENDS
; Function compile flags: /Ogtpy
; File C:\Program Files\Microsoft Visual Studio\2022\Community\VC\Tools\MSVC\14.35.32215\include\xmemory
; File C:\Users\Mahito\Desktop\Night outing\Night-outing\src\xrCore\xrstring.h
; File C:\Program Files\Microsoft Visual Studio\2022\Community\VC\Tools\MSVC\14.35.32215\include\xmemory
;	COMDAT ??$destroy@Vshared_str@@@?$_Normal_allocator_traits@V?$xalloc@Vshared_str@@@@@std@@SAXAEAV?$xalloc@Vshared_str@@@@PEAVshared_str@@@Z
_TEXT	SEGMENT
_Al$dead$ = 8
_Ptr$ = 16
??$destroy@Vshared_str@@@?$_Normal_allocator_traits@V?$xalloc@Vshared_str@@@@@std@@SAXAEAV?$xalloc@Vshared_str@@@@PEAVshared_str@@@Z PROC ; std::_Normal_allocator_traits<xalloc<shared_str> >::destroy<shared_str>, COMDAT
; File C:\Users\Mahito\Desktop\Night outing\Night-outing\src\xrCore\xrstring.h

; 61   : 	void				_dec		()								{	if (0==p_) return;	p_->dwReference--; 	if (0==p_->dwReference)	p_=0;						}

	mov	rax, QWORD PTR [rdx]
	test	rax, rax
	je	SHORT $LN12@destroy
	dec	DWORD PTR [rax]
	mov	rax, QWORD PTR [rdx]
	cmp	DWORD PTR [rax], 0
	jne	SHORT $LN12@destroy
	mov	QWORD PTR [rdx], 0
$LN12@destroy:
; File C:\Program Files\Microsoft Visual Studio\2022\Community\VC\Tools\MSVC\14.35.32215\include\xmemory

; 587  :     }

	ret	0
??$destroy@Vshared_str@@@?$_Normal_allocator_traits@V?$xalloc@Vshared_str@@@@@std@@SAXAEAV?$xalloc@Vshared_str@@@@PEAVshared_str@@@Z ENDP ; std::_Normal_allocator_traits<xalloc<shared_str> >::destroy<shared_str>
_TEXT	ENDS
; Function compile flags: /Ogtpy
; File C:\Program Files\Microsoft Visual Studio\2022\Community\VC\Tools\MSVC\14.35.32215\include\type_traits
;	COMDAT ??$move@AEAPEAVshared_str@@@std@@YA$$QEAPEAVshared_str@@AEAPEAV1@@Z
_TEXT	SEGMENT
_Arg$ = 8
??$move@AEAPEAVshared_str@@@std@@YA$$QEAPEAVshared_str@@AEAPEAV1@@Z PROC ; std::move<shared_str * &>, COMDAT

; 1438 :     return static_cast<remove_reference_t<_Ty>&&>(_Arg);

	mov	rax, rcx

; 1439 : }

	ret	0
??$move@AEAPEAVshared_str@@@std@@YA$$QEAPEAVshared_str@@AEAPEAV1@@Z ENDP ; std::move<shared_str * &>
_TEXT	ENDS
; Function compile flags: /Ogtpy
; File C:\Program Files\Microsoft Visual Studio\2022\Community\VC\Tools\MSVC\14.35.32215\include\xmemory
; File C:\Users\Mahito\Desktop\Night outing\Night-outing\src\xrCore\_stl_extensions.h
; File C:\Users\Mahito\Desktop\Night outing\Night-outing\src\xrCore\xrstring.h
; File C:\Program Files\Microsoft Visual Studio\2022\Community\VC\Tools\MSVC\14.35.32215\include\xmemory
;	COMDAT ??$_Emplace_back@AEAVshared_str@@@?$_Uninitialized_backout_al@V?$xalloc@Vshared_str@@@@@std@@QEAAXAEAVshared_str@@@Z
_TEXT	SEGMENT
this$ = 8
<_Vals_0>$ = 16
??$_Emplace_back@AEAVshared_str@@@?$_Uninitialized_backout_al@V?$xalloc@Vshared_str@@@@@std@@QEAAXAEAVshared_str@@@Z PROC ; std::_Uninitialized_backout_al<xalloc<shared_str> >::_Emplace_back<shared_str &>, COMDAT
; File C:\Users\Mahito\Desktop\Night outing\Night-outing\src\xrCore\_stl_extensions.h

; 85   : 							void					construct		(pointer p, const T& _Val)				{	::new(p) T(_Val);	}

	mov	r8, QWORD PTR [rcx+8]
; File C:\Users\Mahito\Desktop\Night outing\Night-outing\src\xrCore\xrstring.h

; 74   : 						shared_str	(shared_str const &rhs)			{	p_ = 0;	_set(rhs);								}

	mov	QWORD PTR [r8], 0

; 64   : 	void				_set		(shared_str const &rhs)			{	str_value* v = rhs.p_; if (0!=v) v->dwReference++; _dec(); p_ = v;							}

	mov	rax, QWORD PTR [rdx]
	test	rax, rax
	je	SHORT $LN10@Emplace_ba
	inc	DWORD PTR [rax]
$LN10@Emplace_ba:

; 61   : 	void				_dec		()								{	if (0==p_) return;	p_->dwReference--; 	if (0==p_->dwReference)	p_=0;						}

	mov	rdx, QWORD PTR [r8]
	test	rdx, rdx
	je	SHORT $LN16@Emplace_ba
	dec	DWORD PTR [rdx]
$LN16@Emplace_ba:
; File C:\Program Files\Microsoft Visual Studio\2022\Community\VC\Tools\MSVC\14.35.32215\include\xmemory

; 1662 :     }

	mov	QWORD PTR [r8], rax
	add	QWORD PTR [rcx+8], 8
	ret	0
??$_Emplace_back@AEAVshared_str@@@?$_Uninitialized_backout_al@V?$xalloc@Vshared_str@@@@@std@@QEAAXAEAVshared_str@@@Z ENDP ; std::_Uninitialized_backout_al<xalloc<shared_str> >::_Emplace_back<shared_str &>
_TEXT	ENDS
; Function compile flags: /Ogtpy
; File C:\Program Files\Microsoft Visual Studio\2022\Community\VC\Tools\MSVC\14.35.32215\include\vector
;	COMDAT ?_Orphan_range@?$vector@Vshared_str@@V?$xalloc@Vshared_str@@@@@std@@AEBAXPEAVshared_str@@0@Z
_TEXT	SEGMENT
this$dead$ = 8
__formal$dead$ = 16
__formal$dead$ = 24
?_Orphan_range@?$vector@Vshared_str@@V?$xalloc@Vshared_str@@@@@std@@AEBAXPEAVshared_str@@0@Z PROC ; std::vector<shared_str,xalloc<shared_str> >::_Orphan_range, COMDAT

; 2240 :     _CONSTEXPR20 void _Orphan_range(pointer, pointer) const {}

	ret	0
?_Orphan_range@?$vector@Vshared_str@@V?$xalloc@Vshared_str@@@@@std@@AEBAXPEAVshared_str@@0@Z ENDP ; std::vector<shared_str,xalloc<shared_str> >::_Orphan_range
_TEXT	ENDS
; Function compile flags: /Ogtpy
; File C:\Program Files\Microsoft Visual Studio\2022\Community\VC\Tools\MSVC\14.35.32215\include\vector
;	COMDAT ?_Calculate_growth@?$vector@Vshared_str@@V?$xalloc@Vshared_str@@@@@std@@AEBA_K_K@Z
_TEXT	SEGMENT
this$ = 8
_Newsize$ = 16
?_Calculate_growth@?$vector@Vshared_str@@V?$xalloc@Vshared_str@@@@@std@@AEBA_K_K@Z PROC ; std::vector<shared_str,xalloc<shared_str> >::_Calculate_growth, COMDAT

; 1942 :         return static_cast<size_type>(_My_data._Myend - _My_data._Myfirst);

	mov	r8, QWORD PTR [rcx+16]

; 2025 :         // given _Oldcapacity and _Newsize, calculate geometric growth
; 2026 :         const size_type _Oldcapacity = capacity();
; 2027 :         const auto _Max              = max_size();
; 2028 : 
; 2029 :         if (_Oldcapacity > _Max - _Oldcapacity / 2) {

	mov	rax, 2305843009213693951		; 1fffffffffffffffH

; 1942 :         return static_cast<size_type>(_My_data._Myend - _My_data._Myfirst);

	sub	r8, QWORD PTR [rcx]

; 2025 :         // given _Oldcapacity and _Newsize, calculate geometric growth
; 2026 :         const size_type _Oldcapacity = capacity();
; 2027 :         const auto _Max              = max_size();
; 2028 : 
; 2029 :         if (_Oldcapacity > _Max - _Oldcapacity / 2) {

	mov	rcx, rax

; 1942 :         return static_cast<size_type>(_My_data._Myend - _My_data._Myfirst);

	sar	r8, 3

; 2025 :         // given _Oldcapacity and _Newsize, calculate geometric growth
; 2026 :         const size_type _Oldcapacity = capacity();
; 2027 :         const auto _Max              = max_size();
; 2028 : 
; 2029 :         if (_Oldcapacity > _Max - _Oldcapacity / 2) {

	mov	r9, r8
	shr	r9, 1
	sub	rcx, r9
	cmp	r8, rcx
	ja	SHORT $LN1@Calculate_

; 2030 :             return _Max; // geometric growth would overflow
; 2031 :         }
; 2032 : 
; 2033 :         const size_type _Geometric = _Oldcapacity + _Oldcapacity / 2;

	lea	rax, QWORD PTR [r9+r8]

; 2034 : 
; 2035 :         if (_Geometric < _Newsize) {

	cmp	rax, rdx
	cmovb	rax, rdx
$LN1@Calculate_:

; 2036 :             return _Newsize; // geometric growth would be insufficient
; 2037 :         }
; 2038 : 
; 2039 :         return _Geometric; // geometric growth is sufficient
; 2040 :     }

	ret	0
?_Calculate_growth@?$vector@Vshared_str@@V?$xalloc@Vshared_str@@@@@std@@AEBA_K_K@Z ENDP ; std::vector<shared_str,xalloc<shared_str> >::_Calculate_growth
_TEXT	ENDS
; Function compile flags: /Ogtpy
; File C:\Users\Mahito\Desktop\Night outing\Night-outing\src\xrCore\_stl_extensions.h
; File C:\Users\Mahito\Desktop\Night outing\Night-outing\src\xrCore\xrstring.h
; File C:\Users\Mahito\Desktop\Night outing\Night-outing\src\xrCore\_stl_extensions.h
;	COMDAT ?destroy@?$xalloc@Vshared_str@@@@QEAAXPEAVshared_str@@@Z
_TEXT	SEGMENT
this$dead$ = 8
p$ = 16
?destroy@?$xalloc@Vshared_str@@@@QEAAXPEAVshared_str@@@Z PROC ; xalloc<shared_str>::destroy, COMDAT
; File C:\Users\Mahito\Desktop\Night outing\Night-outing\src\xrCore\xrstring.h

; 61   : 	void				_dec		()								{	if (0==p_) return;	p_->dwReference--; 	if (0==p_->dwReference)	p_=0;						}

	mov	rax, QWORD PTR [rdx]
	test	rax, rax
	je	SHORT $LN10@destroy
	dec	DWORD PTR [rax]
	mov	rax, QWORD PTR [rdx]
	cmp	DWORD PTR [rax], 0
	jne	SHORT $LN10@destroy
	mov	QWORD PTR [rdx], 0
$LN10@destroy:
; File C:\Users\Mahito\Desktop\Night outing\Night-outing\src\xrCore\_stl_extensions.h

; 86   : 							void					destroy			(pointer p)								{	p->~T();			}

	ret	0
?destroy@?$xalloc@Vshared_str@@@@QEAAXPEAVshared_str@@@Z ENDP ; xalloc<shared_str>::destroy
_TEXT	ENDS
; Function compile flags: /Ogtpy
; File C:\Users\Mahito\Desktop\Night outing\Night-outing\src\xrCore\xrstring.h
;	COMDAT ??_Gshared_str@@QEAAPEAXI@Z
_TEXT	SEGMENT
this$ = 8
__flags$dead$ = 16
??_Gshared_str@@QEAAPEAXI@Z PROC			; shared_str::`scalar deleting destructor', COMDAT

; 61   : 	void				_dec		()								{	if (0==p_) return;	p_->dwReference--; 	if (0==p_->dwReference)	p_=0;						}

	mov	rax, QWORD PTR [rcx]
	test	rax, rax
	je	SHORT $LN11@scalar
	dec	DWORD PTR [rax]
	mov	rax, QWORD PTR [rcx]
	cmp	DWORD PTR [rax], 0
	mov	rax, rcx
	jne	SHORT $LN8@scalar
	mov	QWORD PTR [rcx], 0
	ret	0
$LN11@scalar:
	mov	rax, rcx
$LN8@scalar:
	ret	0
??_Gshared_str@@QEAAPEAXI@Z ENDP			; shared_str::`scalar deleting destructor'
_TEXT	ENDS
; Function compile flags: /Ogtpy
; File C:\Program Files\Microsoft Visual Studio\2022\Community\VC\Tools\MSVC\14.35.32215\include\xmemory
; File C:\Users\Mahito\Desktop\Night outing\Night-outing\src\xrCore\xrstring.h
; File C:\Program Files\Microsoft Visual Studio\2022\Community\VC\Tools\MSVC\14.35.32215\include\xmemory
;	COMDAT ??$construct@Vshared_str@@AEBV1@@?$_Normal_allocator_traits@V?$xalloc@Vshared_str@@@@@std@@SAXAEAV?$xalloc@Vshared_str@@@@PEAVshared_str@@AEBV3@@Z
_TEXT	SEGMENT
_Al$dead$ = 8
_Ptr$ = 16
<_Args_0>$ = 24
??$construct@Vshared_str@@AEBV1@@?$_Normal_allocator_traits@V?$xalloc@Vshared_str@@@@@std@@SAXAEAV?$xalloc@Vshared_str@@@@PEAVshared_str@@AEBV3@@Z PROC ; std::_Normal_allocator_traits<xalloc<shared_str> >::construct<shared_str,shared_str const &>, COMDAT
; File C:\Users\Mahito\Desktop\Night outing\Night-outing\src\xrCore\xrstring.h

; 74   : 						shared_str	(shared_str const &rhs)			{	p_ = 0;	_set(rhs);								}

	mov	QWORD PTR [rdx], 0

; 64   : 	void				_set		(shared_str const &rhs)			{	str_value* v = rhs.p_; if (0!=v) v->dwReference++; _dec(); p_ = v;							}

	mov	rax, QWORD PTR [r8]
	test	rax, rax
	je	SHORT $LN8@construct
	inc	DWORD PTR [rax]
$LN8@construct:

; 61   : 	void				_dec		()								{	if (0==p_) return;	p_->dwReference--; 	if (0==p_->dwReference)	p_=0;						}

	mov	rcx, QWORD PTR [rdx]
	test	rcx, rcx
	je	SHORT $LN14@construct
	dec	DWORD PTR [rcx]
$LN14@construct:
; File C:\Program Files\Microsoft Visual Studio\2022\Community\VC\Tools\MSVC\14.35.32215\include\xmemory

; 574  :     }

	mov	QWORD PTR [rdx], rax
	ret	0
??$construct@Vshared_str@@AEBV1@@?$_Normal_allocator_traits@V?$xalloc@Vshared_str@@@@@std@@SAXAEAV?$xalloc@Vshared_str@@@@PEAVshared_str@@AEBV3@@Z ENDP ; std::_Normal_allocator_traits<xalloc<shared_str> >::construct<shared_str,shared_str const &>
_TEXT	ENDS
; Function compile flags: /Ogtpy
; File C:\Program Files\Microsoft Visual Studio\2022\Community\VC\Tools\MSVC\14.35.32215\include\xmemory
; File C:\Users\Mahito\Desktop\Night outing\Night-outing\src\xrCore\xrstring.h
; File C:\Program Files\Microsoft Visual Studio\2022\Community\VC\Tools\MSVC\14.35.32215\include\xmemory
;	COMDAT ??$_Uninitialized_move@PEAVshared_str@@V?$xalloc@Vshared_str@@@@@std@@YAPEAVshared_str@@QEAV1@0PEAV1@AEAV?$xalloc@Vshared_str@@@@@Z
_TEXT	SEGMENT
_First$ = 8
_Last$ = 16
_Dest$ = 24
_Al$dead$ = 32
??$_Uninitialized_move@PEAVshared_str@@V?$xalloc@Vshared_str@@@@@std@@YAPEAVshared_str@@QEAV1@0PEAV1@AEAV?$xalloc@Vshared_str@@@@@Z PROC ; std::_Uninitialized_move<shared_str *,xalloc<shared_str> >, COMDAT

; 1785 :     const _InIt _First, const _InIt _Last, _Alloc_ptr_t<_Alloc> _Dest, _Alloc& _Al) {

	mov	r9, rcx

; 1786 :     // move [_First, _Last) to raw _Dest, using _Al
; 1787 :     // note: only called internally from elsewhere in the STL
; 1788 :     using _Ptrval     = typename _Alloc::value_type*;
; 1789 :     auto _UFirst      = _Get_unwrapped(_First);
; 1790 :     const auto _ULast = _Get_unwrapped(_Last);
; 1791 :     if constexpr (conjunction_v<bool_constant<_Iter_move_cat<decltype(_UFirst), _Ptrval>::_Bitcopy_constructible>,
; 1792 :                       _Uses_default_construct<_Alloc, _Ptrval, decltype(_STD move(*_UFirst))>>) {
; 1793 : #if _HAS_CXX20
; 1794 :         if (!_STD is_constant_evaluated())
; 1795 : #endif // _HAS_CXX20
; 1796 :         {
; 1797 :             _Copy_memmove(_UFirst, _ULast, _Unfancy(_Dest));
; 1798 :             return _Dest + (_ULast - _UFirst);
; 1799 :         }
; 1800 :     }
; 1801 : 
; 1802 :     _Uninitialized_backout_al<_Alloc> _Backout{_Dest, _Al};
; 1803 :     for (; _UFirst != _ULast; ++_UFirst) {

	cmp	rcx, rdx
	je	SHORT $LN53@Uninitiali

; 1649 :     _CONSTEXPR20 _Uninitialized_backout_al(pointer _Dest, _Alloc& _Al_) : _First(_Dest), _Last(_Dest), _Al(_Al_) {}

	sub	r9, r8
	xor	r10d, r10d
	npad	2
$LL4@Uninitiali:
; File C:\Users\Mahito\Desktop\Night outing\Night-outing\src\xrCore\xrstring.h

; 74   : 						shared_str	(shared_str const &rhs)			{	p_ = 0;	_set(rhs);								}

	mov	QWORD PTR [r8], r10

; 64   : 	void				_set		(shared_str const &rhs)			{	str_value* v = rhs.p_; if (0!=v) v->dwReference++; _dec(); p_ = v;							}

	mov	rax, QWORD PTR [r9+r8]
	test	rax, rax
	je	SHORT $LN15@Uninitiali
	inc	DWORD PTR [rax]
$LN15@Uninitiali:

; 61   : 	void				_dec		()								{	if (0==p_) return;	p_->dwReference--; 	if (0==p_->dwReference)	p_=0;						}

	mov	rcx, QWORD PTR [r8]
	test	rcx, rcx
	je	SHORT $LN19@Uninitiali
	dec	DWORD PTR [rcx]
$LN19@Uninitiali:

; 64   : 	void				_set		(shared_str const &rhs)			{	str_value* v = rhs.p_; if (0!=v) v->dwReference++; _dec(); p_ = v;							}

	mov	QWORD PTR [r8], rax
; File C:\Program Files\Microsoft Visual Studio\2022\Community\VC\Tools\MSVC\14.35.32215\include\xmemory

; 1661 :         ++_Last;

	add	r8, 8

; 1786 :     // move [_First, _Last) to raw _Dest, using _Al
; 1787 :     // note: only called internally from elsewhere in the STL
; 1788 :     using _Ptrval     = typename _Alloc::value_type*;
; 1789 :     auto _UFirst      = _Get_unwrapped(_First);
; 1790 :     const auto _ULast = _Get_unwrapped(_Last);
; 1791 :     if constexpr (conjunction_v<bool_constant<_Iter_move_cat<decltype(_UFirst), _Ptrval>::_Bitcopy_constructible>,
; 1792 :                       _Uses_default_construct<_Alloc, _Ptrval, decltype(_STD move(*_UFirst))>>) {
; 1793 : #if _HAS_CXX20
; 1794 :         if (!_STD is_constant_evaluated())
; 1795 : #endif // _HAS_CXX20
; 1796 :         {
; 1797 :             _Copy_memmove(_UFirst, _ULast, _Unfancy(_Dest));
; 1798 :             return _Dest + (_ULast - _UFirst);
; 1799 :         }
; 1800 :     }
; 1801 : 
; 1802 :     _Uninitialized_backout_al<_Alloc> _Backout{_Dest, _Al};
; 1803 :     for (; _UFirst != _ULast; ++_UFirst) {

	lea	rax, QWORD PTR [r9+r8]
	cmp	rax, rdx
	jne	SHORT $LL4@Uninitiali
$LN53@Uninitiali:

; 1804 :         _Backout._Emplace_back(_STD move(*_UFirst));
; 1805 :     }
; 1806 : 
; 1807 :     return _Backout._Release();
; 1808 : }

	mov	rax, r8
	ret	0
??$_Uninitialized_move@PEAVshared_str@@V?$xalloc@Vshared_str@@@@@std@@YAPEAVshared_str@@QEAV1@0PEAV1@AEAV?$xalloc@Vshared_str@@@@@Z ENDP ; std::_Uninitialized_move<shared_str *,xalloc<shared_str> >
_TEXT	ENDS
; Function compile flags: /Ogtpy
; File C:\Program Files\Microsoft Visual Studio\2022\Community\VC\Tools\MSVC\14.35.32215\include\xutility
;	COMDAT ??$_Get_unwrapped@AEBQEAVshared_str@@@std@@YA?A_TAEBQEAVshared_str@@@Z
_TEXT	SEGMENT
_It$ = 8
??$_Get_unwrapped@AEBQEAVshared_str@@@std@@YA?A_TAEBQEAVshared_str@@@Z PROC ; std::_Get_unwrapped<shared_str * const &>, COMDAT

; 957  :     // unwrap an iterator previously subjected to _Adl_verify_range or otherwise validated
; 958  :     if constexpr (is_pointer_v<decay_t<_Iter>>) { // special-case pointers and arrays
; 959  :         return _It + 0;

	mov	rax, QWORD PTR [rcx]

; 960  :     } else if constexpr (_Unwrappable_v<_Iter>) {
; 961  :         return static_cast<_Iter&&>(_It)._Unwrapped();
; 962  :     } else {
; 963  :         return static_cast<_Iter&&>(_It);
; 964  :     }
; 965  : }

	ret	0
??$_Get_unwrapped@AEBQEAVshared_str@@@std@@YA?A_TAEBQEAVshared_str@@@Z ENDP ; std::_Get_unwrapped<shared_str * const &>
_TEXT	ENDS
; Function compile flags: /Ogtpy
; File C:\Program Files\Microsoft Visual Studio\2022\Community\VC\Tools\MSVC\14.35.32215\include\type_traits
;	COMDAT ??$forward@AEAVshared_str@@@std@@YAAEAVshared_str@@AEAV1@@Z
_TEXT	SEGMENT
_Arg$ = 8
??$forward@AEAVshared_str@@@std@@YAAEAVshared_str@@AEAV1@@Z PROC ; std::forward<shared_str &>, COMDAT

; 1427 :     return static_cast<_Ty&&>(_Arg);

	mov	rax, rcx

; 1428 : }

	ret	0
??$forward@AEAVshared_str@@@std@@YAAEAVshared_str@@AEAV1@@Z ENDP ; std::forward<shared_str &>
_TEXT	ENDS
; Function compile flags: /Ogtpy
; File C:\Program Files\Microsoft Visual Studio\2022\Community\VC\Tools\MSVC\14.35.32215\include\xmemory
; File C:\Users\Mahito\Desktop\Night outing\Night-outing\src\xrCore\xrstring.h
; File C:\Program Files\Microsoft Visual Studio\2022\Community\VC\Tools\MSVC\14.35.32215\include\xmemory
;	COMDAT ??$construct@Vshared_str@@AEAV1@@?$_Normal_allocator_traits@V?$xalloc@Vshared_str@@@@@std@@SAXAEAV?$xalloc@Vshared_str@@@@PEAVshared_str@@AEAV3@@Z
_TEXT	SEGMENT
_Al$dead$ = 8
_Ptr$ = 16
<_Args_0>$ = 24
??$construct@Vshared_str@@AEAV1@@?$_Normal_allocator_traits@V?$xalloc@Vshared_str@@@@@std@@SAXAEAV?$xalloc@Vshared_str@@@@PEAVshared_str@@AEAV3@@Z PROC ; std::_Normal_allocator_traits<xalloc<shared_str> >::construct<shared_str,shared_str &>, COMDAT
; File C:\Users\Mahito\Desktop\Night outing\Night-outing\src\xrCore\xrstring.h

; 74   : 						shared_str	(shared_str const &rhs)			{	p_ = 0;	_set(rhs);								}

	mov	QWORD PTR [rdx], 0

; 64   : 	void				_set		(shared_str const &rhs)			{	str_value* v = rhs.p_; if (0!=v) v->dwReference++; _dec(); p_ = v;							}

	mov	rax, QWORD PTR [r8]
	test	rax, rax
	je	SHORT $LN8@construct
	inc	DWORD PTR [rax]
$LN8@construct:

; 61   : 	void				_dec		()								{	if (0==p_) return;	p_->dwReference--; 	if (0==p_->dwReference)	p_=0;						}

	mov	rcx, QWORD PTR [rdx]
	test	rcx, rcx
	je	SHORT $LN14@construct
	dec	DWORD PTR [rcx]
$LN14@construct:
; File C:\Program Files\Microsoft Visual Studio\2022\Community\VC\Tools\MSVC\14.35.32215\include\xmemory

; 574  :     }

	mov	QWORD PTR [rdx], rax
	ret	0
??$construct@Vshared_str@@AEAV1@@?$_Normal_allocator_traits@V?$xalloc@Vshared_str@@@@@std@@SAXAEAV?$xalloc@Vshared_str@@@@PEAVshared_str@@AEAV3@@Z ENDP ; std::_Normal_allocator_traits<xalloc<shared_str> >::construct<shared_str,shared_str &>
_TEXT	ENDS
; Function compile flags: /Ogtpy
; File C:\Users\Mahito\Desktop\Night outing\Night-outing\src\xrCore\_stl_extensions.h
; File C:\Users\Mahito\Desktop\Night outing\Night-outing\src\xrCore\xrstring.h
; File C:\Users\Mahito\Desktop\Night outing\Night-outing\src\xrCore\_stl_extensions.h
;	COMDAT ?construct@?$xalloc@Vshared_str@@@@QEAAXPEAVshared_str@@AEBV2@@Z
_TEXT	SEGMENT
this$dead$ = 8
p$ = 16
_Val$ = 24
?construct@?$xalloc@Vshared_str@@@@QEAAXPEAVshared_str@@AEBV2@@Z PROC ; xalloc<shared_str>::construct, COMDAT
; File C:\Users\Mahito\Desktop\Night outing\Night-outing\src\xrCore\xrstring.h

; 74   : 						shared_str	(shared_str const &rhs)			{	p_ = 0;	_set(rhs);								}

	mov	QWORD PTR [rdx], 0

; 64   : 	void				_set		(shared_str const &rhs)			{	str_value* v = rhs.p_; if (0!=v) v->dwReference++; _dec(); p_ = v;							}

	mov	rax, QWORD PTR [r8]
	test	rax, rax
	je	SHORT $LN6@construct
	inc	DWORD PTR [rax]
$LN6@construct:

; 61   : 	void				_dec		()								{	if (0==p_) return;	p_->dwReference--; 	if (0==p_->dwReference)	p_=0;						}

	mov	rcx, QWORD PTR [rdx]
	test	rcx, rcx
	je	SHORT $LN12@construct
	dec	DWORD PTR [rcx]
$LN12@construct:
; File C:\Users\Mahito\Desktop\Night outing\Night-outing\src\xrCore\_stl_extensions.h

; 85   : 							void					construct		(pointer p, const T& _Val)				{	::new(p) T(_Val);	}

	mov	QWORD PTR [rdx], rax
	ret	0
?construct@?$xalloc@Vshared_str@@@@QEAAXPEAVshared_str@@AEBV2@@Z ENDP ; xalloc<shared_str>::construct
_TEXT	ENDS
; Function compile flags: /Ogtpy
; File C:\Program Files\Microsoft Visual Studio\2022\Community\VC\Tools\MSVC\14.35.32215\include\type_traits
;	COMDAT ??$move@AEAVshared_str@@@std@@YA$$QEAVshared_str@@AEAV1@@Z
_TEXT	SEGMENT
_Arg$ = 8
??$move@AEAVshared_str@@@std@@YA$$QEAVshared_str@@AEAV1@@Z PROC ; std::move<shared_str &>, COMDAT

; 1438 :     return static_cast<remove_reference_t<_Ty>&&>(_Arg);

	mov	rax, rcx

; 1439 : }

	ret	0
??$move@AEAVshared_str@@@std@@YA$$QEAVshared_str@@AEAV1@@Z ENDP ; std::move<shared_str &>
_TEXT	ENDS
; Function compile flags: /Ogtpy
; File C:\Program Files\Microsoft Visual Studio\2022\Community\VC\Tools\MSVC\14.35.32215\include\xmemory
; File C:\Users\Mahito\Desktop\Night outing\Night-outing\src\xrCore\_stl_extensions.h
; File C:\Users\Mahito\Desktop\Night outing\Night-outing\src\xrCore\xrstring.h
; File C:\Program Files\Microsoft Visual Studio\2022\Community\VC\Tools\MSVC\14.35.32215\include\xmemory
;	COMDAT ??$_Emplace_back@Vshared_str@@@?$_Uninitialized_backout_al@V?$xalloc@Vshared_str@@@@@std@@QEAAX$$QEAVshared_str@@@Z
_TEXT	SEGMENT
this$ = 8
<_Vals_0>$ = 16
??$_Emplace_back@Vshared_str@@@?$_Uninitialized_backout_al@V?$xalloc@Vshared_str@@@@@std@@QEAAX$$QEAVshared_str@@@Z PROC ; std::_Uninitialized_backout_al<xalloc<shared_str> >::_Emplace_back<shared_str>, COMDAT
; File C:\Users\Mahito\Desktop\Night outing\Night-outing\src\xrCore\_stl_extensions.h

; 85   : 							void					construct		(pointer p, const T& _Val)				{	::new(p) T(_Val);	}

	mov	r8, QWORD PTR [rcx+8]
; File C:\Users\Mahito\Desktop\Night outing\Night-outing\src\xrCore\xrstring.h

; 74   : 						shared_str	(shared_str const &rhs)			{	p_ = 0;	_set(rhs);								}

	mov	QWORD PTR [r8], 0

; 64   : 	void				_set		(shared_str const &rhs)			{	str_value* v = rhs.p_; if (0!=v) v->dwReference++; _dec(); p_ = v;							}

	mov	rax, QWORD PTR [rdx]
	test	rax, rax
	je	SHORT $LN10@Emplace_ba
	inc	DWORD PTR [rax]
$LN10@Emplace_ba:

; 61   : 	void				_dec		()								{	if (0==p_) return;	p_->dwReference--; 	if (0==p_->dwReference)	p_=0;						}

	mov	rdx, QWORD PTR [r8]
	test	rdx, rdx
	je	SHORT $LN16@Emplace_ba
	dec	DWORD PTR [rdx]
$LN16@Emplace_ba:
; File C:\Program Files\Microsoft Visual Studio\2022\Community\VC\Tools\MSVC\14.35.32215\include\xmemory

; 1662 :     }

	mov	QWORD PTR [r8], rax
	add	QWORD PTR [rcx+8], 8
	ret	0
??$_Emplace_back@Vshared_str@@@?$_Uninitialized_backout_al@V?$xalloc@Vshared_str@@@@@std@@QEAAX$$QEAVshared_str@@@Z ENDP ; std::_Uninitialized_backout_al<xalloc<shared_str> >::_Emplace_back<shared_str>
_TEXT	ENDS
; Function compile flags: /Ogtpy
; File C:\Program Files\Microsoft Visual Studio\2022\Community\VC\Tools\MSVC\14.35.32215\include\type_traits
;	COMDAT ??$forward@Vshared_str@@@std@@YA$$QEAVshared_str@@AEAV1@@Z
_TEXT	SEGMENT
_Arg$ = 8
??$forward@Vshared_str@@@std@@YA$$QEAVshared_str@@AEAV1@@Z PROC ; std::forward<shared_str>, COMDAT

; 1427 :     return static_cast<_Ty&&>(_Arg);

	mov	rax, rcx

; 1428 : }

	ret	0
??$forward@Vshared_str@@@std@@YA$$QEAVshared_str@@AEAV1@@Z ENDP ; std::forward<shared_str>
_TEXT	ENDS
; Function compile flags: /Ogtpy
; File C:\Program Files\Microsoft Visual Studio\2022\Community\VC\Tools\MSVC\14.35.32215\include\xmemory
; File C:\Users\Mahito\Desktop\Night outing\Night-outing\src\xrCore\xrstring.h
; File C:\Program Files\Microsoft Visual Studio\2022\Community\VC\Tools\MSVC\14.35.32215\include\xmemory
;	COMDAT ??$construct@Vshared_str@@V1@@?$_Normal_allocator_traits@V?$xalloc@Vshared_str@@@@@std@@SAXAEAV?$xalloc@Vshared_str@@@@PEAVshared_str@@$$QEAV3@@Z
_TEXT	SEGMENT
_Al$dead$ = 8
_Ptr$ = 16
<_Args_0>$ = 24
??$construct@Vshared_str@@V1@@?$_Normal_allocator_traits@V?$xalloc@Vshared_str@@@@@std@@SAXAEAV?$xalloc@Vshared_str@@@@PEAVshared_str@@$$QEAV3@@Z PROC ; std::_Normal_allocator_traits<xalloc<shared_str> >::construct<shared_str,shared_str>, COMDAT
; File C:\Users\Mahito\Desktop\Night outing\Night-outing\src\xrCore\xrstring.h

; 74   : 						shared_str	(shared_str const &rhs)			{	p_ = 0;	_set(rhs);								}

	mov	QWORD PTR [rdx], 0

; 64   : 	void				_set		(shared_str const &rhs)			{	str_value* v = rhs.p_; if (0!=v) v->dwReference++; _dec(); p_ = v;							}

	mov	rax, QWORD PTR [r8]
	test	rax, rax
	je	SHORT $LN8@construct
	inc	DWORD PTR [rax]
$LN8@construct:

; 61   : 	void				_dec		()								{	if (0==p_) return;	p_->dwReference--; 	if (0==p_->dwReference)	p_=0;						}

	mov	rcx, QWORD PTR [rdx]
	test	rcx, rcx
	je	SHORT $LN14@construct
	dec	DWORD PTR [rcx]
$LN14@construct:
; File C:\Program Files\Microsoft Visual Studio\2022\Community\VC\Tools\MSVC\14.35.32215\include\xmemory

; 574  :     }

	mov	QWORD PTR [rdx], rax
	ret	0
??$construct@Vshared_str@@V1@@?$_Normal_allocator_traits@V?$xalloc@Vshared_str@@@@@std@@SAXAEAV?$xalloc@Vshared_str@@@@PEAVshared_str@@$$QEAV3@@Z ENDP ; std::_Normal_allocator_traits<xalloc<shared_str> >::construct<shared_str,shared_str>
_TEXT	ENDS
; Function compile flags: /Ogtpy
; File C:\Users\Mahito\Desktop\Night outing\Night-outing\src\xrCore\xrstring.h
;	COMDAT ?c_str@shared_str@@QEBAPEBDXZ
_TEXT	SEGMENT
this$ = 8
?c_str@shared_str@@QEBAPEBDXZ PROC			; shared_str::c_str, COMDAT

; 83   : 	str_c				c_str		() const						{	return p_?p_->value:0;							}

	mov	rdx, QWORD PTR [rcx]
	xor	ecx, ecx
	test	rdx, rdx
	lea	rax, QWORD PTR [rdx+20]
	cmove	rax, rcx
	ret	0
?c_str@shared_str@@QEBAPEBDXZ ENDP			; shared_str::c_str
_TEXT	ENDS
; Function compile flags: /Ogtpy
; File C:\Users\Mahito\Desktop\Night outing\Night-outing\src\xrCore\xrstring.h
;	COMDAT ?_set@shared_str@@QEAAXAEBV1@@Z
_TEXT	SEGMENT
this$ = 8
rhs$ = 16
?_set@shared_str@@QEAAXAEBV1@@Z PROC			; shared_str::_set, COMDAT

; 64   : 	void				_set		(shared_str const &rhs)			{	str_value* v = rhs.p_; if (0!=v) v->dwReference++; _dec(); p_ = v;							}

	mov	rax, QWORD PTR [rdx]
	test	rax, rax
	je	SHORT $LN2@set
	inc	DWORD PTR [rax]
$LN2@set:

; 61   : 	void				_dec		()								{	if (0==p_) return;	p_->dwReference--; 	if (0==p_->dwReference)	p_=0;						}

	mov	rdx, QWORD PTR [rcx]
	test	rdx, rdx
	je	SHORT $LN8@set
	dec	DWORD PTR [rdx]
$LN8@set:

; 64   : 	void				_set		(shared_str const &rhs)			{	str_value* v = rhs.p_; if (0!=v) v->dwReference++; _dec(); p_ = v;							}

	mov	QWORD PTR [rcx], rax
	ret	0
?_set@shared_str@@QEAAXAEBV1@@Z ENDP			; shared_str::_set
_TEXT	ENDS
; Function compile flags: /Ogtpy
; File C:\Users\Mahito\Desktop\Night outing\Night-outing\src\xrCore\xrstring.h
;	COMDAT ??0shared_str@@QEAA@AEBV0@@Z
_TEXT	SEGMENT
this$ = 8
rhs$ = 16
??0shared_str@@QEAA@AEBV0@@Z PROC			; shared_str::shared_str, COMDAT

; 74   : 						shared_str	(shared_str const &rhs)			{	p_ = 0;	_set(rhs);								}

	mov	QWORD PTR [rcx], 0

; 64   : 	void				_set		(shared_str const &rhs)			{	str_value* v = rhs.p_; if (0!=v) v->dwReference++; _dec(); p_ = v;							}

	mov	rax, QWORD PTR [rdx]
	test	rax, rax
	je	SHORT $LN4@shared_str
	inc	DWORD PTR [rax]
$LN4@shared_str:

; 61   : 	void				_dec		()								{	if (0==p_) return;	p_->dwReference--; 	if (0==p_->dwReference)	p_=0;						}

	mov	rdx, QWORD PTR [rcx]
	test	rdx, rdx
	je	SHORT $LN10@shared_str
	dec	DWORD PTR [rdx]
$LN10@shared_str:

; 74   : 						shared_str	(shared_str const &rhs)			{	p_ = 0;	_set(rhs);								}

	mov	QWORD PTR [rcx], rax
	mov	rax, rcx
	ret	0
??0shared_str@@QEAA@AEBV0@@Z ENDP			; shared_str::shared_str
_TEXT	ENDS
; Function compile flags: /Ogtpy
; File C:\Program Files (x86)\Windows Kits\10\Include\10.0.26100.0\ucrt\string.h
;	COMDAT ?strstr@@YAPEADQEADQEBD@Z
_TEXT	SEGMENT
_String$ = 8
_SubString$ = 16
?strstr@@YAPEADQEADQEBD@Z PROC				; strstr, COMDAT

; 520  :         return const_cast<char*>(strstr(static_cast<char const*>(_String), _SubString));

	rex_jmp	QWORD PTR __imp_strstr
?strstr@@YAPEADQEADQEBD@Z ENDP				; strstr
_TEXT	ENDS
; Function compile flags: /Ogtpy
; File C:\Program Files (x86)\Windows Kits\10\Include\10.0.26100.0\ucrt\stdio.h
;	COMDAT _vsnprintf_s_l
_TEXT	SEGMENT
_Buffer$ = 80
_BufferCount$ = 88
_MaxCount$ = 96
_Format$ = 104
_Locale$dead$ = 112
_ArgList$ = 120
_vsnprintf_s_l PROC					; COMDAT

; 1577 :     {

$LN4:
	mov	QWORD PTR [rsp+8], rbx
	mov	QWORD PTR [rsp+16], rbp
	mov	QWORD PTR [rsp+24], rsi
	push	rdi
	sub	rsp, 64					; 00000040H
	mov	rbx, r9
	mov	rdi, r8
	mov	rsi, rdx
	mov	rbp, rcx

; 1578 :         int const _Result = __stdio_common_vsnprintf_s(

	call	__local_stdio_printf_options
	mov	r10, QWORD PTR _ArgList$[rsp]
	mov	r9, rdi
	mov	QWORD PTR [rsp+48], r10
	mov	r8, rsi
	mov	QWORD PTR [rsp+40], 0
	mov	rdx, rbp
	mov	rcx, QWORD PTR [rax]
	mov	QWORD PTR [rsp+32], rbx
	call	QWORD PTR __imp___stdio_common_vsnprintf_s

; 1579 :             _CRT_INTERNAL_LOCAL_PRINTF_OPTIONS,
; 1580 :             _Buffer, _BufferCount, _MaxCount, _Format, _Locale, _ArgList);
; 1581 : 
; 1582 :         return _Result < 0 ? -1 : _Result;
; 1583 :     }

	mov	rbx, QWORD PTR [rsp+80]
	mov	ecx, -1
	mov	rbp, QWORD PTR [rsp+88]
	test	eax, eax
	mov	rsi, QWORD PTR [rsp+96]
	cmovs	eax, ecx
	add	rsp, 64					; 00000040H
	pop	rdi
	ret	0
_vsnprintf_s_l ENDP
_TEXT	ENDS
; Function compile flags: /Ogtpy
; File C:\Program Files (x86)\Windows Kits\10\Include\10.0.26100.0\ucrt\stdio.h
;	COMDAT vsnprintf_s
_TEXT	SEGMENT
_Buffer$ = 80
_BufferCount$ = 88
_MaxCount$ = 96
_Format$ = 104
_ArgList$ = 112
vsnprintf_s PROC					; COMDAT

; 1626 :         {

$LN6:
	mov	QWORD PTR [rsp+8], rbx
	mov	QWORD PTR [rsp+16], rbp
	mov	QWORD PTR [rsp+24], rsi
	push	rdi
	sub	rsp, 64					; 00000040H
	mov	rbx, r9
	mov	rdi, r8
	mov	rsi, rdx
	mov	rbp, rcx

; 1578 :         int const _Result = __stdio_common_vsnprintf_s(

	call	__local_stdio_printf_options
	mov	r10, QWORD PTR _ArgList$[rsp]
	mov	r9, rdi
	mov	QWORD PTR [rsp+48], r10
	mov	r8, rsi
	mov	QWORD PTR [rsp+40], 0
	mov	rdx, rbp
	mov	rcx, QWORD PTR [rax]
	mov	QWORD PTR [rsp+32], rbx
	call	QWORD PTR __imp___stdio_common_vsnprintf_s

; 1627 :             return _vsnprintf_s_l(_Buffer, _BufferCount, _MaxCount, _Format, NULL, _ArgList);
; 1628 :         }

	mov	rbx, QWORD PTR [rsp+80]

; 1582 :         return _Result < 0 ? -1 : _Result;

	mov	ecx, -1

; 1627 :             return _vsnprintf_s_l(_Buffer, _BufferCount, _MaxCount, _Format, NULL, _ArgList);
; 1628 :         }

	mov	rbp, QWORD PTR [rsp+88]

; 1582 :         return _Result < 0 ? -1 : _Result;

	test	eax, eax

; 1627 :             return _vsnprintf_s_l(_Buffer, _BufferCount, _MaxCount, _Format, NULL, _ArgList);
; 1628 :         }

	mov	rsi, QWORD PTR [rsp+96]

; 1582 :         return _Result < 0 ? -1 : _Result;

	cmovs	eax, ecx

; 1627 :             return _vsnprintf_s_l(_Buffer, _BufferCount, _MaxCount, _Format, NULL, _ArgList);
; 1628 :         }

	add	rsp, 64					; 00000040H
	pop	rdi
	ret	0
vsnprintf_s ENDP
_TEXT	ENDS
; Function compile flags: /Ogtpy
; File C:\Users\Mahito\Desktop\Night outing\Night-outing\src\xrCore\_std_extensions.h
; File C:\Program Files (x86)\Windows Kits\10\Include\10.0.26100.0\ucrt\stdio.h
; File C:\Users\Mahito\Desktop\Night outing\Night-outing\src\xrCore\_std_extensions.h
;	COMDAT ?xr_sprintf@@YAHPEAD_KPEBDZZ
_TEXT	SEGMENT
destination$ = 112
buffer_size$ = 120
format_string$ = 128
?xr_sprintf@@YAHPEAD_KPEBDZZ PROC			; xr_sprintf, COMDAT

; 248  : {

$LN8:
	mov	QWORD PTR [rsp+24], r8
	mov	QWORD PTR [rsp+32], r9
	push	rbx
	push	rbp
	push	rsi
	push	rdi
	push	r14
	sub	rsp, 64					; 00000040H
	mov	rdi, r8

; 249  : 	va_list args;
; 250  : 	va_start					( args, format_string);

	lea	r14, QWORD PTR format_string$[rsp+8]
	mov	rsi, rdx
	mov	rbp, rcx
; File C:\Program Files (x86)\Windows Kits\10\Include\10.0.26100.0\ucrt\stdio.h

; 1578 :         int const _Result = __stdio_common_vsnprintf_s(

	call	__local_stdio_printf_options
	mov	QWORD PTR [rsp+48], r14
	lea	r9, QWORD PTR [rsi-1]
	mov	QWORD PTR [rsp+40], 0
	mov	r8, rsi
	mov	rdx, rbp
	mov	QWORD PTR [rsp+32], rdi
	mov	rcx, QWORD PTR [rax]
	call	QWORD PTR __imp___stdio_common_vsnprintf_s

; 1579 :             _CRT_INTERNAL_LOCAL_PRINTF_OPTIONS,
; 1580 :             _Buffer, _BufferCount, _MaxCount, _Format, _Locale, _ArgList);
; 1581 : 
; 1582 :         return _Result < 0 ? -1 : _Result;

	test	eax, eax
	mov	ecx, -1
	cmovs	eax, ecx
; File C:\Users\Mahito\Desktop\Night outing\Night-outing\src\xrCore\_std_extensions.h

; 252  : }

	add	rsp, 64					; 00000040H
	pop	r14
	pop	rdi
	pop	rsi
	pop	rbp
	pop	rbx
	ret	0
?xr_sprintf@@YAHPEAD_KPEBDZZ ENDP			; xr_sprintf
_TEXT	ENDS
; Function compile flags: /Ogtpy
; File C:\Program Files (x86)\Windows Kits\10\Include\10.0.26100.0\ucrt\corecrt_stdio_config.h
;	COMDAT __local_stdio_printf_options
_TEXT	SEGMENT
__local_stdio_printf_options PROC			; COMDAT

; 91   :         static unsigned __int64 _OptionsStorage;
; 92   :         return &_OptionsStorage;

	lea	rax, OFFSET FLAT:?_OptionsStorage@?1??__local_stdio_printf_options@@9@4_KA ; `__local_stdio_printf_options'::`2'::_OptionsStorage

; 93   :     }

	ret	0
__local_stdio_printf_options ENDP
_TEXT	ENDS
; Function compile flags: /Ogtpy
; File C:\Program Files (x86)\Windows Kits\10\Include\10.0.26100.0\ucrt\stdio.h
;	COMDAT _vsnprintf_l
_TEXT	SEGMENT
_Buffer$ = 64
_BufferCount$ = 72
_Format$ = 80
_Locale$dead$ = 88
_ArgList$ = 96
_vsnprintf_l PROC					; COMDAT

; 1391 :     {

$LN4:
	mov	QWORD PTR [rsp+8], rbx
	mov	QWORD PTR [rsp+16], rsi
	push	rdi
	sub	rsp, 48					; 00000030H
	mov	rbx, r8
	mov	rdi, rdx
	mov	rsi, rcx

; 1392 :         int const _Result = __stdio_common_vsprintf(

	call	__local_stdio_printf_options
	mov	r9, rbx
	mov	r8, rdi
	mov	rdx, rsi
	mov	rcx, QWORD PTR [rax]
	mov	rax, QWORD PTR _ArgList$[rsp]
	or	rcx, 1
	mov	QWORD PTR [rsp+40], rax
	mov	QWORD PTR [rsp+32], 0
	call	QWORD PTR __imp___stdio_common_vsprintf

; 1393 :             _CRT_INTERNAL_LOCAL_PRINTF_OPTIONS | _CRT_INTERNAL_PRINTF_LEGACY_VSPRINTF_NULL_TERMINATION,
; 1394 :             _Buffer, _BufferCount, _Format, _Locale, _ArgList);
; 1395 : 
; 1396 :         return _Result < 0 ? -1 : _Result;
; 1397 :     }

	mov	rbx, QWORD PTR [rsp+64]
	mov	ecx, -1
	mov	rsi, QWORD PTR [rsp+72]
	test	eax, eax
	cmovs	eax, ecx
	add	rsp, 48					; 00000030H
	pop	rdi
	ret	0
_vsnprintf_l ENDP
_TEXT	ENDS
; Function compile flags: /Ogtpy
; File C:\Program Files (x86)\Windows Kits\10\Include\10.0.26100.0\ucrt\stdio.h
;	COMDAT _vsnprintf
_TEXT	SEGMENT
_Buffer$ = 64
_BufferCount$dead$ = 72
_Format$ = 80
_ArgList$ = 88
_vsnprintf PROC						; COMDAT

; 1411 :     {

$LN6:
	mov	QWORD PTR [rsp+8], rbx
	mov	QWORD PTR [rsp+16], rsi
	push	rdi
	sub	rsp, 48					; 00000030H
	mov	rbx, r9
	mov	rdi, r8
	mov	rsi, rcx

; 1392 :         int const _Result = __stdio_common_vsprintf(

	call	__local_stdio_printf_options
	mov	QWORD PTR [rsp+40], rbx
	mov	r9, rdi
	mov	r8d, 2047				; 000007ffH
	mov	QWORD PTR [rsp+32], 0
	mov	rdx, rsi
	mov	rcx, QWORD PTR [rax]
	or	rcx, 1
	call	QWORD PTR __imp___stdio_common_vsprintf

; 1412 :         return _vsnprintf_l(_Buffer, _BufferCount, _Format, NULL, _ArgList);
; 1413 :     }

	mov	rbx, QWORD PTR [rsp+64]

; 1396 :         return _Result < 0 ? -1 : _Result;

	mov	ecx, -1

; 1412 :         return _vsnprintf_l(_Buffer, _BufferCount, _Format, NULL, _ArgList);
; 1413 :     }

	mov	rsi, QWORD PTR [rsp+72]

; 1396 :         return _Result < 0 ? -1 : _Result;

	test	eax, eax
	cmovs	eax, ecx

; 1412 :         return _vsnprintf_l(_Buffer, _BufferCount, _Format, NULL, _ArgList);
; 1413 :     }

	add	rsp, 48					; 00000030H
	pop	rdi
	ret	0
_vsnprintf ENDP
_TEXT	ENDS
; Function compile flags: /Ogtpy
; File C:\Users\Mahito\Desktop\Night outing\Night-outing\src\xrCore\FS.h
;	COMDAT ?w_u8@IWriter@@QEAAXE@Z
_TEXT	SEGMENT
this$ = 48
d$ = 56
?w_u8@IWriter@@QEAAXE@Z PROC				; IWriter::w_u8, COMDAT

; 51   : 	IC void			w_u8	(u8 d)					{	w(&d,sizeof(u8));	}

$LN4:
	mov	BYTE PTR [rsp+16], dl
	sub	rsp, 40					; 00000028H
	mov	rax, QWORD PTR [rcx]
	lea	rdx, QWORD PTR d$[rsp]
	mov	r8d, 1
	call	QWORD PTR [rax+24]
	add	rsp, 40					; 00000028H
	ret	0
?w_u8@IWriter@@QEAAXE@Z ENDP				; IWriter::w_u8
_TEXT	ENDS
; Function compile flags: /Ogtpy
; File C:\Users\Mahito\Desktop\Night outing\Night-outing\src\xrCore\FS.h
; File C:\Users\Mahito\Desktop\Night outing\Night-outing\src\xrCore\_std_extensions.h
; File C:\Users\Mahito\Desktop\Night outing\Night-outing\src\xrCore\FS.h
;	COMDAT ?w_string@IWriter@@QEAAXPEBD@Z
_TEXT	SEGMENT
d$ = 48
d$ = 48
this$ = 48
p$ = 56
?w_string@IWriter@@QEAAXPEBD@Z PROC			; IWriter::w_string, COMDAT

; 57   : 	IC void			w_string(const char *p)			{	w(p,(u32)xr_strlen(p));w_u8(13);w_u8(10);	}

$LN11:
	push	rbx
	sub	rsp, 32					; 00000020H
	mov	rax, QWORD PTR [rcx]
	mov	rbx, rcx
; File C:\Users\Mahito\Desktop\Night outing\Night-outing\src\xrCore\_std_extensions.h

; 186  : {	return (u32)strlen(S);			}

	mov	r8, -1
$LL9@w_string:
	inc	r8
	cmp	BYTE PTR [rdx+r8], 0
	jne	SHORT $LL9@w_string
; File C:\Users\Mahito\Desktop\Night outing\Night-outing\src\xrCore\FS.h

; 57   : 	IC void			w_string(const char *p)			{	w(p,(u32)xr_strlen(p));w_u8(13);w_u8(10);	}

	call	QWORD PTR [rax+24]

; 51   : 	IC void			w_u8	(u8 d)					{	w(&d,sizeof(u8));	}

	mov	rax, QWORD PTR [rbx]
	lea	rdx, QWORD PTR d$[rsp]
	mov	r8d, 1

; 57   : 	IC void			w_string(const char *p)			{	w(p,(u32)xr_strlen(p));w_u8(13);w_u8(10);	}

	mov	BYTE PTR d$[rsp], 13

; 51   : 	IC void			w_u8	(u8 d)					{	w(&d,sizeof(u8));	}

	mov	rcx, rbx
	call	QWORD PTR [rax+24]
	mov	rax, QWORD PTR [rbx]
	lea	rdx, QWORD PTR d$[rsp]
	mov	r8d, 1

; 57   : 	IC void			w_string(const char *p)			{	w(p,(u32)xr_strlen(p));w_u8(13);w_u8(10);	}

	mov	BYTE PTR d$[rsp], 10

; 51   : 	IC void			w_u8	(u8 d)					{	w(&d,sizeof(u8));	}

	mov	rcx, rbx
	call	QWORD PTR [rax+24]

; 57   : 	IC void			w_string(const char *p)			{	w(p,(u32)xr_strlen(p));w_u8(13);w_u8(10);	}

	add	rsp, 32					; 00000020H
	pop	rbx
	ret	0
?w_string@IWriter@@QEAAXPEBD@Z ENDP			; IWriter::w_string
_TEXT	ENDS
; Function compile flags: /Ogtpy
; File C:\Users\Mahito\Desktop\Night outing\Night-outing\src\xrCore\xrstring.h
;	COMDAT ??1shared_str@@QEAA@XZ
_TEXT	SEGMENT
this$ = 8
??1shared_str@@QEAA@XZ PROC				; shared_str::~shared_str, COMDAT

; 61   : 	void				_dec		()								{	if (0==p_) return;	p_->dwReference--; 	if (0==p_->dwReference)	p_=0;						}

	mov	rax, QWORD PTR [rcx]
	test	rax, rax
	je	SHORT $LN5@shared_str
	dec	DWORD PTR [rax]
	mov	rax, QWORD PTR [rcx]
	cmp	DWORD PTR [rax], 0
	jne	SHORT $LN5@shared_str
	mov	QWORD PTR [rcx], 0
$LN5@shared_str:

; 75   : 						~shared_str	()								{	_dec();											}

	ret	0
??1shared_str@@QEAA@XZ ENDP				; shared_str::~shared_str
_TEXT	ENDS
; Function compile flags: /Ogtpy
; File C:\Users\Mahito\Desktop\Night outing\Night-outing\src\xrCore\xrstring.h
;	COMDAT ?_dec@shared_str@@IEAAXXZ
_TEXT	SEGMENT
this$ = 8
?_dec@shared_str@@IEAAXXZ PROC				; shared_str::_dec, COMDAT

; 61   : 	void				_dec		()								{	if (0==p_) return;	p_->dwReference--; 	if (0==p_->dwReference)	p_=0;						}

	mov	rax, QWORD PTR [rcx]
	test	rax, rax
	je	SHORT $LN3@dec
	dec	DWORD PTR [rax]
	mov	rax, QWORD PTR [rcx]
	cmp	DWORD PTR [rax], 0
	jne	SHORT $LN3@dec
	mov	QWORD PTR [rcx], 0
$LN3@dec:
	ret	0
?_dec@shared_str@@IEAAXXZ ENDP				; shared_str::_dec
_TEXT	ENDS
; Function compile flags: /Ogtpy
; File C:\Users\Mahito\Desktop\Night outing\Night-outing\src\xrCore\xrstring.h
; File C:\Users\Mahito\Desktop\Night outing\Night-outing\src\xrCore\xrstring.cpp
; File C:\Users\Mahito\Desktop\Night outing\Night-outing\src\xrCore\xrSyncronize.cpp
; File C:\Users\Mahito\Desktop\Night outing\Night-outing\src\xrCore\_std_extensions.h
; File C:\Users\Mahito\Desktop\Night outing\Night-outing\src\xrCore\xrstring.cpp
; File C:\Users\Mahito\Desktop\Night outing\Night-outing\src\xrCore\xrSyncronize.cpp
; File C:\Users\Mahito\Desktop\Night outing\Night-outing\src\xrCore\xrstring.cpp
; File C:\Users\Mahito\Desktop\Night outing\Night-outing\src\xrCore\xrstring.h
;	COMDAT ?_set@shared_str@@QEAAXPEBD@Z
_TEXT	SEGMENT
header$1 = 32
this$ = 96
rhs$ = 104
?_set@shared_str@@QEAAXPEBD@Z PROC			; shared_str::_set, COMDAT

; 63   : 	void				_set		(str_c rhs) 					{	str_value* v = g_pStringContainer->dock(rhs); if (0!=v) v->dwReference++; _dec(); p_ = v;	}

$LN66:
	push	r15
	sub	rsp, 80					; 00000050H
	mov	QWORD PTR [rsp+104], rbp
	mov	rbp, rdx
	mov	r15, rcx
; File C:\Users\Mahito\Desktop\Night outing\Night-outing\src\xrCore\xrstring.cpp

; 143  : 	if (0==value)				return 0;

	test	rdx, rdx
	jne	SHORT $LN8@set
	xor	eax, eax
	jmp	$LN2@set
$LN8@set:
; File C:\Users\Mahito\Desktop\Night outing\Night-outing\src\xrCore\xrSyncronize.cpp

; 64   : 	EnterCriticalSection			( (CRITICAL_SECTION*)pmutex );

	mov	rcx, QWORD PTR ds:0
	mov	QWORD PTR [rsp+96], rbx
	mov	QWORD PTR [rsp+112], rsi
	mov	QWORD PTR [rsp+72], rdi
	mov	QWORD PTR [rsp+64], r14
	call	QWORD PTR __imp_EnterCriticalSection
; File C:\Users\Mahito\Desktop\Night outing\Night-outing\src\xrCore\_std_extensions.h

; 186  : {	return (u32)strlen(S);			}

	mov	rsi, -1
$LL62@set:
	inc	rsi
	cmp	BYTE PTR [rsi+rbp], 0
	jne	SHORT $LL62@set
; File C:\Users\Mahito\Desktop\Night outing\Night-outing\src\xrCore\xrstring.cpp

; 155  : 	u32		s_len_with_zero		= (u32)s_len+1;

	mov	edx, esi
	lea	edi, DWORD PTR [rsi+1]

; 156  : 	VERIFY	(HEADER+s_len_with_zero < 4096);
; 157  : 
; 158  : 	// setup find structure
; 159  : 	char	header[sizeof(str_value)];
; 160  : 	str_value*	sv				= (str_value*)header;
; 161  : 	sv->dwReference				= 0;
; 162  : 	sv->dwLength				= s_len;
; 163  : 	sv->dwCRC					= crc32	(value,s_len);

	mov	rcx, rbp
	call	?crc32@@YAIPEBXI@Z			; crc32

; 27   : 		str_value* candidate = buffer[ value->dwCRC % buffer_size ];

	mov	rbx, QWORD PTR ds:8

; 163  : 	sv->dwCRC					= crc32	(value,s_len);

	mov	r14d, eax
	mov	DWORD PTR header$1[rsp+8], eax

; 27   : 		str_value* candidate = buffer[ value->dwCRC % buffer_size ];

	mov	rcx, QWORD PTR header$1[rsp+8]
	and	ecx, 262143				; 0003ffffH
	mov	rbx, QWORD PTR [rbx+rcx*8]

; 28   : 		while ( candidate )

	test	rbx, rbx
	je	SHORT $LN61@set
	npad	1
$LL16@set:

; 29   : 		{
; 30   : 			if ( candidate->dwCRC == value->dwCRC &&
; 31   : 				 candidate->dwLength == value->dwLength &&

	cmp	DWORD PTR [rbx+8], r14d
	jne	SHORT $LN18@set
	cmp	DWORD PTR [rbx+4], esi
	jne	SHORT $LN18@set
	mov	r8d, esi
	lea	rcx, QWORD PTR [rbx+20]
	mov	rdx, rbp
	call	memcmp
	test	eax, eax
	je	SHORT $LN9@set
$LN18@set:

; 32   : 				 !memcmp(candidate->value, str, value->dwLength) )
; 33   : 			{
; 34   : 				return candidate;				
; 35   : 			}
; 36   : 
; 37   : 			candidate = candidate->next;

	mov	rbx, QWORD PTR [rbx+12]
	test	rbx, rbx
	jne	SHORT $LL16@set
$LN61@set:

; 179  : 		result					= (str_value*)Memory.mem_alloc(HEADER+s_len_with_zero

	lea	rdx, QWORD PTR [rdi+20]
	lea	rcx, OFFSET FLAT:?Memory@@3VxrMemory@@A	; Memory
	call	?mem_alloc@xrMemory@@QEAAPEAX_K@Z	; xrMemory::mem_alloc
	mov	rbx, rax

; 180  : #ifdef DEBUG_MEMORY_NAME
; 181  : 			, "storage: sstring"
; 182  : #endif // DEBUG_MEMORY_NAME
; 183  : 			);
; 184  : 
; 185  : #ifdef DEBUG
; 186  : 		static int num_leaked_string = 0;
; 187  : 		if ( is_leaked_string )
; 188  : 		{
; 189  : 			++num_leaked_string;
; 190  : 			Msg("leaked_string: %d 0x%08x", num_leaked_string, result);
; 191  : 		}
; 192  : #endif // DEBUG
; 193  : 
; 194  : 		result->dwReference		= 0;
; 195  : 		result->dwLength		= sv->dwLength;
; 196  : 		result->dwCRC			= sv->dwCRC;
; 197  : 		CopyMemory				(result->value,value,s_len_with_zero);

	mov	r8, rdi
	xor	eax, eax
	mov	rdx, rbp
	lea	rcx, QWORD PTR [rbx+20]
	mov	DWORD PTR [rbx], eax
	mov	DWORD PTR [rbx+4], esi
	mov	DWORD PTR [rbx+8], r14d
	call	memcpy

; 45   : 		str_value** element = &buffer[ value->dwCRC % buffer_size ];

	mov	rax, QWORD PTR ds:8
	mov	ecx, DWORD PTR [rbx+8]
	and	ecx, 262143				; 0003ffffH
	lea	rdx, QWORD PTR [rax+rcx*8]

; 46   : 		value->next = *element;

	mov	rax, QWORD PTR [rax+rcx*8]
	mov	QWORD PTR [rbx+12], rax

; 47   : 		*element = value;

	mov	QWORD PTR [rdx], rbx
$LN9@set:
; File C:\Users\Mahito\Desktop\Night outing\Night-outing\src\xrCore\xrSyncronize.cpp

; 69   : 	LeaveCriticalSection			( (CRITICAL_SECTION*)pmutex );

	mov	rcx, QWORD PTR ds:0
	call	QWORD PTR __imp_LeaveCriticalSection
; File C:\Users\Mahito\Desktop\Night outing\Night-outing\src\xrCore\xrstring.cpp

; 203  : 	return	result;

	mov	r14, QWORD PTR [rsp+64]
	mov	rax, rbx
	mov	rdi, QWORD PTR [rsp+72]
	mov	rsi, QWORD PTR [rsp+112]
; File C:\Users\Mahito\Desktop\Night outing\Night-outing\src\xrCore\xrstring.h

; 63   : 	void				_set		(str_c rhs) 					{	str_value* v = g_pStringContainer->dock(rhs); if (0!=v) v->dwReference++; _dec(); p_ = v;	}

	test	rbx, rbx
	je	SHORT $LN64@set
	inc	DWORD PTR [rbx]
$LN64@set:
	mov	rbx, QWORD PTR [rsp+96]
$LN2@set:

; 61   : 	void				_dec		()								{	if (0==p_) return;	p_->dwReference--; 	if (0==p_->dwReference)	p_=0;						}

	mov	rcx, QWORD PTR [r15]
	mov	rbp, QWORD PTR [rsp+104]
	test	rcx, rcx
	je	SHORT $LN63@set
	dec	DWORD PTR [rcx]
$LN63@set:

; 63   : 	void				_set		(str_c rhs) 					{	str_value* v = g_pStringContainer->dock(rhs); if (0!=v) v->dwReference++; _dec(); p_ = v;	}

	mov	QWORD PTR [r15], rax
	add	rsp, 80					; 00000050H
	pop	r15
	ret	0
?_set@shared_str@@QEAAXPEBD@Z ENDP			; shared_str::_set
_TEXT	ENDS
; Function compile flags: /Ogtpy
; File C:\Users\Mahito\Desktop\Night outing\Night-outing\src\xrCore\xrstring.h
; File C:\Users\Mahito\Desktop\Night outing\Night-outing\src\xrCore\xrstring.cpp
; File C:\Users\Mahito\Desktop\Night outing\Night-outing\src\xrCore\xrSyncronize.cpp
; File C:\Users\Mahito\Desktop\Night outing\Night-outing\src\xrCore\_std_extensions.h
; File C:\Users\Mahito\Desktop\Night outing\Night-outing\src\xrCore\xrstring.cpp
; File C:\Users\Mahito\Desktop\Night outing\Night-outing\src\xrCore\xrSyncronize.cpp
; File C:\Users\Mahito\Desktop\Night outing\Night-outing\src\xrCore\xrstring.cpp
; File C:\Users\Mahito\Desktop\Night outing\Night-outing\src\xrCore\xrstring.h
;	COMDAT ??0shared_str@@QEAA@PEBD@Z
_TEXT	SEGMENT
header$1 = 32
this$ = 96
rhs$ = 104
??0shared_str@@QEAA@PEBD@Z PROC				; shared_str::shared_str, COMDAT

; 73   : 						shared_str	(str_c rhs) 					{	p_ = 0;	_set(rhs);								}

$LN68:
	push	r14
	push	r15
	sub	rsp, 72					; 00000048H
	xor	r15d, r15d
	mov	QWORD PTR [rsp+104], rbp
	mov	QWORD PTR [rcx], r15
	mov	rbp, rdx
	mov	r14, rcx
; File C:\Users\Mahito\Desktop\Night outing\Night-outing\src\xrCore\xrstring.cpp

; 143  : 	if (0==value)				return 0;

	test	rdx, rdx
	je	$LN4@shared_str
; File C:\Users\Mahito\Desktop\Night outing\Night-outing\src\xrCore\xrSyncronize.cpp

; 64   : 	EnterCriticalSection			( (CRITICAL_SECTION*)pmutex );

	mov	rcx, QWORD PTR ds:0
	mov	QWORD PTR [rsp+96], rbx
	mov	QWORD PTR [rsp+112], rsi
	mov	QWORD PTR [rsp+120], rdi
	mov	QWORD PTR [rsp+64], r12
	call	QWORD PTR __imp_EnterCriticalSection
; File C:\Users\Mahito\Desktop\Night outing\Night-outing\src\xrCore\_std_extensions.h

; 186  : {	return (u32)strlen(S);			}

	mov	rsi, -1
	npad	5
$LL64@shared_str:
	inc	rsi
	cmp	BYTE PTR [rsi+rbp], r15b
	jne	SHORT $LL64@shared_str
; File C:\Users\Mahito\Desktop\Night outing\Night-outing\src\xrCore\xrstring.cpp

; 155  : 	u32		s_len_with_zero		= (u32)s_len+1;

	mov	edx, esi
	lea	edi, DWORD PTR [rsi+1]

; 156  : 	VERIFY	(HEADER+s_len_with_zero < 4096);
; 157  : 
; 158  : 	// setup find structure
; 159  : 	char	header[sizeof(str_value)];
; 160  : 	str_value*	sv				= (str_value*)header;
; 161  : 	sv->dwReference				= 0;
; 162  : 	sv->dwLength				= s_len;
; 163  : 	sv->dwCRC					= crc32	(value,s_len);

	mov	rcx, rbp
	call	?crc32@@YAIPEBXI@Z			; crc32

; 27   : 		str_value* candidate = buffer[ value->dwCRC % buffer_size ];

	mov	rbx, QWORD PTR ds:8

; 163  : 	sv->dwCRC					= crc32	(value,s_len);

	mov	r12d, eax
	mov	DWORD PTR header$1[rsp+8], eax

; 27   : 		str_value* candidate = buffer[ value->dwCRC % buffer_size ];

	mov	rcx, QWORD PTR header$1[rsp+8]
	and	ecx, 262143				; 0003ffffH
	mov	rbx, QWORD PTR [rbx+rcx*8]

; 28   : 		while ( candidate )

	test	rbx, rbx
	je	SHORT $LN63@shared_str
	npad	7
$LL18@shared_str:

; 29   : 		{
; 30   : 			if ( candidate->dwCRC == value->dwCRC &&
; 31   : 				 candidate->dwLength == value->dwLength &&

	cmp	DWORD PTR [rbx+8], r12d
	jne	SHORT $LN20@shared_str
	cmp	DWORD PTR [rbx+4], esi
	jne	SHORT $LN20@shared_str
	mov	r8d, esi
	lea	rcx, QWORD PTR [rbx+20]
	mov	rdx, rbp
	call	memcmp
	test	eax, eax
	je	SHORT $LN11@shared_str
$LN20@shared_str:

; 32   : 				 !memcmp(candidate->value, str, value->dwLength) )
; 33   : 			{
; 34   : 				return candidate;				
; 35   : 			}
; 36   : 
; 37   : 			candidate = candidate->next;

	mov	rbx, QWORD PTR [rbx+12]
	test	rbx, rbx
	jne	SHORT $LL18@shared_str
$LN63@shared_str:

; 179  : 		result					= (str_value*)Memory.mem_alloc(HEADER+s_len_with_zero

	lea	rdx, QWORD PTR [rdi+20]
	lea	rcx, OFFSET FLAT:?Memory@@3VxrMemory@@A	; Memory
	call	?mem_alloc@xrMemory@@QEAAPEAX_K@Z	; xrMemory::mem_alloc

; 180  : #ifdef DEBUG_MEMORY_NAME
; 181  : 			, "storage: sstring"
; 182  : #endif // DEBUG_MEMORY_NAME
; 183  : 			);
; 184  : 
; 185  : #ifdef DEBUG
; 186  : 		static int num_leaked_string = 0;
; 187  : 		if ( is_leaked_string )
; 188  : 		{
; 189  : 			++num_leaked_string;
; 190  : 			Msg("leaked_string: %d 0x%08x", num_leaked_string, result);
; 191  : 		}
; 192  : #endif // DEBUG
; 193  : 
; 194  : 		result->dwReference		= 0;
; 195  : 		result->dwLength		= sv->dwLength;
; 196  : 		result->dwCRC			= sv->dwCRC;
; 197  : 		CopyMemory				(result->value,value,s_len_with_zero);

	mov	r8, rdi
	mov	rdx, rbp
	mov	rbx, rax
	lea	rcx, QWORD PTR [rax+20]
	mov	DWORD PTR [rax], r15d
	mov	DWORD PTR [rax+4], esi
	mov	DWORD PTR [rax+8], r12d
	call	memcpy

; 45   : 		str_value** element = &buffer[ value->dwCRC % buffer_size ];

	mov	rax, QWORD PTR ds:8
	mov	ecx, DWORD PTR [rbx+8]
	and	ecx, 262143				; 0003ffffH
	lea	rdx, QWORD PTR [rax+rcx*8]

; 46   : 		value->next = *element;

	mov	rax, QWORD PTR [rax+rcx*8]
	mov	QWORD PTR [rbx+12], rax

; 47   : 		*element = value;

	mov	QWORD PTR [rdx], rbx
$LN11@shared_str:
; File C:\Users\Mahito\Desktop\Night outing\Night-outing\src\xrCore\xrSyncronize.cpp

; 69   : 	LeaveCriticalSection			( (CRITICAL_SECTION*)pmutex );

	mov	rcx, QWORD PTR ds:0
	call	QWORD PTR __imp_LeaveCriticalSection
; File C:\Users\Mahito\Desktop\Night outing\Night-outing\src\xrCore\xrstring.cpp

; 203  : 	return	result;

	mov	r12, QWORD PTR [rsp+64]
	mov	r15, rbx
	mov	rdi, QWORD PTR [rsp+120]
	mov	rsi, QWORD PTR [rsp+112]
; File C:\Users\Mahito\Desktop\Night outing\Night-outing\src\xrCore\xrstring.h

; 63   : 	void				_set		(str_c rhs) 					{	str_value* v = g_pStringContainer->dock(rhs); if (0!=v) v->dwReference++; _dec(); p_ = v;	}

	test	rbx, rbx
	je	SHORT $LN66@shared_str
	inc	DWORD PTR [rbx]
$LN66@shared_str:
	mov	rbx, QWORD PTR [rsp+96]
$LN4@shared_str:

; 61   : 	void				_dec		()								{	if (0==p_) return;	p_->dwReference--; 	if (0==p_->dwReference)	p_=0;						}

	mov	rax, QWORD PTR [r14]
	mov	rbp, QWORD PTR [rsp+104]
	test	rax, rax
	je	SHORT $LN65@shared_str
	dec	DWORD PTR [rax]
$LN65@shared_str:

; 73   : 						shared_str	(str_c rhs) 					{	p_ = 0;	_set(rhs);								}

	mov	rax, r14
	mov	QWORD PTR [r14], r15
	add	rsp, 72					; 00000048H
	pop	r15
	pop	r14
	ret	0
??0shared_str@@QEAA@PEBD@Z ENDP				; shared_str::shared_str
_TEXT	ENDS
; Function compile flags: /Ogtpy
; File C:\Users\Mahito\Desktop\Night outing\Night-outing\src\xrCore\FTimer.h
;	COMDAT ??0CTimerBase@@QEAA@XZ
_TEXT	SEGMENT
this$dead$ = 8
??0CTimerBase@@QEAA@XZ PROC				; CTimerBase::CTimerBase, COMDAT

; 28   : 				CTimerBase		()		: qwStartTime(0),qwPausedTime(0),qwPauseAccum(0),bPause(FALSE)		{ }

	xor	eax, eax
	vpxor	xmm0, xmm0, xmm0
	mov	QWORD PTR ?time_log@@3VCTimer@@A, rax
	mov	DWORD PTR ?time_log@@3VCTimer@@A+24, eax
	lea	rax, OFFSET FLAT:?time_log@@3VCTimer@@A	; time_log
	vmovdqu	XMMWORD PTR ?time_log@@3VCTimer@@A+8, xmm0
	ret	0
??0CTimerBase@@QEAA@XZ ENDP				; CTimerBase::CTimerBase
_TEXT	ENDS
; Function compile flags: /Ogtpy
; File C:\Users\Mahito\Desktop\Night outing\Night-outing\src\xrCore\FTimer.h
;	COMDAT ??0CTimer@@QEAA@XZ
_TEXT	SEGMENT
this$dead$ = 8
??0CTimer@@QEAA@XZ PROC					; CTimer::CTimer, COMDAT

; 69   : 	IC					CTimer			() : m_time_factor(1.f), m_real_ticks(0), m_ticks(0) {}

	vmovss	xmm1, DWORD PTR __real@3f800000

; 28   : 				CTimerBase		()		: qwStartTime(0),qwPausedTime(0),qwPauseAccum(0),bPause(FALSE)		{ }

	xor	eax, eax
	vpxor	xmm0, xmm0, xmm0
	mov	QWORD PTR ?time_log@@3VCTimer@@A, rax
	mov	DWORD PTR ?time_log@@3VCTimer@@A+24, eax

; 69   : 	IC					CTimer			() : m_time_factor(1.f), m_real_ticks(0), m_ticks(0) {}

	lea	rax, OFFSET FLAT:?time_log@@3VCTimer@@A	; time_log
	vmovss	DWORD PTR ?time_log@@3VCTimer@@A+32, xmm1

; 28   : 				CTimerBase		()		: qwStartTime(0),qwPausedTime(0),qwPauseAccum(0),bPause(FALSE)		{ }

	vmovdqu	XMMWORD PTR ?time_log@@3VCTimer@@A+8, xmm0

; 69   : 	IC					CTimer			() : m_time_factor(1.f), m_real_ticks(0), m_ticks(0) {}

	vmovdqu	XMMWORD PTR ?time_log@@3VCTimer@@A+40, xmm0
	ret	0
??0CTimer@@QEAA@XZ ENDP					; CTimer::CTimer
_TEXT	ENDS
END
