; Listing generated by Microsoft (R) Optimizing Compiler Version 19.35.32217.1 

include listing.inc

INCLUDELIB OLDNAMES

PUBLIC	?d_len@@3PAEA					; d_len
PUBLIC	?d_code@@3PAEA					; d_code
PUBLIC	?son@@3PAHA					; son
PUBLIC	?freq@@3PAIA					; freq
PUBLIC	?prnt@@3PAHA					; prnt
PUBLIC	?text_buf@@3PAEA				; text_buf
PUBLIC	?textsize@@3IA					; textsize
PUBLIC	?codesize@@3IA					; codesize
?son@@3PAHA DD	0273H DUP (?)				; son
?freq@@3PAIA DD	0274H DUP (?)				; freq
?prnt@@3PAHA DD	03aeH DUP (?)				; prnt
?text_buf@@3PAEA DB 0103cH DUP (?)			; text_buf
?textsize@@3IA DD 01H DUP (?)				; textsize
?codesize@@3IA DD 01H DUP (?)				; codesize
_BSS	ENDS
	ORG $+8112
?d_len@@3PAEA DB 03H					; d_len
	DB	03H
	DB	03H
	DB	03H
	DB	03H
	DB	03H
	DB	03H
	DB	03H
	DB	03H
	DB	03H
	DB	03H
	DB	03H
	DB	03H
	DB	03H
	DB	03H
	DB	03H
	DB	03H
	DB	03H
	DB	03H
	DB	03H
	DB	03H
	DB	03H
	DB	03H
	DB	03H
	DB	03H
	DB	03H
	DB	03H
	DB	03H
	DB	03H
	DB	03H
	DB	03H
	DB	03H
	DB	04H
	DB	04H
	DB	04H
	DB	04H
	DB	04H
	DB	04H
	DB	04H
	DB	04H
	DB	04H
	DB	04H
	DB	04H
	DB	04H
	DB	04H
	DB	04H
	DB	04H
	DB	04H
	DB	04H
	DB	04H
	DB	04H
	DB	04H
	DB	04H
	DB	04H
	DB	04H
	DB	04H
	DB	04H
	DB	04H
	DB	04H
	DB	04H
	DB	04H
	DB	04H
	DB	04H
	DB	04H
	DB	04H
	DB	04H
	DB	04H
	DB	04H
	DB	04H
	DB	04H
	DB	04H
	DB	04H
	DB	04H
	DB	04H
	DB	04H
	DB	04H
	DB	04H
	DB	04H
	DB	04H
	DB	04H
	DB	05H
	DB	05H
	DB	05H
	DB	05H
	DB	05H
	DB	05H
	DB	05H
	DB	05H
	DB	05H
	DB	05H
	DB	05H
	DB	05H
	DB	05H
	DB	05H
	DB	05H
	DB	05H
	DB	05H
	DB	05H
	DB	05H
	DB	05H
	DB	05H
	DB	05H
	DB	05H
	DB	05H
	DB	05H
	DB	05H
	DB	05H
	DB	05H
	DB	05H
	DB	05H
	DB	05H
	DB	05H
	DB	05H
	DB	05H
	DB	05H
	DB	05H
	DB	05H
	DB	05H
	DB	05H
	DB	05H
	DB	05H
	DB	05H
	DB	05H
	DB	05H
	DB	05H
	DB	05H
	DB	05H
	DB	05H
	DB	05H
	DB	05H
	DB	05H
	DB	05H
	DB	05H
	DB	05H
	DB	05H
	DB	05H
	DB	05H
	DB	05H
	DB	05H
	DB	05H
	DB	05H
	DB	05H
	DB	05H
	DB	05H
	DB	06H
	DB	06H
	DB	06H
	DB	06H
	DB	06H
	DB	06H
	DB	06H
	DB	06H
	DB	06H
	DB	06H
	DB	06H
	DB	06H
	DB	06H
	DB	06H
	DB	06H
	DB	06H
	DB	06H
	DB	06H
	DB	06H
	DB	06H
	DB	06H
	DB	06H
	DB	06H
	DB	06H
	DB	06H
	DB	06H
	DB	06H
	DB	06H
	DB	06H
	DB	06H
	DB	06H
	DB	06H
	DB	06H
	DB	06H
	DB	06H
	DB	06H
	DB	06H
	DB	06H
	DB	06H
	DB	06H
	DB	06H
	DB	06H
	DB	06H
	DB	06H
	DB	06H
	DB	06H
	DB	06H
	DB	06H
	DB	07H
	DB	07H
	DB	07H
	DB	07H
	DB	07H
	DB	07H
	DB	07H
	DB	07H
	DB	07H
	DB	07H
	DB	07H
	DB	07H
	DB	07H
	DB	07H
	DB	07H
	DB	07H
	DB	07H
	DB	07H
	DB	07H
	DB	07H
	DB	07H
	DB	07H
	DB	07H
	DB	07H
	DB	07H
	DB	07H
	DB	07H
	DB	07H
	DB	07H
	DB	07H
	DB	07H
	DB	07H
	DB	07H
	DB	07H
	DB	07H
	DB	07H
	DB	07H
	DB	07H
	DB	07H
	DB	07H
	DB	07H
	DB	07H
	DB	07H
	DB	07H
	DB	07H
	DB	07H
	DB	07H
	DB	07H
	DB	08H
	DB	08H
	DB	08H
	DB	08H
	DB	08H
	DB	08H
	DB	08H
	DB	08H
	DB	08H
	DB	08H
	DB	08H
	DB	08H
	DB	08H
	DB	08H
	DB	08H
	DB	08H
?d_code@@3PAEA DB 00H					; d_code
	DB	00H
	DB	00H
	DB	00H
	DB	00H
	DB	00H
	DB	00H
	DB	00H
	DB	00H
	DB	00H
	DB	00H
	DB	00H
	DB	00H
	DB	00H
	DB	00H
	DB	00H
	DB	00H
	DB	00H
	DB	00H
	DB	00H
	DB	00H
	DB	00H
	DB	00H
	DB	00H
	DB	00H
	DB	00H
	DB	00H
	DB	00H
	DB	00H
	DB	00H
	DB	00H
	DB	00H
	DB	01H
	DB	01H
	DB	01H
	DB	01H
	DB	01H
	DB	01H
	DB	01H
	DB	01H
	DB	01H
	DB	01H
	DB	01H
	DB	01H
	DB	01H
	DB	01H
	DB	01H
	DB	01H
	DB	02H
	DB	02H
	DB	02H
	DB	02H
	DB	02H
	DB	02H
	DB	02H
	DB	02H
	DB	02H
	DB	02H
	DB	02H
	DB	02H
	DB	02H
	DB	02H
	DB	02H
	DB	02H
	DB	03H
	DB	03H
	DB	03H
	DB	03H
	DB	03H
	DB	03H
	DB	03H
	DB	03H
	DB	03H
	DB	03H
	DB	03H
	DB	03H
	DB	03H
	DB	03H
	DB	03H
	DB	03H
	DB	04H
	DB	04H
	DB	04H
	DB	04H
	DB	04H
	DB	04H
	DB	04H
	DB	04H
	DB	05H
	DB	05H
	DB	05H
	DB	05H
	DB	05H
	DB	05H
	DB	05H
	DB	05H
	DB	06H
	DB	06H
	DB	06H
	DB	06H
	DB	06H
	DB	06H
	DB	06H
	DB	06H
	DB	07H
	DB	07H
	DB	07H
	DB	07H
	DB	07H
	DB	07H
	DB	07H
	DB	07H
	DB	08H
	DB	08H
	DB	08H
	DB	08H
	DB	08H
	DB	08H
	DB	08H
	DB	08H
	DB	09H
	DB	09H
	DB	09H
	DB	09H
	DB	09H
	DB	09H
	DB	09H
	DB	09H
	DB	0aH
	DB	0aH
	DB	0aH
	DB	0aH
	DB	0aH
	DB	0aH
	DB	0aH
	DB	0aH
	DB	0bH
	DB	0bH
	DB	0bH
	DB	0bH
	DB	0bH
	DB	0bH
	DB	0bH
	DB	0bH
	DB	0cH
	DB	0cH
	DB	0cH
	DB	0cH
	DB	0dH
	DB	0dH
	DB	0dH
	DB	0dH
	DB	0eH
	DB	0eH
	DB	0eH
	DB	0eH
	DB	0fH
	DB	0fH
	DB	0fH
	DB	0fH
	DB	010H
	DB	010H
	DB	010H
	DB	010H
	DB	011H
	DB	011H
	DB	011H
	DB	011H
	DB	012H
	DB	012H
	DB	012H
	DB	012H
	DB	013H
	DB	013H
	DB	013H
	DB	013H
	DB	014H
	DB	014H
	DB	014H
	DB	014H
	DB	015H
	DB	015H
	DB	015H
	DB	015H
	DB	016H
	DB	016H
	DB	016H
	DB	016H
	DB	017H
	DB	017H
	DB	017H
	DB	017H
	DB	018H
	DB	018H
	DB	019H
	DB	019H
	DB	01aH
	DB	01aH
	DB	01bH
	DB	01bH
	DB	01cH
	DB	01cH
	DB	01dH
	DB	01dH
	DB	01eH
	DB	01eH
	DB	01fH
	DB	01fH
	DB	020H
	DB	020H
	DB	021H
	DB	021H
	DB	022H
	DB	022H
	DB	023H
	DB	023H
	DB	024H
	DB	024H
	DB	025H
	DB	025H
	DB	026H
	DB	026H
	DB	027H
	DB	027H
	DB	028H
	DB	028H
	DB	029H
	DB	029H
	DB	02aH
	DB	02aH
	DB	02bH
	DB	02bH
	DB	02cH
	DB	02cH
	DB	02dH
	DB	02dH
	DB	02eH
	DB	02eH
	DB	02fH
	DB	02fH
	DB	030H
	DB	031H
	DB	032H
	DB	033H
	DB	034H
	DB	035H
	DB	036H
	DB	037H
	DB	038H
	DB	039H
	DB	03aH
	DB	03bH
	DB	03cH
	DB	03dH
	DB	03eH
	DB	03fH
PUBLIC	?xr_realloc@@YAPEAXPEAX_K@Z			; xr_realloc
PUBLIC	?xr_malloc@@YAPEAX_K@Z				; xr_malloc
PUBLIC	?Decode@@YAXXZ					; Decode
PUBLIC	?DecodePosition@@YAHXZ				; DecodePosition
PUBLIC	?DecodeChar@@YAHXZ				; DecodeChar
PUBLIC	?update@@YAXH@Z					; update
PUBLIC	?reconst@@YAXXZ					; reconst
PUBLIC	?StartHuff@@YAXXZ				; StartHuff
PUBLIC	?GetByte@LZfs@@QEAAHXZ				; LZfs::GetByte
PUBLIC	?GetBit@LZfs@@QEAAHXZ				; LZfs::GetBit
PUBLIC	?OutPointer@LZfs@@QEAAPEAEXZ			; LZfs::OutPointer
PUBLIC	?OutSize@LZfs@@QEAAIXZ				; LZfs::OutSize
PUBLIC	?Init_Output@LZfs@@QEAAXH@Z			; LZfs::Init_Output
PUBLIC	?Init_Input@LZfs@@QEAAXPEAE0@Z			; LZfs::Init_Input
PUBLIC	??0LZfs@@QEAA@XZ				; LZfs::LZfs
PUBLIC	?_putb@LZfs@@QEAAXH@Z				; LZfs::_putb
PUBLIC	?_getb@LZfs@@QEAAHXZ				; LZfs::_getb
PUBLIC	?_decompressLZ@@YAXPEAPEAEPEAIPEAXI@Z		; _decompressLZ
	ALIGN	8

?fs@@3VLZfs@@A DB 040H DUP (?)				; fs
_BSS	ENDS
;	COMDAT pdata
pdata	SEGMENT
$pdata$?xr_realloc@@YAPEAXPEAX_K@Z DD imagerel $LN159
	DD	imagerel $LN159+181
	DD	imagerel $unwind$?xr_realloc@@YAPEAXPEAX_K@Z
pdata	ENDS
;	COMDAT pdata
pdata	SEGMENT
$pdata$?xr_malloc@@YAPEAX_K@Z DD imagerel $LN34
	DD	imagerel $LN34+65
	DD	imagerel $unwind$?xr_malloc@@YAPEAX_K@Z
pdata	ENDS
pdata	SEGMENT
$pdata$?Decode@@YAXXZ DD imagerel $LN417
	DD	imagerel $LN417+145
	DD	imagerel $unwind$?Decode@@YAXXZ
$pdata$2$?Decode@@YAXXZ DD imagerel $LN417+145
	DD	imagerel $LN417+216
	DD	imagerel $chain$2$?Decode@@YAXXZ
$pdata$6$?Decode@@YAXXZ DD imagerel $LN417+216
	DD	imagerel $LN417+1380
	DD	imagerel $chain$6$?Decode@@YAXXZ
$pdata$7$?Decode@@YAXXZ DD imagerel $LN417+1380
	DD	imagerel $LN417+1395
	DD	imagerel $chain$7$?Decode@@YAXXZ
$pdata$8$?Decode@@YAXXZ DD imagerel $LN417+1395
	DD	imagerel $LN417+1400
	DD	imagerel $chain$8$?Decode@@YAXXZ
$pdata$?DecodePosition@@YAHXZ DD imagerel $LN36
	DD	imagerel $LN36+330
	DD	imagerel $unwind$?DecodePosition@@YAHXZ
$pdata$?DecodeChar@@YAHXZ DD imagerel $LN22
	DD	imagerel $LN22+206
	DD	imagerel $unwind$?DecodeChar@@YAHXZ
$pdata$?update@@YAXH@Z DD imagerel $LN19
	DD	imagerel $LN19+266
	DD	imagerel $unwind$?update@@YAXH@Z
$pdata$?reconst@@YAXXZ DD imagerel $LN35
	DD	imagerel $LN35+377
	DD	imagerel $unwind$?reconst@@YAXXZ
$pdata$?StartHuff@@YAXXZ DD imagerel $LN24
	DD	imagerel $LN24+468
	DD	imagerel $unwind$?StartHuff@@YAXXZ
pdata	ENDS
;	COMDAT pdata
pdata	SEGMENT
$pdata$?GetByte@LZfs@@QEAAHXZ DD imagerel $LN15
	DD	imagerel $LN15+31
	DD	imagerel $unwind$?GetByte@LZfs@@QEAAHXZ
pdata	ENDS
;	COMDAT pdata
pdata	SEGMENT
$pdata$0$?GetByte@LZfs@@QEAAHXZ DD imagerel $LN15+31
	DD	imagerel $LN15+142
	DD	imagerel $chain$0$?GetByte@LZfs@@QEAAHXZ
pdata	ENDS
;	COMDAT pdata
pdata	SEGMENT
$pdata$1$?GetByte@LZfs@@QEAAHXZ DD imagerel $LN15+142
	DD	imagerel $LN15+176
	DD	imagerel $chain$1$?GetByte@LZfs@@QEAAHXZ
pdata	ENDS
;	COMDAT pdata
pdata	SEGMENT
$pdata$?GetBit@LZfs@@QEAAHXZ DD imagerel $LN15
	DD	imagerel $LN15+36
	DD	imagerel $unwind$?GetBit@LZfs@@QEAAHXZ
pdata	ENDS
;	COMDAT pdata
pdata	SEGMENT
$pdata$1$?GetBit@LZfs@@QEAAHXZ DD imagerel $LN15+36
	DD	imagerel $LN15+160
	DD	imagerel $chain$1$?GetBit@LZfs@@QEAAHXZ
pdata	ENDS
;	COMDAT pdata
pdata	SEGMENT
$pdata$2$?GetBit@LZfs@@QEAAHXZ DD imagerel $LN15+160
	DD	imagerel $LN15+195
	DD	imagerel $chain$2$?GetBit@LZfs@@QEAAHXZ
pdata	ENDS
;	COMDAT pdata
pdata	SEGMENT
$pdata$?Init_Output@LZfs@@QEAAXH@Z DD imagerel $LN35
	DD	imagerel $LN35+94
	DD	imagerel $unwind$?Init_Output@LZfs@@QEAAXH@Z
pdata	ENDS
;	COMDAT pdata
pdata	SEGMENT
$pdata$?_putb@LZfs@@QEAAXH@Z DD imagerel $LN165
	DD	imagerel $LN165+48
	DD	imagerel $unwind$?_putb@LZfs@@QEAAXH@Z
pdata	ENDS
;	COMDAT pdata
pdata	SEGMENT
$pdata$1$?_putb@LZfs@@QEAAXH@Z DD imagerel $LN165+48
	DD	imagerel $LN165+128
	DD	imagerel $chain$1$?_putb@LZfs@@QEAAXH@Z
pdata	ENDS
;	COMDAT pdata
pdata	SEGMENT
$pdata$2$?_putb@LZfs@@QEAAXH@Z DD imagerel $LN165+128
	DD	imagerel $LN165+198
	DD	imagerel $chain$2$?_putb@LZfs@@QEAAXH@Z
pdata	ENDS
;	COMDAT pdata
pdata	SEGMENT
$pdata$3$?_putb@LZfs@@QEAAXH@Z DD imagerel $LN165+198
	DD	imagerel $LN165+263
	DD	imagerel $chain$3$?_putb@LZfs@@QEAAXH@Z
pdata	ENDS
;	COMDAT pdata
pdata	SEGMENT
$pdata$4$?_putb@LZfs@@QEAAXH@Z DD imagerel $LN165+263
	DD	imagerel $LN165+285
	DD	imagerel $chain$4$?_putb@LZfs@@QEAAXH@Z
pdata	ENDS
pdata	SEGMENT
$pdata$?_decompressLZ@@YAXPEAPEAEPEAIPEAXI@Z DD imagerel $LN10
	DD	imagerel $LN10+96
	DD	imagerel $unwind$?_decompressLZ@@YAXPEAPEAEPEAIPEAXI@Z
;	COMDAT xdata
xdata	SEGMENT
$chain$4$?_putb@LZfs@@QEAAXH@Z DD 021H
	DD	imagerel $LN165
	DD	imagerel $LN165+48
	DD	imagerel $unwind$?_putb@LZfs@@QEAAXH@Z
xdata	ENDS
;	COMDAT xdata
xdata	SEGMENT
$chain$3$?_putb@LZfs@@QEAAXH@Z DD 021H
	DD	imagerel $LN165+48
	DD	imagerel $LN165+128
	DD	imagerel $chain$1$?_putb@LZfs@@QEAAXH@Z
xdata	ENDS
;	COMDAT xdata
xdata	SEGMENT
$chain$2$?_putb@LZfs@@QEAAXH@Z DD 020521H
	DD	075405H
	DD	imagerel $LN165+48
	DD	imagerel $LN165+128
	DD	imagerel $chain$1$?_putb@LZfs@@QEAAXH@Z
xdata	ENDS
;	COMDAT xdata
xdata	SEGMENT
$chain$1$?_putb@LZfs@@QEAAXH@Z DD 040a21H
	DD	08740aH
	DD	063405H
	DD	imagerel $LN165
	DD	imagerel $LN165+48
	DD	imagerel $unwind$?_putb@LZfs@@QEAAXH@Z
xdata	ENDS
;	COMDAT xdata
xdata	SEGMENT
$unwind$?_putb@LZfs@@QEAAXH@Z DD 040b01H
	DD	09640bH
	DD	0e007320bH
xdata	ENDS
;	COMDAT xdata
xdata	SEGMENT
$unwind$?Init_Output@LZfs@@QEAAXH@Z DD 040a01H
	DD	06340aH
	DD	07006320aH
xdata	ENDS
;	COMDAT xdata
xdata	SEGMENT
$chain$2$?GetBit@LZfs@@QEAAHXZ DD 021H
	DD	imagerel $LN15
	DD	imagerel $LN15+36
	DD	imagerel $unwind$?GetBit@LZfs@@QEAAHXZ
xdata	ENDS
;	COMDAT xdata
xdata	SEGMENT
$chain$1$?GetBit@LZfs@@QEAAHXZ DD 040c21H
	DD	0740cH
	DD	023405H
	DD	imagerel $LN15
	DD	imagerel $LN15+36
	DD	imagerel $unwind$?GetBit@LZfs@@QEAAHXZ
xdata	ENDS
;	COMDAT xdata
xdata	SEGMENT
$unwind$?GetBit@LZfs@@QEAAHXZ DD 010401H
	DD	0204H
xdata	ENDS
;	COMDAT xdata
xdata	SEGMENT
$chain$1$?GetByte@LZfs@@QEAAHXZ DD 021H
	DD	imagerel $LN15
	DD	imagerel $LN15+31
	DD	imagerel $unwind$?GetByte@LZfs@@QEAAHXZ
xdata	ENDS
;	COMDAT xdata
xdata	SEGMENT
$chain$0$?GetByte@LZfs@@QEAAHXZ DD 020421H
	DD	03404H
	DD	imagerel $LN15
	DD	imagerel $LN15+31
	DD	imagerel $unwind$?GetByte@LZfs@@QEAAHXZ
xdata	ENDS
;	COMDAT xdata
xdata	SEGMENT
$unwind$?GetByte@LZfs@@QEAAHXZ DD 010401H
	DD	0204H
xdata	ENDS
xdata	SEGMENT
$unwind$?Decode@@YAXXZ DD 010401H
	DD	08204H
$chain$2$?Decode@@YAXXZ DD 060f21H
	DD	05e40fH
	DD	07c40aH
	DD	0d6405H
	DD	imagerel $LN417
	DD	imagerel $LN417+145
	DD	imagerel $unwind$?Decode@@YAXXZ
$chain$6$?Decode@@YAXXZ DD 081b21H
	DD	04f41bH
	DD	06d416H
	DD	087411H
	DD	0c3405H
	DD	imagerel $LN417+145
	DD	imagerel $LN417+216
	DD	imagerel $chain$2$?Decode@@YAXXZ
$chain$7$?Decode@@YAXXZ DD 021H
	DD	imagerel $LN417+145
	DD	imagerel $LN417+216
	DD	imagerel $chain$2$?Decode@@YAXXZ
$chain$8$?Decode@@YAXXZ DD 021H
	DD	imagerel $LN417
	DD	imagerel $LN417+145
	DD	imagerel $unwind$?Decode@@YAXXZ
$unwind$?DecodePosition@@YAHXZ DD 040a01H
	DD	02740aH
	DD	013405H
$unwind$?DecodeChar@@YAHXZ DD 020601H
	DD	030023206H
$unwind$?update@@YAXH@Z DD 020601H
	DD	030023206H
$unwind$?reconst@@YAXXZ DD 0a1401H
	DD	0f3414H
	DD	0f0103214H
	DD	0d00ce00eH
	DD	07008c00aH
	DD	050066007H
$unwind$?StartHuff@@YAXXZ DD 020501H
	DD	017405H
$unwind$?_decompressLZ@@YAXPEAPEAEPEAIPEAXI@Z DD 040a01H
	DD	06340aH
	DD	07006320aH
xdata	ENDS
;	COMDAT xdata
xdata	SEGMENT
$unwind$?xr_malloc@@YAPEAX_K@Z DD 040a01H
	DD	06340aH
	DD	07006320aH
xdata	ENDS
;	COMDAT xdata
xdata	SEGMENT
$unwind$?xr_realloc@@YAPEAXPEAX_K@Z DD 060f01H
	DD	07640fH
	DD	06340fH
	DD	0700b320fH
; Function compile flags: /Ogtpy
; File C:\Users\Mahito\Desktop\Night outing\Night-outing\src\xrCore\LzHuf.cpp
_TEXT	SEGMENT
dest$ = 48
dest_sz$ = 56
src$ = 64
src_sz$ = 72
?_decompressLZ@@YAXPEAPEAEPEAIPEAXI@Z PROC		; _decompressLZ

; 662  : {

$LN10:
	mov	QWORD PTR [rsp+8], rbx
	push	rdi
	sub	rsp, 32					; 00000020H

; 663  : 	u8*	start = (u8*) src;
; 664  : 	fs.Init_Input(start,start+src_sz);

	mov	eax, r9d
	mov	rdi, rdx
	add	rax, r8

; 85   : 		in_start	= _start;

	mov	QWORD PTR ?fs@@3VLZfs@@A+16, r8

; 86   : 		in_end		= _end;

	mov	QWORD PTR ?fs@@3VLZfs@@A+24, rax

; 662  : {

	mov	rbx, rcx

; 90   : 		getbuf = getlen = putbuf = putlen = 0;

	xor	eax, eax
	mov	QWORD PTR ?fs@@3VLZfs@@A+32, r8
	mov	QWORD PTR ?fs@@3VLZfs@@A+8, rax
	mov	QWORD PTR ?fs@@3VLZfs@@A, rax

; 665  :     Decode();

	call	?Decode@@YAXXZ				; Decode

; 666  : 	*dest		= fs.OutPointer();

	mov	r8, QWORD PTR ?fs@@3VLZfs@@A+40

; 102  : 		return u32(out_iterator-out_start);

	mov	eax, DWORD PTR ?fs@@3VLZfs@@A+56
	sub	eax, r8d

; 666  : 	*dest		= fs.OutPointer();

	mov	QWORD PTR [rbx], r8

; 667  : 	*dest_sz	= fs.OutSize();
; 668  : }

	mov	rbx, QWORD PTR [rsp+48]
	mov	DWORD PTR [rdi], eax
	add	rsp, 32					; 00000020H
	pop	rdi
	ret	0
?_decompressLZ@@YAXPEAPEAEPEAIPEAXI@Z ENDP		; _decompressLZ
_TEXT	ENDS
; Function compile flags: /Ogtpy
; File C:\Users\Mahito\Desktop\Night outing\Night-outing\src\xrCore\LzHuf.cpp
;	COMDAT ?_getb@LZfs@@QEAAHXZ
_TEXT	SEGMENT
this$dead$ = 8
?_getb@LZfs@@QEAAHXZ PROC				; LZfs::_getb, COMDAT

; 65   : 		if (in_iterator==in_end) return EOF;

	mov	rcx, QWORD PTR ?fs@@3VLZfs@@A+32
	cmp	rcx, QWORD PTR ?fs@@3VLZfs@@A+24
	jne	SHORT $LN2@getb
	mov	eax, -1

; 67   : 	}

	ret	0
$LN2@getb:

; 66   : 		return *in_iterator++;

	movzx	eax, BYTE PTR [rcx]
	inc	rcx
	mov	QWORD PTR ?fs@@3VLZfs@@A+32, rcx

; 67   : 	}

	ret	0
?_getb@LZfs@@QEAAHXZ ENDP				; LZfs::_getb
_TEXT	ENDS
; Function compile flags: /Ogtpy
; File C:\Users\Mahito\Desktop\Night outing\Night-outing\src\xrCore\LzHuf.cpp
; File C:\Users\Mahito\Desktop\Night outing\Night-outing\src\xrCore\xrMemory_subst_msvc.cpp
; File C:\Users\Mahito\Desktop\Night outing\Night-outing\src\xrCore\LzHuf.cpp
; File C:\Users\Mahito\Desktop\Night outing\Night-outing\src\xrCore\xrMemory_subst_msvc.cpp
; File C:\Users\Mahito\Desktop\Night outing\Night-outing\src\xrCore\LzHuf.cpp
; File C:\Users\Mahito\Desktop\Night outing\Night-outing\src\xrCore\xrMemory_subst_msvc.cpp
; File C:\Users\Mahito\Desktop\Night outing\Night-outing\src\xrCore\LzHuf.cpp
;	COMDAT ?_putb@LZfs@@QEAAXH@Z
_TEXT	SEGMENT
this$dead$ = 48
c$ = 56
?_putb@LZfs@@QEAAXH@Z PROC				; LZfs::_putb, COMDAT

; 68   : 	IC void		_putb(int c) {

$LN165:
	mov	QWORD PTR [rsp+32], rsi
	push	r14
	sub	rsp, 32					; 00000020H

; 69   : 		if (out_iterator==out_end) {

	mov	rax, QWORD PTR ?fs@@3VLZfs@@A+56
	mov	r14d, edx
	mov	rsi, QWORD PTR ?fs@@3VLZfs@@A+48
	cmp	rax, rsi
	jne	$LN161@putb
; File C:\Users\Mahito\Desktop\Night outing\Night-outing\src\xrCore\xrMemory_subst_msvc.cpp

; 128  : 	stat_calls++;

	mov	eax, DWORD PTR ?Memory@@3VxrMemory@@A

; 129  : 
; 130  : 	if (0 == P)

	mov	edx, 16
; File C:\Users\Mahito\Desktop\Night outing\Night-outing\src\xrCore\LzHuf.cpp

; 70   : 			u32	out_size= u32(out_end-out_start);

	mov	QWORD PTR [rsp+48], rbx
	mov	QWORD PTR [rsp+64], rdi
	mov	rdi, QWORD PTR ?fs@@3VLZfs@@A+40
	sub	esi, edi
; File C:\Users\Mahito\Desktop\Night outing\Night-outing\src\xrCore\xrMemory_subst_msvc.cpp

; 128  : 	stat_calls++;

	inc	eax
	mov	DWORD PTR ?Memory@@3VxrMemory@@A, eax
; File C:\Users\Mahito\Desktop\Night outing\Night-outing\src\xrCore\LzHuf.cpp

; 71   : 			out_start	= (u8*) xr_realloc(out_start,out_size+1024);

	lea	ebx, DWORD PTR [rsi+1024]
; File C:\Users\Mahito\Desktop\Night outing\Night-outing\src\xrCore\xrMemory_subst_msvc.cpp

; 128  : 	stat_calls++;

	test	rdi, rdi

; 129  : 
; 130  : 	if (0 == P)

	jne	SHORT $LN10@putb

; 39   : 	stat_calls++;

	inc	eax

; 40   : 
; 41   : #ifdef PURE_ALLOC
; 42   : 	if (g_use_pure_alloc)
; 43   : 	{
; 44   : 		//void* result = malloc(size);
; 45   : 		void* result = _aligned_malloc(size, PURE_MEMORY_ALIGNMENT);

	mov	ecx, ebx
	mov	DWORD PTR ?Memory@@3VxrMemory@@A, eax
	call	QWORD PTR __imp__aligned_malloc
	mov	rdi, rax

; 46   : #ifdef PURE_MEMORY_FILL_ZERO
; 47   : 		if (result)

	test	rax, rax
	je	SHORT $LN12@putb

; 48   : 			memset(result, 0, size);

	mov	r8d, ebx
	xor	edx, edx
	mov	rcx, rax
	call	memset

; 132  : 		return mem_alloc(size

	jmp	SHORT $LN12@putb
$LN10@putb:

; 133  : # ifdef DEBUG_MEMORY_NAME
; 134  : 			, _name
; 135  : # endif // DEBUG_MEMORY_NAME
; 136  : 		);
; 137  : 	}
; 138  : 
; 139  : #ifdef PURE_ALLOC
; 140  : 	if (g_use_pure_alloc)
; 141  : 	{
; 142  : #ifdef PURE_MEMORY_FILL_ZERO
; 143  : 		size_t old_size = P ? _aligned_msize(P, PURE_MEMORY_ALIGNMENT, 0) : 0;

	xor	r8d, r8d
	mov	QWORD PTR [rsp+56], rbp
	mov	rcx, rdi
	call	QWORD PTR __imp__aligned_msize

; 144  : #endif // PURE_MEMORY_FILL_ZERO
; 145  : 
; 146  : 		//void* result = realloc(P, size);
; 147  : 		void* result = _aligned_realloc(P, size, PURE_MEMORY_ALIGNMENT);

	mov	r8d, 16
	mov	rdx, rbx
	mov	rcx, rdi
	mov	rbp, rax
	call	QWORD PTR __imp__aligned_realloc
	mov	rdi, rax

; 148  : 
; 149  : #ifdef PURE_MEMORY_FILL_ZERO
; 150  : 		if (result && size > old_size)

	test	rax, rax
	je	SHORT $LN162@putb
	cmp	rbx, rbp
	jbe	SHORT $LN162@putb

; 151  : 			memset((u8*)result + old_size, 0, size - old_size);

	sub	rbx, rbp
	lea	rcx, QWORD PTR [rax+rbp]
	mov	r8, rbx
	xor	edx, edx
	call	memset
$LN162@putb:
	mov	rbp, QWORD PTR [rsp+56]
$LN12@putb:
; File C:\Users\Mahito\Desktop\Night outing\Night-outing\src\xrCore\LzHuf.cpp

; 75   : 		*out_iterator++ = u8(c&0xFF);

	mov	rbx, QWORD PTR [rsp+48]
	mov	QWORD PTR ?fs@@3VLZfs@@A+40, rdi
	mov	ecx, esi
	add	rcx, rdi
	mov	rdi, QWORD PTR [rsp+64]
	mov	QWORD PTR ?fs@@3VLZfs@@A+56, rcx
	lea	rax, QWORD PTR [rcx+1024]
	mov	QWORD PTR ?fs@@3VLZfs@@A+48, rax
	mov	BYTE PTR [rcx], r14b

; 76   : 	}

	inc	QWORD PTR ?fs@@3VLZfs@@A+56
	mov	rsi, QWORD PTR [rsp+72]
	add	rsp, 32					; 00000020H
	pop	r14
	ret	0
$LN161@putb:
	mov	rsi, QWORD PTR [rsp+72]
	mov	BYTE PTR [rax], r14b
	inc	QWORD PTR ?fs@@3VLZfs@@A+56
	add	rsp, 32					; 00000020H
	pop	r14
	ret	0
?_putb@LZfs@@QEAAXH@Z ENDP				; LZfs::_putb
_TEXT	ENDS
; Function compile flags: /Ogtpy
; File C:\Users\Mahito\Desktop\Night outing\Night-outing\src\xrCore\LzHuf.cpp
;	COMDAT ??0LZfs@@QEAA@XZ
_TEXT	SEGMENT
this$dead$ = 8
??0LZfs@@QEAA@XZ PROC					; LZfs::LZfs, COMDAT

; 79   : 		in_start	= in_end	= in_iterator = 0;

	xor	eax, eax
	mov	QWORD PTR ?fs@@3VLZfs@@A+32, rax
	mov	QWORD PTR ?fs@@3VLZfs@@A+24, rax
	mov	QWORD PTR ?fs@@3VLZfs@@A+16, rax

; 80   : 		out_start	= out_end	= out_iterator = 0;

	mov	QWORD PTR ?fs@@3VLZfs@@A+56, rax
	mov	QWORD PTR ?fs@@3VLZfs@@A+48, rax
	mov	QWORD PTR ?fs@@3VLZfs@@A+40, rax

; 81   : 	}

	lea	rax, OFFSET FLAT:?fs@@3VLZfs@@A
	ret	0
??0LZfs@@QEAA@XZ ENDP					; LZfs::LZfs
_TEXT	ENDS
; Function compile flags: /Ogtpy
; File C:\Users\Mahito\Desktop\Night outing\Night-outing\src\xrCore\LzHuf.cpp
;	COMDAT ?Init_Input@LZfs@@QEAAXPEAE0@Z
_TEXT	SEGMENT
this$dead$ = 8
_start$ = 16
_end$ = 24
?Init_Input@LZfs@@QEAAXPEAE0@Z PROC			; LZfs::Init_Input, COMDAT

; 84   : 		// input
; 85   : 		in_start	= _start;
; 86   : 		in_end		= _end;
; 87   : 		in_iterator	= in_start;
; 88   : 		
; 89   : 		// bitwise input/output
; 90   : 		getbuf = getlen = putbuf = putlen = 0;

	xor	eax, eax
	mov	QWORD PTR ?fs@@3VLZfs@@A+16, rdx
	mov	QWORD PTR ?fs@@3VLZfs@@A+8, rax
	mov	QWORD PTR ?fs@@3VLZfs@@A, rax
	mov	QWORD PTR ?fs@@3VLZfs@@A+24, r8
	mov	QWORD PTR ?fs@@3VLZfs@@A+32, rdx

; 91   : 	}

	ret	0
?Init_Input@LZfs@@QEAAXPEAE0@Z ENDP			; LZfs::Init_Input
_TEXT	ENDS
; Function compile flags: /Ogtpy
; File C:\Users\Mahito\Desktop\Night outing\Night-outing\src\xrCore\LzHuf.cpp
; File C:\Users\Mahito\Desktop\Night outing\Night-outing\src\xrCore\xrMemory_subst_msvc.cpp
; File C:\Users\Mahito\Desktop\Night outing\Night-outing\src\xrCore\LzHuf.cpp
;	COMDAT ?Init_Output@LZfs@@QEAAXH@Z
_TEXT	SEGMENT
this$dead$ = 48
_rsize$dead$ = 56
?Init_Output@LZfs@@QEAAXH@Z PROC			; LZfs::Init_Output, COMDAT

; 92   : 	IC void		Init_Output(int _rsize) {

$LN35:
	mov	QWORD PTR [rsp+8], rbx
	push	rdi
	sub	rsp, 32					; 00000020H

; 93   : 		// output
; 94   : 		out_start	= (u8*)xr_malloc(_rsize);

	movsxd	rdi, DWORD PTR ?textsize@@3IA		; textsize
; File C:\Users\Mahito\Desktop\Night outing\Night-outing\src\xrCore\xrMemory_subst_msvc.cpp

; 45   : 		void* result = _aligned_malloc(size, PURE_MEMORY_ALIGNMENT);

	mov	edx, 16
	inc	DWORD PTR ?Memory@@3VxrMemory@@A
	mov	rcx, rdi
	call	QWORD PTR __imp__aligned_malloc
	mov	rbx, rax

; 46   : #ifdef PURE_MEMORY_FILL_ZERO
; 47   : 		if (result)

	test	rax, rax
	je	SHORT $LN7@Init_Outpu

; 48   : 			memset(result, 0, size);

	mov	r8, rdi
	xor	edx, edx
	mov	rcx, rax
	call	memset
$LN7@Init_Outpu:
; File C:\Users\Mahito\Desktop\Night outing\Night-outing\src\xrCore\LzHuf.cpp

; 95   : 		out_end		= out_start + _rsize;

	lea	rcx, QWORD PTR [rdi+rbx]
	mov	QWORD PTR ?fs@@3VLZfs@@A+40, rbx

; 96   : 		out_iterator= out_start;

	mov	QWORD PTR ?fs@@3VLZfs@@A+56, rbx

; 97   : 	}

	mov	rbx, QWORD PTR [rsp+48]
	mov	QWORD PTR ?fs@@3VLZfs@@A+48, rcx
	add	rsp, 32					; 00000020H
	pop	rdi
	ret	0
?Init_Output@LZfs@@QEAAXH@Z ENDP			; LZfs::Init_Output
_TEXT	ENDS
; Function compile flags: /Ogtpy
; File C:\Users\Mahito\Desktop\Night outing\Night-outing\src\xrCore\LzHuf.cpp
;	COMDAT ?OutSize@LZfs@@QEAAIXZ
_TEXT	SEGMENT
this$dead$ = 8
?OutSize@LZfs@@QEAAIXZ PROC				; LZfs::OutSize, COMDAT

; 102  : 		return u32(out_iterator-out_start);

	mov	eax, DWORD PTR ?fs@@3VLZfs@@A+56
	sub	eax, DWORD PTR ?fs@@3VLZfs@@A+40

; 103  : 	}

	ret	0
?OutSize@LZfs@@QEAAIXZ ENDP				; LZfs::OutSize
_TEXT	ENDS
; Function compile flags: /Ogtpy
; File C:\Users\Mahito\Desktop\Night outing\Night-outing\src\xrCore\LzHuf.cpp
;	COMDAT ?OutPointer@LZfs@@QEAAPEAEXZ
_TEXT	SEGMENT
this$dead$ = 8
?OutPointer@LZfs@@QEAAPEAEXZ PROC			; LZfs::OutPointer, COMDAT

; 105  : 		return out_start;

	mov	rax, QWORD PTR ?fs@@3VLZfs@@A+40

; 106  : 	}

	ret	0
?OutPointer@LZfs@@QEAAPEAEXZ ENDP			; LZfs::OutPointer
_TEXT	ENDS
; Function compile flags: /Ogtpy
; File C:\Users\Mahito\Desktop\Night outing\Night-outing\src\xrCore\LzHuf.cpp
;	COMDAT ?GetBit@LZfs@@QEAAHXZ
_TEXT	SEGMENT
this$dead$ = 16
?GetBit@LZfs@@QEAAHXZ PROC				; LZfs::GetBit, COMDAT

; 114  : 	{

$LN15:
	sub	rsp, 8

; 115  : 		unsigned i;
; 116  : 		
; 117  : 		while (getlen <= 8) {

	mov	edx, DWORD PTR ?fs@@3VLZfs@@A+4
	mov	r8d, DWORD PTR ?fs@@3VLZfs@@A
	cmp	edx, 8
	ja	$LN3@GetBit
	mov	rax, QWORD PTR ?fs@@3VLZfs@@A+32
	mov	r9d, edx
	mov	QWORD PTR [rsp+16], rbx
	mov	r10d, edx
	mov	QWORD PTR [rsp], rdi
	mov	ebx, edx
	mov	rdi, QWORD PTR ?fs@@3VLZfs@@A+24
	mov	r11d, edx
	npad	4
$LL2@GetBit:

; 65   : 		if (in_iterator==in_end) return EOF;

	cmp	rax, rdi
	jne	SHORT $LN7@GetBit
	mov	ecx, -1
	jmp	SHORT $LN6@GetBit
$LN7@GetBit:

; 66   : 		return *in_iterator++;

	movzx	ecx, BYTE PTR [rax]
	mov	r10d, r9d
	inc	rax
	mov	r11d, ebx
	mov	QWORD PTR ?fs@@3VLZfs@@A+32, rax
$LN6@GetBit:

; 118  : 			if ((int)(i = _getb()) < 0) i = 0;
; 119  : 			getbuf |= i << (8 - getlen);

	xor	edx, edx
	test	ecx, ecx
	cmovns	edx, ecx
	mov	ecx, 8
	sub	ecx, r10d
	shlx	ecx, edx, ecx
	lea	edx, DWORD PTR [r11+8]
	or	r8d, ecx
	mov	DWORD PTR ?fs@@3VLZfs@@A, r8d

; 120  : 			getlen += 8;

	mov	r9d, edx
	mov	DWORD PTR ?fs@@3VLZfs@@A+4, edx
	mov	r10d, edx
	mov	ebx, edx
	mov	r11d, edx
	cmp	edx, 8
	jbe	SHORT $LL2@GetBit

; 115  : 		unsigned i;
; 116  : 		
; 117  : 		while (getlen <= 8) {

	mov	rdi, QWORD PTR [rsp]
	mov	rbx, QWORD PTR [rsp+16]
$LN3@GetBit:

; 121  : 		}
; 122  : 		i = getbuf;

	lea	ecx, DWORD PTR [r8+r8]

; 123  : 		getbuf <<= 1;
; 124  : 		getlen--;
; 125  : 		return (int)((i & 0x8000) >> 15);

	shr	r8d, 15
	mov	DWORD PTR ?fs@@3VLZfs@@A, ecx
	and	r8d, 1
	lea	ecx, DWORD PTR [rdx-1]
	mov	eax, r8d
	mov	DWORD PTR ?fs@@3VLZfs@@A+4, ecx

; 126  : 	}

	add	rsp, 8
	ret	0
?GetBit@LZfs@@QEAAHXZ ENDP				; LZfs::GetBit
_TEXT	ENDS
; Function compile flags: /Ogtpy
; File C:\Users\Mahito\Desktop\Night outing\Night-outing\src\xrCore\LzHuf.cpp
;	COMDAT ?GetByte@LZfs@@QEAAHXZ
_TEXT	SEGMENT
this$dead$ = 16
?GetByte@LZfs@@QEAAHXZ PROC				; LZfs::GetByte, COMDAT

; 129  : 	{

$LN15:
	sub	rsp, 8

; 130  : 		unsigned i;
; 131  : 		
; 132  : 		while (getlen <= 8) {

	mov	ecx, DWORD PTR ?fs@@3VLZfs@@A+4
	mov	r8d, DWORD PTR ?fs@@3VLZfs@@A
	cmp	ecx, 8
	ja	SHORT $LN3@GetByte
	mov	rax, QWORD PTR ?fs@@3VLZfs@@A+32
	mov	edx, ecx
	mov	QWORD PTR [rsp], rbx
	mov	r9d, ecx
	mov	rbx, QWORD PTR ?fs@@3VLZfs@@A+24
	mov	r11d, ecx
	mov	r10d, ecx
$LL2@GetByte:

; 65   : 		if (in_iterator==in_end) return EOF;

	cmp	rax, rbx
	jne	SHORT $LN7@GetByte
	mov	ecx, -1
	jmp	SHORT $LN6@GetByte
$LN7@GetByte:

; 66   : 		return *in_iterator++;

	movzx	ecx, BYTE PTR [rax]
	mov	r9d, edx
	inc	rax
	mov	r10d, r11d
	mov	QWORD PTR ?fs@@3VLZfs@@A+32, rax
$LN6@GetByte:

; 133  : 			if ((int)(i = _getb()) < 0) i = 0;
; 134  : 			getbuf |= i << (8 - getlen);

	xor	edx, edx
	test	ecx, ecx
	cmovns	edx, ecx
	mov	ecx, 8
	sub	ecx, r9d
	shlx	ecx, edx, ecx
	or	r8d, ecx
	lea	ecx, DWORD PTR [r10+8]
	mov	DWORD PTR ?fs@@3VLZfs@@A, r8d

; 135  : 			getlen += 8;

	mov	edx, ecx
	mov	DWORD PTR ?fs@@3VLZfs@@A+4, ecx
	mov	r9d, ecx
	mov	r11d, ecx
	mov	r10d, ecx
	cmp	ecx, 8
	jbe	SHORT $LL2@GetByte

; 130  : 		unsigned i;
; 131  : 		
; 132  : 		while (getlen <= 8) {

	mov	rbx, QWORD PTR [rsp]
$LN3@GetByte:

; 136  : 		}
; 137  : 		i = getbuf;

	mov	eax, r8d
	shl	eax, 8

; 138  : 		getbuf <<= 8;

	mov	DWORD PTR ?fs@@3VLZfs@@A, eax

; 139  : 		getlen -= 8;

	lea	eax, DWORD PTR [rcx-8]

; 140  : 		return (int)((i & 0xff00) >> 8);

	shr	r8d, 8
	mov	DWORD PTR ?fs@@3VLZfs@@A+4, eax
	movzx	eax, r8b

; 141  : 	}

	add	rsp, 8
	ret	0
?GetByte@LZfs@@QEAAHXZ ENDP				; LZfs::GetByte
_TEXT	ENDS
; Function compile flags: /Ogtpy
; File C:\Users\Mahito\Desktop\Night outing\Night-outing\src\xrCore\LzHuf.cpp
_TEXT	SEGMENT
?StartHuff@@YAXXZ PROC					; StartHuff

; 373  : {

$LN24:
	mov	QWORD PTR [rsp+8], rdi

; 374  :     int i, j;
; 375  : 	
; 376  :     for (i = 0; i < N_CHAR; i++) {

	vmovdqu	ymm3, YMMWORD PTR __ymm@0000000700000006000000050000000400000003000000020000000100000000
	vmovdqu	ymm4, YMMWORD PTR __ymm@0000000100000001000000010000000100000001000000010000000100000001
	vmovdqu	ymm5, YMMWORD PTR __ymm@0000027300000273000002730000027300000273000002730000027300000273
	xor	edx, edx
	lea	r10, OFFSET FLAT:__ImageBase
	xor	ecx, ecx
	lea	edi, QWORD PTR [rdx+16]
	npad	5
$LL4@StartHuff:

; 377  :         freq[i]		= 1;

	vmovdqu	YMMWORD PTR ?freq@@3PAIA[rcx+r10], ymm4

; 378  :         son	[i]		= i + T;

	lea	eax, DWORD PTR [rdi-8]
	vmovdqu	YMMWORD PTR ?freq@@3PAIA[rcx+r10+32], ymm4
	vmovd	xmm0, edx
	vpbroadcastd ymm0, xmm0
	vpaddd	ymm2, ymm0, ymm3

; 379  :         prnt[i + T] = i;

	vmovdqu	YMMWORD PTR ?prnt@@3PAHA[rcx+r10+2508], ymm2
	vpaddd	ymm1, ymm2, ymm5
	vmovdqu	YMMWORD PTR ?son@@3PAHA[rcx+r10], ymm1
	vmovd	xmm0, eax
	vpbroadcastd ymm0, xmm0
	vpaddd	ymm2, ymm0, ymm3
	vmovdqu	YMMWORD PTR ?prnt@@3PAHA[rcx+r10+2540], ymm2
	vpaddd	ymm1, ymm2, ymm5
	vmovdqu	YMMWORD PTR ?son@@3PAHA[rcx+r10+32], ymm1
	vmovd	xmm0, edi
	vpbroadcastd ymm0, xmm0
	vpaddd	ymm2, ymm0, ymm3
	vpaddd	ymm1, ymm2, ymm5
	vmovdqu	YMMWORD PTR ?prnt@@3PAHA[rcx+r10+2572], ymm2
	vmovdqu	YMMWORD PTR ?son@@3PAHA[rcx+r10+64], ymm1
	lea	eax, DWORD PTR [rdi+8]
	add	edx, 32					; 00000020H
	vmovdqu	YMMWORD PTR ?freq@@3PAIA[rcx+r10+64], ymm4
	vmovd	xmm0, eax
	vpbroadcastd ymm0, xmm0
	vpaddd	ymm2, ymm0, ymm3
	vpaddd	ymm1, ymm2, ymm5
	add	edi, 32					; 00000020H
	vmovdqu	YMMWORD PTR ?son@@3PAHA[rcx+r10+96], ymm1
	vmovdqu	YMMWORD PTR ?freq@@3PAIA[rcx+r10+96], ymm4
	vmovdqu	YMMWORD PTR ?prnt@@3PAHA[rcx+r10+2604], ymm2
	lea	rcx, QWORD PTR [rcx+128]
	cmp	edi, 304				; 00000130H
	jl	$LL4@StartHuff

; 374  :     int i, j;
; 375  : 	
; 376  :     for (i = 0; i < N_CHAR; i++) {

	mov	r8d, 314				; 0000013aH
	cmp	edx, r8d
	jge	SHORT $LN3@StartHuff
	movsxd	rax, edx
	lea	rdi, QWORD PTR ?freq@@3PAIA[r10]
	mov	ecx, r8d
	lea	r9, QWORD PTR [rax*4]
	mov	eax, 1
	add	rdi, r9
	sub	ecx, edx
	rep stosd
	npad	9
$LL12@StartHuff:

; 378  :         son	[i]		= i + T;

	lea	eax, DWORD PTR [rdx+627]

; 379  :         prnt[i + T] = i;

	mov	DWORD PTR ?prnt@@3PAHA[r9+r10+2508], edx
	inc	edx
	mov	DWORD PTR ?son@@3PAHA[r9+r10], eax
	lea	r9, QWORD PTR [r9+4]
	cmp	edx, r8d
	jl	SHORT $LL12@StartHuff
$LN3@StartHuff:

; 380  :     }
; 381  :     i = 0; j = N_CHAR;

	xor	edi, edi
	xor	ecx, ecx
	xor	edx, edx
	npad	9
$LL5@StartHuff:

; 382  :     while (j <= R) {
; 383  :         freq[j]		= freq[i] + freq[i + 1];

	mov	eax, DWORD PTR ?freq@@3PAIA[rcx+r10+4]
	add	eax, DWORD PTR ?freq@@3PAIA[rcx+r10]

; 384  :         son[j]		= i;

	mov	DWORD PTR ?son@@3PAHA[rdx+r10+1256], edi

; 385  :         prnt[i]		= prnt[i + 1] = j;
; 386  :         i += 2; j++;

	add	edi, 2
	mov	DWORD PTR ?prnt@@3PAHA[rcx+r10+4], r8d
	mov	DWORD PTR ?prnt@@3PAHA[rcx+r10], r8d
	inc	r8d
	mov	DWORD PTR ?freq@@3PAIA[rdx+r10+1256], eax
	lea	rdx, QWORD PTR [rdx+4]
	lea	rcx, QWORD PTR [rcx+8]
	cmp	r8d, 626				; 00000272H
	jle	SHORT $LL5@StartHuff

; 387  :     }
; 388  :     freq[T] = 0xffff;

	mov	DWORD PTR ?freq@@3PAIA+2508, 65535	; 0000ffffH

; 389  :     prnt[R] = 0;

	mov	DWORD PTR ?prnt@@3PAHA+2504, 0
	vzeroupper

; 390  : }

	mov	rdi, QWORD PTR [rsp+8]
	ret	0
?StartHuff@@YAXXZ ENDP					; StartHuff
_TEXT	ENDS
; Function compile flags: /Ogtpy
; File C:\Users\Mahito\Desktop\Night outing\Night-outing\src\xrCore\LzHuf.cpp
_TEXT	SEGMENT
i$1$ = 96
tv752 = 104
tv756 = 112
?reconst@@YAXXZ PROC					; reconst

; 395  : {

$LN35:
	mov	QWORD PTR [rsp+32], rbx
	push	rbp
	push	rsi
	push	rdi
	push	r12
	push	r13
	push	r14
	push	r15
	sub	rsp, 32					; 00000020H

; 396  :     int			i, j, k;
; 397  :     unsigned	f, l;
; 398  : 	
; 399  :     /* collect leaf nodes in the first half of the table */
; 400  :     /* and replace the freq by (freq + 1) / 2. */
; 401  :     j = 0;

	xor	r14d, r14d
	lea	r12, OFFSET FLAT:?son@@3PAHA		; son
	mov	QWORD PTR tv756[rsp], r14
	lea	r10, OFFSET FLAT:?freq@@3PAIA		; freq
	mov	ecx, r14d
	mov	edx, r14d
	mov	r9d, 627				; 00000273H
	npad	10
$LL4@reconst:

; 403  :         if (son[i] >= T) {

	mov	r8d, DWORD PTR [rcx+r12]
	cmp	r8d, 627				; 00000273H
	jl	SHORT $LN2@reconst

; 404  :             freq[j] = (freq[i] + 1) / 2;

	mov	eax, DWORD PTR [rcx+r10]
	inc	eax

; 405  :             son[j] = son[i];

	mov	DWORD PTR [rdx+r12], r8d
	shr	eax, 1
	mov	DWORD PTR [rdx+r10], eax

; 406  :             j++;

	add	rdx, 4
$LN2@reconst:

; 402  :     for (i = 0; i < T; i++) {

	add	rcx, 4
	sub	r9, 1
	jne	SHORT $LL4@reconst

; 407  :         }
; 408  :     }
; 409  :     /* begin constructing tree by connecting sons */
; 410  :     for (i = 0, j = N_CHAR; j < T; i += 2, j++) {

	mov	edx, 314				; 0000013aH
	mov	DWORD PTR i$1$[rsp], r14d
	mov	QWORD PTR tv752[rsp], rdx
	mov	r13d, edx
	mov	r14, r10
$LL7@reconst:

; 411  :         k = i + 1;
; 412  :         f = freq[j] = freq[i] + freq[k];

	mov	r15d, DWORD PTR [r14+4]

; 413  :         for (k = j - 1; f < freq[k]; k--);

	lea	ecx, DWORD PTR [rdx-1]
	add	r15d, DWORD PTR [r14]
	lea	rbx, QWORD PTR [r13-1]
	mov	DWORD PTR [r10+r13*4], r15d
	cmp	r15d, DWORD PTR [r10+r13*4-4]
	jae	SHORT $LN9@reconst
	npad	7
$LL10@reconst:
	dec	rbx
	dec	ecx
	cmp	r15d, DWORD PTR [r10+rbx*4]
	jb	SHORT $LL10@reconst
$LN9@reconst:

; 414  :         k++;

	inc	ecx

; 415  :         l = (j - k) * sizeof(unsigned);

	mov	ebp, edx

; 416  :         memmove	(&freq[k + 1], &freq[k], l);

	movsxd	rax, ecx
	sub	ebp, ecx
	shl	ebp, 2
	mov	r8d, ebp
	lea	rsi, QWORD PTR [rax*4]
	lea	eax, DWORD PTR [rcx+1]
	movsxd	rcx, eax
	lea	rdx, QWORD PTR [rsi+r10]
	lea	rdi, QWORD PTR [rcx*4]
	lea	rcx, QWORD PTR [rdi+r10]
	call	memmove

; 417  :         freq[k] = f;

	lea	rax, OFFSET FLAT:?freq@@3PAIA		; freq

; 418  :         memmove	(&son[k + 1], &son[k], l);

	mov	r8d, ebp
	lea	rdx, QWORD PTR [rsi+r12]
	mov	DWORD PTR [rax+rbx*4+4], r15d
	lea	rcx, QWORD PTR [rdi+r12]
	call	memmove

; 419  :         son[k] = i;

	mov	r8d, DWORD PTR i$1$[rsp]
	lea	r10, OFFSET FLAT:?freq@@3PAIA		; freq
	mov	rdx, QWORD PTR tv752[rsp]
	add	r14, 8
	inc	edx
	mov	DWORD PTR [r12+rbx*4+4], r8d
	add	r8d, 2
	mov	QWORD PTR tv752[rsp], rdx
	inc	r13
	mov	DWORD PTR i$1$[rsp], r8d
	cmp	r13, 627				; 00000273H
	jl	$LL7@reconst

; 420  :     }
; 421  :     /* connect prnt */
; 422  :     for (i = 0; i < T; i++) {

	mov	r14, QWORD PTR tv756[rsp]
	lea	rdx, OFFSET FLAT:?prnt@@3PAHA		; prnt
	npad	1
$LL13@reconst:

; 423  :         if ((k = son[i]) >= T) {

	movsxd	rax, DWORD PTR [r12]
	cmp	eax, 627				; 00000273H
	jge	SHORT $LN11@reconst

; 424  :             prnt[k] = i;
; 425  :         } else {
; 426  :             prnt[k] = prnt[k + 1] = i;

	mov	DWORD PTR [rdx+rax*4+4], r14d
$LN11@reconst:

; 420  :     }
; 421  :     /* connect prnt */
; 422  :     for (i = 0; i < T; i++) {

	mov	DWORD PTR [rdx+rax*4], r14d
	add	r12, 4
	inc	r14d
	cmp	r14d, 627				; 00000273H
	jl	SHORT $LL13@reconst

; 427  :         }
; 428  :     }
; 429  : }

	mov	rbx, QWORD PTR [rsp+120]
	add	rsp, 32					; 00000020H
	pop	r15
	pop	r14
	pop	r13
	pop	r12
	pop	rdi
	pop	rsi
	pop	rbp
	ret	0
?reconst@@YAXXZ ENDP					; reconst
_TEXT	ENDS
; Function compile flags: /Ogtpy
; File C:\Users\Mahito\Desktop\Night outing\Night-outing\src\xrCore\LzHuf.cpp
_TEXT	SEGMENT
c$ = 48
?update@@YAXH@Z PROC					; update

; 434  : {

$LN19:
	push	rbx
	sub	rsp, 32					; 00000020H

; 435  :     int i, j, k, l;
; 436  : 	
; 437  :     if (freq[R] == MAX_FREQ) {

	cmp	DWORD PTR ?freq@@3PAIA+2504, 16384	; 00004000H
	movsxd	rbx, ecx
	jne	SHORT $LN7@update

; 438  :         reconst();

	call	?reconst@@YAXXZ				; reconst
$LN7@update:

; 439  :     }
; 440  :     c = prnt[c + T];

	mov	rax, rbx
	lea	rbx, OFFSET FLAT:__ImageBase
	mov	r8d, DWORD PTR ?prnt@@3PAHA[rbx+rax*4+2508]
	npad	4
$LL4@update:

; 441  :     do {
; 442  :         k = ++freq[c];

	movsxd	rax, r8d

; 443  : 		
; 444  :         /* if the order is disturbed, exchange nodes */
; 445  :         if ((unsigned)k > freq[l = c + 1]) {

	lea	rdx, QWORD PTR ?freq@@3PAIA[rbx]
	lea	r11, QWORD PTR [rax*4]
	mov	r9d, DWORD PTR ?freq@@3PAIA[r11+rbx]
	lea	eax, DWORD PTR [r8+1]
	inc	r9d
	movsxd	rcx, eax
	lea	rdx, QWORD PTR [rdx+rcx*4]
	mov	DWORD PTR ?freq@@3PAIA[r11+rbx], r9d
	cmp	r9d, DWORD PTR [rdx]
	jbe	$LN2@update
	npad	7
$LL5@update:

; 446  :             while ((unsigned)k > freq[++l]);

	mov	ecx, eax
	movsxd	r10, eax
	inc	eax
	lea	rdx, QWORD PTR [rdx+4]
	cmp	r9d, DWORD PTR [rdx]
	ja	SHORT $LL5@update

; 447  :             l--;
; 448  :             freq[c] = freq[l];
; 449  :             freq[l] = k;
; 450  : 			
; 451  :             i = son[c];

	movsxd	rdx, DWORD PTR ?son@@3PAHA[r11+rbx]
	lea	r10, QWORD PTR [r10*4]
	mov	eax, DWORD PTR ?freq@@3PAIA[r10+rbx]
	mov	DWORD PTR ?freq@@3PAIA[r11+rbx], eax
	mov	DWORD PTR ?freq@@3PAIA[r10+rbx], r9d

; 452  :             prnt[i] = l;

	mov	DWORD PTR ?prnt@@3PAHA[rbx+rdx*4], ecx

; 453  :             if (i < T) prnt[i + 1] = l;

	cmp	edx, 627				; 00000273H
	jge	SHORT $LN9@update
	mov	DWORD PTR ?prnt@@3PAHA[rbx+rdx*4+4], ecx
$LN9@update:

; 454  : 			
; 455  :             j = son[l];

	movsxd	rax, DWORD PTR ?son@@3PAHA[r10+rbx]

; 456  :             son[l] = i;

	mov	DWORD PTR ?son@@3PAHA[r10+rbx], edx

; 457  : 			
; 458  :             prnt[j] = c;

	mov	DWORD PTR ?prnt@@3PAHA[rbx+rax*4], r8d

; 459  :             if (j < T) prnt[j + 1] = c;

	cmp	eax, 627				; 00000273H
	jge	SHORT $LN10@update
	mov	DWORD PTR ?prnt@@3PAHA[rbx+rax*4+4], r8d
$LN10@update:

; 460  :             son[c] = j;

	mov	DWORD PTR ?son@@3PAHA[r11+rbx], eax

; 461  : 			
; 462  :             c = l;

	mov	r8d, ecx
$LN2@update:

; 463  :         }
; 464  :     } while ((c = prnt[c]) != 0); /* repeat up to root */

	movsxd	rax, r8d
	mov	r8d, DWORD PTR ?prnt@@3PAHA[rbx+rax*4]
	test	r8d, r8d
	jne	$LL4@update

; 465  : }

	add	rsp, 32					; 00000020H
	pop	rbx
	ret	0
?update@@YAXH@Z ENDP					; update
_TEXT	ENDS
; Function compile flags: /Ogtpy
; File C:\Users\Mahito\Desktop\Night outing\Night-outing\src\xrCore\LzHuf.cpp
_TEXT	SEGMENT
?DecodeChar@@YAHXZ PROC					; DecodeChar

; 505  : {

$LN22:
	push	rbx
	sub	rsp, 32					; 00000020H

; 506  :     unsigned c;
; 507  : 	
; 508  :     c = son[R];

	mov	ebx, DWORD PTR ?son@@3PAHA+2504

; 509  : 	
; 510  :     /* travel from root to leaf, */
; 511  :     /* choosing the smaller child node (son[]) if the read bit is 0, */
; 512  :     /* the bigger (son[]+1} if 1 */
; 513  :     while (c < T) {

	cmp	ebx, 627				; 00000273H
	jae	$LN3@DecodeChar
	mov	r10, QWORD PTR ?fs@@3VLZfs@@A+24
	lea	r11, OFFSET FLAT:?son@@3PAHA		; son
	mov	rax, QWORD PTR ?fs@@3VLZfs@@A+32
	mov	r8d, DWORD PTR ?fs@@3VLZfs@@A+4
	mov	r9d, DWORD PTR ?fs@@3VLZfs@@A
	npad	5
$LL2@DecodeChar:

; 117  : 		while (getlen <= 8) {

	cmp	r8d, 8
	ja	SHORT $LN7@DecodeChar
$LL6@DecodeChar:

; 65   : 		if (in_iterator==in_end) return EOF;

	cmp	rax, r10
	jne	SHORT $LN11@DecodeChar
	mov	ecx, -1
	jmp	SHORT $LN10@DecodeChar
$LN11@DecodeChar:

; 66   : 		return *in_iterator++;

	movzx	ecx, BYTE PTR [rax]
	inc	rax
	mov	QWORD PTR ?fs@@3VLZfs@@A+32, rax
$LN10@DecodeChar:

; 119  : 			getbuf |= i << (8 - getlen);

	xor	edx, edx
	test	ecx, ecx
	cmovns	edx, ecx
	mov	ecx, 8
	sub	ecx, r8d

; 120  : 			getlen += 8;

	add	r8d, 8
	shlx	ecx, edx, ecx
	or	r9d, ecx
	mov	DWORD PTR ?fs@@3VLZfs@@A+4, r8d
	mov	DWORD PTR ?fs@@3VLZfs@@A, r9d
	cmp	r8d, 8
	jbe	SHORT $LL6@DecodeChar
$LN7@DecodeChar:

; 121  : 		}
; 122  : 		i = getbuf;

	mov	ecx, r9d

; 123  : 		getbuf <<= 1;
; 124  : 		getlen--;

	dec	r8d

; 125  : 		return (int)((i & 0x8000) >> 15);

	shr	ecx, 15
	add	r9d, r9d
	and	ecx, 1
	mov	DWORD PTR ?fs@@3VLZfs@@A, r9d

; 514  :         c += fs.GetBit();

	add	ecx, ebx

; 124  : 		getlen--;

	mov	DWORD PTR ?fs@@3VLZfs@@A+4, r8d

; 515  :         c = son[c];

	mov	ebx, DWORD PTR [r11+rcx*4]
	cmp	ebx, 627				; 00000273H
	jb	SHORT $LL2@DecodeChar
$LN3@DecodeChar:

; 516  :     }
; 517  :     c -= T;

	add	ebx, -627				; fffffd8dH

; 518  :     update(c);

	mov	ecx, ebx
	call	?update@@YAXH@Z				; update

; 519  :     return (int)c;

	mov	eax, ebx

; 520  : }

	add	rsp, 32					; 00000020H
	pop	rbx
	ret	0
?DecodeChar@@YAHXZ ENDP					; DecodeChar
_TEXT	ENDS
; Function compile flags: /Ogtpy
; File C:\Users\Mahito\Desktop\Night outing\Night-outing\src\xrCore\LzHuf.cpp
_TEXT	SEGMENT
?DecodePosition@@YAHXZ PROC				; DecodePosition

; 523  : {

$LN36:
	mov	QWORD PTR [rsp+8], rbx
	mov	QWORD PTR [rsp+16], rdi

; 132  : 		while (getlen <= 8) {

	mov	r8d, DWORD PTR ?fs@@3VLZfs@@A+4
	mov	r10, QWORD PTR ?fs@@3VLZfs@@A+24
	mov	rax, QWORD PTR ?fs@@3VLZfs@@A+32
	mov	r11d, DWORD PTR ?fs@@3VLZfs@@A
	cmp	r8d, 8
	ja	SHORT $LN15@DecodePosi
	npad	4
$LL14@DecodePosi:

; 65   : 		if (in_iterator==in_end) return EOF;

	cmp	rax, r10
	jne	SHORT $LN19@DecodePosi
	mov	ecx, -1
	jmp	SHORT $LN18@DecodePosi
$LN19@DecodePosi:

; 66   : 		return *in_iterator++;

	movzx	ecx, BYTE PTR [rax]
	inc	rax
	mov	QWORD PTR ?fs@@3VLZfs@@A+32, rax
$LN18@DecodePosi:

; 134  : 			getbuf |= i << (8 - getlen);

	xor	edx, edx
	test	ecx, ecx
	cmovns	edx, ecx
	mov	ecx, 8
	sub	ecx, r8d

; 135  : 			getlen += 8;

	add	r8d, 8
	shlx	ecx, edx, ecx
	or	r11d, ecx
	mov	DWORD PTR ?fs@@3VLZfs@@A+4, r8d
	mov	DWORD PTR ?fs@@3VLZfs@@A, r11d
	cmp	r8d, 8
	jbe	SHORT $LL14@DecodePosi
$LN15@DecodePosi:

; 136  : 		}
; 137  : 		i = getbuf;

	mov	r9d, r11d

; 524  :     unsigned i, j, c;
; 525  : 	
; 526  :     /* recover upper 6 bits from table */
; 527  :     i = fs.GetByte();
; 528  :     c = (unsigned)d_code[i] << 6;

	lea	rdx, OFFSET FLAT:__ImageBase

; 140  : 		return (int)((i & 0xff00) >> 8);

	shr	r11d, 8
	add	r8d, -8					; fffffff8H
	movzx	r11d, r11b
	shl	r9d, 8
	mov	DWORD PTR ?fs@@3VLZfs@@A, r9d
	mov	DWORD PTR ?fs@@3VLZfs@@A+4, r8d

; 524  :     unsigned i, j, c;
; 525  : 	
; 526  :     /* recover upper 6 bits from table */
; 527  :     i = fs.GetByte();
; 528  :     c = (unsigned)d_code[i] << 6;

	movzx	edi, BYTE PTR ?d_code@@3PAEA[r11+rdx]

; 529  :     j = d_len[i];

	movzx	ebx, BYTE PTR ?d_len@@3PAEA[r11+rdx]
	shl	edi, 6

; 530  : 	
; 531  :     /* read lower 6 bits verbatim */
; 532  :     j -= 2;

	sub	ebx, 2

; 533  :     while (j--) {

	je	SHORT $LN26@DecodePosi
	npad	6
$LL2@DecodePosi:
	dec	ebx

; 117  : 		while (getlen <= 8) {

	cmp	r8d, 8
	ja	SHORT $LN7@DecodePosi
$LL6@DecodePosi:

; 65   : 		if (in_iterator==in_end) return EOF;

	cmp	rax, r10
	jne	SHORT $LN11@DecodePosi
	mov	ecx, -1
	jmp	SHORT $LN10@DecodePosi
$LN11@DecodePosi:

; 66   : 		return *in_iterator++;

	movzx	ecx, BYTE PTR [rax]
	inc	rax
	mov	QWORD PTR ?fs@@3VLZfs@@A+32, rax
$LN10@DecodePosi:

; 119  : 			getbuf |= i << (8 - getlen);

	xor	edx, edx
	test	ecx, ecx
	cmovns	edx, ecx
	mov	ecx, 8
	sub	ecx, r8d

; 120  : 			getlen += 8;

	add	r8d, 8
	shlx	ecx, edx, ecx
	or	r9d, ecx
	mov	DWORD PTR ?fs@@3VLZfs@@A+4, r8d
	mov	DWORD PTR ?fs@@3VLZfs@@A, r9d
	cmp	r8d, 8
	jbe	SHORT $LL6@DecodePosi
$LN7@DecodePosi:

; 121  : 		}
; 122  : 		i = getbuf;

	mov	ecx, r9d

; 123  : 		getbuf <<= 1;
; 124  : 		getlen--;

	dec	r8d

; 534  :         i = (i << 1) + fs.GetBit();

	shr	ecx, 15

; 122  : 		i = getbuf;

	add	r9d, r9d

; 125  : 		return (int)((i & 0x8000) >> 15);

	and	ecx, 1
	mov	DWORD PTR ?fs@@3VLZfs@@A, r9d
	mov	DWORD PTR ?fs@@3VLZfs@@A+4, r8d

; 534  :         i = (i << 1) + fs.GetBit();

	lea	r11d, DWORD PTR [rcx+r11*2]
	test	ebx, ebx
	jne	SHORT $LL2@DecodePosi
$LN26@DecodePosi:

; 535  :     }
; 536  :     return (int)(c | (i & 0x3f));
; 537  : }

	mov	rbx, QWORD PTR [rsp+8]
	and	r11d, 63				; 0000003fH
	or	r11d, edi
	mov	rdi, QWORD PTR [rsp+16]
	mov	eax, r11d
	ret	0
?DecodePosition@@YAHXZ ENDP				; DecodePosition
_TEXT	ENDS
; Function compile flags: /Ogtpy
; File C:\Users\Mahito\Desktop\Night outing\Night-outing\src\xrCore\LzHuf.cpp
; File C:\Users\Mahito\Desktop\Night outing\Night-outing\src\xrCore\xrMemory_subst_msvc.cpp
; File C:\Users\Mahito\Desktop\Night outing\Night-outing\src\xrCore\LzHuf.cpp
; File C:\Users\Mahito\Desktop\Night outing\Night-outing\src\xrCore\xrMemory_subst_msvc.cpp
; File C:\Users\Mahito\Desktop\Night outing\Night-outing\src\xrCore\LzHuf.cpp
; File C:\Users\Mahito\Desktop\Night outing\Night-outing\src\xrCore\xrMemory_subst_msvc.cpp
; File C:\Users\Mahito\Desktop\Night outing\Night-outing\src\xrCore\LzHuf.cpp
; File C:\Users\Mahito\Desktop\Night outing\Night-outing\src\xrCore\xrMemory_subst_msvc.cpp
; File C:\Users\Mahito\Desktop\Night outing\Night-outing\src\xrCore\LzHuf.cpp
; File C:\Users\Mahito\Desktop\Night outing\Night-outing\src\xrCore\xrMemory_subst_msvc.cpp
; File C:\Users\Mahito\Desktop\Night outing\Night-outing\src\xrCore\LzHuf.cpp
; File C:\Users\Mahito\Desktop\Night outing\Night-outing\src\xrCore\xrMemory_subst_msvc.cpp
; File C:\Users\Mahito\Desktop\Night outing\Night-outing\src\xrCore\LzHuf.cpp
_TEXT	SEGMENT
count$1$ = 80
tv2026 = 88
?Decode@@YAXXZ PROC					; Decode

; 600  : {

$LN417:
	sub	rsp, 72					; 00000048H

; 65   : 		if (in_iterator==in_end) return EOF;

	mov	rax, QWORD PTR ?fs@@3VLZfs@@A+32
	mov	r8, QWORD PTR ?fs@@3VLZfs@@A+24
	cmp	rax, r8
	jne	SHORT $LN368@Decode
	mov	edx, -1
	jmp	SHORT $LN367@Decode
$LN368@Decode:

; 66   : 		return *in_iterator++;

	movzx	edx, BYTE PTR [rax]
	inc	rax
	mov	QWORD PTR ?fs@@3VLZfs@@A+32, rax
$LN367@Decode:

; 65   : 		if (in_iterator==in_end) return EOF;

	cmp	rax, r8
	jne	SHORT $LN371@Decode
	mov	ecx, -1
	jmp	SHORT $LN370@Decode
$LN371@Decode:

; 66   : 		return *in_iterator++;

	movzx	ecx, BYTE PTR [rax]
	inc	rax
	mov	QWORD PTR ?fs@@3VLZfs@@A+32, rax
$LN370@Decode:

; 601  :     int  i, j, k, r, c;
; 602  :     unsigned int  count;
; 603  : 	
; 604  :     textsize =  (fs._getb());
; 605  :     textsize |= (fs._getb() << 8);

	shl	ecx, 8
	or	ecx, edx

; 65   : 		if (in_iterator==in_end) return EOF;

	cmp	rax, r8
	jne	SHORT $LN374@Decode
	mov	edx, -1
	jmp	SHORT $LN373@Decode
$LN374@Decode:

; 66   : 		return *in_iterator++;

	movzx	edx, BYTE PTR [rax]
	inc	rax
	mov	QWORD PTR ?fs@@3VLZfs@@A+32, rax
$LN373@Decode:

; 606  :     textsize |= (fs._getb() << 16);

	shl	edx, 16
	or	edx, ecx

; 65   : 		if (in_iterator==in_end) return EOF;

	cmp	rax, r8
	jne	SHORT $LN377@Decode
	mov	ecx, -1
	jmp	SHORT $LN376@Decode
$LN377@Decode:

; 66   : 		return *in_iterator++;

	movzx	ecx, BYTE PTR [rax]
	inc	rax
	mov	QWORD PTR ?fs@@3VLZfs@@A+32, rax
$LN376@Decode:

; 607  :     textsize |= (fs._getb() << 24);

	shl	ecx, 24
	or	ecx, edx
	mov	DWORD PTR ?textsize@@3IA, ecx		; textsize

; 608  :     if (textsize == 0) return;

	je	$LN6@Decode

; 609  : 	
; 610  : 	fs.Init_Output(textsize);

	mov	QWORD PTR [rsp+104], rsi
	mov	QWORD PTR [rsp+56], r12
	mov	QWORD PTR [rsp+40], r14
	call	?Init_Output@LZfs@@QEAAXH@Z		; LZfs::Init_Output

; 611  : 	
; 612  :     StartHuff();

	call	?StartHuff@@YAXXZ			; StartHuff
	mov	esi, 4036				; 00000fc4H
	lea	r14, OFFSET FLAT:?text_buf@@3PAEA	; text_buf
	mov	r8d, esi
	mov	QWORD PTR tv2026[rsp], rsi
	mov	rcx, r14
	mov	dl, 32					; 00000020H
	call	memset

; 613  :     for (i = 0; i < N - F; i++)
; 614  :         text_buf[i] = 0x20;
; 615  :     r = N - F;
; 616  :     for (count = 0; count < textsize; ) {

	xor	r12d, r12d
	cmp	DWORD PTR ?textsize@@3IA, r12d		; textsize
	jbe	$LN415@Decode
	mov	QWORD PTR [rsp+96], rbx
	lea	rbx, OFFSET FLAT:__ImageBase
	mov	QWORD PTR [rsp+64], rdi
	mov	QWORD PTR [rsp+48], r13
	mov	QWORD PTR [rsp+32], r15
	npad	13
$LL5@Decode:

; 508  :     c = son[R];

	mov	r15d, DWORD PTR ?son@@3PAHA+2504

; 509  : 	
; 510  :     /* travel from root to leaf, */
; 511  :     /* choosing the smaller child node (son[]) if the read bit is 0, */
; 512  :     /* the bigger (son[]+1} if 1 */
; 513  :     while (c < T) {

	cmp	r15d, 627				; 00000273H
	jae	$LN177@Decode
	mov	r10, QWORD PTR ?fs@@3VLZfs@@A+24
	mov	rdx, QWORD PTR ?fs@@3VLZfs@@A+32
	mov	r8d, DWORD PTR ?fs@@3VLZfs@@A+4
	mov	r9d, DWORD PTR ?fs@@3VLZfs@@A
$LL176@Decode:

; 117  : 		while (getlen <= 8) {

	cmp	r8d, 8
	ja	SHORT $LN181@Decode
$LL180@Decode:

; 65   : 		if (in_iterator==in_end) return EOF;

	cmp	rdx, r10
	jne	SHORT $LN185@Decode
	mov	eax, -1
	jmp	SHORT $LN184@Decode
$LN185@Decode:

; 66   : 		return *in_iterator++;

	movzx	eax, BYTE PTR [rdx]
	inc	rdx
	mov	QWORD PTR ?fs@@3VLZfs@@A+32, rdx
$LN184@Decode:

; 119  : 			getbuf |= i << (8 - getlen);

	xor	ecx, ecx
	test	eax, eax
	cmovns	ecx, eax
	mov	eax, 8
	sub	eax, r8d

; 120  : 			getlen += 8;

	add	r8d, 8
	shlx	eax, ecx, eax
	or	r9d, eax
	mov	DWORD PTR ?fs@@3VLZfs@@A+4, r8d
	mov	DWORD PTR ?fs@@3VLZfs@@A, r9d
	cmp	r8d, 8
	jbe	SHORT $LL180@Decode
$LN181@Decode:

; 121  : 		}
; 122  : 		i = getbuf;

	mov	eax, r9d

; 123  : 		getbuf <<= 1;
; 124  : 		getlen--;

	dec	r8d

; 125  : 		return (int)((i & 0x8000) >> 15);

	shr	eax, 15
	add	r9d, r9d
	and	eax, 1
	mov	DWORD PTR ?fs@@3VLZfs@@A, r9d

; 514  :         c += fs.GetBit();

	add	eax, r15d

; 124  : 		getlen--;

	mov	DWORD PTR ?fs@@3VLZfs@@A+4, r8d

; 515  :         c = son[c];

	mov	r15d, DWORD PTR ?son@@3PAHA[rbx+rax*4]
	cmp	r15d, 627				; 00000273H
	jb	SHORT $LL176@Decode
$LN177@Decode:

; 516  :     }
; 517  :     c -= T;

	add	r15d, -627				; fffffd8dH

; 518  :     update(c);

	mov	ecx, r15d
	call	?update@@YAXH@Z				; update

; 617  :         c = DecodeChar();
; 618  :         if (c < 256) {

	cmp	r15d, 256				; 00000100H
	jge	$LN383@Decode

; 69   : 		if (out_iterator==out_end) {

	mov	rcx, QWORD PTR ?fs@@3VLZfs@@A+56
	cmp	rcx, QWORD PTR ?fs@@3VLZfs@@A+48
	jne	$LN188@Decode
; File C:\Users\Mahito\Desktop\Night outing\Night-outing\src\xrCore\xrMemory_subst_msvc.cpp

; 128  : 	stat_calls++;

	mov	eax, DWORD PTR ?Memory@@3VxrMemory@@A

; 129  : 
; 130  : 	if (0 == P)

	mov	edx, 16
; File C:\Users\Mahito\Desktop\Night outing\Night-outing\src\xrCore\LzHuf.cpp

; 70   : 			u32	out_size= u32(out_end-out_start);

	mov	r14d, DWORD PTR ?fs@@3VLZfs@@A+48
	sub	r14d, DWORD PTR ?fs@@3VLZfs@@A+40

; 71   : 			out_start	= (u8*) xr_realloc(out_start,out_size+1024);

	mov	rdi, QWORD PTR ?fs@@3VLZfs@@A+40
; File C:\Users\Mahito\Desktop\Night outing\Night-outing\src\xrCore\xrMemory_subst_msvc.cpp

; 128  : 	stat_calls++;

	inc	eax
	mov	DWORD PTR ?Memory@@3VxrMemory@@A, eax
; File C:\Users\Mahito\Desktop\Night outing\Night-outing\src\xrCore\LzHuf.cpp

; 71   : 			out_start	= (u8*) xr_realloc(out_start,out_size+1024);

	lea	ebx, DWORD PTR [r14+1024]
; File C:\Users\Mahito\Desktop\Night outing\Night-outing\src\xrCore\xrMemory_subst_msvc.cpp

; 128  : 	stat_calls++;

	test	rdi, rdi

; 129  : 
; 130  : 	if (0 == P)

	jne	SHORT $LN196@Decode

; 39   : 	stat_calls++;

	inc	eax

; 40   : 
; 41   : #ifdef PURE_ALLOC
; 42   : 	if (g_use_pure_alloc)
; 43   : 	{
; 44   : 		//void* result = malloc(size);
; 45   : 		void* result = _aligned_malloc(size, PURE_MEMORY_ALIGNMENT);

	mov	ecx, ebx
	mov	DWORD PTR ?Memory@@3VxrMemory@@A, eax
	call	QWORD PTR __imp__aligned_malloc
	mov	rdi, rax

; 46   : #ifdef PURE_MEMORY_FILL_ZERO
; 47   : 		if (result)

	test	rax, rax
	je	SHORT $LN192@Decode

; 48   : 			memset(result, 0, size);

	mov	r8d, ebx
	xor	edx, edx
	mov	rcx, rax
	call	memset

; 132  : 		return mem_alloc(size

	jmp	SHORT $LN192@Decode
$LN196@Decode:

; 133  : # ifdef DEBUG_MEMORY_NAME
; 134  : 			, _name
; 135  : # endif // DEBUG_MEMORY_NAME
; 136  : 		);
; 137  : 	}
; 138  : 
; 139  : #ifdef PURE_ALLOC
; 140  : 	if (g_use_pure_alloc)
; 141  : 	{
; 142  : #ifdef PURE_MEMORY_FILL_ZERO
; 143  : 		size_t old_size = P ? _aligned_msize(P, PURE_MEMORY_ALIGNMENT, 0) : 0;

	xor	r8d, r8d
	mov	rcx, rdi
	call	QWORD PTR __imp__aligned_msize

; 144  : #endif // PURE_MEMORY_FILL_ZERO
; 145  : 
; 146  : 		//void* result = realloc(P, size);
; 147  : 		void* result = _aligned_realloc(P, size, PURE_MEMORY_ALIGNMENT);

	mov	r8d, 16
	mov	rdx, rbx
	mov	rcx, rdi
	mov	rsi, rax
	call	QWORD PTR __imp__aligned_realloc
	mov	rdi, rax

; 148  : 
; 149  : #ifdef PURE_MEMORY_FILL_ZERO
; 150  : 		if (result && size > old_size)

	test	rax, rax
	je	SHORT $LN198@Decode
	cmp	rbx, rsi
	jbe	SHORT $LN198@Decode

; 151  : 			memset((u8*)result + old_size, 0, size - old_size);

	sub	rbx, rsi
	lea	rcx, QWORD PTR [rax+rsi]
	mov	r8, rbx
	xor	edx, edx
	call	memset
$LN198@Decode:
	mov	rsi, QWORD PTR tv2026[rsp]
$LN192@Decode:
; File C:\Users\Mahito\Desktop\Night outing\Night-outing\src\xrCore\LzHuf.cpp

; 72   : 			out_iterator= out_start+out_size;

	mov	ecx, r14d
	lea	r14, OFFSET FLAT:?text_buf@@3PAEA	; text_buf
	add	rcx, rdi
	mov	QWORD PTR ?fs@@3VLZfs@@A+40, rdi
	mov	QWORD PTR ?fs@@3VLZfs@@A+56, rcx
	lea	rax, QWORD PTR [rcx+1024]
	mov	QWORD PTR ?fs@@3VLZfs@@A+48, rax
$LN188@Decode:

; 619  :             fs._putb(c);
; 620  :             text_buf[r++] = (unsigned char)c;

	movsxd	rax, esi
	inc	esi

; 75   : 		*out_iterator++ = u8(c&0xFF);

	mov	BYTE PTR [rcx], r15b

; 621  :             r &= (N - 1);

	and	esi, 4095				; 00000fffH

; 75   : 		*out_iterator++ = u8(c&0xFF);

	inc	QWORD PTR ?fs@@3VLZfs@@A+56

; 621  :             r &= (N - 1);

	mov	QWORD PTR tv2026[rsp], rsi

; 622  :             count++;

	inc	r12d
	mov	BYTE PTR [rax+r14], r15b

; 623  :         } else {

	jmp	$LN9@Decode
$LN383@Decode:

; 132  : 		while (getlen <= 8) {

	mov	r8d, DWORD PTR ?fs@@3VLZfs@@A+4
	mov	r11, QWORD PTR ?fs@@3VLZfs@@A+24
	mov	rax, QWORD PTR ?fs@@3VLZfs@@A+32
	mov	r10d, DWORD PTR ?fs@@3VLZfs@@A
	cmp	r8d, 8
	ja	SHORT $LN361@Decode
	npad	1
$LL360@Decode:

; 65   : 		if (in_iterator==in_end) return EOF;

	cmp	rax, r11
	jne	SHORT $LN365@Decode
	mov	ecx, -1
	jmp	SHORT $LN364@Decode
$LN365@Decode:

; 66   : 		return *in_iterator++;

	movzx	ecx, BYTE PTR [rax]
	inc	rax
	mov	QWORD PTR ?fs@@3VLZfs@@A+32, rax
$LN364@Decode:

; 134  : 			getbuf |= i << (8 - getlen);

	xor	edx, edx
	test	ecx, ecx
	cmovns	edx, ecx
	mov	ecx, 8
	sub	ecx, r8d

; 135  : 			getlen += 8;

	add	r8d, 8
	shlx	ecx, edx, ecx
	or	r10d, ecx
	mov	DWORD PTR ?fs@@3VLZfs@@A+4, r8d
	mov	DWORD PTR ?fs@@3VLZfs@@A, r10d
	cmp	r8d, 8
	jbe	SHORT $LL360@Decode
$LN361@Decode:

; 136  : 		}
; 137  : 		i = getbuf;

	mov	r9d, r10d

; 138  : 		getbuf <<= 8;
; 139  : 		getlen -= 8;

	add	r8d, -8					; fffffff8H

; 140  : 		return (int)((i & 0xff00) >> 8);

	shr	r10d, 8
	movzx	r10d, r10b
	shl	r9d, 8
	mov	DWORD PTR ?fs@@3VLZfs@@A, r9d
	mov	DWORD PTR ?fs@@3VLZfs@@A+4, r8d

; 528  :     c = (unsigned)d_code[i] << 6;

	movzx	edi, BYTE PTR ?d_code@@3PAEA[r10+rbx]

; 529  :     j = d_len[i];

	movzx	ebx, BYTE PTR ?d_len@@3PAEA[r10+rbx]
	shl	edi, 6

; 530  : 	
; 531  :     /* read lower 6 bits verbatim */
; 532  :     j -= 2;

	sub	ebx, 2

; 533  :     while (j--) {

	je	SHORT $LN392@Decode
$LL348@Decode:
	dec	ebx

; 117  : 		while (getlen <= 8) {

	cmp	r8d, 8
	ja	SHORT $LN353@Decode
	npad	5
$LL352@Decode:

; 65   : 		if (in_iterator==in_end) return EOF;

	cmp	rax, r11
	jne	SHORT $LN357@Decode
	mov	ecx, -1
	jmp	SHORT $LN356@Decode
$LN357@Decode:

; 66   : 		return *in_iterator++;

	movzx	ecx, BYTE PTR [rax]
	inc	rax
	mov	QWORD PTR ?fs@@3VLZfs@@A+32, rax
$LN356@Decode:

; 119  : 			getbuf |= i << (8 - getlen);

	xor	edx, edx
	test	ecx, ecx
	cmovns	edx, ecx
	mov	ecx, 8
	sub	ecx, r8d

; 120  : 			getlen += 8;

	add	r8d, 8
	shlx	ecx, edx, ecx
	or	r9d, ecx
	mov	DWORD PTR ?fs@@3VLZfs@@A+4, r8d
	mov	DWORD PTR ?fs@@3VLZfs@@A, r9d
	cmp	r8d, 8
	jbe	SHORT $LL352@Decode
$LN353@Decode:

; 121  : 		}
; 122  : 		i = getbuf;

	mov	ecx, r9d

; 123  : 		getbuf <<= 1;
; 124  : 		getlen--;

	dec	r8d

; 534  :         i = (i << 1) + fs.GetBit();

	shr	ecx, 15

; 122  : 		i = getbuf;

	add	r9d, r9d

; 125  : 		return (int)((i & 0x8000) >> 15);

	and	ecx, 1
	mov	DWORD PTR ?fs@@3VLZfs@@A, r9d
	mov	DWORD PTR ?fs@@3VLZfs@@A+4, r8d

; 534  :         i = (i << 1) + fs.GetBit();

	lea	r10d, DWORD PTR [rcx+r10*2]
	test	ebx, ebx
	jne	SHORT $LL348@Decode
$LN392@Decode:

; 535  :     }
; 536  :     return (int)(c | (i & 0x3f));

	lea	ecx, DWORD PTR [r15-253]
	and	r10d, 63				; 0000003fH
	or	r10d, edi
	mov	r13d, ecx
	mov	eax, esi
	mov	edx, ecx
	sub	eax, r10d
	dec	eax
	and	eax, 4095				; 00000fffH
	add	r12d, ecx
	mov	r15d, eax
	mov	rcx, QWORD PTR ?fs@@3VLZfs@@A+56
	mov	DWORD PTR count$1$[rsp], r12d
	npad	2
$LL10@Decode:

; 627  :                 c = text_buf[(i + k) & (N - 1)];

	mov	rax, r15
	and	eax, 4095				; 00000fffH

; 69   : 		if (out_iterator==out_end) {

	cmp	rcx, QWORD PTR ?fs@@3VLZfs@@A+48

; 627  :                 c = text_buf[(i + k) & (N - 1)];

	movzx	r12d, BYTE PTR [rax+r14]

; 69   : 		if (out_iterator==out_end) {

	jne	$LN16@Decode
; File C:\Users\Mahito\Desktop\Night outing\Night-outing\src\xrCore\xrMemory_subst_msvc.cpp

; 128  : 	stat_calls++;

	mov	eax, DWORD PTR ?Memory@@3VxrMemory@@A

; 129  : 
; 130  : 	if (0 == P)

	mov	edx, 16
; File C:\Users\Mahito\Desktop\Night outing\Night-outing\src\xrCore\LzHuf.cpp

; 70   : 			u32	out_size= u32(out_end-out_start);

	mov	r14d, DWORD PTR ?fs@@3VLZfs@@A+48
	sub	r14d, DWORD PTR ?fs@@3VLZfs@@A+40

; 71   : 			out_start	= (u8*) xr_realloc(out_start,out_size+1024);

	mov	rdi, QWORD PTR ?fs@@3VLZfs@@A+40
; File C:\Users\Mahito\Desktop\Night outing\Night-outing\src\xrCore\xrMemory_subst_msvc.cpp

; 128  : 	stat_calls++;

	inc	eax
	mov	DWORD PTR ?Memory@@3VxrMemory@@A, eax
; File C:\Users\Mahito\Desktop\Night outing\Night-outing\src\xrCore\LzHuf.cpp

; 71   : 			out_start	= (u8*) xr_realloc(out_start,out_size+1024);

	lea	ebx, DWORD PTR [r14+1024]
; File C:\Users\Mahito\Desktop\Night outing\Night-outing\src\xrCore\xrMemory_subst_msvc.cpp

; 128  : 	stat_calls++;

	test	rdi, rdi

; 129  : 
; 130  : 	if (0 == P)

	jne	SHORT $LN24@Decode

; 39   : 	stat_calls++;

	inc	eax

; 40   : 
; 41   : #ifdef PURE_ALLOC
; 42   : 	if (g_use_pure_alloc)
; 43   : 	{
; 44   : 		//void* result = malloc(size);
; 45   : 		void* result = _aligned_malloc(size, PURE_MEMORY_ALIGNMENT);

	mov	ecx, ebx
	mov	DWORD PTR ?Memory@@3VxrMemory@@A, eax
	call	QWORD PTR __imp__aligned_malloc
	mov	rdi, rax

; 46   : #ifdef PURE_MEMORY_FILL_ZERO
; 47   : 		if (result)

	test	rax, rax
	je	SHORT $LN20@Decode

; 48   : 			memset(result, 0, size);

	mov	r8d, ebx
	xor	edx, edx
	mov	rcx, rax
	call	memset

; 132  : 		return mem_alloc(size

	jmp	SHORT $LN20@Decode
$LN24@Decode:

; 133  : # ifdef DEBUG_MEMORY_NAME
; 134  : 			, _name
; 135  : # endif // DEBUG_MEMORY_NAME
; 136  : 		);
; 137  : 	}
; 138  : 
; 139  : #ifdef PURE_ALLOC
; 140  : 	if (g_use_pure_alloc)
; 141  : 	{
; 142  : #ifdef PURE_MEMORY_FILL_ZERO
; 143  : 		size_t old_size = P ? _aligned_msize(P, PURE_MEMORY_ALIGNMENT, 0) : 0;

	xor	r8d, r8d
	mov	rcx, rdi
	call	QWORD PTR __imp__aligned_msize

; 144  : #endif // PURE_MEMORY_FILL_ZERO
; 145  : 
; 146  : 		//void* result = realloc(P, size);
; 147  : 		void* result = _aligned_realloc(P, size, PURE_MEMORY_ALIGNMENT);

	mov	r8d, 16
	mov	rdx, rbx
	mov	rcx, rdi
	mov	rsi, rax
	call	QWORD PTR __imp__aligned_realloc
	mov	rdi, rax

; 148  : 
; 149  : #ifdef PURE_MEMORY_FILL_ZERO
; 150  : 		if (result && size > old_size)

	test	rax, rax
	je	SHORT $LN26@Decode
	cmp	rbx, rsi
	jbe	SHORT $LN26@Decode

; 151  : 			memset((u8*)result + old_size, 0, size - old_size);

	sub	rbx, rsi
	lea	rcx, QWORD PTR [rax+rsi]
	mov	r8, rbx
	xor	edx, edx
	call	memset
$LN26@Decode:
	mov	rsi, QWORD PTR tv2026[rsp]
$LN20@Decode:
; File C:\Users\Mahito\Desktop\Night outing\Night-outing\src\xrCore\LzHuf.cpp

; 72   : 			out_iterator= out_start+out_size;

	mov	ecx, r14d
	lea	r14, OFFSET FLAT:?text_buf@@3PAEA	; text_buf
	add	rcx, rdi
	mov	QWORD PTR ?fs@@3VLZfs@@A+40, rdi
	mov	QWORD PTR ?fs@@3VLZfs@@A+56, rcx
	lea	rax, QWORD PTR [rcx+1024]
	mov	QWORD PTR ?fs@@3VLZfs@@A+48, rax
$LN16@Decode:

; 73   : 			out_end		= out_iterator+1024;
; 74   : 		}
; 75   : 		*out_iterator++ = u8(c&0xFF);

	mov	BYTE PTR [rcx], r12b

; 624  :             i = (r - DecodePosition() - 1) & (N - 1);
; 625  :             j = c - 255 + THRESHOLD;
; 626  :             for (k = 0; k < j; k++) {

	inc	r15

; 75   : 		*out_iterator++ = u8(c&0xFF);

	mov	rcx, QWORD PTR ?fs@@3VLZfs@@A+56

; 628  :                 fs._putb(c);
; 629  :                 text_buf[r++] = (unsigned char)c;

	movsxd	rax, esi

; 75   : 		*out_iterator++ = u8(c&0xFF);

	inc	rcx

; 628  :                 fs._putb(c);
; 629  :                 text_buf[r++] = (unsigned char)c;

	inc	esi

; 75   : 		*out_iterator++ = u8(c&0xFF);

	mov	QWORD PTR ?fs@@3VLZfs@@A+56, rcx

; 630  :                 r &= (N - 1);

	and	esi, 4095				; 00000fffH
	mov	QWORD PTR tv2026[rsp], rsi
	mov	BYTE PTR [rax+r14], r12b
	sub	r13, 1
	jne	$LL10@Decode
	mov	r12d, DWORD PTR count$1$[rsp]
$LN9@Decode:

; 613  :     for (i = 0; i < N - F; i++)
; 614  :         text_buf[i] = 0x20;
; 615  :     r = N - F;
; 616  :     for (count = 0; count < textsize; ) {

	cmp	r12d, DWORD PTR ?textsize@@3IA		; textsize
	lea	rbx, OFFSET FLAT:__ImageBase
	jb	$LL5@Decode
	mov	r15, QWORD PTR [rsp+32]
	mov	r13, QWORD PTR [rsp+48]
	mov	rdi, QWORD PTR [rsp+64]
	mov	rbx, QWORD PTR [rsp+96]
$LN415@Decode:
	mov	r12, QWORD PTR [rsp+56]
	mov	rsi, QWORD PTR [rsp+104]
	mov	r14, QWORD PTR [rsp+40]
$LN6@Decode:

; 631  :                 count++;
; 632  :             }
; 633  :         }
; 634  :     }
; 635  : 	tim_size = count;
; 636  : }

	add	rsp, 72					; 00000048H
	ret	0
?Decode@@YAXXZ ENDP					; Decode
_TEXT	ENDS
; Function compile flags: /Ogtpy
; File C:\Users\Mahito\Desktop\Night outing\Night-outing\src\xrCore\xrMemory.h
; File C:\Users\Mahito\Desktop\Night outing\Night-outing\src\xrCore\xrMemory_subst_msvc.cpp
; File C:\Users\Mahito\Desktop\Night outing\Night-outing\src\xrCore\xrMemory.h
; File C:\Users\Mahito\Desktop\Night outing\Night-outing\src\xrCore\xrMemory_subst_msvc.cpp
; File C:\Users\Mahito\Desktop\Night outing\Night-outing\src\xrCore\xrMemory.h
;	COMDAT ?xr_malloc@@YAPEAX_K@Z
_TEXT	SEGMENT
size$ = 48
?xr_malloc@@YAPEAX_K@Z PROC				; xr_malloc, COMDAT

; 76   : IC void* xr_malloc(size_t size) { return Memory.mem_alloc(size); }

$LN34:
	mov	QWORD PTR [rsp+8], rbx
	push	rdi
	sub	rsp, 32					; 00000020H
; File C:\Users\Mahito\Desktop\Night outing\Night-outing\src\xrCore\xrMemory_subst_msvc.cpp

; 39   : 	stat_calls++;

	inc	DWORD PTR ?Memory@@3VxrMemory@@A

; 45   : 		void* result = _aligned_malloc(size, PURE_MEMORY_ALIGNMENT);

	mov	edx, 16
; File C:\Users\Mahito\Desktop\Night outing\Night-outing\src\xrCore\xrMemory.h

; 76   : IC void* xr_malloc(size_t size) { return Memory.mem_alloc(size); }

	mov	rdi, rcx
; File C:\Users\Mahito\Desktop\Night outing\Night-outing\src\xrCore\xrMemory_subst_msvc.cpp

; 45   : 		void* result = _aligned_malloc(size, PURE_MEMORY_ALIGNMENT);

	call	QWORD PTR __imp__aligned_malloc
	mov	rbx, rax

; 46   : #ifdef PURE_MEMORY_FILL_ZERO
; 47   : 		if (result)

	test	rax, rax
	je	SHORT $LN5@xr_malloc

; 48   : 			memset(result, 0, size);

	mov	r8, rdi
	xor	edx, edx
	mov	rcx, rax
	call	memset
; File C:\Users\Mahito\Desktop\Night outing\Night-outing\src\xrCore\xrMemory.h

; 76   : IC void* xr_malloc(size_t size) { return Memory.mem_alloc(size); }

	mov	rax, rbx
$LN5@xr_malloc:
	mov	rbx, QWORD PTR [rsp+48]
	add	rsp, 32					; 00000020H
	pop	rdi
	ret	0
?xr_malloc@@YAPEAX_K@Z ENDP				; xr_malloc
_TEXT	ENDS
; Function compile flags: /Ogtpy
; File C:\Users\Mahito\Desktop\Night outing\Night-outing\src\xrCore\xrMemory.h
; File C:\Users\Mahito\Desktop\Night outing\Night-outing\src\xrCore\xrMemory_subst_msvc.cpp
; File C:\Users\Mahito\Desktop\Night outing\Night-outing\src\xrCore\xrMemory.h
; File C:\Users\Mahito\Desktop\Night outing\Night-outing\src\xrCore\xrMemory_subst_msvc.cpp
; File C:\Users\Mahito\Desktop\Night outing\Night-outing\src\xrCore\xrMemory.h
; File C:\Users\Mahito\Desktop\Night outing\Night-outing\src\xrCore\xrMemory_subst_msvc.cpp
; File C:\Users\Mahito\Desktop\Night outing\Night-outing\src\xrCore\xrMemory.h
; File C:\Users\Mahito\Desktop\Night outing\Night-outing\src\xrCore\xrMemory_subst_msvc.cpp
; File C:\Users\Mahito\Desktop\Night outing\Night-outing\src\xrCore\xrMemory.h
;	COMDAT ?xr_realloc@@YAPEAXPEAX_K@Z
_TEXT	SEGMENT
P$ = 48
size$ = 56
?xr_realloc@@YAPEAXPEAX_K@Z PROC			; xr_realloc, COMDAT

; 77   : IC void* xr_realloc(void* P, size_t size) { return Memory.mem_realloc(P, size); }

$LN159:
	mov	QWORD PTR [rsp+8], rbx
	mov	QWORD PTR [rsp+16], rsi
	push	rdi
	sub	rsp, 32					; 00000020H
; File C:\Users\Mahito\Desktop\Night outing\Night-outing\src\xrCore\xrMemory_subst_msvc.cpp

; 128  : 	stat_calls++;

	mov	eax, DWORD PTR ?Memory@@3VxrMemory@@A
; File C:\Users\Mahito\Desktop\Night outing\Night-outing\src\xrCore\xrMemory.h

; 77   : IC void* xr_realloc(void* P, size_t size) { return Memory.mem_realloc(P, size); }

	mov	rbx, rdx
; File C:\Users\Mahito\Desktop\Night outing\Night-outing\src\xrCore\xrMemory_subst_msvc.cpp

; 128  : 	stat_calls++;

	inc	eax
; File C:\Users\Mahito\Desktop\Night outing\Night-outing\src\xrCore\xrMemory.h

; 77   : IC void* xr_realloc(void* P, size_t size) { return Memory.mem_realloc(P, size); }

	mov	rsi, rcx
; File C:\Users\Mahito\Desktop\Night outing\Night-outing\src\xrCore\xrMemory_subst_msvc.cpp

; 128  : 	stat_calls++;

	mov	DWORD PTR ?Memory@@3VxrMemory@@A, eax

; 129  : 
; 130  : 	if (0 == P)

	mov	edx, 16
	test	rcx, rcx
	jne	SHORT $LN7@xr_realloc

; 39   : 	stat_calls++;

	inc	eax

; 40   : 
; 41   : #ifdef PURE_ALLOC
; 42   : 	if (g_use_pure_alloc)
; 43   : 	{
; 44   : 		//void* result = malloc(size);
; 45   : 		void* result = _aligned_malloc(size, PURE_MEMORY_ALIGNMENT);

	mov	rcx, rbx
	mov	DWORD PTR ?Memory@@3VxrMemory@@A, eax
	call	QWORD PTR __imp__aligned_malloc
	mov	rdi, rax

; 46   : #ifdef PURE_MEMORY_FILL_ZERO
; 47   : 		if (result)

	test	rax, rax
	je	SHORT $LN25@xr_realloc

; 48   : 			memset(result, 0, size);

	mov	r8, rbx
	xor	edx, edx
	mov	rcx, rax
	call	memset
$LN25@xr_realloc:
; File C:\Users\Mahito\Desktop\Night outing\Night-outing\src\xrCore\xrMemory.h

; 77   : IC void* xr_realloc(void* P, size_t size) { return Memory.mem_realloc(P, size); }

	mov	rax, rdi
	mov	rbx, QWORD PTR [rsp+48]
	mov	rsi, QWORD PTR [rsp+56]
	add	rsp, 32					; 00000020H
	pop	rdi
	ret	0
$LN7@xr_realloc:
; File C:\Users\Mahito\Desktop\Night outing\Night-outing\src\xrCore\xrMemory_subst_msvc.cpp

; 143  : 		size_t old_size = P ? _aligned_msize(P, PURE_MEMORY_ALIGNMENT, 0) : 0;

	xor	r8d, r8d
	call	QWORD PTR __imp__aligned_msize

; 144  : #endif // PURE_MEMORY_FILL_ZERO
; 145  : 
; 146  : 		//void* result = realloc(P, size);
; 147  : 		void* result = _aligned_realloc(P, size, PURE_MEMORY_ALIGNMENT);

	mov	r8d, 16
	mov	rdx, rbx
	mov	rcx, rsi
	mov	rdi, rax
	call	QWORD PTR __imp__aligned_realloc
	mov	rsi, rax

; 148  : 
; 149  : #ifdef PURE_MEMORY_FILL_ZERO
; 150  : 		if (result && size > old_size)

	test	rax, rax
	je	SHORT $LN9@xr_realloc
	cmp	rbx, rdi
	jbe	SHORT $LN9@xr_realloc

; 151  : 			memset((u8*)result + old_size, 0, size - old_size);

	sub	rbx, rdi
	lea	rcx, QWORD PTR [rax+rdi]
	mov	r8, rbx
	xor	edx, edx
	call	memset
$LN9@xr_realloc:
; File C:\Users\Mahito\Desktop\Night outing\Night-outing\src\xrCore\xrMemory.h

; 77   : IC void* xr_realloc(void* P, size_t size) { return Memory.mem_realloc(P, size); }

	mov	rbx, QWORD PTR [rsp+48]
	mov	rax, rsi
	mov	rsi, QWORD PTR [rsp+56]
	add	rsp, 32					; 00000020H
	pop	rdi
	ret	0
?xr_realloc@@YAPEAXPEAX_K@Z ENDP			; xr_realloc
_TEXT	ENDS
END
