; Listing generated by Microsoft (R) Optimizing Compiler Version 19.35.32217.1 

include listing.inc

INCLUDELIB OLDNAMES

PUBLIC	??_C@_0DN@FHKIIDG@?$CK?5?$FLwin32?$FN?3?5free?$FL?$CFlld?5K?$FN?0?5reserv@ ; `string'
PUBLIC	??_C@_0BE@JDFKFEDA@bad?5pointer?5to?5heap@	; `string'
PUBLIC	??_C@_0BE@NLKJHMLM@xrMemory?3?3mem_usage@	; `string'
PUBLIC	??_C@_0EO@HNFEJDMC@C?3?2Users?2Mahito?2Desktop?2Night?5o@ ; `string'
PUBLIC	??_C@_0BC@EKDFDBII@bad?5start?5of?5heap@	; `string'
PUBLIC	??_C@_0BB@CIDGGKDN@bad?5node?5in?5heap@		; `string'
EXTRN	__imp__heapwalk:PROC
;	COMDAT ??_C@_0BB@CIDGGKDN@bad?5node?5in?5heap@
CONST	SEGMENT
??_C@_0BB@CIDGGKDN@bad?5node?5in?5heap@ DB 'bad node in heap', 00H ; `string'
CONST	ENDS
;	COMDAT ??_C@_0BC@EKDFDBII@bad?5start?5of?5heap@
CONST	SEGMENT
??_C@_0BC@EKDFDBII@bad?5start?5of?5heap@ DB 'bad start of heap', 00H ; `string'
CONST	ENDS
;	COMDAT ??_C@_0EO@HNFEJDMC@C?3?2Users?2Mahito?2Desktop?2Night?5o@
CONST	SEGMENT
??_C@_0EO@HNFEJDMC@C?3?2Users?2Mahito?2Desktop?2Night?5o@ DB 'C:\Users\Ma'
	DB	'hito\Desktop\Night outing\Night-outing\src\xrCore\memory_usag'
	DB	'e.cpp', 00H					; `string'
CONST	ENDS
;	COMDAT ??_C@_0BE@NLKJHMLM@xrMemory?3?3mem_usage@
CONST	SEGMENT
??_C@_0BE@NLKJHMLM@xrMemory?3?3mem_usage@ DB 'xrMemory::mem_usage', 00H ; `string'
CONST	ENDS
;	COMDAT ??_C@_0BE@JDFKFEDA@bad?5pointer?5to?5heap@
CONST	SEGMENT
??_C@_0BE@JDFKFEDA@bad?5pointer?5to?5heap@ DB 'bad pointer to heap', 00H ; `string'
CONST	ENDS
;	COMDAT ??_C@_0DN@FHKIIDG@?$CK?5?$FLwin32?$FN?3?5free?$FL?$CFlld?5K?$FN?0?5reserv@
CONST	SEGMENT
??_C@_0DN@FHKIIDG@?$CK?5?$FLwin32?$FN?3?5free?$FL?$CFlld?5K?$FN?0?5reserv@ DB '*'
	DB	' [win32]: free[%lld K], reserved[%lld K], committed[%lld K]', 00H ; `string'
PUBLIC	?log_vminfo@@YAXXZ				; log_vminfo
PUBLIC	?vminfo@@YAXPEA_K00@Z				; vminfo
PUBLIC	?mem_usage@xrMemory@@QEAA_KXZ			; xrMemory::mem_usage
pdata	SEGMENT
$pdata$?log_vminfo@@YAXXZ DD imagerel $LN17
	DD	imagerel $LN17+177
	DD	imagerel $unwind$?log_vminfo@@YAXXZ
$pdata$?vminfo@@YAXPEA_K00@Z DD imagerel $LN15
	DD	imagerel $LN15+161
	DD	imagerel $unwind$?vminfo@@YAXPEA_K00@Z
$pdata$?mem_usage@xrMemory@@QEAA_KXZ DD imagerel $LN19
	DD	imagerel $LN19+174
	DD	imagerel $unwind$?mem_usage@xrMemory@@QEAA_KXZ
xdata	SEGMENT
$unwind$?log_vminfo@@YAXXZ DD 060f01H
	DD	0d640fH
	DD	0c340fH
	DD	0700b920fH
$unwind$?vminfo@@YAXPEA_K00@Z DD 060f01H
	DD	0d640fH
	DD	0c340fH
	DD	0700b920fH
$unwind$?mem_usage@xrMemory@@QEAA_KXZ DD 020601H
	DD	030029206H
; Function compile flags: /Ogtpy
; File C:\Users\Mahito\Desktop\Night outing\Night-outing\src\xrCore\memory_usage.cpp
_TEXT	SEGMENT
hinfo$ = 48
this$dead$ = 96
?mem_usage@xrMemory@@QEAA_KXZ PROC			; xrMemory::mem_usage

; 41   : {

$LN19:
	push	rbx
	sub	rsp, 80					; 00000050H
	vpxor	xmm0, xmm0, xmm0

; 42   : 	_HEAPINFO hinfo = {};

	xor	eax, eax

; 43   : 	int status;
; 44   : 	size_t bytesUsed = 0;
; 45   : 	while ((status = _heapwalk(&hinfo)) == _HEAPOK)

	lea	rcx, QWORD PTR hinfo$[rsp]
	vmovups	XMMWORD PTR hinfo$[rsp], xmm0
	mov	QWORD PTR hinfo$[rsp+16], rax
	xor	ebx, ebx
	call	QWORD PTR __imp__heapwalk
	cmp	eax, -2
	jne	SHORT $LN3@mem_usage
	npad	7
$LL2@mem_usage:

; 46   : 	{
; 47   : 		if (hinfo._useflag == _USEDENTRY)

	cmp	DWORD PTR hinfo$[rsp+16], 1
	jne	SHORT $LN6@mem_usage

; 48   : 			bytesUsed += hinfo._size;

	add	rbx, QWORD PTR hinfo$[rsp+8]
$LN6@mem_usage:

; 43   : 	int status;
; 44   : 	size_t bytesUsed = 0;
; 45   : 	while ((status = _heapwalk(&hinfo)) == _HEAPOK)

	lea	rcx, QWORD PTR hinfo$[rsp]
	call	QWORD PTR __imp__heapwalk
	cmp	eax, -2
	je	SHORT $LL2@mem_usage
$LN3@mem_usage:

; 49   : 	}
; 50   : 	switch (status)

	cmp	eax, -6
	je	SHORT $LN9@mem_usage
	cmp	eax, -4
	je	SHORT $LN11@mem_usage
	cmp	eax, -3
	jne	SHORT $LN16@mem_usage

; 58   : 		break;
; 59   : 	case _HEAPBADBEGIN:
; 60   : 		FATAL("bad start of heap");

	lea	rax, OFFSET FLAT:??_C@_0BC@EKDFDBII@bad?5start?5of?5heap@
	mov	r8d, 60					; 0000003cH

; 61   : 		break;

	jmp	SHORT $LN17@mem_usage
$LN11@mem_usage:

; 62   : 	case _HEAPBADNODE:
; 63   : 		FATAL("bad node in heap");

	lea	rax, OFFSET FLAT:??_C@_0BB@CIDGGKDN@bad?5node?5in?5heap@
	mov	r8d, 63					; 0000003fH
	jmp	SHORT $LN17@mem_usage
$LN9@mem_usage:

; 51   : 	{
; 52   : 	case _HEAPEMPTY:
; 53   : 		break;
; 54   : 	case _HEAPEND:
; 55   : 		break;
; 56   : 	case _HEAPBADPTR:
; 57   : 		FATAL("bad pointer to heap");

	lea	rax, OFFSET FLAT:??_C@_0BE@JDFKFEDA@bad?5pointer?5to?5heap@
	mov	r8d, 57					; 00000039H
$LN17@mem_usage:

; 64   : 		break;
; 65   : 	}
; 66   : 	return bytesUsed;
; 67   : }

	lea	r9, OFFSET FLAT:??_C@_0BE@NLKJHMLM@xrMemory?3?3mem_usage@
	mov	QWORD PTR [rsp+32], rax
	lea	rdx, OFFSET FLAT:??_C@_0EO@HNFEJDMC@C?3?2Users?2Mahito?2Desktop?2Night?5o@
	lea	rcx, OFFSET FLAT:?Debug@@3VxrDebug@@A	; Debug
	call	?fatal@xrDebug@@QEAAXPEBDH00ZZ		; xrDebug::fatal
$LN16@mem_usage:
	mov	rax, rbx
	add	rsp, 80					; 00000050H
	pop	rbx
	ret	0
?mem_usage@xrMemory@@QEAA_KXZ ENDP			; xrMemory::mem_usage
_TEXT	ENDS
; Function compile flags: /Ogtpy
; File C:\Users\Mahito\Desktop\Night outing\Night-outing\src\xrCore\memory_usage.cpp
_TEXT	SEGMENT
memory_info$ = 32
_free$ = 96
reserved$ = 104
committed$ = 112
?vminfo@@YAXPEA_K00@Z PROC				; vminfo

; 6    : {

$LN15:
	mov	QWORD PTR [rsp+8], rbx
	mov	QWORD PTR [rsp+16], rsi
	push	rdi
	sub	rsp, 80					; 00000050H

; 7    : 	MEMORY_BASIC_INFORMATION memory_info;
; 8    : 	memory_info.BaseAddress = 0;

	xor	eax, eax
	mov	rbx, r8
	mov	rdi, rdx

; 9    : 	*_free = *reserved = *committed = 0;

	mov	QWORD PTR [r8], rax
	mov	rsi, rcx
	mov	QWORD PTR [rdx], rax
	mov	QWORD PTR [rcx], rax

; 10   : 	while (VirtualQuery(memory_info.BaseAddress, &memory_info, sizeof(memory_info)))

	lea	rdx, QWORD PTR memory_info$[rsp]
	lea	r8d, QWORD PTR [rax+48]
	mov	QWORD PTR memory_info$[rsp], rax
	xor	ecx, ecx
	call	QWORD PTR __imp_VirtualQuery
	test	rax, rax
	je	SHORT $LN3@vminfo
	npad	2
$LL2@vminfo:

; 11   : 	{
; 12   : 		switch (memory_info.State)

	mov	ecx, DWORD PTR memory_info$[rsp+32]
	mov	rax, QWORD PTR memory_info$[rsp+24]
	cmp	ecx, 4096				; 00001000H
	je	SHORT $LN8@vminfo
	cmp	ecx, 8192				; 00002000H
	je	SHORT $LN7@vminfo
	cmp	ecx, 65536				; 00010000H
	jne	SHORT $LN4@vminfo

; 13   : 		{
; 14   : 		case MEM_FREE:
; 15   : 			*_free += memory_info.RegionSize;

	add	QWORD PTR [rsi], rax

; 16   : 			break;

	jmp	SHORT $LN4@vminfo
$LN7@vminfo:

; 17   : 		case MEM_RESERVE:
; 18   : 			*reserved += memory_info.RegionSize;

	add	QWORD PTR [rdi], rax

; 19   : 			break;

	jmp	SHORT $LN4@vminfo
$LN8@vminfo:

; 20   : 		case MEM_COMMIT:
; 21   : 			*committed += memory_info.RegionSize;

	add	QWORD PTR [rbx], rax
$LN4@vminfo:

; 22   : 			break;
; 23   : 		}
; 24   : 		memory_info.BaseAddress = (char*)memory_info.BaseAddress + memory_info.RegionSize;

	mov	rcx, QWORD PTR memory_info$[rsp]
	lea	rdx, QWORD PTR memory_info$[rsp]
	add	rcx, rax
	mov	r8d, 48					; 00000030H
	mov	QWORD PTR memory_info$[rsp], rcx
	call	QWORD PTR __imp_VirtualQuery
	test	rax, rax
	jne	SHORT $LL2@vminfo
$LN3@vminfo:

; 25   : 	}
; 26   : }

	mov	rbx, QWORD PTR [rsp+96]
	mov	rsi, QWORD PTR [rsp+104]
	add	rsp, 80					; 00000050H
	pop	rdi
	ret	0
?vminfo@@YAXPEA_K00@Z ENDP				; vminfo
_TEXT	ENDS
; Function compile flags: /Ogtpy
; File C:\Users\Mahito\Desktop\Night outing\Night-outing\src\xrCore\memory_usage.cpp
_TEXT	SEGMENT
memory_info$1 = 32
?log_vminfo@@YAXXZ PROC					; log_vminfo

; 29   : {

$LN17:
	mov	QWORD PTR [rsp+8], rbx
	mov	QWORD PTR [rsp+16], rsi
	push	rdi
	sub	rsp, 80					; 00000050H

; 8    : 	memory_info.BaseAddress = 0;

	xor	ebx, ebx

; 9    : 	*_free = *reserved = *committed = 0;
; 10   : 	while (VirtualQuery(memory_info.BaseAddress, &memory_info, sizeof(memory_info)))

	lea	rdx, QWORD PTR memory_info$1[rsp]
	xor	ecx, ecx
	mov	QWORD PTR memory_info$1[rsp], rbx
	mov	edi, ebx
	mov	esi, ebx
	lea	r8d, QWORD PTR [rbx+48]
	call	QWORD PTR __imp_VirtualQuery
	test	rax, rax
	je	SHORT $LN5@log_vminfo
$LL4@log_vminfo:

; 11   : 	{
; 12   : 		switch (memory_info.State)

	mov	ecx, DWORD PTR memory_info$1[rsp+32]
	mov	rax, QWORD PTR memory_info$1[rsp+24]
	cmp	ecx, 4096				; 00001000H
	je	SHORT $LN10@log_vminfo
	cmp	ecx, 8192				; 00002000H
	je	SHORT $LN9@log_vminfo
	cmp	ecx, 65536				; 00010000H
	jne	SHORT $LN6@log_vminfo

; 13   : 		{
; 14   : 		case MEM_FREE:
; 15   : 			*_free += memory_info.RegionSize;

	add	rsi, rax

; 16   : 			break;

	jmp	SHORT $LN6@log_vminfo
$LN9@log_vminfo:

; 17   : 		case MEM_RESERVE:
; 18   : 			*reserved += memory_info.RegionSize;

	add	rdi, rax

; 19   : 			break;

	jmp	SHORT $LN6@log_vminfo
$LN10@log_vminfo:

; 20   : 		case MEM_COMMIT:
; 21   : 			*committed += memory_info.RegionSize;

	add	rbx, rax
$LN6@log_vminfo:

; 22   : 			break;
; 23   : 		}
; 24   : 		memory_info.BaseAddress = (char*)memory_info.BaseAddress + memory_info.RegionSize;

	mov	rcx, QWORD PTR memory_info$1[rsp]
	lea	rdx, QWORD PTR memory_info$1[rsp]
	add	rcx, rax
	mov	r8d, 48					; 00000030H
	mov	QWORD PTR memory_info$1[rsp], rcx
	call	QWORD PTR __imp_VirtualQuery
	test	rax, rax
	jne	SHORT $LL4@log_vminfo
$LN5@log_vminfo:

; 30   : 	size_t w_free, w_reserved, w_committed;
; 31   : 	vminfo(&w_free, &w_reserved, &w_committed);
; 32   : 	Msg(

	shr	rbx, 10
	lea	rcx, OFFSET FLAT:??_C@_0DN@FHKIIDG@?$CK?5?$FLwin32?$FN?3?5free?$FL?$CFlld?5K?$FN?0?5reserv@
	shr	rdi, 10
	mov	r9, rbx
	shr	rsi, 10
	mov	r8, rdi
	mov	rdx, rsi

; 33   : 		"* [win32]: free[%lld K], reserved[%lld K], committed[%lld K]",
; 34   : 		w_free / 1024,
; 35   : 		w_reserved / 1024,
; 36   : 		w_committed / 1024
; 37   : 	);
; 38   : }

	mov	rbx, QWORD PTR [rsp+96]
	mov	rsi, QWORD PTR [rsp+104]
	add	rsp, 80					; 00000050H
	pop	rdi

; 30   : 	size_t w_free, w_reserved, w_committed;
; 31   : 	vminfo(&w_free, &w_reserved, &w_committed);
; 32   : 	Msg(

	jmp	?Msg@@YAXPEBDZZ				; Msg
?log_vminfo@@YAXXZ ENDP					; log_vminfo
_TEXT	ENDS
END
