; Listing generated by Microsoft (R) Optimizing Compiler Version 19.35.32217.1 

include listing.inc

INCLUDELIB OLDNAMES

PUBLIC	?trained_model@@3PEAVstream@ppmd@compression@@EA ; trained_model
PUBLIC	?DummySEE2Cont@@3USEE2_CONTEXT@@A		; DummySEE2Cont
PUBLIC	?SEE2Cont@@3PAY0CA@USEE2_CONTEXT@@A		; SEE2Cont
PUBLIC	?BList@@3PAUBLK_NODE@@A				; BList
?trained_model@@3PEAVstream@ppmd@compression@@EA DQ 01H DUP (?) ; trained_model
?SubAllocatorSize@@3KA DD 01H DUP (?)			; SubAllocatorSize
?DummySEE2Cont@@3USEE2_CONTEXT@@A DD 01H DUP (?)	; DummySEE2Cont
?SEE2Cont@@3PAY0CA@USEE2_CONTEXT@@A DD 0300H DUP (?)	; SEE2Cont
?BList@@3PAUBLK_NODE@@A DB 01c8H DUP (?)		; BList
?low@ppmd@@3KA DD 01H DUP (?)				; ppmd::low
?SubRange@ppmd@@3USUBRANGE@1@A DB 0cH DUP (?)		; ppmd::SubRange
?range@ppmd@@3KA DD 01H DUP (?)				; ppmd::range
?code@ppmd@@3KA DD 01H DUP (?)				; ppmd::code
_BSS	ENDS
	ORG $+680
?ExpEscape@@3QBEB DB 019H				; ExpEscape
	DB	0eH
	DB	09H
	DB	07H
	DB	05H
	DB	05H
	DB	04H
	DB	04H
	DB	04H
	DB	03H
	DB	03H
	DB	03H
	DB	02H
	DB	02H
	DB	02H
	DB	02H
PUBLIC	??0PPMD_STARTUP@@QEAA@XZ			; PPMD_STARTUP::PPMD_STARTUP
PUBLIC	?PPMd_StartUp@@3UPPMD_STARTUP@@A		; PPMd_StartUp
?QTable@@3PAEA DB 0104H DUP (?)				; QTable
?NS2BSIndx@@3PAEA DB 0100H DUP (?)			; NS2BSIndx
?PPMd_StartUp@@3UPPMD_STARTUP@@A DB 01H DUP (?)		; PPMd_StartUp
	ALIGN	4

?Indx2Units@@3PAEA DB 026H DUP (?)			; Indx2Units
	ALIGN	4

?Units2Indx@@3PAEA DB 080H DUP (?)			; Units2Indx
_BSS	ENDS
;	COMDAT pdata
pdata	SEGMENT
$pdata$??0PPMD_STARTUP@@QEAA@XZ DD imagerel $LN57
	DD	imagerel $LN57+374
	DD	imagerel $unwind$??0PPMD_STARTUP@@QEAA@XZ
pdata	ENDS
;	COMDAT pdata
pdata	SEGMENT
$pdata$??__EPPMd_StartUp@@YAXXZ DD imagerel ??__EPPMd_StartUp@@YAXXZ
	DD	imagerel ??__EPPMd_StartUp@@YAXXZ+367
	DD	imagerel $unwind$??__EPPMd_StartUp@@YAXXZ
;	COMDAT xdata
xdata	SEGMENT
$unwind$??__EPPMd_StartUp@@YAXXZ DD 040a01H
	DD	06340aH
	DD	07006320aH
xdata	ENDS
;	COMDAT xdata
xdata	SEGMENT
$unwind$??0PPMD_STARTUP@@QEAA@XZ DD 040a01H
	DD	06340aH
	DD	07006320aH
?PPMd_StartUp$initializer$@@3P6AXXZEA DQ FLAT:??__EPPMd_StartUp@@YAXXZ ; PPMd_StartUp$initializer$
; Function compile flags: /Ogtpy
; File C:\Users\Mahito\Desktop\Night outing\Night-outing\src\xrCore\Model.cpp
;	COMDAT ??__EPPMd_StartUp@@YAXXZ
text$di	SEGMENT
??__EPPMd_StartUp@@YAXXZ PROC				; `dynamic initializer for 'PPMd_StartUp'', COMDAT

; 106  : struct PPMD_STARTUP { inline PPMD_STARTUP(); } PPMd_StartUp;

	mov	QWORD PTR [rsp+8], rbx
	push	rdi
	sub	rsp, 32					; 00000020H

; 110  :     for (i=0,k=1;i < N1     ;i++,k += 1)    Indx2Units[i]=k;

	mov	edi, 1
	lea	r10, OFFSET FLAT:?Indx2Units@@3PAEA
	mov	edx, 4
	mov	eax, edi
	mov	rcx, r10
	mov	r8d, edx
$LL6@dynamic:
	mov	BYTE PTR [rcx], al
	lea	rcx, QWORD PTR [rcx+1]
	inc	eax
	sub	r8, rdi
	jne	SHORT $LL6@dynamic
	inc	eax

; 111  :     for (k++;i < N1+N2      ;i++,k += 2)    Indx2Units[i]=k;

	lea	rcx, OFFSET FLAT:?Indx2Units@@3PAEA+4
	mov	r8, rdx
	npad	4
$LL9@dynamic:
	mov	BYTE PTR [rcx], al
	lea	rcx, QWORD PTR [rcx+1]
	add	eax, 2
	sub	r8, rdi
	jne	SHORT $LL9@dynamic
	inc	eax

; 112  :     for (k++;i < N1+N2+N3   ;i++,k += 3)    Indx2Units[i]=k;

	lea	rcx, OFFSET FLAT:?Indx2Units@@3PAEA+8
	npad	9
$LL12@dynamic:
	mov	BYTE PTR [rcx], al
	lea	rcx, QWORD PTR [rcx+1]
	add	eax, 3
	sub	rdx, rdi
	jne	SHORT $LL12@dynamic
	inc	eax

; 113  :     for (k++;i < N1+N2+N3+N4;i++,k += 4)    Indx2Units[i]=k;

	lea	rcx, OFFSET FLAT:?Indx2Units@@3PAEA+12
	mov	edx, 26
	npad	4
$LL15@dynamic:
	mov	BYTE PTR [rcx], al
	lea	rcx, QWORD PTR [rcx+1]
	add	eax, 4
	sub	rdx, rdi
	jne	SHORT $LL15@dynamic

; 114  :     for (k=i=0;k < 128;k++) {

	xor	ebx, ebx
	lea	r9, OFFSET FLAT:?Units2Indx@@3PAEA
	mov	edx, ebx
	mov	r8d, ebx
	npad	4
$LL18@dynamic:

; 115  :         i += (Indx2Units[i] < k+1);         Units2Indx[k]=i;

	mov	eax, edx
	lea	r9, QWORD PTR [r9+1]
	inc	r8d
	movzx	ecx, BYTE PTR [rax+r10]
	cmp	ecx, r8d
	adc	edx, ebx
	mov	BYTE PTR [r9-1], dl
	cmp	r8d, 128				; 00000080H
	jb	SHORT $LL18@dynamic

; 116  :     }
; 117  :     NS2BSIndx[0]=2*0;                       NS2BSIndx[1]=2*1;
; 118  :     memset(NS2BSIndx+2,2*2,9);              memset(NS2BSIndx+11,2*3,256-11);

	mov	rax, 289360691352306692			; 0404040404040404H
	mov	WORD PTR ?NS2BSIndx@@3PAEA, 512		; 00000200H
	mov	edx, 6
	mov	QWORD PTR ?NS2BSIndx@@3PAEA+2, rax
	mov	r8d, 245				; 000000f5H
	mov	BYTE PTR ?NS2BSIndx@@3PAEA+10, al
	lea	rcx, OFFSET FLAT:?NS2BSIndx@@3PAEA+11
	call	memset
	lea	rax, OFFSET FLAT:?QTable@@3PAEA
	npad	2
$LL21@dynamic:

; 119  :     for (i=0;i < UP_FREQ;i++)               QTable[i]=i;

	mov	BYTE PTR [rax], bl
	lea	rax, QWORD PTR [rax+1]
	inc	ebx
	cmp	ebx, 5
	jb	SHORT $LL21@dynamic

; 120  :     for (m=i=UP_FREQ, k=Step=1;i < 260;i++) {

	mov	eax, 5
	lea	r9, OFFSET FLAT:?QTable@@3PAEA+5
	mov	r8d, edi
	mov	r10d, 255				; 000000ffH
	npad	14
$LL24@dynamic:

; 121  :         QTable[i]=m;

	mov	BYTE PTR [r9], al

; 122  :         if ( !--k ) { k = ++Step;           m++; }

	lea	ecx, DWORD PTR [r8-1]
	mov	edx, eax
	lea	r9, QWORD PTR [r9+1]
	test	ecx, ecx
	lea	eax, DWORD PTR [rdi+1]
	mov	r8d, eax
	cmovne	eax, edi
	cmovne	r8d, ecx
	mov	edi, eax
	lea	eax, DWORD PTR [rdx+1]
	cmovne	eax, edx
	sub	r10, 1
	jne	SHORT $LL24@dynamic

; 106  : struct PPMD_STARTUP { inline PPMD_STARTUP(); } PPMd_StartUp;

	mov	rbx, QWORD PTR [rsp+48]

; 124  :     (DWORD&) DummySEE2Cont=PPMdSignature;

	mov	DWORD PTR ?DummySEE2Cont@@3USEE2_CONTEXT@@A, -2069057649 ; DummySEE2Cont, 84acaf8fH

; 106  : struct PPMD_STARTUP { inline PPMD_STARTUP(); } PPMd_StartUp;

	add	rsp, 32					; 00000020H
	pop	rdi
	ret	0
??__EPPMd_StartUp@@YAXXZ ENDP				; `dynamic initializer for 'PPMd_StartUp''
text$di	ENDS
; Function compile flags: /Ogtpy
; File C:\Users\Mahito\Desktop\Night outing\Night-outing\src\xrCore\Model.cpp
;	COMDAT ??0PPMD_STARTUP@@QEAA@XZ
_TEXT	SEGMENT
this$dead$ = 48
??0PPMD_STARTUP@@QEAA@XZ PROC				; PPMD_STARTUP::PPMD_STARTUP, COMDAT

; 108  : {

$LN57:
	mov	QWORD PTR [rsp+8], rbx
	push	rdi
	sub	rsp, 32					; 00000020H

; 109  :     UINT i, k, m, Step;
; 110  :     for (i=0,k=1;i < N1     ;i++,k += 1)    Indx2Units[i]=k;

	mov	edi, 1
	lea	r10, OFFSET FLAT:?Indx2Units@@3PAEA
	mov	edx, 4
	mov	eax, edi
	mov	rcx, r10
	mov	r8d, edx
$LL4@PPMD_START:
	mov	BYTE PTR [rcx], al
	lea	rcx, QWORD PTR [rcx+1]
	inc	eax
	sub	r8, rdi
	jne	SHORT $LL4@PPMD_START

; 111  :     for (k++;i < N1+N2      ;i++,k += 2)    Indx2Units[i]=k;

	inc	eax
	lea	rcx, OFFSET FLAT:?Indx2Units@@3PAEA+4
	mov	r8, rdx
	npad	4
$LL7@PPMD_START:
	mov	BYTE PTR [rcx], al
	lea	rcx, QWORD PTR [rcx+1]
	add	eax, 2
	sub	r8, rdi
	jne	SHORT $LL7@PPMD_START

; 112  :     for (k++;i < N1+N2+N3   ;i++,k += 3)    Indx2Units[i]=k;

	inc	eax
	lea	rcx, OFFSET FLAT:?Indx2Units@@3PAEA+8
	npad	9
$LL10@PPMD_START:
	mov	BYTE PTR [rcx], al
	lea	rcx, QWORD PTR [rcx+1]
	add	eax, 3
	sub	rdx, rdi
	jne	SHORT $LL10@PPMD_START

; 113  :     for (k++;i < N1+N2+N3+N4;i++,k += 4)    Indx2Units[i]=k;

	inc	eax
	lea	rcx, OFFSET FLAT:?Indx2Units@@3PAEA+12
	mov	edx, 26
	npad	4
$LL13@PPMD_START:
	mov	BYTE PTR [rcx], al
	lea	rcx, QWORD PTR [rcx+1]
	add	eax, 4
	sub	rdx, rdi
	jne	SHORT $LL13@PPMD_START

; 114  :     for (k=i=0;k < 128;k++) {

	xor	ebx, ebx
	lea	r9, OFFSET FLAT:?Units2Indx@@3PAEA
	mov	edx, ebx
	mov	r8d, ebx
	npad	4
$LL16@PPMD_START:

; 115  :         i += (Indx2Units[i] < k+1);         Units2Indx[k]=i;

	mov	eax, edx
	lea	r9, QWORD PTR [r9+1]
	inc	r8d
	movzx	ecx, BYTE PTR [rax+r10]
	cmp	ecx, r8d
	adc	edx, ebx
	mov	BYTE PTR [r9-1], dl
	cmp	r8d, 128				; 00000080H
	jb	SHORT $LL16@PPMD_START

; 116  :     }
; 117  :     NS2BSIndx[0]=2*0;                       NS2BSIndx[1]=2*1;
; 118  :     memset(NS2BSIndx+2,2*2,9);              memset(NS2BSIndx+11,2*3,256-11);

	mov	rax, 289360691352306692			; 0404040404040404H
	mov	WORD PTR ?NS2BSIndx@@3PAEA, 512		; 00000200H
	mov	edx, 6
	mov	QWORD PTR ?NS2BSIndx@@3PAEA+2, rax
	mov	r8d, 245				; 000000f5H
	mov	BYTE PTR ?NS2BSIndx@@3PAEA+10, al
	lea	rcx, OFFSET FLAT:?NS2BSIndx@@3PAEA+11
	call	memset
	lea	rax, OFFSET FLAT:?QTable@@3PAEA
	npad	2
$LL19@PPMD_START:

; 119  :     for (i=0;i < UP_FREQ;i++)               QTable[i]=i;

	mov	BYTE PTR [rax], bl
	lea	rax, QWORD PTR [rax+1]
	inc	ebx
	cmp	ebx, 5
	jb	SHORT $LL19@PPMD_START

; 120  :     for (m=i=UP_FREQ, k=Step=1;i < 260;i++) {

	mov	eax, 5
	lea	r9, OFFSET FLAT:?QTable@@3PAEA+5
	mov	r8d, edi
	mov	r10d, 255				; 000000ffH
	npad	14
$LL22@PPMD_START:

; 121  :         QTable[i]=m;

	mov	BYTE PTR [r9], al

; 122  :         if ( !--k ) { k = ++Step;           m++; }

	lea	ecx, DWORD PTR [r8-1]
	mov	edx, eax
	lea	r9, QWORD PTR [r9+1]
	test	ecx, ecx
	lea	eax, DWORD PTR [rdi+1]
	mov	r8d, eax
	cmovne	eax, edi
	cmovne	r8d, ecx
	mov	edi, eax
	lea	eax, DWORD PTR [rdx+1]
	cmovne	eax, edx
	sub	r10, 1
	jne	SHORT $LL22@PPMD_START

; 123  :     }
; 124  :     (DWORD&) DummySEE2Cont=PPMdSignature;
; 125  : }

	mov	rbx, QWORD PTR [rsp+48]
	lea	rax, OFFSET FLAT:?PPMd_StartUp@@3UPPMD_STARTUP@@A ; PPMd_StartUp
	mov	DWORD PTR ?DummySEE2Cont@@3USEE2_CONTEXT@@A, -2069057649 ; DummySEE2Cont, 84acaf8fH
	add	rsp, 32					; 00000020H
	pop	rdi
	ret	0
??0PPMD_STARTUP@@QEAA@XZ ENDP				; PPMD_STARTUP::PPMD_STARTUP
_TEXT	ENDS
END
