; Listing generated by Microsoft (R) Optimizing Compiler Version 19.35.32217.1 

include listing.inc

INCLUDELIB OLDNAMES

PUBLIC	??_C@_09EPMADGLA@PSAPI?4DLL@			; `string'
PUBLIC	??_C@_0BD@FIEJBLME@EnumProcessModules@		; `string'
PUBLIC	??_C@_0BD@OMILCNII@GetModuleBaseNameA@		; `string'
PUBLIC	??_C@_0BF@OFAHHCBJ@GetModuleFileNameExA@	; `string'
EXTRN	__imp_SetLastErrorEx:PROC
EXTRN	__imp_OpenProcess:PROC
;	COMDAT ??_C@_0BF@OFAHHCBJ@GetModuleFileNameExA@
CONST	SEGMENT
??_C@_0BF@OFAHHCBJ@GetModuleFileNameExA@ DB 'GetModuleFileNameExA', 00H ; `string'
CONST	ENDS
;	COMDAT ??_C@_0BD@OMILCNII@GetModuleBaseNameA@
CONST	SEGMENT
??_C@_0BD@OMILCNII@GetModuleBaseNameA@ DB 'GetModuleBaseNameA', 00H ; `string'
CONST	ENDS
;	COMDAT ??_C@_0BD@FIEJBLME@EnumProcessModules@
CONST	SEGMENT
??_C@_0BD@FIEJBLME@EnumProcessModules@ DB 'EnumProcessModules', 00H ; `string'
CONST	ENDS
;	COMDAT ??_C@_09EPMADGLA@PSAPI?4DLL@
CONST	SEGMENT
??_C@_09EPMADGLA@PSAPI?4DLL@ DB 'PSAPI.DLL', 00H	; `string'
PUBLIC	?NT4GetLoadedModules@@YAHKIPEAPEAUHINSTANCE__@@PEAK@Z ; NT4GetLoadedModules
?g_pEnumProcessModules@@3P6AHPEAXPEAPEAUHINSTANCE__@@KPEAK@ZEA DQ 01H DUP (?) ; g_pEnumProcessModules
?g_pGetModuleFileNameEx@@3P6AKPEAXPEAUHINSTANCE__@@PEADK@ZEA DQ 01H DUP (?) ; g_pGetModuleFileNameEx
?g_bInitialized@@3HA DD 01H DUP (?)			; g_bInitialized
	ALIGN	8

?g_pGetModuleBaseName@@3P6AKPEAXPEAUHINSTANCE__@@PEADK@ZEA DQ 01H DUP (?) ; g_pGetModuleBaseName
_BSS	ENDS
pdata	SEGMENT
$pdata$?NT4GetLoadedModules@@YAHKIPEAPEAUHINSTANCE__@@PEAK@Z DD imagerel $LN14
	DD	imagerel $LN14+61
	DD	imagerel $unwind$?NT4GetLoadedModules@@YAHKIPEAPEAUHINSTANCE__@@PEAK@Z
$pdata$0$?NT4GetLoadedModules@@YAHKIPEAPEAUHINSTANCE__@@PEAK@Z DD imagerel $LN14+61
	DD	imagerel $LN14+137
	DD	imagerel $chain$0$?NT4GetLoadedModules@@YAHKIPEAPEAUHINSTANCE__@@PEAK@Z
$pdata$1$?NT4GetLoadedModules@@YAHKIPEAPEAUHINSTANCE__@@PEAK@Z DD imagerel $LN14+137
	DD	imagerel $LN14+159
	DD	imagerel $chain$1$?NT4GetLoadedModules@@YAHKIPEAPEAUHINSTANCE__@@PEAK@Z
$pdata$2$?NT4GetLoadedModules@@YAHKIPEAPEAUHINSTANCE__@@PEAK@Z DD imagerel $LN14+159
	DD	imagerel $LN14+257
	DD	imagerel $chain$2$?NT4GetLoadedModules@@YAHKIPEAPEAUHINSTANCE__@@PEAK@Z
$pdata$?InitPSAPI@@YAHXZ DD imagerel ?InitPSAPI@@YAHXZ
	DD	imagerel ?InitPSAPI@@YAHXZ+30
	DD	imagerel $unwind$?InitPSAPI@@YAHXZ
$pdata$0$?InitPSAPI@@YAHXZ DD imagerel ?InitPSAPI@@YAHXZ+30
	DD	imagerel ?InitPSAPI@@YAHXZ+158
	DD	imagerel $chain$0$?InitPSAPI@@YAHXZ
$pdata$2$?InitPSAPI@@YAHXZ DD imagerel ?InitPSAPI@@YAHXZ+158
	DD	imagerel ?InitPSAPI@@YAHXZ+170
	DD	imagerel $chain$2$?InitPSAPI@@YAHXZ
xdata	SEGMENT
$unwind$?NT4GetLoadedModules@@YAHKIPEAPEAUHINSTANCE__@@PEAK@Z DD 081501H
	DD	0b7415H
	DD	0a5415H
	DD	093415H
	DD	0e0115215H
$chain$0$?NT4GetLoadedModules@@YAHKIPEAPEAUHINSTANCE__@@PEAK@Z DD 020521H
	DD	086405H
	DD	imagerel $LN14
	DD	imagerel $LN14+61
	DD	imagerel $unwind$?NT4GetLoadedModules@@YAHKIPEAPEAUHINSTANCE__@@PEAK@Z
$chain$1$?NT4GetLoadedModules@@YAHKIPEAPEAUHINSTANCE__@@PEAK@Z DD 021H
	DD	imagerel $LN14
	DD	imagerel $LN14+61
	DD	imagerel $unwind$?NT4GetLoadedModules@@YAHKIPEAPEAUHINSTANCE__@@PEAK@Z
$chain$2$?NT4GetLoadedModules@@YAHKIPEAPEAUHINSTANCE__@@PEAK@Z DD 020021H
	DD	086400H
	DD	imagerel $LN14
	DD	imagerel $LN14+61
	DD	imagerel $unwind$?NT4GetLoadedModules@@YAHKIPEAPEAUHINSTANCE__@@PEAK@Z
$unwind$?InitPSAPI@@YAHXZ DD 010401H
	DD	04204H
$chain$0$?InitPSAPI@@YAHXZ DD 020521H
	DD	043405H
	DD	imagerel ?InitPSAPI@@YAHXZ
	DD	imagerel ?InitPSAPI@@YAHXZ+30
	DD	imagerel $unwind$?InitPSAPI@@YAHXZ
$chain$2$?InitPSAPI@@YAHXZ DD 020021H
	DD	043400H
	DD	imagerel ?InitPSAPI@@YAHXZ
	DD	imagerel ?InitPSAPI@@YAHXZ+30
	DD	imagerel $unwind$?InitPSAPI@@YAHXZ
; Function compile flags: /Ogtpy
; File C:\Users\Mahito\Desktop\Night outing\Night-outing\src\xrCore\blackbox\NT4ProcessInfo.cpp
_TEXT	SEGMENT
?InitPSAPI@@YAHXZ PROC					; InitPSAPI

; 56   : {

	sub	rsp, 40					; 00000028H

; 57   :     if ( TRUE == g_bInitialized )

	cmp	DWORD PTR ?g_bInitialized@@3HA, 1
	jne	SHORT $LN2@InitPSAPI

; 58   :     {
; 59   :         return ( TRUE ) ;

	mov	eax, 1

; 105  : }

	add	rsp, 40					; 00000028H
	ret	0
$LN2@InitPSAPI:

; 60   :     }
; 61   : 
; 62   :     // Load up PSAPI.DLL.
; 63   :     HINSTANCE hInst = LoadLibraryA ( "PSAPI.DLL" ) ;

	lea	rcx, OFFSET FLAT:??_C@_09EPMADGLA@PSAPI?4DLL@
	mov	QWORD PTR [rsp+32], rbx
	call	QWORD PTR __imp_LoadLibraryA
	mov	rbx, rax

; 64   :     ASSERT ( NULL != hInst ) ;
; 65   :     if ( NULL == hInst )

	test	rax, rax
	je	SHORT $LN8@InitPSAPI

; 66   :     {
; 67   :         TRACE0 ( "Unable to load PSAPI.DLL!\n" ) ;
; 68   :         return ( FALSE ) ;
; 69   :     }
; 70   : 
; 71   :     // Now do the GetProcAddress stuff.
; 72   :     g_pEnumProcessModules =

	lea	rdx, OFFSET FLAT:??_C@_0BD@FIEJBLME@EnumProcessModules@
	mov	rcx, rax
	call	QWORD PTR __imp_GetProcAddress
	mov	QWORD PTR ?g_pEnumProcessModules@@3P6AHPEAXPEAPEAUHINSTANCE__@@KPEAK@ZEA, rax

; 73   :            (ENUMPROCESSMODULES)GetProcAddress ( hInst ,
; 74   :                                                 "EnumProcessModules" ) ;
; 75   :     ASSERT ( NULL != g_pEnumProcessModules ) ;
; 76   :     if ( NULL == g_pEnumProcessModules )

	test	rax, rax
	je	SHORT $LN8@InitPSAPI

; 77   :     {
; 78   :         TRACE0 ( "GetProcAddress failed on EnumProcessModules!\n" ) ;
; 79   :         return ( FALSE ) ;
; 80   :     }
; 81   : 
; 82   :     g_pGetModuleBaseName =

	lea	rdx, OFFSET FLAT:??_C@_0BD@OMILCNII@GetModuleBaseNameA@
	mov	rcx, rbx
	call	QWORD PTR __imp_GetProcAddress
	mov	QWORD PTR ?g_pGetModuleBaseName@@3P6AKPEAXPEAUHINSTANCE__@@PEADK@ZEA, rax

; 83   :         (GETMODULEBASENAME)GetProcAddress ( hInst ,
; 84   :                                             "GetModuleBaseNameA" ) ;
; 85   :     ASSERT ( NULL != g_pGetModuleBaseName ) ;
; 86   :     if ( NULL == g_pGetModuleBaseName )

	test	rax, rax
	je	SHORT $LN8@InitPSAPI

; 87   :     {
; 88   :         TRACE0 ( "GetProcAddress failed on GetModuleBaseNameA!\n" ) ;
; 89   :         return ( FALSE ) ;
; 90   :     }
; 91   : 
; 92   :     g_pGetModuleFileNameEx =

	lea	rdx, OFFSET FLAT:??_C@_0BF@OFAHHCBJ@GetModuleFileNameExA@
	mov	rcx, rbx
	call	QWORD PTR __imp_GetProcAddress
	mov	QWORD PTR ?g_pGetModuleFileNameEx@@3P6AKPEAXPEAUHINSTANCE__@@PEADK@ZEA, rax

; 93   :         (GETMODULEFILENAMEEX)GetProcAddress ( hInst ,
; 94   :                                               "GetModuleFileNameExA" ) ;
; 95   :     ASSERT ( NULL != g_pGetModuleFileNameEx ) ;
; 96   :     if ( NULL == g_pGetModuleFileNameEx )

	test	rax, rax
	je	SHORT $LN8@InitPSAPI

; 100  :     }
; 101  : 
; 102  :     // All OK, Jumpmaster!
; 103  :     g_bInitialized = TRUE ;
; 104  :     return ( TRUE ) ;

	mov	rbx, QWORD PTR [rsp+32]
	mov	eax, 1
	mov	DWORD PTR ?g_bInitialized@@3HA, 1

; 105  : }

	add	rsp, 40					; 00000028H
	ret	0
$LN8@InitPSAPI:
	mov	rbx, QWORD PTR [rsp+32]

; 97   :     {
; 98   :         TRACE0 ( "GetProcAddress failed on GetModuleFileNameExA\n" ) ;
; 99   :         return ( FALSE ) ;

	xor	eax, eax

; 105  : }

	add	rsp, 40					; 00000028H
	ret	0
?InitPSAPI@@YAHXZ ENDP					; InitPSAPI
_TEXT	ENDS
; Function compile flags: /Ogtpy
; File C:\Users\Mahito\Desktop\Night outing\Night-outing\src\xrCore\blackbox\NT4ProcessInfo.cpp
_TEXT	SEGMENT
dwTotal$ = 32
dwPID$ = 64
uiCount$ = 72
paModArray$ = 80
pdwRealCount$ = 88
?NT4GetLoadedModules@@YAHKIPEAPEAUHINSTANCE__@@PEAK@Z PROC ; NT4GetLoadedModules

; 133  : {

$LN14:
	mov	QWORD PTR [rsp+16], rbx
	mov	QWORD PTR [rsp+24], rbp
	mov	QWORD PTR [rsp+32], rdi
	push	r14
	sub	rsp, 48					; 00000030H
	mov	r14, r9
	mov	rbp, r8
	mov	edi, edx
	mov	ebx, ecx

; 134  : 
; 135  :     // Initialize PSAPI.DLL, if needed.
; 136  :     if ( FALSE == InitPSAPI ( ) )

	call	?InitPSAPI@@YAHXZ			; InitPSAPI
	test	eax, eax
	jne	SHORT $LN2@NT4GetLoad

; 137  :     {
; 138  :         ASSERT ( !"InitPSAPI failed!" ) ;
; 139  :         SetLastErrorEx ( ERROR_DLL_INIT_FAILED , SLE_ERROR ) ;

	lea	edx, QWORD PTR [rax+1]
	mov	ecx, 1114				; 0000045aH
	call	QWORD PTR __imp_SetLastErrorEx

; 140  :         return ( FALSE ) ;

	xor	eax, eax
	jmp	SHORT $LN1@NT4GetLoad
$LN2@NT4GetLoad:

; 141  :     }
; 142  : 
; 143  :     // Convert the process ID into a process handle.
; 144  :     HANDLE hProc = OpenProcess ( PROCESS_QUERY_INFORMATION |

	mov	r8d, ebx
	mov	QWORD PTR [rsp+64], rsi
	xor	edx, edx
	mov	ecx, 1040				; 00000410H
	call	QWORD PTR __imp_OpenProcess
	mov	rsi, rax

; 145  :                                     PROCESS_VM_READ         ,
; 146  :                                  FALSE                      ,
; 147  :                                  dwPID                       ) ;
; 148  :     ASSERT ( NULL != hProc ) ;
; 149  :     if ( NULL == hProc )

	test	rax, rax
	je	SHORT $LN6@NT4GetLoad

; 150  :     {
; 151  :         TRACE1 ( "Unable to OpenProcess on %08X\n" , dwPID ) ;
; 152  :         return ( FALSE ) ;
; 153  :     }
; 154  : 
; 155  :     // Now get the modules for the specified process.
; 156  :     ASSERT ( NULL != g_pEnumProcessModules ) ;
; 157  :     // Because of possible DLL unload order differences, make sure that
; 158  :     // PSAPI.DLL is still loaded in case this function is called during
; 159  :     // shutdown.
; 160  :     ASSERT ( FALSE == IsBadCodePtr ( (FARPROC)g_pEnumProcessModules ) );
; 161  :     if ( TRUE == IsBadCodePtr ( (FARPROC)g_pEnumProcessModules ) )

	mov	rcx, QWORD PTR ?g_pEnumProcessModules@@3P6AHPEAXPEAPEAUHINSTANCE__@@KPEAK@ZEA
	call	QWORD PTR __imp_IsBadCodePtr
	mov	rcx, rsi
	cmp	eax, 1
	jne	SHORT $LN4@NT4GetLoad

; 162  :     {
; 163  :         TRACE0 ( "PSAPI.DLL has been unloaded on us!\n" ) ;
; 164  : 
; 165  :         // Close the process handle used.
; 166  :         VERIFY ( CloseHandle ( hProc ) ) ;

	call	QWORD PTR __imp_CloseHandle

; 167  : 
; 168  :         SetLastErrorEx ( ERROR_INVALID_DLL , SLE_ERROR ) ;

	mov	edx, 1
	mov	ecx, 1154				; 00000482H
$LN12@NT4GetLoad:

; 188  :     {
; 189  :         ASSERT ( !"EnumProcessModules failed!\n" ) ;
; 190  :         return ( FALSE ) ;

	call	QWORD PTR __imp_SetLastErrorEx
$LN6@NT4GetLoad:
	xor	eax, eax
$LN11@NT4GetLoad:
	mov	rsi, QWORD PTR [rsp+64]
$LN1@NT4GetLoad:

; 206  : }

	mov	rbx, QWORD PTR [rsp+72]
	mov	rbp, QWORD PTR [rsp+80]
	mov	rdi, QWORD PTR [rsp+88]
	add	rsp, 48					; 00000030H
	pop	r14
	ret	0
$LN4@NT4GetLoad:

; 169  : 
; 170  :         return ( FALSE ) ;
; 171  :     }
; 172  : 
; 173  :     DWORD dwTotal = 0 ;
; 174  :     BOOL bRet = g_pEnumProcessModules ( hProc                        ,

	lea	r8d, DWORD PTR [rdi*8]
	mov	DWORD PTR dwTotal$[rsp], 0
	lea	r9, QWORD PTR dwTotal$[rsp]
	mov	rdx, rbp
	call	QWORD PTR ?g_pEnumProcessModules@@3P6AHPEAXPEAPEAUHINSTANCE__@@KPEAK@ZEA

; 175  :                                         paModArray                   ,
; 176  :                                         uiCount * sizeof ( HMODULE ) ,
; 177  :                                         &dwTotal                      );
; 178  : 
; 179  :     // Close the process handle used.
; 180  :     VERIFY ( CloseHandle ( hProc ) ) ;

	mov	rcx, rsi
	mov	ebx, eax
	call	QWORD PTR __imp_CloseHandle

; 181  : 
; 182  :     // Convert the count from bytes to HMODULE values.
; 183  :     *pdwRealCount = dwTotal / sizeof ( HMODULE ) ;

	mov	ecx, DWORD PTR dwTotal$[rsp]
	mov	eax, ecx
	shr	eax, 3
	mov	DWORD PTR [r14], eax

; 184  : 
; 185  :     // If bRet was FALSE, and the user was not just asking for the
; 186  :     // total, there was a problem.
; 187  :     if ( ( ( FALSE == bRet ) && ( uiCount > 0 ) ) || ( 0 == dwTotal ) )

	test	ebx, ebx
	jne	SHORT $LN7@NT4GetLoad
	test	edi, edi
	jne	SHORT $LN6@NT4GetLoad
$LN7@NT4GetLoad:
	test	ecx, ecx
	je	SHORT $LN6@NT4GetLoad

; 191  :     }
; 192  : 
; 193  :     // If the total returned in pdwRealCount is larger than the value in
; 194  :     // uiCount, then return an error.  If uiCount is zero, then it is
; 195  :     // not an error.
; 196  :     if ( ( *pdwRealCount > uiCount ) && ( uiCount > 0 ) )

	cmp	eax, edi
	jbe	SHORT $LN8@NT4GetLoad
	test	edi, edi
	je	SHORT $LN8@NT4GetLoad

; 197  :     {
; 198  :         ASSERT ( !"Buffer is too small in NT4GetLoadedModules!\n" ) ;
; 199  :         SetLastErrorEx ( ERROR_INSUFFICIENT_BUFFER , SLE_ERROR ) ;

	mov	edx, 1
	lea	ecx, QWORD PTR [rdx+121]

; 200  :         return ( FALSE ) ;

	jmp	SHORT $LN12@NT4GetLoad
$LN8@NT4GetLoad:

; 201  :     }
; 202  : 
; 203  :     // All OK, Jumpmaster!
; 204  :     SetLastError ( ERROR_SUCCESS ) ;

	xor	ecx, ecx
	call	QWORD PTR __imp_SetLastError

; 205  :     return ( TRUE ) ;

	mov	eax, 1
	jmp	SHORT $LN11@NT4GetLoad
?NT4GetLoadedModules@@YAHKIPEAPEAUHINSTANCE__@@PEAK@Z ENDP ; NT4GetLoadedModules
_TEXT	ENDS
END
