; Listing generated by Microsoft (R) Optimizing Compiler Version 19.35.32217.1 

include listing.inc

INCLUDELIB OLDNAMES

PUBLIC	??_C@_0DF@FKMKMAHJ@buffer?5overflow?3?5cannot?5concate@ ; `string'
PUBLIC	??_C@_0CN@JIPJOLMB@xray?3?3core?3?3detail?3?3strconcat_e@ ; `string'
PUBLIC	??_C@_0FH@EIBCGEBK@C?3?2Users?2Mahito?2Desktop?2Night?5o@ ; `string'
PUBLIC	??_C@_0BF@KINCDENJ@bad?5array?5new?5length@	; `string'
PUBLIC	??_R0?AVbad_array_new_length@std@@@8		; std::bad_array_new_length `RTTI Type Descriptor'
PUBLIC	??_R1A@?0A@EA@bad_array_new_length@std@@8	; std::bad_array_new_length::`RTTI Base Class Descriptor at (0,-1,0,64)'
PUBLIC	??_R2bad_array_new_length@std@@8		; std::bad_array_new_length::`RTTI Base Class Array'
PUBLIC	??_R3bad_array_new_length@std@@8		; std::bad_array_new_length::`RTTI Class Hierarchy Descriptor'
PUBLIC	??_R4bad_array_new_length@std@@6B@		; std::bad_array_new_length::`RTTI Complete Object Locator'
PUBLIC	??_7bad_array_new_length@std@@6B@		; std::bad_array_new_length::`vftable'
PUBLIC	_CT??_R0?AVbad_array_new_length@std@@@8??0bad_array_new_length@std@@QEAA@AEBV01@@Z24
PUBLIC	??_R0?AVbad_alloc@std@@@8			; std::bad_alloc `RTTI Type Descriptor'
PUBLIC	??_R1A@?0A@EA@bad_alloc@std@@8			; std::bad_alloc::`RTTI Base Class Descriptor at (0,-1,0,64)'
PUBLIC	??_R2bad_alloc@std@@8				; std::bad_alloc::`RTTI Base Class Array'
PUBLIC	??_R3bad_alloc@std@@8				; std::bad_alloc::`RTTI Class Hierarchy Descriptor'
PUBLIC	??_R4bad_alloc@std@@6B@				; std::bad_alloc::`RTTI Complete Object Locator'
PUBLIC	??_7bad_alloc@std@@6B@				; std::bad_alloc::`vftable'
PUBLIC	_CT??_R0?AVbad_alloc@std@@@8??0bad_alloc@std@@QEAA@AEBV01@@Z24
PUBLIC	??_R0?AVexception@std@@@8			; std::exception `RTTI Type Descriptor'
PUBLIC	??_R1A@?0A@EA@exception@std@@8			; std::exception::`RTTI Base Class Descriptor at (0,-1,0,64)'
PUBLIC	??_R2exception@std@@8				; std::exception::`RTTI Base Class Array'
PUBLIC	??_R3exception@std@@8				; std::exception::`RTTI Class Hierarchy Descriptor'
PUBLIC	??_R4exception@std@@6B@				; std::exception::`RTTI Complete Object Locator'
PUBLIC	??_C@_0BC@EOODALEL@Unknown?5exception@		; `string'
PUBLIC	??_7exception@std@@6B@				; std::exception::`vftable'
PUBLIC	_CT??_R0?AVexception@std@@@8??0exception@std@@QEAA@AEBV01@@Z24
PUBLIC	_CTA3?AVbad_array_new_length@std@@
PUBLIC	_TI3?AVbad_array_new_length@std@@
EXTRN	__imp__resetstkoflw:PROC
EXTRN	__imp___std_exception_destroy:PROC
EXTRN	__imp___std_exception_copy:PROC
;	COMDAT _TI3?AVbad_array_new_length@std@@
xdata$x	SEGMENT
_TI3?AVbad_array_new_length@std@@ DD 00H
	DD	imagerel ??1bad_array_new_length@std@@UEAA@XZ
	DD	00H
	DD	imagerel _CTA3?AVbad_array_new_length@std@@
xdata$x	ENDS
;	COMDAT _CTA3?AVbad_array_new_length@std@@
xdata$x	SEGMENT
_CTA3?AVbad_array_new_length@std@@ DD 03H
	DD	imagerel _CT??_R0?AVbad_array_new_length@std@@@8??0bad_array_new_length@std@@QEAA@AEBV01@@Z24
	DD	imagerel _CT??_R0?AVbad_alloc@std@@@8??0bad_alloc@std@@QEAA@AEBV01@@Z24
	DD	imagerel _CT??_R0?AVexception@std@@@8??0exception@std@@QEAA@AEBV01@@Z24
xdata$x	ENDS
;	COMDAT _CT??_R0?AVexception@std@@@8??0exception@std@@QEAA@AEBV01@@Z24
xdata$x	SEGMENT
_CT??_R0?AVexception@std@@@8??0exception@std@@QEAA@AEBV01@@Z24 DD 00H
	DD	imagerel ??_R0?AVexception@std@@@8
	DD	00H
	DD	0ffffffffH
	ORG $+4
	DD	018H
	DD	imagerel ??0exception@std@@QEAA@AEBV01@@Z
xdata$x	ENDS
;	COMDAT ??_7exception@std@@6B@
CONST	SEGMENT
??_7exception@std@@6B@ DQ FLAT:??_R4exception@std@@6B@	; std::exception::`vftable'
	DQ	FLAT:??_Eexception@std@@UEAAPEAXI@Z
	DQ	FLAT:?what@exception@std@@UEBAPEBDXZ
CONST	ENDS
;	COMDAT ??_C@_0BC@EOODALEL@Unknown?5exception@
CONST	SEGMENT
??_C@_0BC@EOODALEL@Unknown?5exception@ DB 'Unknown exception', 00H ; `string'
CONST	ENDS
;	COMDAT ??_R4exception@std@@6B@
rdata$r	SEGMENT
??_R4exception@std@@6B@ DD 01H				; std::exception::`RTTI Complete Object Locator'
	DD	00H
	DD	00H
	DD	imagerel ??_R0?AVexception@std@@@8
	DD	imagerel ??_R3exception@std@@8
	DD	imagerel ??_R4exception@std@@6B@
rdata$r	ENDS
;	COMDAT ??_R3exception@std@@8
rdata$r	SEGMENT
??_R3exception@std@@8 DD 00H				; std::exception::`RTTI Class Hierarchy Descriptor'
	DD	00H
	DD	01H
	DD	imagerel ??_R2exception@std@@8
rdata$r	ENDS
;	COMDAT ??_R2exception@std@@8
rdata$r	SEGMENT
??_R2exception@std@@8 DD imagerel ??_R1A@?0A@EA@exception@std@@8 ; std::exception::`RTTI Base Class Array'
	ORG $+3
rdata$r	ENDS
;	COMDAT ??_R1A@?0A@EA@exception@std@@8
rdata$r	SEGMENT
??_R1A@?0A@EA@exception@std@@8 DD imagerel ??_R0?AVexception@std@@@8 ; std::exception::`RTTI Base Class Descriptor at (0,-1,0,64)'
	DD	00H
	DD	00H
	DD	0ffffffffH
	DD	00H
	DD	040H
	DD	imagerel ??_R3exception@std@@8
rdata$r	ENDS
;	COMDAT ??_R0?AVexception@std@@@8
data$r	SEGMENT
??_R0?AVexception@std@@@8 DQ FLAT:??_7type_info@@6B@	; std::exception `RTTI Type Descriptor'
	DQ	0000000000000000H
	DB	'.?AVexception@std@@', 00H
data$r	ENDS
;	COMDAT _CT??_R0?AVbad_alloc@std@@@8??0bad_alloc@std@@QEAA@AEBV01@@Z24
xdata$x	SEGMENT
_CT??_R0?AVbad_alloc@std@@@8??0bad_alloc@std@@QEAA@AEBV01@@Z24 DD 010H
	DD	imagerel ??_R0?AVbad_alloc@std@@@8
	DD	00H
	DD	0ffffffffH
	ORG $+4
	DD	018H
	DD	imagerel ??0bad_alloc@std@@QEAA@AEBV01@@Z
xdata$x	ENDS
;	COMDAT ??_7bad_alloc@std@@6B@
CONST	SEGMENT
??_7bad_alloc@std@@6B@ DQ FLAT:??_R4bad_alloc@std@@6B@	; std::bad_alloc::`vftable'
	DQ	FLAT:??_Ebad_alloc@std@@UEAAPEAXI@Z
	DQ	FLAT:?what@exception@std@@UEBAPEBDXZ
CONST	ENDS
;	COMDAT ??_R4bad_alloc@std@@6B@
rdata$r	SEGMENT
??_R4bad_alloc@std@@6B@ DD 01H				; std::bad_alloc::`RTTI Complete Object Locator'
	DD	00H
	DD	00H
	DD	imagerel ??_R0?AVbad_alloc@std@@@8
	DD	imagerel ??_R3bad_alloc@std@@8
	DD	imagerel ??_R4bad_alloc@std@@6B@
rdata$r	ENDS
;	COMDAT ??_R3bad_alloc@std@@8
rdata$r	SEGMENT
??_R3bad_alloc@std@@8 DD 00H				; std::bad_alloc::`RTTI Class Hierarchy Descriptor'
	DD	00H
	DD	02H
	DD	imagerel ??_R2bad_alloc@std@@8
rdata$r	ENDS
;	COMDAT ??_R2bad_alloc@std@@8
rdata$r	SEGMENT
??_R2bad_alloc@std@@8 DD imagerel ??_R1A@?0A@EA@bad_alloc@std@@8 ; std::bad_alloc::`RTTI Base Class Array'
	DD	imagerel ??_R1A@?0A@EA@exception@std@@8
	ORG $+3
rdata$r	ENDS
;	COMDAT ??_R1A@?0A@EA@bad_alloc@std@@8
rdata$r	SEGMENT
??_R1A@?0A@EA@bad_alloc@std@@8 DD imagerel ??_R0?AVbad_alloc@std@@@8 ; std::bad_alloc::`RTTI Base Class Descriptor at (0,-1,0,64)'
	DD	01H
	DD	00H
	DD	0ffffffffH
	DD	00H
	DD	040H
	DD	imagerel ??_R3bad_alloc@std@@8
rdata$r	ENDS
;	COMDAT ??_R0?AVbad_alloc@std@@@8
data$r	SEGMENT
??_R0?AVbad_alloc@std@@@8 DQ FLAT:??_7type_info@@6B@	; std::bad_alloc `RTTI Type Descriptor'
	DQ	0000000000000000H
	DB	'.?AVbad_alloc@std@@', 00H
data$r	ENDS
;	COMDAT _CT??_R0?AVbad_array_new_length@std@@@8??0bad_array_new_length@std@@QEAA@AEBV01@@Z24
xdata$x	SEGMENT
_CT??_R0?AVbad_array_new_length@std@@@8??0bad_array_new_length@std@@QEAA@AEBV01@@Z24 DD 00H
	DD	imagerel ??_R0?AVbad_array_new_length@std@@@8
	DD	00H
	DD	0ffffffffH
	ORG $+4
	DD	018H
	DD	imagerel ??0bad_array_new_length@std@@QEAA@AEBV01@@Z
xdata$x	ENDS
;	COMDAT ??_7bad_array_new_length@std@@6B@
CONST	SEGMENT
??_7bad_array_new_length@std@@6B@ DQ FLAT:??_R4bad_array_new_length@std@@6B@ ; std::bad_array_new_length::`vftable'
	DQ	FLAT:??_Ebad_array_new_length@std@@UEAAPEAXI@Z
	DQ	FLAT:?what@exception@std@@UEBAPEBDXZ
CONST	ENDS
;	COMDAT ??_R4bad_array_new_length@std@@6B@
rdata$r	SEGMENT
??_R4bad_array_new_length@std@@6B@ DD 01H		; std::bad_array_new_length::`RTTI Complete Object Locator'
	DD	00H
	DD	00H
	DD	imagerel ??_R0?AVbad_array_new_length@std@@@8
	DD	imagerel ??_R3bad_array_new_length@std@@8
	DD	imagerel ??_R4bad_array_new_length@std@@6B@
rdata$r	ENDS
;	COMDAT ??_R3bad_array_new_length@std@@8
rdata$r	SEGMENT
??_R3bad_array_new_length@std@@8 DD 00H			; std::bad_array_new_length::`RTTI Class Hierarchy Descriptor'
	DD	00H
	DD	03H
	DD	imagerel ??_R2bad_array_new_length@std@@8
rdata$r	ENDS
;	COMDAT ??_R2bad_array_new_length@std@@8
rdata$r	SEGMENT
??_R2bad_array_new_length@std@@8 DD imagerel ??_R1A@?0A@EA@bad_array_new_length@std@@8 ; std::bad_array_new_length::`RTTI Base Class Array'
	DD	imagerel ??_R1A@?0A@EA@bad_alloc@std@@8
	DD	imagerel ??_R1A@?0A@EA@exception@std@@8
	ORG $+3
rdata$r	ENDS
;	COMDAT ??_R1A@?0A@EA@bad_array_new_length@std@@8
rdata$r	SEGMENT
??_R1A@?0A@EA@bad_array_new_length@std@@8 DD imagerel ??_R0?AVbad_array_new_length@std@@@8 ; std::bad_array_new_length::`RTTI Base Class Descriptor at (0,-1,0,64)'
	DD	02H
	DD	00H
	DD	0ffffffffH
	DD	00H
	DD	040H
	DD	imagerel ??_R3bad_array_new_length@std@@8
rdata$r	ENDS
;	COMDAT ??_R0?AVbad_array_new_length@std@@@8
data$r	SEGMENT
??_R0?AVbad_array_new_length@std@@@8 DQ FLAT:??_7type_info@@6B@ ; std::bad_array_new_length `RTTI Type Descriptor'
	DQ	0000000000000000H
	DB	'.?AVbad_array_new_length@std@@', 00H
data$r	ENDS
;	COMDAT ??_C@_0BF@KINCDENJ@bad?5array?5new?5length@
CONST	SEGMENT
??_C@_0BF@KINCDENJ@bad?5array?5new?5length@ DB 'bad array new length', 00H ; `string'
CONST	ENDS
;	COMDAT ??_C@_0FH@EIBCGEBK@C?3?2Users?2Mahito?2Desktop?2Night?5o@
CONST	SEGMENT
??_C@_0FH@EIBCGEBK@C?3?2Users?2Mahito?2Desktop?2Night?5o@ DB 'C:\Users\Ma'
	DB	'hito\Desktop\Night outing\Night-outing\src\xrCore\string_conc'
	DB	'atenations.cpp', 00H			; `string'
CONST	ENDS
;	COMDAT ??_C@_0CN@JIPJOLMB@xray?3?3core?3?3detail?3?3strconcat_e@
CONST	SEGMENT
??_C@_0CN@JIPJOLMB@xray?3?3core?3?3detail?3?3strconcat_e@ DB 'xray::core:'
	DB	':detail::strconcat_error::process', 00H	; `string'
CONST	ENDS
;	COMDAT ??_C@_0DF@FKMKMAHJ@buffer?5overflow?3?5cannot?5concate@
CONST	SEGMENT
??_C@_0DF@FKMKMAHJ@buffer?5overflow?3?5cannot?5concate@ DB 'buffer overfl'
	DB	'ow: cannot concatenate strings(%d):', 0dH, 0aH, '%s', 00H ; `string'
PUBLIC	?make_string@@YA?AV?$basic_string@DU?$char_traits@D@std@@V?$allocator@D@2@@std@@PEBDZZ ; make_string
PUBLIC	??1?$basic_string@DU?$char_traits@D@std@@V?$allocator@D@2@@std@@QEAA@XZ ; std::basic_string<char,std::char_traits<char>,std::allocator<char> >::~basic_string<char,std::char_traits<char>,std::allocator<char> >
PUBLIC	?_Tidy_deallocate@?$basic_string@DU?$char_traits@D@std@@V?$allocator@D@2@@std@@AEAAXXZ ; std::basic_string<char,std::char_traits<char>,std::allocator<char> >::_Tidy_deallocate
PUBLIC	?deallocate@?$allocator@D@std@@QEAAXQEAD_K@Z	; std::allocator<char>::deallocate
PUBLIC	??$_Deallocate@$0BA@$0A@@std@@YAXPEAX_K@Z	; std::_Deallocate<16,0>
PUBLIC	?_Getal@?$basic_string@DU?$char_traits@D@std@@V?$allocator@D@2@@std@@AEAAAEAV?$allocator@D@2@XZ ; std::basic_string<char,std::char_traits<char>,std::allocator<char> >::_Getal
PUBLIC	?_Get_first@?$_Compressed_pair@V?$allocator@D@std@@V?$_String_val@U?$_Simple_types@D@std@@@2@$00@std@@QEAAAEAV?$allocator@D@2@XZ ; std::_Compressed_pair<std::allocator<char>,std::_String_val<std::_Simple_types<char> >,1>::_Get_first
PUBLIC	??1?$_Compressed_pair@V?$allocator@D@std@@V?$_String_val@U?$_Simple_types@D@std@@@2@$00@std@@QEAA@XZ ; std::_Compressed_pair<std::allocator<char>,std::_String_val<std::_Simple_types<char> >,1>::~_Compressed_pair<std::allocator<char>,std::_String_val<std::_Simple_types<char> >,1>
PUBLIC	??0?$basic_string@DU?$char_traits@D@std@@V?$allocator@D@2@@std@@QEAA@QEBD@Z ; std::basic_string<char,std::char_traits<char>,std::allocator<char> >::basic_string<char,std::char_traits<char>,std::allocator<char> >
PUBLIC	??$_Construct@$00PEBD@?$basic_string@DU?$char_traits@D@std@@V?$allocator@D@2@@std@@AEAAXQEBD_K@Z ; std::basic_string<char,std::char_traits<char>,std::allocator<char> >::_Construct<1,char const *>
PUBLIC	?allocate@?$allocator@D@std@@QEAAPEAD_K@Z	; std::allocator<char>::allocate
PUBLIC	??$_Get_size_of_n@$00@std@@YA_K_K@Z		; std::_Get_size_of_n<1>
PUBLIC	??$_Allocate@$0BA@U_Default_allocate_traits@std@@$0A@@std@@YAPEAX_K@Z ; std::_Allocate<16,std::_Default_allocate_traits,0>
PUBLIC	?_Allocate@_Default_allocate_traits@std@@SAPEAX_K@Z ; std::_Default_allocate_traits::_Allocate
PUBLIC	??$_Allocate_manually_vector_aligned@U_Default_allocate_traits@std@@@std@@YAPEAX_K@Z ; std::_Allocate_manually_vector_aligned<std::_Default_allocate_traits>
PUBLIC	?_Throw_bad_array_new_length@std@@YAXXZ		; std::_Throw_bad_array_new_length
PUBLIC	??0exception@std@@QEAA@AEBV01@@Z		; std::exception::exception
PUBLIC	?what@exception@std@@UEBAPEBDXZ			; std::exception::what
PUBLIC	??_Gexception@std@@UEAAPEAXI@Z			; std::exception::`scalar deleting destructor'
PUBLIC	??0bad_alloc@std@@QEAA@AEBV01@@Z		; std::bad_alloc::bad_alloc
PUBLIC	??_Gbad_alloc@std@@UEAAPEAXI@Z			; std::bad_alloc::`scalar deleting destructor'
PUBLIC	??1exception@std@@UEAA@XZ			; std::exception::~exception
PUBLIC	??0bad_array_new_length@std@@QEAA@AEBV01@@Z	; std::bad_array_new_length::bad_array_new_length
PUBLIC	??_Gbad_array_new_length@std@@UEAAPEAXI@Z	; std::bad_array_new_length::`scalar deleting destructor'
PUBLIC	??1bad_alloc@std@@UEAA@XZ			; std::bad_alloc::~bad_alloc
PUBLIC	??1bad_array_new_length@std@@UEAA@XZ		; std::bad_array_new_length::~bad_array_new_length
PUBLIC	??0bad_array_new_length@std@@QEAA@XZ		; std::bad_array_new_length::bad_array_new_length
PUBLIC	??0bad_alloc@std@@AEAA@QEBD@Z			; std::bad_alloc::bad_alloc
PUBLIC	??0exception@std@@QEAA@QEBDH@Z			; std::exception::exception
PUBLIC	?_Calculate_growth@?$basic_string@DU?$char_traits@D@std@@V?$allocator@D@2@@std@@AEBA_K_K@Z ; std::basic_string<char,std::char_traits<char>,std::allocator<char> >::_Calculate_growth
PUBLIC	?max_size@?$basic_string@DU?$char_traits@D@std@@V?$allocator@D@2@@std@@QEBA_KXZ ; std::basic_string<char,std::char_traits<char>,std::allocator<char> >::max_size
PUBLIC	?_Getal@?$basic_string@DU?$char_traits@D@std@@V?$allocator@D@2@@std@@AEBAAEBV?$allocator@D@2@XZ ; std::basic_string<char,std::char_traits<char>,std::allocator<char> >::_Getal
PUBLIC	?_Get_first@?$_Compressed_pair@V?$allocator@D@std@@V?$_String_val@U?$_Simple_types@D@std@@@2@$00@std@@QEBAAEBV?$allocator@D@2@XZ ; std::_Compressed_pair<std::allocator<char>,std::_String_val<std::_Simple_types<char> >,1>::_Get_first
PUBLIC	?max_size@?$_Default_allocator_traits@V?$allocator@D@std@@@std@@SA_KAEBV?$allocator@D@2@@Z ; std::_Default_allocator_traits<std::allocator<char> >::max_size
PUBLIC	?_Calculate_growth@?$basic_string@DU?$char_traits@D@std@@V?$allocator@D@2@@std@@CA_K_K00@Z ; std::basic_string<char,std::char_traits<char>,std::allocator<char> >::_Calculate_growth
PUBLIC	??$?0$$V@?$_Compressed_pair@V?$allocator@D@std@@V?$_String_val@U?$_Simple_types@D@std@@@2@$00@std@@QEAA@U_Zero_then_variadic_args_t@1@@Z ; std::_Compressed_pair<std::allocator<char>,std::_String_val<std::_Simple_types<char> >,1>::_Compressed_pair<std::allocator<char>,std::_String_val<std::_Simple_types<char> >,1><>
PUBLIC	??0?$allocator@D@std@@QEAA@XZ			; std::allocator<char>::allocator<char>
PUBLIC	?strconcat@@YAPEADHPEADPEBD11@Z			; strconcat
PUBLIC	?strconcat@@YAPEADHPEADPEBD1@Z			; strconcat
EXTRN	??_Eexception@std@@UEAAPEAXI@Z:PROC		; std::exception::`vector deleting destructor'
EXTRN	??_Ebad_alloc@std@@UEAAPEAXI@Z:PROC		; std::bad_alloc::`vector deleting destructor'
EXTRN	??_Ebad_array_new_length@std@@UEAAPEAXI@Z:PROC	; std::bad_array_new_length::`vector deleting destructor'
;	COMDAT pdata
pdata	SEGMENT
$pdata$?make_string@@YA?AV?$basic_string@DU?$char_traits@D@std@@V?$allocator@D@2@@std@@PEBDZZ DD imagerel $LN42
	DD	imagerel $LN42+287
	DD	imagerel $unwind$?make_string@@YA?AV?$basic_string@DU?$char_traits@D@std@@V?$allocator@D@2@@std@@PEBDZZ
pdata	ENDS
;	COMDAT pdata
pdata	SEGMENT
$pdata$??1?$basic_string@DU?$char_traits@D@std@@V?$allocator@D@2@@std@@QEAA@XZ DD imagerel $LN30
	DD	imagerel $LN30+95
	DD	imagerel $unwind$??1?$basic_string@DU?$char_traits@D@std@@V?$allocator@D@2@@std@@QEAA@XZ
pdata	ENDS
;	COMDAT pdata
pdata	SEGMENT
$pdata$?_Tidy_deallocate@?$basic_string@DU?$char_traits@D@std@@V?$allocator@D@2@@std@@AEAAXXZ DD imagerel $LN26
	DD	imagerel $LN26+95
	DD	imagerel $unwind$?_Tidy_deallocate@?$basic_string@DU?$char_traits@D@std@@V?$allocator@D@2@@std@@AEAAXXZ
pdata	ENDS
;	COMDAT pdata
pdata	SEGMENT
$pdata$?deallocate@?$allocator@D@std@@QEAAXQEAD_K@Z DD imagerel $LN20
	DD	imagerel $LN20+62
	DD	imagerel $unwind$?deallocate@?$allocator@D@std@@QEAAXQEAD_K@Z
pdata	ENDS
;	COMDAT pdata
pdata	SEGMENT
$pdata$??$_Deallocate@$0BA@$0A@@std@@YAXPEAX_K@Z DD imagerel $LN17
	DD	imagerel $LN17+53
	DD	imagerel $unwind$??$_Deallocate@$0BA@$0A@@std@@YAXPEAX_K@Z
pdata	ENDS
;	COMDAT pdata
pdata	SEGMENT
$pdata$??0?$basic_string@DU?$char_traits@D@std@@V?$allocator@D@2@@std@@QEAA@QEBD@Z DD imagerel $LN35
	DD	imagerel $LN35+114
	DD	imagerel $unwind$??0?$basic_string@DU?$char_traits@D@std@@V?$allocator@D@2@@std@@QEAA@QEBD@Z
pdata	ENDS
;	COMDAT pdata
pdata	SEGMENT
$pdata$0$??0?$basic_string@DU?$char_traits@D@std@@V?$allocator@D@2@@std@@QEAA@QEBD@Z DD imagerel $LN35+114
	DD	imagerel $LN35+189
	DD	imagerel $chain$0$??0?$basic_string@DU?$char_traits@D@std@@V?$allocator@D@2@@std@@QEAA@QEBD@Z
pdata	ENDS
;	COMDAT pdata
pdata	SEGMENT
$pdata$1$??0?$basic_string@DU?$char_traits@D@std@@V?$allocator@D@2@@std@@QEAA@QEBD@Z DD imagerel $LN35+189
	DD	imagerel $LN35+220
	DD	imagerel $chain$1$??0?$basic_string@DU?$char_traits@D@std@@V?$allocator@D@2@@std@@QEAA@QEBD@Z
pdata	ENDS
;	COMDAT pdata
pdata	SEGMENT
$pdata$??$_Construct@$00PEBD@?$basic_string@DU?$char_traits@D@std@@V?$allocator@D@2@@std@@AEAAXQEBD_K@Z DD imagerel $LN22
	DD	imagerel $LN22+81
	DD	imagerel $unwind$??$_Construct@$00PEBD@?$basic_string@DU?$char_traits@D@std@@V?$allocator@D@2@@std@@AEAAXQEBD_K@Z
pdata	ENDS
;	COMDAT pdata
pdata	SEGMENT
$pdata$0$??$_Construct@$00PEBD@?$basic_string@DU?$char_traits@D@std@@V?$allocator@D@2@@std@@AEAAXQEBD_K@Z DD imagerel $LN22+81
	DD	imagerel $LN22+156
	DD	imagerel $chain$0$??$_Construct@$00PEBD@?$basic_string@DU?$char_traits@D@std@@V?$allocator@D@2@@std@@AEAAXQEBD_K@Z
pdata	ENDS
;	COMDAT pdata
pdata	SEGMENT
$pdata$1$??$_Construct@$00PEBD@?$basic_string@DU?$char_traits@D@std@@V?$allocator@D@2@@std@@AEAAXQEBD_K@Z DD imagerel $LN22+156
	DD	imagerel $LN22+184
	DD	imagerel $chain$1$??$_Construct@$00PEBD@?$basic_string@DU?$char_traits@D@std@@V?$allocator@D@2@@std@@AEAAXQEBD_K@Z
pdata	ENDS
;	COMDAT pdata
pdata	SEGMENT
$pdata$??$_Allocate@$0BA@U_Default_allocate_traits@std@@$0A@@std@@YAPEAX_K@Z DD imagerel $LN87
	DD	imagerel $LN87+194
	DD	imagerel $unwind$??$_Allocate@$0BA@U_Default_allocate_traits@std@@$0A@@std@@YAPEAX_K@Z
pdata	ENDS
;	COMDAT pdata
pdata	SEGMENT
$pdata$?_Allocate@_Default_allocate_traits@std@@SAPEAX_K@Z DD imagerel $LN36
	DD	imagerel $LN36+77
	DD	imagerel $unwind$?_Allocate@_Default_allocate_traits@std@@SAPEAX_K@Z
pdata	ENDS
;	COMDAT pdata
pdata	SEGMENT
$pdata$??$_Allocate_manually_vector_aligned@U_Default_allocate_traits@std@@@std@@YAPEAX_K@Z DD imagerel $LN51
	DD	imagerel $LN51+16
	DD	imagerel $unwind$??$_Allocate_manually_vector_aligned@U_Default_allocate_traits@std@@@std@@YAPEAX_K@Z
pdata	ENDS
;	COMDAT pdata
pdata	SEGMENT
$pdata$1$??$_Allocate_manually_vector_aligned@U_Default_allocate_traits@std@@@std@@YAPEAX_K@Z DD imagerel $LN51+16
	DD	imagerel $LN51+103
	DD	imagerel $chain$1$??$_Allocate_manually_vector_aligned@U_Default_allocate_traits@std@@@std@@YAPEAX_K@Z
pdata	ENDS
;	COMDAT pdata
pdata	SEGMENT
$pdata$3$??$_Allocate_manually_vector_aligned@U_Default_allocate_traits@std@@@std@@YAPEAX_K@Z DD imagerel $LN51+103
	DD	imagerel $LN51+110
	DD	imagerel $chain$3$??$_Allocate_manually_vector_aligned@U_Default_allocate_traits@std@@@std@@YAPEAX_K@Z
pdata	ENDS
;	COMDAT pdata
pdata	SEGMENT
$pdata$4$??$_Allocate_manually_vector_aligned@U_Default_allocate_traits@std@@@std@@YAPEAX_K@Z DD imagerel $LN51+110
	DD	imagerel $LN51+116
	DD	imagerel $chain$4$??$_Allocate_manually_vector_aligned@U_Default_allocate_traits@std@@@std@@YAPEAX_K@Z
pdata	ENDS
;	COMDAT pdata
pdata	SEGMENT
$pdata$?_Throw_bad_array_new_length@std@@YAXXZ DD imagerel $LN4
	DD	imagerel $LN4+32
	DD	imagerel $unwind$?_Throw_bad_array_new_length@std@@YAXXZ
pdata	ENDS
;	COMDAT pdata
pdata	SEGMENT
$pdata$??0exception@std@@QEAA@AEBV01@@Z DD imagerel $LN4
	DD	imagerel $LN4+53
	DD	imagerel $unwind$??0exception@std@@QEAA@AEBV01@@Z
pdata	ENDS
;	COMDAT pdata
pdata	SEGMENT
$pdata$??_Gexception@std@@UEAAPEAXI@Z DD imagerel $LN8
	DD	imagerel $LN8+67
	DD	imagerel $unwind$??_Gexception@std@@UEAAPEAXI@Z
pdata	ENDS
;	COMDAT pdata
pdata	SEGMENT
$pdata$??0bad_alloc@std@@QEAA@AEBV01@@Z DD imagerel $LN7
	DD	imagerel $LN7+63
	DD	imagerel $unwind$??0bad_alloc@std@@QEAA@AEBV01@@Z
pdata	ENDS
;	COMDAT pdata
pdata	SEGMENT
$pdata$??_Gbad_alloc@std@@UEAAPEAXI@Z DD imagerel $LN11
	DD	imagerel $LN11+67
	DD	imagerel $unwind$??_Gbad_alloc@std@@UEAAPEAXI@Z
pdata	ENDS
;	COMDAT pdata
pdata	SEGMENT
$pdata$??0bad_array_new_length@std@@QEAA@AEBV01@@Z DD imagerel $LN9
	DD	imagerel $LN9+63
	DD	imagerel $unwind$??0bad_array_new_length@std@@QEAA@AEBV01@@Z
pdata	ENDS
;	COMDAT pdata
pdata	SEGMENT
$pdata$??_Gbad_array_new_length@std@@UEAAPEAXI@Z DD imagerel $LN13
	DD	imagerel $LN13+67
	DD	imagerel $unwind$??_Gbad_array_new_length@std@@UEAAPEAXI@Z
;	COMDAT xdata
xdata	SEGMENT
$unwind$??_Gbad_array_new_length@std@@UEAAPEAXI@Z DD 040a01H
	DD	06340aH
	DD	07006320aH
xdata	ENDS
;	COMDAT xdata
xdata	SEGMENT
$unwind$??0bad_array_new_length@std@@QEAA@AEBV01@@Z DD 020601H
	DD	030023206H
xdata	ENDS
;	COMDAT xdata
xdata	SEGMENT
$unwind$??_Gbad_alloc@std@@UEAAPEAXI@Z DD 040a01H
	DD	06340aH
	DD	07006320aH
xdata	ENDS
;	COMDAT xdata
xdata	SEGMENT
$unwind$??0bad_alloc@std@@QEAA@AEBV01@@Z DD 020601H
	DD	030023206H
xdata	ENDS
;	COMDAT xdata
xdata	SEGMENT
$unwind$??_Gexception@std@@UEAAPEAXI@Z DD 040a01H
	DD	06340aH
	DD	07006320aH
xdata	ENDS
;	COMDAT xdata
xdata	SEGMENT
$unwind$??0exception@std@@QEAA@AEBV01@@Z DD 020601H
	DD	030023206H
xdata	ENDS
;	COMDAT xdata
xdata	SEGMENT
$unwind$?_Throw_bad_array_new_length@std@@YAXXZ DD 010401H
	DD	08204H
xdata	ENDS
;	COMDAT xdata
xdata	SEGMENT
$chain$4$??$_Allocate_manually_vector_aligned@U_Default_allocate_traits@std@@@std@@YAPEAX_K@Z DD 021H
	DD	imagerel $LN51
	DD	imagerel $LN51+16
	DD	imagerel $unwind$??$_Allocate_manually_vector_aligned@U_Default_allocate_traits@std@@@std@@YAPEAX_K@Z
xdata	ENDS
;	COMDAT xdata
xdata	SEGMENT
$chain$3$??$_Allocate_manually_vector_aligned@U_Default_allocate_traits@std@@@std@@YAPEAX_K@Z DD 040021H
	DD	047400H
	DD	063400H
	DD	imagerel $LN51
	DD	imagerel $LN51+16
	DD	imagerel $unwind$??$_Allocate_manually_vector_aligned@U_Default_allocate_traits@std@@@std@@YAPEAX_K@Z
xdata	ENDS
;	COMDAT xdata
xdata	SEGMENT
$chain$1$??$_Allocate_manually_vector_aligned@U_Default_allocate_traits@std@@@std@@YAPEAX_K@Z DD 040a21H
	DD	04740aH
	DD	063405H
	DD	imagerel $LN51
	DD	imagerel $LN51+16
	DD	imagerel $unwind$??$_Allocate_manually_vector_aligned@U_Default_allocate_traits@std@@@std@@YAPEAX_K@Z
xdata	ENDS
;	COMDAT xdata
xdata	SEGMENT
$unwind$??$_Allocate_manually_vector_aligned@U_Default_allocate_traits@std@@@std@@YAPEAX_K@Z DD 010401H
	DD	04204H
xdata	ENDS
;	COMDAT xdata
xdata	SEGMENT
$unwind$?_Allocate@_Default_allocate_traits@std@@SAPEAX_K@Z DD 040a01H
	DD	06340aH
	DD	07006320aH
xdata	ENDS
;	COMDAT xdata
xdata	SEGMENT
$unwind$??$_Allocate@$0BA@U_Default_allocate_traits@std@@$0A@@std@@YAPEAX_K@Z DD 040a01H
	DD	06340aH
	DD	07006320aH
xdata	ENDS
;	COMDAT xdata
xdata	SEGMENT
$chain$1$??$_Construct@$00PEBD@?$basic_string@DU?$char_traits@D@std@@V?$allocator@D@2@@std@@AEAAXQEBD_K@Z DD 021H
	DD	imagerel $LN22
	DD	imagerel $LN22+81
	DD	imagerel $unwind$??$_Construct@$00PEBD@?$basic_string@DU?$char_traits@D@std@@V?$allocator@D@2@@std@@AEAAXQEBD_K@Z
xdata	ENDS
;	COMDAT xdata
xdata	SEGMENT
$chain$0$??$_Construct@$00PEBD@?$basic_string@DU?$char_traits@D@std@@V?$allocator@D@2@@std@@AEAAXQEBD_K@Z DD 020521H
	DD	063405H
	DD	imagerel $LN22
	DD	imagerel $LN22+81
	DD	imagerel $unwind$??$_Construct@$00PEBD@?$basic_string@DU?$char_traits@D@std@@V?$allocator@D@2@@std@@AEAAXQEBD_K@Z
xdata	ENDS
;	COMDAT xdata
xdata	SEGMENT
$unwind$??$_Construct@$00PEBD@?$basic_string@DU?$char_traits@D@std@@V?$allocator@D@2@@std@@AEAAXQEBD_K@Z DD 081501H
	DD	097415H
	DD	086415H
	DD	075415H
	DD	0e0113215H
xdata	ENDS
;	COMDAT xdata
xdata	SEGMENT
$chain$1$??0?$basic_string@DU?$char_traits@D@std@@V?$allocator@D@2@@std@@QEAA@QEBD@Z DD 021H
	DD	imagerel $LN35
	DD	imagerel $LN35+114
	DD	imagerel $unwind$??0?$basic_string@DU?$char_traits@D@std@@V?$allocator@D@2@@std@@QEAA@QEBD@Z
xdata	ENDS
;	COMDAT xdata
xdata	SEGMENT
$chain$0$??0?$basic_string@DU?$char_traits@D@std@@V?$allocator@D@2@@std@@QEAA@QEBD@Z DD 020521H
	DD	067405H
	DD	imagerel $LN35
	DD	imagerel $LN35+114
	DD	imagerel $unwind$??0?$basic_string@DU?$char_traits@D@std@@V?$allocator@D@2@@std@@QEAA@QEBD@Z
xdata	ENDS
;	COMDAT xdata
xdata	SEGMENT
$unwind$??0?$basic_string@DU?$char_traits@D@std@@V?$allocator@D@2@@std@@QEAA@QEBD@Z DD 081501H
	DD	096415H
	DD	085415H
	DD	073415H
	DD	0e0113215H
xdata	ENDS
;	COMDAT xdata
xdata	SEGMENT
$unwind$??$_Deallocate@$0BA@$0A@@std@@YAXPEAX_K@Z DD 010401H
	DD	04204H
xdata	ENDS
;	COMDAT xdata
xdata	SEGMENT
$unwind$?deallocate@?$allocator@D@std@@QEAAXQEAD_K@Z DD 010401H
	DD	04204H
xdata	ENDS
;	COMDAT xdata
xdata	SEGMENT
$unwind$?_Tidy_deallocate@?$basic_string@DU?$char_traits@D@std@@V?$allocator@D@2@@std@@AEAAXXZ DD 020601H
	DD	030023206H
xdata	ENDS
;	COMDAT xdata
xdata	SEGMENT
$unwind$??1?$basic_string@DU?$char_traits@D@std@@V?$allocator@D@2@@std@@QEAA@XZ DD 020601H
	DD	030023206H
xdata	ENDS
;	COMDAT xdata
xdata	SEGMENT
$unwind$?make_string@@YA?AV?$basic_string@DU?$char_traits@D@std@@V?$allocator@D@2@@std@@PEBDZZ DD 062001H
	DD	02070120H
	DD	060127013H
	DD	030105011H
; Function compile flags: /Ogtpy
; File C:\Users\Mahito\Desktop\Night outing\Night-outing\src\xrCore\string_concatenations.cpp
_TEXT	SEGMENT
dest_sz$ = 8
dest$ = 16
S1$ = 24
S2$ = 32
?strconcat@@YAPEADHPEADPEBD1@Z PROC			; strconcat

; 123  : 	VERIFY			(dest);
; 124  : 	VERIFY			(S1);
; 125  : 	VERIFY			(S2);
; 126  : 
; 127  : 	LPCSTR strings[]= { S1, S2 };
; 128  : 
; 129  : 	LPSTR			i = dest;
; 130  : 	LPCSTR			e = dest + dest_sz;

	movsxd	r10, ecx
	mov	rax, rdx
	add	r10, rdx

; 131  : 	LPCSTR			j;
; 132  : 	for (j = S1; *j && i < e; ++i, ++j)

	cmp	BYTE PTR [r8], 0
	je	SHORT $LN30@strconcat

; 123  : 	VERIFY			(dest);
; 124  : 	VERIFY			(S1);
; 125  : 	VERIFY			(S2);
; 126  : 
; 127  : 	LPCSTR strings[]= { S1, S2 };
; 128  : 
; 129  : 	LPSTR			i = dest;
; 130  : 	LPCSTR			e = dest + dest_sz;

	sub	r8, rdx
$LL13@strconcat:

; 131  : 	LPCSTR			j;
; 132  : 	for (j = S1; *j && i < e; ++i, ++j)

	cmp	rax, r10
	jae	SHORT $LN30@strconcat

; 133  : 		*i			= *j;

	movzx	ecx, BYTE PTR [r8+rax]
	mov	BYTE PTR [rax], cl
	inc	rax
	cmp	BYTE PTR [r8+rax], 0
	jne	SHORT $LL13@strconcat
$LN30@strconcat:

; 134  : 
; 135  : 	strconcat_error::process	( i, e, 0, strings );
; 136  : 
; 137  : 	for (j = S2; *j && i < e; ++i, ++j)

	cmp	rax, r10
	lea	rcx, QWORD PTR [rax-1]
	cmovne	rcx, rax
	cmp	BYTE PTR [r9], 0
	je	SHORT $LN21@strconcat
	npad	7
$LL16@strconcat:
	cmp	rcx, r10
	jae	SHORT $LN21@strconcat

; 138  : 		*i			= *j;

	movzx	eax, BYTE PTR [r9]
	inc	r9
	mov	BYTE PTR [rcx], al
	inc	rcx
	cmp	BYTE PTR [r9], 0
	jne	SHORT $LL16@strconcat
$LN21@strconcat:

; 139  : 
; 140  : 	strconcat_error::process	( i, e, 1, strings );
; 141  : 
; 142  : 	*i				= 0;

	cmp	rcx, r10
	lea	rax, QWORD PTR [rcx-1]
	cmovne	rax, rcx
	mov	BYTE PTR [rax], 0

; 143  : 
; 144  : 	return			(dest);

	mov	rax, rdx

; 145  : }

	ret	0
?strconcat@@YAPEADHPEADPEBD1@Z ENDP			; strconcat
_TEXT	ENDS
; Function compile flags: /Ogtpy
; File C:\Users\Mahito\Desktop\Night outing\Night-outing\src\xrCore\string_concatenations.cpp
_TEXT	SEGMENT
dest_sz$ = 8
dest$ = 16
S1$ = 24
S2$dead$ = 32
S3$ = 40
?strconcat@@YAPEADHPEADPEBD11@Z PROC			; strconcat

; 150  : 	VERIFY			(dest);
; 151  : 	VERIFY			(S1);
; 152  : 	VERIFY			(S2);
; 153  : 	VERIFY			(S3);
; 154  : 
; 155  : 	LPCSTR strings[]= { S1, S2, S3 };
; 156  : 
; 157  : 	LPSTR			i = dest;
; 158  : 	LPCSTR			e = dest + dest_sz;

	movsxd	r9, ecx
	mov	r10, rdx
	add	r9, rdx
	mov	rax, rdx

; 159  : 	LPCSTR			j;
; 160  : 	for (j = S1; *j && i < e; ++i, ++j)

	cmp	BYTE PTR [r8], 0
	je	SHORT $LN45@strconcat

; 150  : 	VERIFY			(dest);
; 151  : 	VERIFY			(S1);
; 152  : 	VERIFY			(S2);
; 153  : 	VERIFY			(S3);
; 154  : 
; 155  : 	LPCSTR strings[]= { S1, S2, S3 };
; 156  : 
; 157  : 	LPSTR			i = dest;
; 158  : 	LPCSTR			e = dest + dest_sz;

	sub	r8, rdx
$LL16@strconcat:

; 159  : 	LPCSTR			j;
; 160  : 	for (j = S1; *j && i < e; ++i, ++j)

	cmp	rax, r9
	jae	SHORT $LN45@strconcat

; 161  : 		*i			= *j;

	movzx	ecx, BYTE PTR [r8+rax]
	mov	BYTE PTR [rax], cl
	inc	rax
	cmp	BYTE PTR [r8+rax], 0
	jne	SHORT $LL16@strconcat
$LN45@strconcat:

; 162  : 
; 163  : 	strconcat_error::process	( i, e, 0, strings );
; 164  : 
; 165  : 	for (j = S2; *j && i < e; ++i, ++j)

	cmp	rax, r9
	lea	rdx, QWORD PTR [rax-1]
	lea	rcx, OFFSET FLAT:??_C@_01CLKCMJKC@?5@
	cmovne	rdx, rax
	npad	3
$LL19@strconcat:
	cmp	rdx, r9
	jae	SHORT $LN36@strconcat

; 166  : 		*i			= *j;

	movzx	eax, BYTE PTR [rcx]
	inc	rcx
	mov	BYTE PTR [rdx], al
	inc	rdx
	cmp	BYTE PTR [rcx], 0
	jne	SHORT $LL19@strconcat
$LN36@strconcat:

; 167  : 
; 168  : 	strconcat_error::process	( i, e, 1, strings );
; 169  : 
; 170  : 	for (j = S3; *j && i < e; ++i, ++j)

	cmp	rdx, r9
	lea	rcx, QWORD PTR [rdx-1]
	cmovne	rcx, rdx
	mov	rdx, QWORD PTR S3$[rsp]
	cmp	BYTE PTR [rdx], 0
	je	SHORT $LN27@strconcat
	npad	6
$LL22@strconcat:
	cmp	rcx, r9
	jae	SHORT $LN27@strconcat

; 171  : 		*i			= *j;

	movzx	eax, BYTE PTR [rdx]
	inc	rdx
	mov	BYTE PTR [rcx], al
	inc	rcx
	cmp	BYTE PTR [rdx], 0
	jne	SHORT $LL22@strconcat
$LN27@strconcat:

; 172  : 
; 173  : 	strconcat_error::process	( i, e, 2, strings );
; 174  : 
; 175  : 	*i				= 0;

	cmp	rcx, r9
	lea	rax, QWORD PTR [rcx-1]
	cmovne	rax, rcx
	mov	BYTE PTR [rax], 0

; 176  : 
; 177  : 	return			(dest);

	mov	rax, r10

; 178  : }

	ret	0
?strconcat@@YAPEADHPEADPEBD11@Z ENDP			; strconcat
_TEXT	ENDS
; Function compile flags: /Ogtpy
; File C:\Users\Mahito\Desktop\Night outing\Night-outing\src\xrCore\string_concatenations.cpp
_TEXT	SEGMENT
i$ = 8
e$ = 16
index$dead$ = 24
strings$dead$ = 32
??$process@$01@strconcat_error@detail@core@xray@@YAXAEAPEADPEBDIAEAY01PEBD@Z PROC ; xray::core::detail::strconcat_error::process<2>

; 46   : 	VERIFY		(i <= e);
; 47   : 	VERIFY		(index < count);
; 48   : 
; 49   : 	if (i != e)

	mov	rax, QWORD PTR [rcx]
	cmp	rax, rdx
	jne	SHORT $LN1@process

; 50   : 		return;
; 51   : 
; 52   : #ifndef MASTER_GOLD
; 53   : 	process		(index, count, strings);
; 54   : #else // #ifndef MASTER_GOLD
; 55   : 	--i;

	dec	rax
	mov	QWORD PTR [rcx], rax
$LN1@process:

; 56   : #endif // #ifndef MASTER_GOLD
; 57   : }

	ret	0
??$process@$01@strconcat_error@detail@core@xray@@YAXAEAPEADPEBDIAEAY01PEBD@Z ENDP ; xray::core::detail::strconcat_error::process<2>
_TEXT	ENDS
; Function compile flags: /Ogtpy
; File C:\Users\Mahito\Desktop\Night outing\Night-outing\src\xrCore\string_concatenations.cpp
_TEXT	SEGMENT
i$ = 8
e$ = 16
index$dead$ = 24
strings$dead$ = 32
??$process@$02@strconcat_error@detail@core@xray@@YAXAEAPEADPEBDIAEAY02PEBD@Z PROC ; xray::core::detail::strconcat_error::process<3>

; 46   : 	VERIFY		(i <= e);
; 47   : 	VERIFY		(index < count);
; 48   : 
; 49   : 	if (i != e)

	mov	rax, QWORD PTR [rcx]
	cmp	rax, rdx
	jne	SHORT $LN1@process

; 50   : 		return;
; 51   : 
; 52   : #ifndef MASTER_GOLD
; 53   : 	process		(index, count, strings);
; 54   : #else // #ifndef MASTER_GOLD
; 55   : 	--i;

	dec	rax
	mov	QWORD PTR [rcx], rax
$LN1@process:

; 56   : #endif // #ifndef MASTER_GOLD
; 57   : }

	ret	0
??$process@$02@strconcat_error@detail@core@xray@@YAXAEAPEADPEBDIAEAY02PEBD@Z ENDP ; xray::core::detail::strconcat_error::process<3>
_TEXT	ENDS
; Function compile flags: /Ogtpy
; File C:\Program Files\Microsoft Visual Studio\2022\Community\VC\Tools\MSVC\14.35.32215\include\xmemory
;	COMDAT ??0?$allocator@D@std@@QEAA@XZ
_TEXT	SEGMENT
this$ = 8
??0?$allocator@D@std@@QEAA@XZ PROC			; std::allocator<char>::allocator<char>, COMDAT

; 818  :     constexpr allocator() noexcept {}

	mov	rax, rcx
	ret	0
??0?$allocator@D@std@@QEAA@XZ ENDP			; std::allocator<char>::allocator<char>
_TEXT	ENDS
; Function compile flags: /Ogtpy
; File C:\Program Files\Microsoft Visual Studio\2022\Community\VC\Tools\MSVC\14.35.32215\include\xmemory
; File C:\Program Files\Microsoft Visual Studio\2022\Community\VC\Tools\MSVC\14.35.32215\include\xstring
; File C:\Program Files\Microsoft Visual Studio\2022\Community\VC\Tools\MSVC\14.35.32215\include\xmemory
;	COMDAT ??$?0$$V@?$_Compressed_pair@V?$allocator@D@std@@V?$_String_val@U?$_Simple_types@D@std@@@2@$00@std@@QEAA@U_Zero_then_variadic_args_t@1@@Z
_TEXT	SEGMENT
this$ = 8
__formal$dead$ = 16
??$?0$$V@?$_Compressed_pair@V?$allocator@D@std@@V?$_String_val@U?$_Simple_types@D@std@@@2@$00@std@@QEAA@U_Zero_then_variadic_args_t@1@@Z PROC ; std::_Compressed_pair<std::allocator<char>,std::_String_val<std::_Simple_types<char> >,1>::_Compressed_pair<std::allocator<char>,std::_String_val<std::_Simple_types<char> >,1><>, COMDAT
; File C:\Program Files\Microsoft Visual Studio\2022\Community\VC\Tools\MSVC\14.35.32215\include\xstring

; 2348 :     size_type _Mysize = 0; // current length of string

	xor	eax, eax
	vpxor	xmm0, xmm0, xmm0

; 2340 :         _CONSTEXPR20 _Bxty() noexcept : _Buf() {} // user-provided, for fancy pointers

	vmovups	XMMWORD PTR [rcx], xmm0

; 2348 :     size_type _Mysize = 0; // current length of string

	mov	QWORD PTR [rcx+16], rax

; 2349 :     size_type _Myres  = 0; // current storage reserved for string

	mov	QWORD PTR [rcx+24], rax
; File C:\Program Files\Microsoft Visual Studio\2022\Community\VC\Tools\MSVC\14.35.32215\include\xmemory

; 1375 :         : _Ty1(), _Myval2(_STD forward<_Other2>(_Val2)...) {}

	mov	rax, rcx
	ret	0
??$?0$$V@?$_Compressed_pair@V?$allocator@D@std@@V?$_String_val@U?$_Simple_types@D@std@@@2@$00@std@@QEAA@U_Zero_then_variadic_args_t@1@@Z ENDP ; std::_Compressed_pair<std::allocator<char>,std::_String_val<std::_Simple_types<char> >,1>::_Compressed_pair<std::allocator<char>,std::_String_val<std::_Simple_types<char> >,1><>
_TEXT	ENDS
; Function compile flags: /Ogtpy
; File C:\Program Files\Microsoft Visual Studio\2022\Community\VC\Tools\MSVC\14.35.32215\include\xstring
; File C:\Program Files\Microsoft Visual Studio\2022\Community\VC\Tools\MSVC\14.35.32215\include\utility
; File C:\Program Files\Microsoft Visual Studio\2022\Community\VC\Tools\MSVC\14.35.32215\include\xstring
;	COMDAT ?_Calculate_growth@?$basic_string@DU?$char_traits@D@std@@V?$allocator@D@2@@std@@CA_K_K00@Z
_TEXT	SEGMENT
_Requested$ = 8
_Old$ = 16
_Max$ = 24
?_Calculate_growth@?$basic_string@DU?$char_traits@D@std@@V?$allocator@D@2@@std@@CA_K_K00@Z PROC ; std::basic_string<char,std::char_traits<char>,std::allocator<char> >::_Calculate_growth, COMDAT

; 4886 :         const size_type _Masked = _Requested | _ALLOC_MASK;

	or	rcx, 15
	cmp	rcx, r8

; 4887 :         if (_Masked > _Max) { // the mask overflows, settle for max_size()

	ja	SHORT $LN7@Calculate_

; 4888 :             return _Max;
; 4889 :         }
; 4890 : 
; 4891 :         if (_Old > _Max - _Old / 2) { // similarly, geometric overflows

	mov	r9, rdx
	mov	rax, r8
	shr	r9, 1
	sub	rax, r9
	cmp	rdx, rax
	ja	SHORT $LN7@Calculate_

; 4895 :         return (_STD max)(_Masked, _Old + _Old / 2);

	lea	rax, QWORD PTR [r9+rdx]
; File C:\Program Files\Microsoft Visual Studio\2022\Community\VC\Tools\MSVC\14.35.32215\include\utility

; 43   :     return _Left < _Right ? _Right : _Left;

	cmp	rcx, rax
	cmovb	rcx, rax
; File C:\Program Files\Microsoft Visual Studio\2022\Community\VC\Tools\MSVC\14.35.32215\include\xstring

; 4895 :         return (_STD max)(_Masked, _Old + _Old / 2);

	mov	rax, rcx

; 4896 :     }

	ret	0
$LN7@Calculate_:

; 4892 :             return _Max;

	mov	rax, r8

; 4896 :     }

	ret	0
?_Calculate_growth@?$basic_string@DU?$char_traits@D@std@@V?$allocator@D@2@@std@@CA_K_K00@Z ENDP ; std::basic_string<char,std::char_traits<char>,std::allocator<char> >::_Calculate_growth
_TEXT	ENDS
; Function compile flags: /Ogtpy
; File C:\Program Files\Microsoft Visual Studio\2022\Community\VC\Tools\MSVC\14.35.32215\include\xmemory
;	COMDAT ?max_size@?$_Default_allocator_traits@V?$allocator@D@std@@@std@@SA_KAEBV?$allocator@D@2@@Z
_TEXT	SEGMENT
__formal$dead$ = 8
?max_size@?$_Default_allocator_traits@V?$allocator@D@std@@@std@@SA_KAEBV?$allocator@D@2@@Z PROC ; std::_Default_allocator_traits<std::allocator<char> >::max_size, COMDAT

; 694  :         return static_cast<size_t>(-1) / sizeof(value_type);

	mov	rax, -1

; 695  :     }

	ret	0
?max_size@?$_Default_allocator_traits@V?$allocator@D@std@@@std@@SA_KAEBV?$allocator@D@2@@Z ENDP ; std::_Default_allocator_traits<std::allocator<char> >::max_size
_TEXT	ENDS
; Function compile flags: /Ogtpy
; File C:\Program Files\Microsoft Visual Studio\2022\Community\VC\Tools\MSVC\14.35.32215\include\xmemory
;	COMDAT ?_Get_first@?$_Compressed_pair@V?$allocator@D@std@@V?$_String_val@U?$_Simple_types@D@std@@@2@$00@std@@QEBAAEBV?$allocator@D@2@XZ
_TEXT	SEGMENT
this$ = 8
?_Get_first@?$_Compressed_pair@V?$allocator@D@std@@V?$_String_val@U?$_Simple_types@D@std@@@2@$00@std@@QEBAAEBV?$allocator@D@2@XZ PROC ; std::_Compressed_pair<std::allocator<char>,std::_String_val<std::_Simple_types<char> >,1>::_Get_first, COMDAT

; 1387 :         return *this;

	mov	rax, rcx

; 1388 :     }

	ret	0
?_Get_first@?$_Compressed_pair@V?$allocator@D@std@@V?$_String_val@U?$_Simple_types@D@std@@@2@$00@std@@QEBAAEBV?$allocator@D@2@XZ ENDP ; std::_Compressed_pair<std::allocator<char>,std::_String_val<std::_Simple_types<char> >,1>::_Get_first
_TEXT	ENDS
; Function compile flags: /Ogtpy
; File C:\Program Files\Microsoft Visual Studio\2022\Community\VC\Tools\MSVC\14.35.32215\include\xstring
;	COMDAT ?_Getal@?$basic_string@DU?$char_traits@D@std@@V?$allocator@D@2@@std@@AEBAAEBV?$allocator@D@2@XZ
_TEXT	SEGMENT
this$ = 8
?_Getal@?$basic_string@DU?$char_traits@D@std@@V?$allocator@D@2@@std@@AEBAAEBV?$allocator@D@2@XZ PROC ; std::basic_string<char,std::char_traits<char>,std::allocator<char> >::_Getal, COMDAT

; 5043 :         return _Mypair._Get_first();

	mov	rax, rcx

; 5044 :     }

	ret	0
?_Getal@?$basic_string@DU?$char_traits@D@std@@V?$allocator@D@2@@std@@AEBAAEBV?$allocator@D@2@XZ ENDP ; std::basic_string<char,std::char_traits<char>,std::allocator<char> >::_Getal
_TEXT	ENDS
; Function compile flags: /Ogtpy
; File C:\Program Files\Microsoft Visual Studio\2022\Community\VC\Tools\MSVC\14.35.32215\include\xstring
;	COMDAT ?max_size@?$basic_string@DU?$char_traits@D@std@@V?$allocator@D@2@@std@@QEBA_KXZ
_TEXT	SEGMENT
this$dead$ = 8
?max_size@?$basic_string@DU?$char_traits@D@std@@V?$allocator@D@2@@std@@QEBA_KXZ PROC ; std::basic_string<char,std::char_traits<char>,std::allocator<char> >::max_size, COMDAT

; 4280 :         const size_type _Alloc_max   = _Alty_traits::max_size(_Getal());
; 4281 :         const size_type _Storage_max = // can always store small string
; 4282 :             (_STD max)(_Alloc_max, static_cast<size_type>(_BUF_SIZE));
; 4283 :         return (_STD min)(static_cast<size_type>((numeric_limits<difference_type>::max)()),

	mov	rax, 9223372036854775807		; 7fffffffffffffffH

; 4284 :             _Storage_max - 1 // -1 is for null terminator and/or npos
; 4285 :         );
; 4286 :     }

	ret	0
?max_size@?$basic_string@DU?$char_traits@D@std@@V?$allocator@D@2@@std@@QEBA_KXZ ENDP ; std::basic_string<char,std::char_traits<char>,std::allocator<char> >::max_size
_TEXT	ENDS
; Function compile flags: /Ogtpy
; File C:\Program Files\Microsoft Visual Studio\2022\Community\VC\Tools\MSVC\14.35.32215\include\xstring
; File C:\Program Files\Microsoft Visual Studio\2022\Community\VC\Tools\MSVC\14.35.32215\include\utility
; File C:\Program Files\Microsoft Visual Studio\2022\Community\VC\Tools\MSVC\14.35.32215\include\xstring
;	COMDAT ?_Calculate_growth@?$basic_string@DU?$char_traits@D@std@@V?$allocator@D@2@@std@@AEBA_K_K@Z
_TEXT	SEGMENT
this$ = 8
_Requested$ = 16
?_Calculate_growth@?$basic_string@DU?$char_traits@D@std@@V?$allocator@D@2@@std@@AEBA_K_K@Z PROC ; std::basic_string<char,std::char_traits<char>,std::allocator<char> >::_Calculate_growth, COMDAT

; 4899 :         return _Calculate_growth(_Requested, _Mypair._Myval2._Myres, max_size());

	mov	rax, QWORD PTR [rcx+24]

; 4886 :         const size_type _Masked = _Requested | _ALLOC_MASK;

	or	rdx, 15
	mov	r9, 9223372036854775807			; 7fffffffffffffffH
	cmp	rdx, r9

; 4887 :         if (_Masked > _Max) { // the mask overflows, settle for max_size()

	jbe	SHORT $LN4@Calculate_
$LN9@Calculate_:

; 4900 :     }

	mov	rax, r9
	ret	0
$LN4@Calculate_:

; 4891 :         if (_Old > _Max - _Old / 2) { // similarly, geometric overflows

	mov	r8, rax
	mov	rcx, r9
	shr	r8, 1
	sub	rcx, r8
	cmp	rax, rcx
	ja	SHORT $LN9@Calculate_

; 4892 :             return _Max;
; 4893 :         }
; 4894 : 
; 4895 :         return (_STD max)(_Masked, _Old + _Old / 2);

	lea	rcx, QWORD PTR [r8+rax]
; File C:\Program Files\Microsoft Visual Studio\2022\Community\VC\Tools\MSVC\14.35.32215\include\utility

; 43   :     return _Left < _Right ? _Right : _Left;

	cmp	rdx, rcx
	cmovb	rdx, rcx
; File C:\Program Files\Microsoft Visual Studio\2022\Community\VC\Tools\MSVC\14.35.32215\include\xstring

; 4899 :         return _Calculate_growth(_Requested, _Mypair._Myval2._Myres, max_size());

	mov	rax, rdx

; 4900 :     }

	ret	0
?_Calculate_growth@?$basic_string@DU?$char_traits@D@std@@V?$allocator@D@2@@std@@AEBA_K_K@Z ENDP ; std::basic_string<char,std::char_traits<char>,std::allocator<char> >::_Calculate_growth
_TEXT	ENDS
; Function compile flags: /Ogtpy
; File C:\Program Files\Microsoft Visual Studio\2022\Community\VC\Tools\MSVC\14.35.32215\include\vcruntime_exception.h
;	COMDAT ??0exception@std@@QEAA@QEBDH@Z
_TEXT	SEGMENT
this$ = 8
_Message$dead$ = 16
__formal$dead$ = 24
??0exception@std@@QEAA@QEBDH@Z PROC			; std::exception::exception, COMDAT

; 66   :     {

	lea	rax, OFFSET FLAT:??_7exception@std@@6B@
	mov	QWORD PTR [rcx], rax

; 67   :         _Data._What = _Message;

	lea	rax, OFFSET FLAT:??_C@_0BF@KINCDENJ@bad?5array?5new?5length@
	mov	QWORD PTR [rcx+16], 0
	mov	QWORD PTR [rcx+8], rax

; 68   :     }

	mov	rax, rcx
	ret	0
??0exception@std@@QEAA@QEBDH@Z ENDP			; std::exception::exception
_TEXT	ENDS
; Function compile flags: /Ogtpy
; File C:\Program Files\Microsoft Visual Studio\2022\Community\VC\Tools\MSVC\14.35.32215\include\vcruntime_exception.h
;	COMDAT ??0bad_alloc@std@@AEAA@QEBD@Z
_TEXT	SEGMENT
this$ = 8
_Message$dead$ = 16
??0bad_alloc@std@@AEAA@QEBD@Z PROC			; std::bad_alloc::bad_alloc, COMDAT

; 67   :         _Data._What = _Message;

	lea	rax, OFFSET FLAT:??_C@_0BF@KINCDENJ@bad?5array?5new?5length@
	mov	QWORD PTR [rcx+16], 0
	mov	QWORD PTR [rcx+8], rax

; 130  :     {

	lea	rax, OFFSET FLAT:??_7bad_alloc@std@@6B@
	mov	QWORD PTR [rcx], rax

; 131  :     }

	mov	rax, rcx
	ret	0
??0bad_alloc@std@@AEAA@QEBD@Z ENDP			; std::bad_alloc::bad_alloc
_TEXT	ENDS
; Function compile flags: /Ogtpy
; File C:\Program Files\Microsoft Visual Studio\2022\Community\VC\Tools\MSVC\14.35.32215\include\vcruntime_exception.h
;	COMDAT ??0bad_array_new_length@std@@QEAA@XZ
_TEXT	SEGMENT
this$ = 8
??0bad_array_new_length@std@@QEAA@XZ PROC		; std::bad_array_new_length::bad_array_new_length, COMDAT

; 67   :         _Data._What = _Message;

	lea	rax, OFFSET FLAT:??_C@_0BF@KINCDENJ@bad?5array?5new?5length@
	mov	QWORD PTR [rcx+16], 0
	mov	QWORD PTR [rcx+8], rax

; 141  :     {

	lea	rax, OFFSET FLAT:??_7bad_array_new_length@std@@6B@
	mov	QWORD PTR [rcx], rax

; 142  :     }

	mov	rax, rcx
	ret	0
??0bad_array_new_length@std@@QEAA@XZ ENDP		; std::bad_array_new_length::bad_array_new_length
_TEXT	ENDS
; Function compile flags: /Ogtpy
; File C:\Program Files\Microsoft Visual Studio\2022\Community\VC\Tools\MSVC\14.35.32215\include\vcruntime_exception.h
;	COMDAT ??1bad_array_new_length@std@@UEAA@XZ
_TEXT	SEGMENT
this$ = 8
??1bad_array_new_length@std@@UEAA@XZ PROC		; std::bad_array_new_length::~bad_array_new_length, COMDAT

; 89   :     {

	lea	rax, OFFSET FLAT:??_7exception@std@@6B@
	mov	QWORD PTR [rcx], rax

; 90   :         __std_exception_destroy(&_Data);

	add	rcx, 8
	rex_jmp	QWORD PTR __imp___std_exception_destroy
??1bad_array_new_length@std@@UEAA@XZ ENDP		; std::bad_array_new_length::~bad_array_new_length
_TEXT	ENDS
; Function compile flags: /Ogtpy
; File C:\Program Files\Microsoft Visual Studio\2022\Community\VC\Tools\MSVC\14.35.32215\include\vcruntime_exception.h
;	COMDAT ??1bad_alloc@std@@UEAA@XZ
_TEXT	SEGMENT
this$ = 8
??1bad_alloc@std@@UEAA@XZ PROC				; std::bad_alloc::~bad_alloc, COMDAT

; 89   :     {

	lea	rax, OFFSET FLAT:??_7exception@std@@6B@
	mov	QWORD PTR [rcx], rax

; 90   :         __std_exception_destroy(&_Data);

	add	rcx, 8
	rex_jmp	QWORD PTR __imp___std_exception_destroy
??1bad_alloc@std@@UEAA@XZ ENDP				; std::bad_alloc::~bad_alloc
_TEXT	ENDS
; Function compile flags: /Ogtpy
; File C:\Program Files\Microsoft Visual Studio\2022\Community\VC\Tools\MSVC\14.35.32215\include\vcruntime_exception.h
;	COMDAT ??_Gbad_array_new_length@std@@UEAAPEAXI@Z
_TEXT	SEGMENT
this$ = 48
__flags$ = 56
??_Gbad_array_new_length@std@@UEAAPEAXI@Z PROC		; std::bad_array_new_length::`scalar deleting destructor', COMDAT
$LN13:
	mov	QWORD PTR [rsp+8], rbx
	push	rdi
	sub	rsp, 32					; 00000020H

; 89   :     {

	lea	rax, OFFSET FLAT:??_7exception@std@@6B@
	mov	rdi, rcx
	mov	QWORD PTR [rcx], rax
	mov	ebx, edx

; 90   :         __std_exception_destroy(&_Data);

	add	rcx, 8
	call	QWORD PTR __imp___std_exception_destroy
	test	bl, 1
	je	SHORT $LN10@scalar
	mov	edx, 24
	mov	rcx, rdi
	call	??3@YAXPEAX_K@Z				; operator delete
$LN10@scalar:
	mov	rbx, QWORD PTR [rsp+48]
	mov	rax, rdi
	add	rsp, 32					; 00000020H
	pop	rdi
	ret	0
??_Gbad_array_new_length@std@@UEAAPEAXI@Z ENDP		; std::bad_array_new_length::`scalar deleting destructor'
_TEXT	ENDS
; Function compile flags: /Ogtpy
; File C:\Program Files\Microsoft Visual Studio\2022\Community\VC\Tools\MSVC\14.35.32215\include\vcruntime_exception.h
;	COMDAT ??0bad_array_new_length@std@@QEAA@AEBV01@@Z
_TEXT	SEGMENT
this$ = 48
__that$ = 56
??0bad_array_new_length@std@@QEAA@AEBV01@@Z PROC	; std::bad_array_new_length::bad_array_new_length, COMDAT
$LN9:
	push	rbx
	sub	rsp, 32					; 00000020H
	mov	rbx, rcx
	mov	rax, rdx

; 72   :     {

	lea	rcx, OFFSET FLAT:??_7exception@std@@6B@
	vpxor	xmm0, xmm0, xmm0
	mov	QWORD PTR [rbx], rcx
	lea	rdx, QWORD PTR [rbx+8]

; 73   :         __std_exception_copy(&_Other._Data, &_Data);

	lea	rcx, QWORD PTR [rax+8]
	vmovups	XMMWORD PTR [rdx], xmm0
	call	QWORD PTR __imp___std_exception_copy
	lea	rax, OFFSET FLAT:??_7bad_array_new_length@std@@6B@
	mov	QWORD PTR [rbx], rax
	mov	rax, rbx
	add	rsp, 32					; 00000020H
	pop	rbx
	ret	0
??0bad_array_new_length@std@@QEAA@AEBV01@@Z ENDP	; std::bad_array_new_length::bad_array_new_length
_TEXT	ENDS
; Function compile flags: /Ogtpy
; File C:\Program Files\Microsoft Visual Studio\2022\Community\VC\Tools\MSVC\14.35.32215\include\vcruntime_exception.h
;	COMDAT ??1exception@std@@UEAA@XZ
_TEXT	SEGMENT
this$ = 8
??1exception@std@@UEAA@XZ PROC				; std::exception::~exception, COMDAT

; 89   :     {

	lea	rax, OFFSET FLAT:??_7exception@std@@6B@
	mov	QWORD PTR [rcx], rax

; 90   :         __std_exception_destroy(&_Data);

	add	rcx, 8
	rex_jmp	QWORD PTR __imp___std_exception_destroy
??1exception@std@@UEAA@XZ ENDP				; std::exception::~exception
_TEXT	ENDS
; Function compile flags: /Ogtpy
; File C:\Program Files\Microsoft Visual Studio\2022\Community\VC\Tools\MSVC\14.35.32215\include\vcruntime_exception.h
;	COMDAT ??_Gbad_alloc@std@@UEAAPEAXI@Z
_TEXT	SEGMENT
this$ = 48
__flags$ = 56
??_Gbad_alloc@std@@UEAAPEAXI@Z PROC			; std::bad_alloc::`scalar deleting destructor', COMDAT
$LN11:
	mov	QWORD PTR [rsp+8], rbx
	push	rdi
	sub	rsp, 32					; 00000020H

; 89   :     {

	lea	rax, OFFSET FLAT:??_7exception@std@@6B@
	mov	rdi, rcx
	mov	QWORD PTR [rcx], rax
	mov	ebx, edx

; 90   :         __std_exception_destroy(&_Data);

	add	rcx, 8
	call	QWORD PTR __imp___std_exception_destroy
	test	bl, 1
	je	SHORT $LN8@scalar
	mov	edx, 24
	mov	rcx, rdi
	call	??3@YAXPEAX_K@Z				; operator delete
$LN8@scalar:
	mov	rbx, QWORD PTR [rsp+48]
	mov	rax, rdi
	add	rsp, 32					; 00000020H
	pop	rdi
	ret	0
??_Gbad_alloc@std@@UEAAPEAXI@Z ENDP			; std::bad_alloc::`scalar deleting destructor'
_TEXT	ENDS
; Function compile flags: /Ogtpy
; File C:\Program Files\Microsoft Visual Studio\2022\Community\VC\Tools\MSVC\14.35.32215\include\vcruntime_exception.h
;	COMDAT ??0bad_alloc@std@@QEAA@AEBV01@@Z
_TEXT	SEGMENT
this$ = 48
__that$ = 56
??0bad_alloc@std@@QEAA@AEBV01@@Z PROC			; std::bad_alloc::bad_alloc, COMDAT
$LN7:
	push	rbx
	sub	rsp, 32					; 00000020H
	mov	rbx, rcx
	mov	rax, rdx

; 72   :     {

	lea	rcx, OFFSET FLAT:??_7exception@std@@6B@
	vpxor	xmm0, xmm0, xmm0
	mov	QWORD PTR [rbx], rcx
	lea	rdx, QWORD PTR [rbx+8]

; 73   :         __std_exception_copy(&_Other._Data, &_Data);

	lea	rcx, QWORD PTR [rax+8]
	vmovups	XMMWORD PTR [rdx], xmm0
	call	QWORD PTR __imp___std_exception_copy
	lea	rax, OFFSET FLAT:??_7bad_alloc@std@@6B@
	mov	QWORD PTR [rbx], rax
	mov	rax, rbx
	add	rsp, 32					; 00000020H
	pop	rbx
	ret	0
??0bad_alloc@std@@QEAA@AEBV01@@Z ENDP			; std::bad_alloc::bad_alloc
_TEXT	ENDS
; Function compile flags: /Ogtpy
; File C:\Program Files\Microsoft Visual Studio\2022\Community\VC\Tools\MSVC\14.35.32215\include\vcruntime_exception.h
;	COMDAT ??_Gexception@std@@UEAAPEAXI@Z
_TEXT	SEGMENT
this$ = 48
__flags$ = 56
??_Gexception@std@@UEAAPEAXI@Z PROC			; std::exception::`scalar deleting destructor', COMDAT
$LN8:
	mov	QWORD PTR [rsp+8], rbx
	push	rdi
	sub	rsp, 32					; 00000020H

; 89   :     {

	lea	rax, OFFSET FLAT:??_7exception@std@@6B@
	mov	rdi, rcx
	mov	QWORD PTR [rcx], rax
	mov	ebx, edx

; 90   :         __std_exception_destroy(&_Data);

	add	rcx, 8
	call	QWORD PTR __imp___std_exception_destroy
	test	bl, 1
	je	SHORT $LN6@scalar
	mov	edx, 24
	mov	rcx, rdi
	call	??3@YAXPEAX_K@Z				; operator delete
$LN6@scalar:
	mov	rbx, QWORD PTR [rsp+48]
	mov	rax, rdi
	add	rsp, 32					; 00000020H
	pop	rdi
	ret	0
??_Gexception@std@@UEAAPEAXI@Z ENDP			; std::exception::`scalar deleting destructor'
_TEXT	ENDS
; Function compile flags: /Ogtpy
; File C:\Program Files\Microsoft Visual Studio\2022\Community\VC\Tools\MSVC\14.35.32215\include\vcruntime_exception.h
;	COMDAT ?what@exception@std@@UEBAPEBDXZ
_TEXT	SEGMENT
this$ = 8
?what@exception@std@@UEBAPEBDXZ PROC			; std::exception::what, COMDAT

; 95   :         return _Data._What ? _Data._What : "Unknown exception";

	mov	rdx, QWORD PTR [rcx+8]
	lea	rax, OFFSET FLAT:??_C@_0BC@EOODALEL@Unknown?5exception@
	test	rdx, rdx
	cmovne	rax, rdx

; 96   :     }

	ret	0
?what@exception@std@@UEBAPEBDXZ ENDP			; std::exception::what
_TEXT	ENDS
; Function compile flags: /Ogtpy
; File C:\Program Files\Microsoft Visual Studio\2022\Community\VC\Tools\MSVC\14.35.32215\include\vcruntime_exception.h
;	COMDAT ??0exception@std@@QEAA@AEBV01@@Z
_TEXT	SEGMENT
this$ = 48
_Other$ = 56
??0exception@std@@QEAA@AEBV01@@Z PROC			; std::exception::exception, COMDAT

; 72   :     {

$LN4:
	push	rbx
	sub	rsp, 32					; 00000020H
	mov	rbx, rcx
	mov	rax, rdx
	lea	rcx, OFFSET FLAT:??_7exception@std@@6B@
	vpxor	xmm0, xmm0, xmm0
	mov	QWORD PTR [rbx], rcx
	lea	rdx, QWORD PTR [rbx+8]

; 73   :         __std_exception_copy(&_Other._Data, &_Data);

	lea	rcx, QWORD PTR [rax+8]
	vmovups	XMMWORD PTR [rdx], xmm0
	call	QWORD PTR __imp___std_exception_copy

; 74   :     }

	mov	rax, rbx
	add	rsp, 32					; 00000020H
	pop	rbx
	ret	0
??0exception@std@@QEAA@AEBV01@@Z ENDP			; std::exception::exception
_TEXT	ENDS
; Function compile flags: /Ogtpy
; File C:\Program Files\Microsoft Visual Studio\2022\Community\VC\Tools\MSVC\14.35.32215\include\exception
;	COMDAT ?_Throw_bad_array_new_length@std@@YAXXZ
_TEXT	SEGMENT
$T1 = 32
?_Throw_bad_array_new_length@std@@YAXXZ PROC		; std::_Throw_bad_array_new_length, COMDAT

; 328  : [[noreturn]] inline void _Throw_bad_array_new_length() {

$LN4:
	sub	rsp, 72					; 00000048H

; 329  :     _THROW(bad_array_new_length{});

	lea	rcx, QWORD PTR $T1[rsp]
	call	??0bad_array_new_length@std@@QEAA@XZ	; std::bad_array_new_length::bad_array_new_length
	lea	rdx, OFFSET FLAT:_TI3?AVbad_array_new_length@std@@
	lea	rcx, QWORD PTR $T1[rsp]
	call	_CxxThrowException
	int	3
$LN3@Throw_bad_:
?_Throw_bad_array_new_length@std@@YAXXZ ENDP		; std::_Throw_bad_array_new_length
_TEXT	ENDS
; Function compile flags: /Ogtpy
; File C:\Program Files\Microsoft Visual Studio\2022\Community\VC\Tools\MSVC\14.35.32215\include\xmemory
; File C:\Users\Mahito\Desktop\Night outing\Night-outing\src\xrCore\xrMemory.h
; File C:\Users\Mahito\Desktop\Night outing\Night-outing\src\xrCore\xrMemory_subst_msvc.cpp
; File C:\Users\Mahito\Desktop\Night outing\Night-outing\src\xrCore\xrMemory.h
; File C:\Users\Mahito\Desktop\Night outing\Night-outing\src\xrCore\xrMemory_subst_msvc.cpp
; File C:\Program Files\Microsoft Visual Studio\2022\Community\VC\Tools\MSVC\14.35.32215\include\xmemory
;	COMDAT ??$_Allocate_manually_vector_aligned@U_Default_allocate_traits@std@@@std@@YAPEAX_K@Z
_TEXT	SEGMENT
_Bytes$ = 48
??$_Allocate_manually_vector_aligned@U_Default_allocate_traits@std@@@std@@YAPEAX_K@Z PROC ; std::_Allocate_manually_vector_aligned<std::_Default_allocate_traits>, COMDAT

; 127  : __declspec(allocator) void* _Allocate_manually_vector_aligned(const size_t _Bytes) {

$LN51:
	sub	rsp, 40					; 00000028H

; 128  :     // allocate _Bytes manually aligned to at least _Big_allocation_alignment
; 129  :     const size_t _Block_size = _Non_user_size + _Bytes;

	lea	rax, QWORD PTR [rcx+39]

; 130  :     if (_Block_size <= _Bytes) {

	cmp	rax, rcx
	jbe	SHORT $LN50@Allocate_m
; File C:\Users\Mahito\Desktop\Night outing\Night-outing\src\xrCore\xrMemory.h

; 82   : IC void* operator new(size_t size) { return Memory.mem_alloc(size ? size : 1); }

	test	rax, rax
	mov	QWORD PTR [rsp+48], rbx
	mov	QWORD PTR [rsp+32], rdi
; File C:\Users\Mahito\Desktop\Night outing\Night-outing\src\xrCore\xrMemory_subst_msvc.cpp

; 45   : 		void* result = _aligned_malloc(size, PURE_MEMORY_ALIGNMENT);

	mov	edx, 16
; File C:\Users\Mahito\Desktop\Night outing\Night-outing\src\xrCore\xrMemory.h

; 82   : IC void* operator new(size_t size) { return Memory.mem_alloc(size ? size : 1); }

	mov	edi, 1
	cmovne	rdi, rax
; File C:\Users\Mahito\Desktop\Night outing\Night-outing\src\xrCore\xrMemory_subst_msvc.cpp

; 39   : 	stat_calls++;

	inc	DWORD PTR ?Memory@@3VxrMemory@@A

; 45   : 		void* result = _aligned_malloc(size, PURE_MEMORY_ALIGNMENT);

	mov	rcx, rdi
	call	QWORD PTR __imp__aligned_malloc
	mov	rbx, rax

; 46   : #ifdef PURE_MEMORY_FILL_ZERO
; 47   : 		if (result)

	test	rax, rax
	je	SHORT $LN7@Allocate_m

; 48   : 			memset(result, 0, size);

	mov	r8, rdi
	xor	edx, edx
	mov	rcx, rax
	call	memset
	mov	rdi, QWORD PTR [rsp+32]
; File C:\Program Files\Microsoft Visual Studio\2022\Community\VC\Tools\MSVC\14.35.32215\include\xmemory

; 136  :     void* const _Ptr = reinterpret_cast<void*>((_Ptr_container + _Non_user_size) & ~(_Big_allocation_alignment - 1));

	lea	rax, QWORD PTR [rbx+39]
	and	rax, -32				; ffffffffffffffe0H

; 137  :     static_cast<uintptr_t*>(_Ptr)[-1] = _Ptr_container;

	mov	QWORD PTR [rax-8], rbx
	mov	rbx, QWORD PTR [rsp+48]

; 138  : 
; 139  : #ifdef _DEBUG
; 140  :     static_cast<uintptr_t*>(_Ptr)[-2] = _Big_allocation_sentinel;
; 141  : #endif // _DEBUG
; 142  :     return _Ptr;
; 143  : }

	add	rsp, 40					; 00000028H
	ret	0
$LN7@Allocate_m:

; 132  :     }
; 133  : 
; 134  :     const uintptr_t _Ptr_container = reinterpret_cast<uintptr_t>(_Traits::_Allocate(_Block_size));
; 135  :     _STL_VERIFY(_Ptr_container != 0, "invalid argument"); // validate even in release since we're doing p[-1]

	call	QWORD PTR __imp__invalid_parameter_noinfo_noreturn
	int	3
$LN50@Allocate_m:

; 131  :         _Throw_bad_array_new_length(); // add overflow

	call	?_Throw_bad_array_new_length@std@@YAXXZ	; std::_Throw_bad_array_new_length
	int	3
$LN48@Allocate_m:
??$_Allocate_manually_vector_aligned@U_Default_allocate_traits@std@@@std@@YAPEAX_K@Z ENDP ; std::_Allocate_manually_vector_aligned<std::_Default_allocate_traits>
_TEXT	ENDS
; Function compile flags: /Ogtpy
; File C:\Program Files\Microsoft Visual Studio\2022\Community\VC\Tools\MSVC\14.35.32215\include\xmemory
; File C:\Users\Mahito\Desktop\Night outing\Night-outing\src\xrCore\xrMemory.h
; File C:\Users\Mahito\Desktop\Night outing\Night-outing\src\xrCore\xrMemory_subst_msvc.cpp
; File C:\Users\Mahito\Desktop\Night outing\Night-outing\src\xrCore\xrMemory.h
; File C:\Users\Mahito\Desktop\Night outing\Night-outing\src\xrCore\xrMemory_subst_msvc.cpp
; File C:\Program Files\Microsoft Visual Studio\2022\Community\VC\Tools\MSVC\14.35.32215\include\xmemory
;	COMDAT ?_Allocate@_Default_allocate_traits@std@@SAPEAX_K@Z
_TEXT	SEGMENT
_Bytes$ = 48
?_Allocate@_Default_allocate_traits@std@@SAPEAX_K@Z PROC ; std::_Default_allocate_traits::_Allocate, COMDAT

; 76   :         void* _Allocate(const size_t _Bytes) {

$LN36:
	mov	QWORD PTR [rsp+8], rbx
	push	rdi
	sub	rsp, 32					; 00000020H
; File C:\Users\Mahito\Desktop\Night outing\Night-outing\src\xrCore\xrMemory.h

; 82   : IC void* operator new(size_t size) { return Memory.mem_alloc(size ? size : 1); }

	test	rcx, rcx
	mov	edi, 1
; File C:\Users\Mahito\Desktop\Night outing\Night-outing\src\xrCore\xrMemory_subst_msvc.cpp

; 45   : 		void* result = _aligned_malloc(size, PURE_MEMORY_ALIGNMENT);

	mov	edx, 16
; File C:\Users\Mahito\Desktop\Night outing\Night-outing\src\xrCore\xrMemory.h

; 82   : IC void* operator new(size_t size) { return Memory.mem_alloc(size ? size : 1); }

	cmovne	rdi, rcx
; File C:\Users\Mahito\Desktop\Night outing\Night-outing\src\xrCore\xrMemory_subst_msvc.cpp

; 39   : 	stat_calls++;

	inc	DWORD PTR ?Memory@@3VxrMemory@@A

; 45   : 		void* result = _aligned_malloc(size, PURE_MEMORY_ALIGNMENT);

	mov	rcx, rdi
	call	QWORD PTR __imp__aligned_malloc
	mov	rbx, rax

; 46   : #ifdef PURE_MEMORY_FILL_ZERO
; 47   : 		if (result)

	test	rax, rax
	je	SHORT $LN7@Allocate

; 48   : 			memset(result, 0, size);

	mov	r8, rdi
	xor	edx, edx
	mov	rcx, rax
	call	memset
; File C:\Program Files\Microsoft Visual Studio\2022\Community\VC\Tools\MSVC\14.35.32215\include\xmemory

; 77   :         return ::operator new(_Bytes);

	mov	rax, rbx
$LN7@Allocate:

; 78   :     }

	mov	rbx, QWORD PTR [rsp+48]
	add	rsp, 32					; 00000020H
	pop	rdi
	ret	0
?_Allocate@_Default_allocate_traits@std@@SAPEAX_K@Z ENDP ; std::_Default_allocate_traits::_Allocate
_TEXT	ENDS
; Function compile flags: /Ogtpy
; File C:\Program Files\Microsoft Visual Studio\2022\Community\VC\Tools\MSVC\14.35.32215\include\xmemory
; File C:\Users\Mahito\Desktop\Night outing\Night-outing\src\xrCore\xrMemory.h
; File C:\Users\Mahito\Desktop\Night outing\Night-outing\src\xrCore\xrMemory_subst_msvc.cpp
; File C:\Users\Mahito\Desktop\Night outing\Night-outing\src\xrCore\xrMemory.h
; File C:\Users\Mahito\Desktop\Night outing\Night-outing\src\xrCore\xrMemory_subst_msvc.cpp
; File C:\Program Files\Microsoft Visual Studio\2022\Community\VC\Tools\MSVC\14.35.32215\include\xmemory
; File C:\Users\Mahito\Desktop\Night outing\Night-outing\src\xrCore\xrMemory_subst_msvc.cpp
; File C:\Program Files\Microsoft Visual Studio\2022\Community\VC\Tools\MSVC\14.35.32215\include\xmemory
;	COMDAT ??$_Allocate@$0BA@U_Default_allocate_traits@std@@$0A@@std@@YAPEAX_K@Z
_TEXT	SEGMENT
_Bytes$ = 48
??$_Allocate@$0BA@U_Default_allocate_traits@std@@$0A@@std@@YAPEAX_K@Z PROC ; std::_Allocate<16,std::_Default_allocate_traits,0>, COMDAT

; 221  : __declspec(allocator) _CONSTEXPR20 void* _Allocate(const size_t _Bytes) {

$LN87:
	mov	QWORD PTR [rsp+8], rbx
	push	rdi
	sub	rsp, 32					; 00000020H
	mov	rbx, rcx

; 222  :     // allocate _Bytes when !_HAS_ALIGNED_NEW || _Align <= __STDCPP_DEFAULT_NEW_ALIGNMENT__
; 223  : #if defined(_M_IX86) || defined(_M_X64)
; 224  : #if _HAS_CXX20 // TRANSITION, GH-1532
; 225  :     if (!_STD is_constant_evaluated())
; 226  : #endif // _HAS_CXX20
; 227  :     {
; 228  :         if (_Bytes >= _Big_allocation_threshold) { // boost the alignment of big allocations to help autovectorization

	cmp	rcx, 4096				; 00001000H
	jb	SHORT $LN2@Allocate

; 129  :     const size_t _Block_size = _Non_user_size + _Bytes;

	lea	rax, QWORD PTR [rcx+39]

; 130  :     if (_Block_size <= _Bytes) {

	cmp	rax, rcx
	jbe	$LN86@Allocate
; File C:\Users\Mahito\Desktop\Night outing\Night-outing\src\xrCore\xrMemory.h

; 82   : IC void* operator new(size_t size) { return Memory.mem_alloc(size ? size : 1); }

	test	rax, rax
	mov	edi, 1
; File C:\Users\Mahito\Desktop\Night outing\Night-outing\src\xrCore\xrMemory_subst_msvc.cpp

; 45   : 		void* result = _aligned_malloc(size, PURE_MEMORY_ALIGNMENT);

	mov	edx, 16
; File C:\Users\Mahito\Desktop\Night outing\Night-outing\src\xrCore\xrMemory.h

; 82   : IC void* operator new(size_t size) { return Memory.mem_alloc(size ? size : 1); }

	cmovne	rdi, rax
; File C:\Users\Mahito\Desktop\Night outing\Night-outing\src\xrCore\xrMemory_subst_msvc.cpp

; 39   : 	stat_calls++;

	inc	DWORD PTR ?Memory@@3VxrMemory@@A

; 45   : 		void* result = _aligned_malloc(size, PURE_MEMORY_ALIGNMENT);

	mov	rcx, rdi
	call	QWORD PTR __imp__aligned_malloc
	mov	rbx, rax

; 46   : #ifdef PURE_MEMORY_FILL_ZERO
; 47   : 		if (result)

	test	rax, rax
	je	SHORT $LN11@Allocate

; 48   : 			memset(result, 0, size);

	mov	r8, rdi
	xor	edx, edx
	mov	rcx, rax
	call	memset
; File C:\Program Files\Microsoft Visual Studio\2022\Community\VC\Tools\MSVC\14.35.32215\include\xmemory

; 136  :     void* const _Ptr = reinterpret_cast<void*>((_Ptr_container + _Non_user_size) & ~(_Big_allocation_alignment - 1));

	lea	rax, QWORD PTR [rbx+39]
	and	rax, -32				; ffffffffffffffe0H

; 137  :     static_cast<uintptr_t*>(_Ptr)[-1] = _Ptr_container;

	mov	QWORD PTR [rax-8], rbx

; 236  :     }
; 237  : 
; 238  :     return nullptr;
; 239  : }

	mov	rbx, QWORD PTR [rsp+48]
	add	rsp, 32					; 00000020H
	pop	rdi
	ret	0
$LN11@Allocate:

; 135  :     _STL_VERIFY(_Ptr_container != 0, "invalid argument"); // validate even in release since we're doing p[-1]

	call	QWORD PTR __imp__invalid_parameter_noinfo_noreturn
	int	3
$LN2@Allocate:

; 229  :             return _Allocate_manually_vector_aligned<_Traits>(_Bytes);
; 230  :         }
; 231  :     }
; 232  : #endif // defined(_M_IX86) || defined(_M_X64)
; 233  : 
; 234  :     if (_Bytes != 0) {

	test	rbx, rbx
	je	SHORT $LN3@Allocate
; File C:\Users\Mahito\Desktop\Night outing\Night-outing\src\xrCore\xrMemory_subst_msvc.cpp

; 39   : 	stat_calls++;

	inc	DWORD PTR ?Memory@@3VxrMemory@@A

; 45   : 		void* result = _aligned_malloc(size, PURE_MEMORY_ALIGNMENT);

	mov	edx, 16
	call	QWORD PTR __imp__aligned_malloc
	mov	rdi, rax

; 46   : #ifdef PURE_MEMORY_FILL_ZERO
; 47   : 		if (result)

	test	rax, rax
	je	SHORT $LN56@Allocate

; 48   : 			memset(result, 0, size);

	mov	r8, rbx
	xor	edx, edx
	mov	rcx, rax
	call	memset
$LN56@Allocate:
; File C:\Program Files\Microsoft Visual Studio\2022\Community\VC\Tools\MSVC\14.35.32215\include\xmemory

; 235  :         return _Traits::_Allocate(_Bytes);

	mov	rax, rdi

; 236  :     }
; 237  : 
; 238  :     return nullptr;
; 239  : }

	mov	rbx, QWORD PTR [rsp+48]
	add	rsp, 32					; 00000020H
	pop	rdi
	ret	0
$LN3@Allocate:
	mov	rbx, QWORD PTR [rsp+48]
	xor	eax, eax
	add	rsp, 32					; 00000020H
	pop	rdi
	ret	0
$LN86@Allocate:

; 131  :         _Throw_bad_array_new_length(); // add overflow

	call	?_Throw_bad_array_new_length@std@@YAXXZ	; std::_Throw_bad_array_new_length
	int	3
$LN84@Allocate:
??$_Allocate@$0BA@U_Default_allocate_traits@std@@$0A@@std@@YAPEAX_K@Z ENDP ; std::_Allocate<16,std::_Default_allocate_traits,0>
_TEXT	ENDS
; Function compile flags: /Ogtpy
; File C:\Program Files\Microsoft Visual Studio\2022\Community\VC\Tools\MSVC\14.35.32215\include\xmemory
;	COMDAT ??$_Get_size_of_n@$00@std@@YA_K_K@Z
_TEXT	SEGMENT
_Count$ = 8
??$_Get_size_of_n@$00@std@@YA_K_K@Z PROC		; std::_Get_size_of_n<1>, COMDAT

; 56   :     constexpr bool _Overflow_is_possible = _Ty_size > 1;
; 57   : 
; 58   :     if constexpr (_Overflow_is_possible) {
; 59   :         constexpr size_t _Max_possible = static_cast<size_t>(-1) / _Ty_size;
; 60   :         if (_Count > _Max_possible) {
; 61   :             _Throw_bad_array_new_length(); // multiply overflow
; 62   :         }
; 63   :     }
; 64   : 
; 65   :     return _Count * _Ty_size;

	mov	rax, rcx

; 66   : }

	ret	0
??$_Get_size_of_n@$00@std@@YA_K_K@Z ENDP		; std::_Get_size_of_n<1>
_TEXT	ENDS
; Function compile flags: /Ogtpy
; File C:\Program Files\Microsoft Visual Studio\2022\Community\VC\Tools\MSVC\14.35.32215\include\xmemory
;	COMDAT ?allocate@?$allocator@D@std@@QEAAPEAD_K@Z
_TEXT	SEGMENT
this$dead$ = 8
_Count$ = 16
?allocate@?$allocator@D@std@@QEAAPEAD_K@Z PROC		; std::allocator<char>::allocate, COMDAT

; 833  :         static_assert(sizeof(value_type) > 0, "value_type must be complete before calling allocate.");
; 834  :         return static_cast<_Ty*>(_Allocate<_New_alignof<_Ty>>(_Get_size_of_n<sizeof(_Ty)>(_Count)));

	mov	rcx, rdx
	jmp	??$_Allocate@$0BA@U_Default_allocate_traits@std@@$0A@@std@@YAPEAX_K@Z ; std::_Allocate<16,std::_Default_allocate_traits,0>
?allocate@?$allocator@D@std@@QEAAPEAD_K@Z ENDP		; std::allocator<char>::allocate
_TEXT	ENDS
; Function compile flags: /Ogtpy
; File C:\Program Files\Microsoft Visual Studio\2022\Community\VC\Tools\MSVC\14.35.32215\include\xstring
; File C:\Program Files\Microsoft Visual Studio\2022\Community\VC\Tools\MSVC\14.35.32215\include\utility
; File C:\Program Files\Microsoft Visual Studio\2022\Community\VC\Tools\MSVC\14.35.32215\include\xstring
; File C:\Program Files\Microsoft Visual Studio\2022\Community\VC\Tools\MSVC\14.35.32215\include\xmemory
; File C:\Program Files\Microsoft Visual Studio\2022\Community\VC\Tools\MSVC\14.35.32215\include\xstring
; File C:\Program Files\Microsoft Visual Studio\2022\Community\VC\Tools\MSVC\14.35.32215\include\xmemory
; File C:\Program Files\Microsoft Visual Studio\2022\Community\VC\Tools\MSVC\14.35.32215\include\xstring
;	COMDAT ??$_Construct@$00PEBD@?$basic_string@DU?$char_traits@D@std@@V?$allocator@D@2@@std@@AEAAXQEBD_K@Z
_TEXT	SEGMENT
this$ = 48
_Arg$ = 56
_Count$ = 64
??$_Construct@$00PEBD@?$basic_string@DU?$char_traits@D@std@@V?$allocator@D@2@@std@@AEAAXQEBD_K@Z PROC ; std::basic_string<char,std::char_traits<char>,std::allocator<char> >::_Construct<1,char const *>, COMDAT

; 2729 :     _CONSTEXPR20 void _Construct(const _Char_or_ptr _Arg, _CRT_GUARDOVERFLOW const size_type _Count) {

$LN22:
	mov	QWORD PTR [rsp+16], rbp
	mov	QWORD PTR [rsp+24], rsi
	mov	QWORD PTR [rsp+32], rdi
	push	r14
	sub	rsp, 32					; 00000020H

; 2730 :         auto& _My_data = _Mypair._Myval2;
; 2731 :         _STL_INTERNAL_CHECK(!_My_data._Large_string_engaged());
; 2732 : 
; 2733 :         if constexpr (_Strat == _Construct_strategy::_From_char) {
; 2734 :             _STL_INTERNAL_STATIC_ASSERT(is_same_v<_Char_or_ptr, _Elem>);
; 2735 :         } else {
; 2736 :             _STL_INTERNAL_STATIC_ASSERT(_Is_elem_cptr<_Char_or_ptr>::value);
; 2737 :         }
; 2738 : 
; 2739 :         if (_Count > max_size()) {

	mov	rbp, 9223372036854775807		; 7fffffffffffffffH
	mov	rdi, r8
	mov	r14, rdx
	mov	rsi, rcx
	cmp	r8, rbp
	ja	$LN21@Construct

; 2741 :         }
; 2742 : 
; 2743 :         auto& _Al       = _Getal();
; 2744 :         auto&& _Alproxy = _GET_PROXY_ALLOCATOR(_Alty, _Al);
; 2745 :         _Container_proxy_ptr<_Alty> _Proxy(_Alproxy, _My_data);
; 2746 : 
; 2747 :         if (_Count < _BUF_SIZE) {

	mov	QWORD PTR [rcx+24], 15
	cmp	r8, 16
	jae	SHORT $LN3@Construct

; 2748 :             _My_data._Mysize = _Count;

	mov	QWORD PTR [rcx+16], r8

; 117  :         _CSTD memmove(_First1, _First2, _Count * sizeof(_Elem));

	call	memmove

; 2749 :             _My_data._Myres  = _BUF_SIZE - 1;
; 2750 :             if constexpr (_Strat == _Construct_strategy::_From_char) {
; 2751 :                 _Traits::assign(_My_data._Bx._Buf, _Count, _Arg);
; 2752 :                 _Traits::assign(_My_data._Bx._Buf[_Count], _Elem());
; 2753 :             } else if constexpr (_Strat == _Construct_strategy::_From_ptr) {
; 2754 :                 _Traits::move(_My_data._Bx._Buf, _Arg, _Count);
; 2755 :                 _Traits::assign(_My_data._Bx._Buf[_Count], _Elem());

	mov	BYTE PTR [rdi+rsi], 0

; 2756 :             } else { // _Strat == _Construct_strategy::_From_string
; 2757 : #ifdef _INSERT_STRING_ANNOTATION
; 2758 :                 _Traits::move(_My_data._Bx._Buf, _Arg, _Count + 1);
; 2759 : #else // ^^^ _INSERT_STRING_ANNOTATION ^^^ // vvv !_INSERT_STRING_ANNOTATION vvv
; 2760 :                 _Traits::move(_My_data._Bx._Buf, _Arg, _BUF_SIZE);
; 2761 : #endif // !_INSERT_STRING_ANNOTATION
; 2762 :             }
; 2763 : 
; 2764 :             _ASAN_STRING_CREATE(*this);
; 2765 :             _Proxy._Release();
; 2766 :             return;

	jmp	SHORT $LN1@Construct
$LN3@Construct:

; 4886 :         const size_type _Masked = _Requested | _ALLOC_MASK;

	mov	rax, rdi
	mov	QWORD PTR [rsp+48], rbx
	or	rax, 15
	cmp	rax, rbp

; 4887 :         if (_Masked > _Max) { // the mask overflows, settle for max_size()

	ja	SHORT $LN9@Construct
; File C:\Program Files\Microsoft Visual Studio\2022\Community\VC\Tools\MSVC\14.35.32215\include\utility

; 43   :     return _Left < _Right ? _Right : _Left;

	mov	ecx, 22
	mov	rbp, rax
	cmp	rax, rcx
	cmovb	rbp, rcx
$LN9@Construct:
; File C:\Program Files\Microsoft Visual Studio\2022\Community\VC\Tools\MSVC\14.35.32215\include\xstring

; 2771 :         const pointer _New_ptr        = _Al.allocate(_New_capacity + 1); // throws

	lea	rcx, QWORD PTR [rbp+1]
; File C:\Program Files\Microsoft Visual Studio\2022\Community\VC\Tools\MSVC\14.35.32215\include\xmemory

; 834  :         return static_cast<_Ty*>(_Allocate<_New_alignof<_Ty>>(_Get_size_of_n<sizeof(_Ty)>(_Count)));

	call	??$_Allocate@$0BA@U_Default_allocate_traits@std@@$0A@@std@@YAPEAX_K@Z ; std::_Allocate<16,std::_Default_allocate_traits,0>
; File C:\Program Files\Microsoft Visual Studio\2022\Community\VC\Tools\MSVC\14.35.32215\include\xstring

; 64   :         _CSTD memcpy(_First1, _First2, _Count * sizeof(_Elem));

	mov	r8, rdi

; 2772 :         _Construct_in_place(_My_data._Bx._Ptr, _New_ptr);

	mov	QWORD PTR [rsi], rax

; 64   :         _CSTD memcpy(_First1, _First2, _Count * sizeof(_Elem));

	mov	rdx, r14

; 2773 : 
; 2774 : #if _HAS_CXX20
; 2775 :         if (_STD is_constant_evaluated()) { // Begin the lifetimes of the objects before copying to avoid UB
; 2776 :             _Traits::assign(_Unfancy(_New_ptr), _New_capacity + 1, _Elem());
; 2777 :         }
; 2778 : #endif // _HAS_CXX20
; 2779 : 
; 2780 :         _My_data._Mysize = _Count;

	mov	QWORD PTR [rsi+16], rdi

; 64   :         _CSTD memcpy(_First1, _First2, _Count * sizeof(_Elem));

	mov	rcx, rax

; 2781 :         _My_data._Myres  = _New_capacity;

	mov	QWORD PTR [rsi+24], rbp
; File C:\Program Files\Microsoft Visual Studio\2022\Community\VC\Tools\MSVC\14.35.32215\include\xmemory

; 834  :         return static_cast<_Ty*>(_Allocate<_New_alignof<_Ty>>(_Get_size_of_n<sizeof(_Ty)>(_Count)));

	mov	rbx, rax
; File C:\Program Files\Microsoft Visual Studio\2022\Community\VC\Tools\MSVC\14.35.32215\include\xstring

; 64   :         _CSTD memcpy(_First1, _First2, _Count * sizeof(_Elem));

	call	memcpy

; 2782 :         if constexpr (_Strat == _Construct_strategy::_From_char) {
; 2783 :             _Traits::assign(_Unfancy(_New_ptr), _Count, _Arg);
; 2784 :             _Traits::assign(_Unfancy(_New_ptr)[_Count], _Elem());
; 2785 :         } else if constexpr (_Strat == _Construct_strategy::_From_ptr) {
; 2786 :             _Traits::copy(_Unfancy(_New_ptr), _Arg, _Count);
; 2787 :             _Traits::assign(_Unfancy(_New_ptr)[_Count], _Elem());

	mov	BYTE PTR [rbx+rdi], 0
	mov	rbx, QWORD PTR [rsp+48]
$LN1@Construct:

; 2788 :         } else { // _Strat == _Construct_strategy::_From_string
; 2789 :             _Traits::copy(_Unfancy(_New_ptr), _Arg, _Count + 1);
; 2790 :         }
; 2791 : 
; 2792 :         _ASAN_STRING_CREATE(*this);
; 2793 :         _Proxy._Release();
; 2794 :     }

	mov	rbp, QWORD PTR [rsp+56]
	mov	rsi, QWORD PTR [rsp+64]
	mov	rdi, QWORD PTR [rsp+72]
	add	rsp, 32					; 00000020H
	pop	r14
	ret	0
$LN21@Construct:

; 2740 :             _Xlen_string(); // result too long

	call	?_Xlen_string@std@@YAXXZ		; std::_Xlen_string
	int	3
$LN19@Construct:
??$_Construct@$00PEBD@?$basic_string@DU?$char_traits@D@std@@V?$allocator@D@2@@std@@AEAAXQEBD_K@Z ENDP ; std::basic_string<char,std::char_traits<char>,std::allocator<char> >::_Construct<1,char const *>
_TEXT	ENDS
; Function compile flags: /Ogtpy
; File C:\Program Files\Microsoft Visual Studio\2022\Community\VC\Tools\MSVC\14.35.32215\include\xstring
; File C:\Program Files\Microsoft Visual Studio\2022\Community\VC\Tools\MSVC\14.35.32215\include\utility
; File C:\Program Files\Microsoft Visual Studio\2022\Community\VC\Tools\MSVC\14.35.32215\include\xstring
; File C:\Program Files\Microsoft Visual Studio\2022\Community\VC\Tools\MSVC\14.35.32215\include\xmemory
; File C:\Program Files\Microsoft Visual Studio\2022\Community\VC\Tools\MSVC\14.35.32215\include\xstring
; File C:\Program Files\Microsoft Visual Studio\2022\Community\VC\Tools\MSVC\14.35.32215\include\xmemory
; File C:\Program Files\Microsoft Visual Studio\2022\Community\VC\Tools\MSVC\14.35.32215\include\xstring
;	COMDAT ??0?$basic_string@DU?$char_traits@D@std@@V?$allocator@D@2@@std@@QEAA@QEBD@Z
_TEXT	SEGMENT
this$ = 48
_Ptr$ = 56
??0?$basic_string@DU?$char_traits@D@std@@V?$allocator@D@2@@std@@QEAA@QEBD@Z PROC ; std::basic_string<char,std::char_traits<char>,std::allocator<char> >::basic_string<char,std::char_traits<char>,std::allocator<char> >, COMDAT

; 2673 :     _CONSTEXPR20 basic_string(_In_z_ const _Elem* const _Ptr) : _Mypair(_Zero_then_variadic_args_t{}) {

$LN35:
	mov	QWORD PTR [rsp+16], rbx
	mov	QWORD PTR [rsp+24], rbp
	mov	QWORD PTR [rsp+32], rsi
	push	r14
	sub	rsp, 32					; 00000020H

; 2348 :     size_type _Mysize = 0; // current length of string

	xor	eax, eax

; 2673 :     _CONSTEXPR20 basic_string(_In_z_ const _Elem* const _Ptr) : _Mypair(_Zero_then_variadic_args_t{}) {

	mov	r14, rdx
	vpxor	xmm0, xmm0, xmm0

; 2340 :         _CONSTEXPR20 _Bxty() noexcept : _Buf() {} // user-provided, for fancy pointers

	vmovups	XMMWORD PTR [rcx], xmm0

; 2348 :     size_type _Mysize = 0; // current length of string

	mov	QWORD PTR [rcx+16], rax

; 2673 :     _CONSTEXPR20 basic_string(_In_z_ const _Elem* const _Ptr) : _Mypair(_Zero_then_variadic_args_t{}) {

	mov	rsi, rcx

; 2349 :     size_type _Myres  = 0; // current storage reserved for string

	mov	QWORD PTR [rcx+24], rax

; 415  :             return __builtin_strlen(_First);

	mov	rbx, -1
$LL30@basic_stri:
	inc	rbx
	cmp	BYTE PTR [rdx+rbx], al
	jne	SHORT $LL30@basic_stri

; 2739 :         if (_Count > max_size()) {

	mov	rbp, 9223372036854775807		; 7fffffffffffffffH
	cmp	rbx, rbp
	ja	$LN33@basic_stri

; 2741 :         }
; 2742 : 
; 2743 :         auto& _Al       = _Getal();
; 2744 :         auto&& _Alproxy = _GET_PROXY_ALLOCATOR(_Alty, _Al);
; 2745 :         _Container_proxy_ptr<_Alty> _Proxy(_Alproxy, _My_data);
; 2746 : 
; 2747 :         if (_Count < _BUF_SIZE) {

	mov	QWORD PTR [rcx+24], 15
	cmp	rbx, 16
	jae	SHORT $LN13@basic_stri

; 117  :         _CSTD memmove(_First1, _First2, _Count * sizeof(_Elem));

	mov	r8, rbx

; 2748 :             _My_data._Mysize = _Count;

	mov	QWORD PTR [rcx+16], rbx

; 117  :         _CSTD memmove(_First1, _First2, _Count * sizeof(_Elem));

	call	memmove

; 2755 :                 _Traits::assign(_My_data._Bx._Buf[_Count], _Elem());

	mov	BYTE PTR [rbx+rsi], 0

; 2756 :             } else { // _Strat == _Construct_strategy::_From_string
; 2757 : #ifdef _INSERT_STRING_ANNOTATION
; 2758 :                 _Traits::move(_My_data._Bx._Buf, _Arg, _Count + 1);
; 2759 : #else // ^^^ _INSERT_STRING_ANNOTATION ^^^ // vvv !_INSERT_STRING_ANNOTATION vvv
; 2760 :                 _Traits::move(_My_data._Bx._Buf, _Arg, _BUF_SIZE);
; 2761 : #endif // !_INSERT_STRING_ANNOTATION
; 2762 :             }
; 2763 : 
; 2764 :             _ASAN_STRING_CREATE(*this);
; 2765 :             _Proxy._Release();
; 2766 :             return;

	jmp	SHORT $LN11@basic_stri
$LN13@basic_stri:

; 4886 :         const size_type _Masked = _Requested | _ALLOC_MASK;

	mov	rax, rbx
	mov	QWORD PTR [rsp+48], rdi
	or	rax, 15
	cmp	rax, rbp

; 4887 :         if (_Masked > _Max) { // the mask overflows, settle for max_size()

	ja	SHORT $LN19@basic_stri
; File C:\Program Files\Microsoft Visual Studio\2022\Community\VC\Tools\MSVC\14.35.32215\include\utility

; 43   :     return _Left < _Right ? _Right : _Left;

	mov	ecx, 22
	mov	rbp, rax
	cmp	rax, rcx
	cmovb	rbp, rcx
$LN19@basic_stri:
; File C:\Program Files\Microsoft Visual Studio\2022\Community\VC\Tools\MSVC\14.35.32215\include\xstring

; 2771 :         const pointer _New_ptr        = _Al.allocate(_New_capacity + 1); // throws

	lea	rcx, QWORD PTR [rbp+1]
; File C:\Program Files\Microsoft Visual Studio\2022\Community\VC\Tools\MSVC\14.35.32215\include\xmemory

; 834  :         return static_cast<_Ty*>(_Allocate<_New_alignof<_Ty>>(_Get_size_of_n<sizeof(_Ty)>(_Count)));

	call	??$_Allocate@$0BA@U_Default_allocate_traits@std@@$0A@@std@@YAPEAX_K@Z ; std::_Allocate<16,std::_Default_allocate_traits,0>
; File C:\Program Files\Microsoft Visual Studio\2022\Community\VC\Tools\MSVC\14.35.32215\include\xstring

; 64   :         _CSTD memcpy(_First1, _First2, _Count * sizeof(_Elem));

	mov	r8, rbx

; 2772 :         _Construct_in_place(_My_data._Bx._Ptr, _New_ptr);

	mov	QWORD PTR [rsi], rax

; 64   :         _CSTD memcpy(_First1, _First2, _Count * sizeof(_Elem));

	mov	rdx, r14

; 2780 :         _My_data._Mysize = _Count;

	mov	QWORD PTR [rsi+16], rbx

; 64   :         _CSTD memcpy(_First1, _First2, _Count * sizeof(_Elem));

	mov	rcx, rax

; 2781 :         _My_data._Myres  = _New_capacity;

	mov	QWORD PTR [rsi+24], rbp
; File C:\Program Files\Microsoft Visual Studio\2022\Community\VC\Tools\MSVC\14.35.32215\include\xmemory

; 834  :         return static_cast<_Ty*>(_Allocate<_New_alignof<_Ty>>(_Get_size_of_n<sizeof(_Ty)>(_Count)));

	mov	rdi, rax
; File C:\Program Files\Microsoft Visual Studio\2022\Community\VC\Tools\MSVC\14.35.32215\include\xstring

; 64   :         _CSTD memcpy(_First1, _First2, _Count * sizeof(_Elem));

	call	memcpy

; 2787 :             _Traits::assign(_Unfancy(_New_ptr)[_Count], _Elem());

	mov	BYTE PTR [rdi+rbx], 0
	mov	rdi, QWORD PTR [rsp+48]
$LN11@basic_stri:

; 2674 :         _Construct<_Construct_strategy::_From_ptr>(_Ptr, _Convert_size<size_type>(_Traits::length(_Ptr)));
; 2675 :     }

	mov	rbx, QWORD PTR [rsp+56]
	mov	rax, rsi
	mov	rsi, QWORD PTR [rsp+72]
	mov	rbp, QWORD PTR [rsp+64]
	add	rsp, 32					; 00000020H
	pop	r14
	ret	0
$LN33@basic_stri:

; 2740 :             _Xlen_string(); // result too long

	call	?_Xlen_string@std@@YAXXZ		; std::_Xlen_string
	int	3
$LN31@basic_stri:
??0?$basic_string@DU?$char_traits@D@std@@V?$allocator@D@2@@std@@QEAA@QEBD@Z ENDP ; std::basic_string<char,std::char_traits<char>,std::allocator<char> >::basic_string<char,std::char_traits<char>,std::allocator<char> >
_TEXT	ENDS
; Function compile flags: /Ogtpy
;	COMDAT ??1?$_Compressed_pair@V?$allocator@D@std@@V?$_String_val@U?$_Simple_types@D@std@@@2@$00@std@@QEAA@XZ
_TEXT	SEGMENT
this$ = 8
??1?$_Compressed_pair@V?$allocator@D@std@@V?$_String_val@U?$_Simple_types@D@std@@@2@$00@std@@QEAA@XZ PROC ; std::_Compressed_pair<std::allocator<char>,std::_String_val<std::_Simple_types<char> >,1>::~_Compressed_pair<std::allocator<char>,std::_String_val<std::_Simple_types<char> >,1>, COMDAT
	ret	0
??1?$_Compressed_pair@V?$allocator@D@std@@V?$_String_val@U?$_Simple_types@D@std@@@2@$00@std@@QEAA@XZ ENDP ; std::_Compressed_pair<std::allocator<char>,std::_String_val<std::_Simple_types<char> >,1>::~_Compressed_pair<std::allocator<char>,std::_String_val<std::_Simple_types<char> >,1>
_TEXT	ENDS
; Function compile flags: /Ogtpy
; File C:\Program Files\Microsoft Visual Studio\2022\Community\VC\Tools\MSVC\14.35.32215\include\xmemory
;	COMDAT ?_Get_first@?$_Compressed_pair@V?$allocator@D@std@@V?$_String_val@U?$_Simple_types@D@std@@@2@$00@std@@QEAAAEAV?$allocator@D@2@XZ
_TEXT	SEGMENT
this$ = 8
?_Get_first@?$_Compressed_pair@V?$allocator@D@std@@V?$_String_val@U?$_Simple_types@D@std@@@2@$00@std@@QEAAAEAV?$allocator@D@2@XZ PROC ; std::_Compressed_pair<std::allocator<char>,std::_String_val<std::_Simple_types<char> >,1>::_Get_first, COMDAT

; 1383 :         return *this;

	mov	rax, rcx

; 1384 :     }

	ret	0
?_Get_first@?$_Compressed_pair@V?$allocator@D@std@@V?$_String_val@U?$_Simple_types@D@std@@@2@$00@std@@QEAAAEAV?$allocator@D@2@XZ ENDP ; std::_Compressed_pair<std::allocator<char>,std::_String_val<std::_Simple_types<char> >,1>::_Get_first
_TEXT	ENDS
; Function compile flags: /Ogtpy
; File C:\Program Files\Microsoft Visual Studio\2022\Community\VC\Tools\MSVC\14.35.32215\include\xstring
;	COMDAT ?_Getal@?$basic_string@DU?$char_traits@D@std@@V?$allocator@D@2@@std@@AEAAAEAV?$allocator@D@2@XZ
_TEXT	SEGMENT
this$ = 8
?_Getal@?$basic_string@DU?$char_traits@D@std@@V?$allocator@D@2@@std@@AEAAAEAV?$allocator@D@2@XZ PROC ; std::basic_string<char,std::char_traits<char>,std::allocator<char> >::_Getal, COMDAT

; 5039 :         return _Mypair._Get_first();

	mov	rax, rcx

; 5040 :     }

	ret	0
?_Getal@?$basic_string@DU?$char_traits@D@std@@V?$allocator@D@2@@std@@AEAAAEAV?$allocator@D@2@XZ ENDP ; std::basic_string<char,std::char_traits<char>,std::allocator<char> >::_Getal
_TEXT	ENDS
; Function compile flags: /Ogtpy
; File C:\Program Files\Microsoft Visual Studio\2022\Community\VC\Tools\MSVC\14.35.32215\include\xmemory
;	COMDAT ??$_Deallocate@$0BA@$0A@@std@@YAXPEAX_K@Z
_TEXT	SEGMENT
_Ptr$ = 48
_Bytes$ = 56
??$_Deallocate@$0BA@$0A@@std@@YAXPEAX_K@Z PROC		; std::_Deallocate<16,0>, COMDAT

; 242  : _CONSTEXPR20 void _Deallocate(void* _Ptr, size_t _Bytes) noexcept {

$LN17:
	sub	rsp, 40					; 00000028H

; 243  :     // deallocate storage allocated by _Allocate when !_HAS_ALIGNED_NEW || _Align <= __STDCPP_DEFAULT_NEW_ALIGNMENT__
; 244  : #if _HAS_CXX20 // TRANSITION, GH-1532
; 245  :     if (_STD is_constant_evaluated()) {
; 246  :         ::operator delete(_Ptr);
; 247  :     } else
; 248  : #endif // _HAS_CXX20
; 249  :     {
; 250  : #if defined(_M_IX86) || defined(_M_X64)
; 251  :         if (_Bytes >= _Big_allocation_threshold) { // boost the alignment of big allocations to help autovectorization

	cmp	rdx, 4096				; 00001000H
	jb	SHORT $LN13@Deallocate

; 150  :     const uintptr_t _Ptr_container   = _Ptr_user[-1];

	mov	r8, QWORD PTR [rcx-8]
	add	rdx, 39					; 00000027H

; 151  : 
; 152  :     // If the following asserts, it likely means that we are performing
; 153  :     // an aligned delete on memory coming from an unaligned allocation.
; 154  :     _STL_ASSERT(_Ptr_user[-2] == _Big_allocation_sentinel, "invalid argument");
; 155  : 
; 156  :     // Extra paranoia on aligned allocation/deallocation; ensure _Ptr_container is
; 157  :     // in range [_Min_back_shift, _Non_user_size]
; 158  : #ifdef _DEBUG
; 159  :     constexpr uintptr_t _Min_back_shift = 2 * sizeof(void*);
; 160  : #else // ^^^ _DEBUG ^^^ // vvv !_DEBUG vvv
; 161  :     constexpr uintptr_t _Min_back_shift = sizeof(void*);
; 162  : #endif // _DEBUG
; 163  :     const uintptr_t _Back_shift = reinterpret_cast<uintptr_t>(_Ptr) - _Ptr_container;

	sub	rcx, r8

; 164  :     _STL_VERIFY(_Back_shift >= _Min_back_shift && _Back_shift <= _Non_user_size, "invalid argument");

	lea	rax, QWORD PTR [rcx-8]
	cmp	rax, 31
	ja	SHORT $LN10@Deallocate

; 165  :     _Ptr = reinterpret_cast<void*>(_Ptr_container);

	mov	rcx, r8
$LN13@Deallocate:

; 256  :     }
; 257  : }

	add	rsp, 40					; 00000028H

; 252  :             _Adjust_manually_vector_aligned(_Ptr, _Bytes);
; 253  :         }
; 254  : #endif // defined(_M_IX86) || defined(_M_X64)
; 255  :         ::operator delete(_Ptr, _Bytes);

	jmp	??3@YAXPEAX_K@Z				; operator delete
$LN10@Deallocate:

; 164  :     _STL_VERIFY(_Back_shift >= _Min_back_shift && _Back_shift <= _Non_user_size, "invalid argument");

	call	QWORD PTR __imp__invalid_parameter_noinfo_noreturn
	int	3
$LN15@Deallocate:
??$_Deallocate@$0BA@$0A@@std@@YAXPEAX_K@Z ENDP		; std::_Deallocate<16,0>
_TEXT	ENDS
; Function compile flags: /Ogtpy
; File C:\Program Files\Microsoft Visual Studio\2022\Community\VC\Tools\MSVC\14.35.32215\include\xmemory
;	COMDAT ?deallocate@?$allocator@D@std@@QEAAXQEAD_K@Z
_TEXT	SEGMENT
this$dead$ = 48
_Ptr$ = 56
_Count$ = 64
?deallocate@?$allocator@D@std@@QEAAXQEAD_K@Z PROC	; std::allocator<char>::deallocate, COMDAT

; 826  :     _CONSTEXPR20 void deallocate(_Ty* const _Ptr, const size_t _Count) {

$LN20:
	sub	rsp, 40					; 00000028H
	mov	rax, rdx

; 251  :         if (_Bytes >= _Big_allocation_threshold) { // boost the alignment of big allocations to help autovectorization

	cmp	r8, 4096				; 00001000H
	jb	SHORT $LN15@deallocate

; 150  :     const uintptr_t _Ptr_container   = _Ptr_user[-1];

	mov	rcx, QWORD PTR [rdx-8]
	add	r8, 39					; 00000027H

; 151  : 
; 152  :     // If the following asserts, it likely means that we are performing
; 153  :     // an aligned delete on memory coming from an unaligned allocation.
; 154  :     _STL_ASSERT(_Ptr_user[-2] == _Big_allocation_sentinel, "invalid argument");
; 155  : 
; 156  :     // Extra paranoia on aligned allocation/deallocation; ensure _Ptr_container is
; 157  :     // in range [_Min_back_shift, _Non_user_size]
; 158  : #ifdef _DEBUG
; 159  :     constexpr uintptr_t _Min_back_shift = 2 * sizeof(void*);
; 160  : #else // ^^^ _DEBUG ^^^ // vvv !_DEBUG vvv
; 161  :     constexpr uintptr_t _Min_back_shift = sizeof(void*);
; 162  : #endif // _DEBUG
; 163  :     const uintptr_t _Back_shift = reinterpret_cast<uintptr_t>(_Ptr) - _Ptr_container;

	sub	rax, rcx

; 164  :     _STL_VERIFY(_Back_shift >= _Min_back_shift && _Back_shift <= _Non_user_size, "invalid argument");

	add	rax, -8
	cmp	rax, 31
	ja	SHORT $LN12@deallocate

; 165  :     _Ptr = reinterpret_cast<void*>(_Ptr_container);

	mov	rax, rcx
$LN15@deallocate:

; 255  :         ::operator delete(_Ptr, _Bytes);

	mov	rdx, r8
	mov	rcx, rax

; 827  :         _STL_ASSERT(_Ptr != nullptr || _Count == 0, "null pointer cannot point to a block of non-zero size");
; 828  :         // no overflow check on the following multiply; we assume _Allocate did that check
; 829  :         _Deallocate<_New_alignof<_Ty>>(_Ptr, sizeof(_Ty) * _Count);
; 830  :     }

	add	rsp, 40					; 00000028H

; 255  :         ::operator delete(_Ptr, _Bytes);

	jmp	??3@YAXPEAX_K@Z				; operator delete
$LN12@deallocate:

; 164  :     _STL_VERIFY(_Back_shift >= _Min_back_shift && _Back_shift <= _Non_user_size, "invalid argument");

	call	QWORD PTR __imp__invalid_parameter_noinfo_noreturn
	int	3
$LN18@deallocate:
?deallocate@?$allocator@D@std@@QEAAXQEAD_K@Z ENDP	; std::allocator<char>::deallocate
_TEXT	ENDS
; Function compile flags: /Ogtpy
; File C:\Program Files\Microsoft Visual Studio\2022\Community\VC\Tools\MSVC\14.35.32215\include\xstring
; File C:\Program Files\Microsoft Visual Studio\2022\Community\VC\Tools\MSVC\14.35.32215\include\xmemory
; File C:\Program Files\Microsoft Visual Studio\2022\Community\VC\Tools\MSVC\14.35.32215\include\xstring
; File C:\Program Files\Microsoft Visual Studio\2022\Community\VC\Tools\MSVC\14.35.32215\include\xmemory
; File C:\Program Files\Microsoft Visual Studio\2022\Community\VC\Tools\MSVC\14.35.32215\include\xstring
; File C:\Program Files\Microsoft Visual Studio\2022\Community\VC\Tools\MSVC\14.35.32215\include\xmemory
; File C:\Program Files\Microsoft Visual Studio\2022\Community\VC\Tools\MSVC\14.35.32215\include\xstring
;	COMDAT ?_Tidy_deallocate@?$basic_string@DU?$char_traits@D@std@@V?$allocator@D@2@@std@@AEAAXXZ
_TEXT	SEGMENT
this$ = 48
?_Tidy_deallocate@?$basic_string@DU?$char_traits@D@std@@V?$allocator@D@2@@std@@AEAAXXZ PROC ; std::basic_string<char,std::char_traits<char>,std::allocator<char> >::_Tidy_deallocate, COMDAT

; 5010 :     _CONSTEXPR20 void _Tidy_deallocate() noexcept { // initialize buffer, deallocating any storage

$LN26:
	push	rbx
	sub	rsp, 32					; 00000020H

; 2300 :         return _BUF_SIZE <= _Myres;

	mov	rdx, QWORD PTR [rcx+24]

; 5010 :     _CONSTEXPR20 void _Tidy_deallocate() noexcept { // initialize buffer, deallocating any storage

	mov	rbx, rcx

; 2300 :         return _BUF_SIZE <= _Myres;

	cmp	rdx, 16

; 5011 :         auto& _My_data = _Mypair._Myval2;
; 5012 :         _My_data._Orphan_all();
; 5013 :         _ASAN_STRING_REMOVE(*this);
; 5014 :         if (_My_data._Large_string_engaged()) {

	jb	SHORT $LN21@Tidy_deall
; File C:\Program Files\Microsoft Visual Studio\2022\Community\VC\Tools\MSVC\14.35.32215\include\xmemory

; 829  :         _Deallocate<_New_alignof<_Ty>>(_Ptr, sizeof(_Ty) * _Count);

	mov	rcx, QWORD PTR [rcx]
; File C:\Program Files\Microsoft Visual Studio\2022\Community\VC\Tools\MSVC\14.35.32215\include\xstring

; 5019 :             _Al.deallocate(_Ptr, _My_data._Myres + 1);

	inc	rdx
; File C:\Program Files\Microsoft Visual Studio\2022\Community\VC\Tools\MSVC\14.35.32215\include\xmemory

; 251  :         if (_Bytes >= _Big_allocation_threshold) { // boost the alignment of big allocations to help autovectorization

	cmp	rdx, 4096				; 00001000H
	jb	SHORT $LN20@Tidy_deall

; 150  :     const uintptr_t _Ptr_container   = _Ptr_user[-1];

	mov	r8, QWORD PTR [rcx-8]
	add	rdx, 39					; 00000027H

; 151  : 
; 152  :     // If the following asserts, it likely means that we are performing
; 153  :     // an aligned delete on memory coming from an unaligned allocation.
; 154  :     _STL_ASSERT(_Ptr_user[-2] == _Big_allocation_sentinel, "invalid argument");
; 155  : 
; 156  :     // Extra paranoia on aligned allocation/deallocation; ensure _Ptr_container is
; 157  :     // in range [_Min_back_shift, _Non_user_size]
; 158  : #ifdef _DEBUG
; 159  :     constexpr uintptr_t _Min_back_shift = 2 * sizeof(void*);
; 160  : #else // ^^^ _DEBUG ^^^ // vvv !_DEBUG vvv
; 161  :     constexpr uintptr_t _Min_back_shift = sizeof(void*);
; 162  : #endif // _DEBUG
; 163  :     const uintptr_t _Back_shift = reinterpret_cast<uintptr_t>(_Ptr) - _Ptr_container;

	sub	rcx, r8

; 164  :     _STL_VERIFY(_Back_shift >= _Min_back_shift && _Back_shift <= _Non_user_size, "invalid argument");

	lea	rax, QWORD PTR [rcx-8]
	cmp	rax, 31
	ja	SHORT $LN17@Tidy_deall

; 165  :     _Ptr = reinterpret_cast<void*>(_Ptr_container);

	mov	rcx, r8
$LN20@Tidy_deall:

; 255  :         ::operator delete(_Ptr, _Bytes);

	call	??3@YAXPEAX_K@Z				; operator delete
$LN21@Tidy_deall:
; File C:\Program Files\Microsoft Visual Studio\2022\Community\VC\Tools\MSVC\14.35.32215\include\xstring

; 5022 :         _My_data._Mysize = 0;

	mov	QWORD PTR [rbx+16], 0

; 5023 :         _My_data._Myres  = _BUF_SIZE - 1;

	mov	QWORD PTR [rbx+24], 15

; 5024 :         // the _Traits::assign is last so the codegen doesn't think the char write can alias this
; 5025 :         _Traits::assign(_My_data._Bx._Buf[0], _Elem());

	mov	BYTE PTR [rbx], 0

; 5026 :     }

	add	rsp, 32					; 00000020H
	pop	rbx
	ret	0
$LN17@Tidy_deall:
; File C:\Program Files\Microsoft Visual Studio\2022\Community\VC\Tools\MSVC\14.35.32215\include\xmemory

; 164  :     _STL_VERIFY(_Back_shift >= _Min_back_shift && _Back_shift <= _Non_user_size, "invalid argument");

	call	QWORD PTR __imp__invalid_parameter_noinfo_noreturn
	int	3
$LN24@Tidy_deall:
?_Tidy_deallocate@?$basic_string@DU?$char_traits@D@std@@V?$allocator@D@2@@std@@AEAAXXZ ENDP ; std::basic_string<char,std::char_traits<char>,std::allocator<char> >::_Tidy_deallocate
_TEXT	ENDS
; Function compile flags: /Ogtpy
; File C:\Program Files\Microsoft Visual Studio\2022\Community\VC\Tools\MSVC\14.35.32215\include\xstring
; File C:\Program Files\Microsoft Visual Studio\2022\Community\VC\Tools\MSVC\14.35.32215\include\xmemory
; File C:\Program Files\Microsoft Visual Studio\2022\Community\VC\Tools\MSVC\14.35.32215\include\xstring
; File C:\Program Files\Microsoft Visual Studio\2022\Community\VC\Tools\MSVC\14.35.32215\include\xmemory
; File C:\Program Files\Microsoft Visual Studio\2022\Community\VC\Tools\MSVC\14.35.32215\include\xstring
; File C:\Program Files\Microsoft Visual Studio\2022\Community\VC\Tools\MSVC\14.35.32215\include\xmemory
; File C:\Program Files\Microsoft Visual Studio\2022\Community\VC\Tools\MSVC\14.35.32215\include\xstring
;	COMDAT ??1?$basic_string@DU?$char_traits@D@std@@V?$allocator@D@2@@std@@QEAA@XZ
_TEXT	SEGMENT
this$ = 48
??1?$basic_string@DU?$char_traits@D@std@@V?$allocator@D@2@@std@@QEAA@XZ PROC ; std::basic_string<char,std::char_traits<char>,std::allocator<char> >::~basic_string<char,std::char_traits<char>,std::allocator<char> >, COMDAT

; 3269 :     _CONSTEXPR20 ~basic_string() noexcept {

$LN30:
	push	rbx
	sub	rsp, 32					; 00000020H

; 2300 :         return _BUF_SIZE <= _Myres;

	mov	rdx, QWORD PTR [rcx+24]

; 3269 :     _CONSTEXPR20 ~basic_string() noexcept {

	mov	rbx, rcx

; 2300 :         return _BUF_SIZE <= _Myres;

	cmp	rdx, 16

; 5014 :         if (_My_data._Large_string_engaged()) {

	jb	SHORT $LN23@basic_stri
; File C:\Program Files\Microsoft Visual Studio\2022\Community\VC\Tools\MSVC\14.35.32215\include\xmemory

; 829  :         _Deallocate<_New_alignof<_Ty>>(_Ptr, sizeof(_Ty) * _Count);

	mov	rcx, QWORD PTR [rcx]
; File C:\Program Files\Microsoft Visual Studio\2022\Community\VC\Tools\MSVC\14.35.32215\include\xstring

; 5019 :             _Al.deallocate(_Ptr, _My_data._Myres + 1);

	inc	rdx
; File C:\Program Files\Microsoft Visual Studio\2022\Community\VC\Tools\MSVC\14.35.32215\include\xmemory

; 251  :         if (_Bytes >= _Big_allocation_threshold) { // boost the alignment of big allocations to help autovectorization

	cmp	rdx, 4096				; 00001000H
	jb	SHORT $LN22@basic_stri

; 150  :     const uintptr_t _Ptr_container   = _Ptr_user[-1];

	mov	r8, QWORD PTR [rcx-8]
	add	rdx, 39					; 00000027H

; 151  : 
; 152  :     // If the following asserts, it likely means that we are performing
; 153  :     // an aligned delete on memory coming from an unaligned allocation.
; 154  :     _STL_ASSERT(_Ptr_user[-2] == _Big_allocation_sentinel, "invalid argument");
; 155  : 
; 156  :     // Extra paranoia on aligned allocation/deallocation; ensure _Ptr_container is
; 157  :     // in range [_Min_back_shift, _Non_user_size]
; 158  : #ifdef _DEBUG
; 159  :     constexpr uintptr_t _Min_back_shift = 2 * sizeof(void*);
; 160  : #else // ^^^ _DEBUG ^^^ // vvv !_DEBUG vvv
; 161  :     constexpr uintptr_t _Min_back_shift = sizeof(void*);
; 162  : #endif // _DEBUG
; 163  :     const uintptr_t _Back_shift = reinterpret_cast<uintptr_t>(_Ptr) - _Ptr_container;

	sub	rcx, r8

; 164  :     _STL_VERIFY(_Back_shift >= _Min_back_shift && _Back_shift <= _Non_user_size, "invalid argument");

	lea	rax, QWORD PTR [rcx-8]
	cmp	rax, 31
	ja	SHORT $LN19@basic_stri

; 165  :     _Ptr = reinterpret_cast<void*>(_Ptr_container);

	mov	rcx, r8
$LN22@basic_stri:

; 255  :         ::operator delete(_Ptr, _Bytes);

	call	??3@YAXPEAX_K@Z				; operator delete
$LN23@basic_stri:
; File C:\Program Files\Microsoft Visual Studio\2022\Community\VC\Tools\MSVC\14.35.32215\include\xstring

; 5022 :         _My_data._Mysize = 0;

	mov	QWORD PTR [rbx+16], 0

; 5023 :         _My_data._Myres  = _BUF_SIZE - 1;

	mov	QWORD PTR [rbx+24], 15

; 5024 :         // the _Traits::assign is last so the codegen doesn't think the char write can alias this
; 5025 :         _Traits::assign(_My_data._Bx._Buf[0], _Elem());

	mov	BYTE PTR [rbx], 0

; 3277 :     }

	add	rsp, 32					; 00000020H
	pop	rbx
	ret	0
$LN19@basic_stri:
; File C:\Program Files\Microsoft Visual Studio\2022\Community\VC\Tools\MSVC\14.35.32215\include\xmemory

; 164  :     _STL_VERIFY(_Back_shift >= _Min_back_shift && _Back_shift <= _Non_user_size, "invalid argument");

	call	QWORD PTR __imp__invalid_parameter_noinfo_noreturn
	int	3
$LN27@basic_stri:
??1?$basic_string@DU?$char_traits@D@std@@V?$allocator@D@2@@std@@QEAA@XZ ENDP ; std::basic_string<char,std::char_traits<char>,std::allocator<char> >::~basic_string<char,std::char_traits<char>,std::allocator<char> >
_TEXT	ENDS
; Function compile flags: /Ogtpy
; File C:\Users\Mahito\Desktop\Night outing\Night-outing\src\xrCore\xrDebug.h
; File C:\Program Files (x86)\Windows Kits\10\Include\10.0.26100.0\ucrt\stdio.h
; File C:\Program Files\Microsoft Visual Studio\2022\Community\VC\Tools\MSVC\14.35.32215\include\xstring
; File C:\Users\Mahito\Desktop\Night outing\Night-outing\src\xrCore\xrDebug.h
; File C:\Program Files\Microsoft Visual Studio\2022\Community\VC\Tools\MSVC\14.35.32215\include\xstring
; File C:\Users\Mahito\Desktop\Night outing\Night-outing\src\xrCore\xrDebug.h
; File C:\Program Files\Microsoft Visual Studio\2022\Community\VC\Tools\MSVC\14.35.32215\include\xstring
; File C:\Program Files\Microsoft Visual Studio\2022\Community\VC\Tools\MSVC\14.35.32215\include\utility
; File C:\Program Files\Microsoft Visual Studio\2022\Community\VC\Tools\MSVC\14.35.32215\include\xstring
; File C:\Program Files\Microsoft Visual Studio\2022\Community\VC\Tools\MSVC\14.35.32215\include\xmemory
; File C:\Program Files\Microsoft Visual Studio\2022\Community\VC\Tools\MSVC\14.35.32215\include\xstring
; File C:\Program Files\Microsoft Visual Studio\2022\Community\VC\Tools\MSVC\14.35.32215\include\xmemory
; File C:\Program Files\Microsoft Visual Studio\2022\Community\VC\Tools\MSVC\14.35.32215\include\xstring
; File C:\Users\Mahito\Desktop\Night outing\Night-outing\src\xrCore\xrDebug.h
; File C:\Program Files\Microsoft Visual Studio\2022\Community\VC\Tools\MSVC\14.35.32215\include\xstring
; File C:\Users\Mahito\Desktop\Night outing\Night-outing\src\xrCore\xrDebug.h
; File C:\Program Files\Microsoft Visual Studio\2022\Community\VC\Tools\MSVC\14.35.32215\include\xstring
; File C:\Users\Mahito\Desktop\Night outing\Night-outing\src\xrCore\xrDebug.h
;	COMDAT ?make_string@@YA?AV?$basic_string@DU?$char_traits@D@std@@V?$allocator@D@2@@std@@PEBDZZ
_TEXT	SEGMENT
temp$ = 48
__$ReturnUdt$ = 4192
format$ = 4200
?make_string@@YA?AV?$basic_string@DU?$char_traits@D@std@@V?$allocator@D@2@@std@@PEBDZZ PROC ; make_string, COMDAT

; 81   : {

$LN42:
	mov	QWORD PTR [rsp+16], rdx
	mov	QWORD PTR [rsp+24], r8
	mov	QWORD PTR [rsp+32], r9
	push	rbx
	push	rbp
	push	rsi
	push	rdi
	mov	eax, 4152				; 00001038H
	call	__chkstk
	sub	rsp, rax
	mov	rbx, rdx

; 82   : 	va_list args;
; 83   : 	va_start(args, format);

	lea	rdi, QWORD PTR format$[rsp+8]
	mov	rsi, rcx
; File C:\Program Files (x86)\Windows Kits\10\Include\10.0.26100.0\ucrt\stdio.h

; 1392 :         int const _Result = __stdio_common_vsprintf(

	call	__local_stdio_printf_options
	mov	r9, rbx
	mov	QWORD PTR [rsp+40], rdi
	xor	edi, edi
	lea	rdx, QWORD PTR temp$[rsp]
	mov	rbx, -1
	mov	QWORD PTR [rsp+32], rdi
	mov	rcx, QWORD PTR [rax]
	mov	r8, rbx
	or	rcx, 1
	call	QWORD PTR __imp___stdio_common_vsprintf
	vpxor	xmm0, xmm0, xmm0
; File C:\Program Files\Microsoft Visual Studio\2022\Community\VC\Tools\MSVC\14.35.32215\include\xstring

; 2340 :         _CONSTEXPR20 _Bxty() noexcept : _Buf() {} // user-provided, for fancy pointers

	vmovups	XMMWORD PTR [rsi], xmm0

; 2348 :     size_type _Mysize = 0; // current length of string

	mov	QWORD PTR [rsi+16], rdi

; 415  :             return __builtin_strlen(_First);

	lea	rax, QWORD PTR temp$[rsp]

; 2349 :     size_type _Myres  = 0; // current storage reserved for string

	mov	QWORD PTR [rsi+24], rdi
$LL37@make_strin:

; 415  :             return __builtin_strlen(_First);

	inc	rbx
	cmp	BYTE PTR [rax+rbx], dil
	jne	SHORT $LL37@make_strin

; 2739 :         if (_Count > max_size()) {

	mov	rbp, 9223372036854775807		; 7fffffffffffffffH
	cmp	rbx, rbp
	ja	$LN40@make_strin

; 2741 :         }
; 2742 : 
; 2743 :         auto& _Al       = _Getal();
; 2744 :         auto&& _Alproxy = _GET_PROXY_ALLOCATOR(_Alty, _Al);
; 2745 :         _Container_proxy_ptr<_Alty> _Proxy(_Alproxy, _My_data);
; 2746 : 
; 2747 :         if (_Count < _BUF_SIZE) {

	mov	QWORD PTR [rsi+24], 15
	cmp	rbx, 16
	jae	SHORT $LN19@make_strin

; 117  :         _CSTD memmove(_First1, _First2, _Count * sizeof(_Elem));

	mov	r8, rbx

; 2748 :             _My_data._Mysize = _Count;

	mov	QWORD PTR [rsi+16], rbx

; 117  :         _CSTD memmove(_First1, _First2, _Count * sizeof(_Elem));

	lea	rdx, QWORD PTR temp$[rsp]
	mov	rcx, rsi
	call	memcpy
; File C:\Users\Mahito\Desktop\Night outing\Night-outing\src\xrCore\xrDebug.h

; 88   : 	return std::string(temp);

	mov	rax, rsi
; File C:\Program Files\Microsoft Visual Studio\2022\Community\VC\Tools\MSVC\14.35.32215\include\xstring

; 2755 :                 _Traits::assign(_My_data._Bx._Buf[_Count], _Elem());

	mov	BYTE PTR [rbx+rsi], dil
; File C:\Users\Mahito\Desktop\Night outing\Night-outing\src\xrCore\xrDebug.h

; 89   : }

	add	rsp, 4152				; 00001038H
	pop	rdi
	pop	rsi
	pop	rbp
	pop	rbx
	ret	0
$LN19@make_strin:
; File C:\Program Files\Microsoft Visual Studio\2022\Community\VC\Tools\MSVC\14.35.32215\include\xstring

; 4886 :         const size_type _Masked = _Requested | _ALLOC_MASK;

	mov	rax, rbx
	or	rax, 15
	cmp	rax, rbp

; 4887 :         if (_Masked > _Max) { // the mask overflows, settle for max_size()

	ja	SHORT $LN25@make_strin
; File C:\Program Files\Microsoft Visual Studio\2022\Community\VC\Tools\MSVC\14.35.32215\include\utility

; 43   :     return _Left < _Right ? _Right : _Left;

	mov	ecx, 22
	mov	rbp, rax
	cmp	rax, rcx
	cmovb	rbp, rcx
$LN25@make_strin:
; File C:\Program Files\Microsoft Visual Studio\2022\Community\VC\Tools\MSVC\14.35.32215\include\xstring

; 2771 :         const pointer _New_ptr        = _Al.allocate(_New_capacity + 1); // throws

	lea	rcx, QWORD PTR [rbp+1]
; File C:\Program Files\Microsoft Visual Studio\2022\Community\VC\Tools\MSVC\14.35.32215\include\xmemory

; 834  :         return static_cast<_Ty*>(_Allocate<_New_alignof<_Ty>>(_Get_size_of_n<sizeof(_Ty)>(_Count)));

	call	??$_Allocate@$0BA@U_Default_allocate_traits@std@@$0A@@std@@YAPEAX_K@Z ; std::_Allocate<16,std::_Default_allocate_traits,0>
; File C:\Program Files\Microsoft Visual Studio\2022\Community\VC\Tools\MSVC\14.35.32215\include\xstring

; 64   :         _CSTD memcpy(_First1, _First2, _Count * sizeof(_Elem));

	mov	r8, rbx

; 2772 :         _Construct_in_place(_My_data._Bx._Ptr, _New_ptr);

	mov	QWORD PTR [rsi], rax

; 64   :         _CSTD memcpy(_First1, _First2, _Count * sizeof(_Elem));

	lea	rdx, QWORD PTR temp$[rsp]

; 2780 :         _My_data._Mysize = _Count;

	mov	QWORD PTR [rsi+16], rbx

; 64   :         _CSTD memcpy(_First1, _First2, _Count * sizeof(_Elem));

	mov	rcx, rax

; 2781 :         _My_data._Myres  = _New_capacity;

	mov	QWORD PTR [rsi+24], rbp
; File C:\Program Files\Microsoft Visual Studio\2022\Community\VC\Tools\MSVC\14.35.32215\include\xmemory

; 834  :         return static_cast<_Ty*>(_Allocate<_New_alignof<_Ty>>(_Get_size_of_n<sizeof(_Ty)>(_Count)));

	mov	rdi, rax
; File C:\Program Files\Microsoft Visual Studio\2022\Community\VC\Tools\MSVC\14.35.32215\include\xstring

; 64   :         _CSTD memcpy(_First1, _First2, _Count * sizeof(_Elem));

	call	memcpy
; File C:\Users\Mahito\Desktop\Night outing\Night-outing\src\xrCore\xrDebug.h

; 88   : 	return std::string(temp);

	mov	rax, rsi
; File C:\Program Files\Microsoft Visual Studio\2022\Community\VC\Tools\MSVC\14.35.32215\include\xstring

; 2787 :             _Traits::assign(_Unfancy(_New_ptr)[_Count], _Elem());

	mov	BYTE PTR [rdi+rbx], 0
; File C:\Users\Mahito\Desktop\Night outing\Night-outing\src\xrCore\xrDebug.h

; 89   : }

	add	rsp, 4152				; 00001038H
	pop	rdi
	pop	rsi
	pop	rbp
	pop	rbx
	ret	0
$LN40@make_strin:
; File C:\Program Files\Microsoft Visual Studio\2022\Community\VC\Tools\MSVC\14.35.32215\include\xstring

; 2740 :             _Xlen_string(); // result too long

	call	?_Xlen_string@std@@YAXXZ		; std::_Xlen_string
	int	3
$LN38@make_strin:
?make_string@@YA?AV?$basic_string@DU?$char_traits@D@std@@V?$allocator@D@2@@std@@PEBDZZ ENDP ; make_string
_TEXT	ENDS
END
