; Listing generated by Microsoft (R) Optimizing Compiler Version 19.35.32217.1 

include listing.inc

INCLUDELIB OLDNAMES

PUBLIC	??_C@_0N@NHGLKGEC@KERNEL32?4DLL@		; `string'
PUBLIC	??_C@_0O@CNMFJJGO@Module32First@		; `string'
PUBLIC	??_C@_0BJ@JEFKDHMD@CreateToolhelp32Snapshot@	; `string'
PUBLIC	??_C@_0P@ILGHDLOE@Process32First@		; `string'
PUBLIC	??_C@_0N@KIGOLBLC@Module32Next@			; `string'
PUBLIC	??_C@_0O@DHAEEPDO@Thread32First@		; `string'
PUBLIC	??_C@_0O@LGJLFMBH@Process32Next@		; `string'
PUBLIC	??_C@_0N@LDGMJMKG@Thread32Next@			; `string'
EXTRN	__imp__mbsnbcpy:PROC
;	COMDAT ??_C@_0N@LDGMJMKG@Thread32Next@
CONST	SEGMENT
??_C@_0N@LDGMJMKG@Thread32Next@ DB 'Thread32Next', 00H	; `string'
CONST	ENDS
;	COMDAT ??_C@_0O@LGJLFMBH@Process32Next@
CONST	SEGMENT
??_C@_0O@LGJLFMBH@Process32Next@ DB 'Process32Next', 00H ; `string'
CONST	ENDS
;	COMDAT ??_C@_0O@DHAEEPDO@Thread32First@
CONST	SEGMENT
??_C@_0O@DHAEEPDO@Thread32First@ DB 'Thread32First', 00H ; `string'
CONST	ENDS
;	COMDAT ??_C@_0N@KIGOLBLC@Module32Next@
CONST	SEGMENT
??_C@_0N@KIGOLBLC@Module32Next@ DB 'Module32Next', 00H	; `string'
CONST	ENDS
;	COMDAT ??_C@_0P@ILGHDLOE@Process32First@
CONST	SEGMENT
??_C@_0P@ILGHDLOE@Process32First@ DB 'Process32First', 00H ; `string'
CONST	ENDS
;	COMDAT ??_C@_0BJ@JEFKDHMD@CreateToolhelp32Snapshot@
CONST	SEGMENT
??_C@_0BJ@JEFKDHMD@CreateToolhelp32Snapshot@ DB 'CreateToolhelp32Snapshot'
	DB	00H						; `string'
CONST	ENDS
;	COMDAT ??_C@_0O@CNMFJJGO@Module32First@
CONST	SEGMENT
??_C@_0O@CNMFJJGO@Module32First@ DB 'Module32First', 00H ; `string'
CONST	ENDS
;	COMDAT ??_C@_0N@NHGLKGEC@KERNEL32?4DLL@
CONST	SEGMENT
??_C@_0N@NHGLKGEC@KERNEL32?4DLL@ DB 'KERNEL32.DLL', 00H	; `string'
PUBLIC	?TLHELPGetLoadedModules@@YAHKIPEAPEAUHINSTANCE__@@PEAK@Z ; TLHELPGetLoadedModules
	ALIGN	8

?g_pThread32Next@@3P6AHPEAXPEAUtagTHREADENTRY32@@@ZEA DQ 01H DUP (?) ; g_pThread32Next
?g_pProcess32First@@3P6AHPEAXPEAUtagPROCESSENTRY32@@@ZEA DQ 01H DUP (?) ; g_pProcess32First
?g_pCreateToolhelp32Snapshot@@3P6APEAXKK@ZEA DQ 01H DUP (?) ; g_pCreateToolhelp32Snapshot
?g_bInitialized@@3HA DD 01H DUP (?)			; g_bInitialized
	ALIGN	8

?g_pModule32Next@@3P6AHPEAXPEAUtagMODULEENTRY32@@@ZEA DQ 01H DUP (?) ; g_pModule32Next
?g_pThread32First@@3P6AHPEAXPEAUtagTHREADENTRY32@@@ZEA DQ 01H DUP (?) ; g_pThread32First
?g_pProcess32Next@@3P6AHPEAXPEAUtagPROCESSENTRY32@@@ZEA DQ 01H DUP (?) ; g_pProcess32Next
?g_pModule32First@@3P6AHPEAXPEAUtagMODULEENTRY32@@@ZEA DQ 01H DUP (?) ; g_pModule32First
_BSS	ENDS
pdata	SEGMENT
$pdata$?InitTOOLHELP32@@YAHXZ DD imagerel ?InitTOOLHELP32@@YAHXZ
	DD	imagerel ?InitTOOLHELP32@@YAHXZ+30
	DD	imagerel $unwind$?InitTOOLHELP32@@YAHXZ
$pdata$0$?InitTOOLHELP32@@YAHXZ DD imagerel ?InitTOOLHELP32@@YAHXZ+30
	DD	imagerel ?InitTOOLHELP32@@YAHXZ+309
	DD	imagerel $chain$0$?InitTOOLHELP32@@YAHXZ
$pdata$2$?InitTOOLHELP32@@YAHXZ DD imagerel ?InitTOOLHELP32@@YAHXZ+309
	DD	imagerel ?InitTOOLHELP32@@YAHXZ+337
	DD	imagerel $chain$2$?InitTOOLHELP32@@YAHXZ
$pdata$?TLHELPGetLoadedModules@@YAHKIPEAPEAUHINSTANCE__@@PEAK@Z DD imagerel $LN23
	DD	imagerel $LN23+260
	DD	imagerel $unwind$?TLHELPGetLoadedModules@@YAHKIPEAPEAUHINSTANCE__@@PEAK@Z
pdata	ENDS
xdata	SEGMENT
$unwind$?InitTOOLHELP32@@YAHXZ DD 010401H
	DD	04204H
$chain$0$?InitTOOLHELP32@@YAHXZ DD 020521H
	DD	043405H
	DD	imagerel ?InitTOOLHELP32@@YAHXZ
	DD	imagerel ?InitTOOLHELP32@@YAHXZ+30
	DD	imagerel $unwind$?InitTOOLHELP32@@YAHXZ
$chain$2$?InitTOOLHELP32@@YAHXZ DD 020021H
	DD	043400H
	DD	imagerel ?InitTOOLHELP32@@YAHXZ
	DD	imagerel ?InitTOOLHELP32@@YAHXZ+30
	DD	imagerel $unwind$?InitTOOLHELP32@@YAHXZ
$unwind$?TLHELPGetLoadedModules@@YAHKIPEAPEAUHINSTANCE__@@PEAK@Z DD 091801H
	DD	0507418H
	DD	04f6418H
	DD	04e3418H
	DD	04c0118H
	DD	0e011H
; Function compile flags: /Ogtpy
; File C:\Users\Mahito\Desktop\Night outing\Night-outing\src\xrCore\blackbox\TLHELPProcessInfo.cpp
_TEXT	SEGMENT
stME32$ = 32
dwPID$ = 624
uiCount$ = 632
paModArray$ = 640
pdwRealCount$ = 648
?TLHELPGetLoadedModules@@YAHKIPEAPEAUHINSTANCE__@@PEAK@Z PROC ; TLHELPGetLoadedModules

; 158  : {

$LN23:
	mov	QWORD PTR [rsp+8], rbx
	mov	QWORD PTR [rsp+16], rsi
	mov	QWORD PTR [rsp+24], rdi
	push	r14
	sub	rsp, 608				; 00000260H
	mov	rbx, r9

; 159  : 
; 160  :     // Always set pdwRealCount to a know value before anything else.
; 161  :     *pdwRealCount = 0 ;

	mov	DWORD PTR [r9], 0
	mov	r14, r8
	mov	edi, edx
	mov	esi, ecx

; 162  : 
; 163  :     if ( FALSE == InitTOOLHELP32 ( ) )

	call	?InitTOOLHELP32@@YAHXZ			; InitTOOLHELP32
	test	eax, eax
	jne	SHORT $LN5@TLHELPGetL

; 164  :     {
; 165  :         ASSERT ( !"InitTOOLHELP32 failed" ) ;
; 166  :         SetLastErrorEx ( ERROR_DLL_INIT_FAILED , SLE_ERROR ) ;

	mov	ecx, 1114				; 0000045aH

; 167  :         return ( FALSE ) ;

	jmp	$LN20@TLHELPGetL
$LN5@TLHELPGetL:

; 168  :     }
; 169  : 
; 170  :     // The snapshot handle.
; 171  :     HANDLE        hModSnap     = NULL ;
; 172  :     // The module structure.
; 173  :     MODULEENTRY32 stME32              ;
; 174  :     // A flag kept to report if the buffer was too small.
; 175  :     BOOL          bBuffToSmall = FALSE ;
; 176  : 
; 177  : 
; 178  :     // Get the snapshot for the specified process.
; 179  :     hModSnap = g_pCreateToolhelp32Snapshot ( TH32CS_SNAPMODULE ,

	mov	edx, esi
	mov	ecx, 8
	call	QWORD PTR ?g_pCreateToolhelp32Snapshot@@3P6APEAXKK@ZEA
	mov	rsi, rax

; 180  :                                              dwPID              ) ;
; 181  :     ASSERT ( INVALID_HANDLE_VALUE != hModSnap ) ;
; 182  :     if ( INVALID_HANDLE_VALUE == hModSnap )

	cmp	rax, -1
	je	$LN21@TLHELPGetL

; 183  :     {
; 184  :         TRACE1 ( "Unable to get module snapshot for %08X\n" , dwPID ) ;
; 185  :         return ( FALSE ) ;
; 186  :     }
; 187  : 
; 188  :     FillMemory ( &stME32 , sizeof ( MODULEENTRY32 ), NULL ) ;

	xor	edx, edx
	lea	rcx, QWORD PTR stME32$[rsp+4]
	mov	r8d, 564				; 00000234H
	call	memset

; 189  :     stME32.dwSize = sizeof ( MODULEENTRY32 ) ;
; 190  : 
; 191  :     // Start getting the module values.
; 192  :     if ( TRUE == g_pModule32First ( hModSnap , &stME32 ) )

	lea	rdx, QWORD PTR stME32$[rsp]
	mov	DWORD PTR stME32$[rsp], 568		; 00000238H
	mov	rcx, rsi
	call	QWORD PTR ?g_pModule32First@@3P6AHPEAXPEAUtagMODULEENTRY32@@@ZEA
	cmp	eax, 1
	jne	SHORT $LN7@TLHELPGetL
$LL4@TLHELPGetL:

; 193  :     {
; 194  :         do
; 195  :         {
; 196  :             // If uiCount is not zero, copy values.
; 197  :             if ( 0 != uiCount )

	test	edi, edi
	je	SHORT $LN11@TLHELPGetL

; 198  :             {
; 199  :                 // If the passed in buffer is to small, set the flag.
; 200  :                 // This is so we match the functionality of the NT4
; 201  :                 // version of this function which will return the
; 202  :                 // correct total needed.
; 203  :                 if ( ( TRUE == bBuffToSmall     ) ||

	mov	eax, DWORD PTR [rbx]
	cmp	eax, edi
	je	SHORT $LN16@TLHELPGetL

; 207  :                     break ;
; 208  :                 }
; 209  :                 else
; 210  :                 {
; 211  :                     // Copy this value in.
; 212  :                     paModArray[ *pdwRealCount ] =

	mov	ecx, eax
	mov	rax, QWORD PTR stME32$[rsp+24]
	mov	QWORD PTR [r14+rcx*8], rax
$LN11@TLHELPGetL:

; 213  :                                          (HINSTANCE)stME32.modBaseAddr ;
; 214  :                 }
; 215  :             }
; 216  :             // Bump up the real total count.
; 217  :             *pdwRealCount += 1 ;

	inc	DWORD PTR [rbx]

; 218  :         }
; 219  :         while ( ( TRUE == g_pModule32Next ( hModSnap , &stME32 ) ) ) ;

	lea	rdx, QWORD PTR stME32$[rsp]
	mov	rcx, rsi
	call	QWORD PTR ?g_pModule32Next@@3P6AHPEAXPEAUtagMODULEENTRY32@@@ZEA
	cmp	eax, 1
	je	SHORT $LL4@TLHELPGetL

; 226  :         return ( FALSE ) ;
; 227  :     }
; 228  : 
; 229  :     // Close the snapshot handle.
; 230  :     VERIFY ( CloseHandle ( hModSnap ) ) ;

	mov	rcx, rsi
	call	QWORD PTR __imp_CloseHandle

; 238  :     }
; 239  : 
; 240  :     // All OK, Jumpmaster!
; 241  :     SetLastError ( ERROR_SUCCESS ) ;

	xor	ecx, ecx
	call	QWORD PTR __imp_SetLastError

; 242  :     return ( TRUE ) ;

	mov	eax, 1
	jmp	SHORT $LN1@TLHELPGetL
$LN16@TLHELPGetL:

; 204  :                      ( *pdwRealCount == uiCount )   )
; 205  :                 {
; 206  :                     bBuffToSmall = TRUE ;

	mov	rcx, rsi
	call	QWORD PTR __imp_CloseHandle

; 231  : 
; 232  :     // Check if the buffer was too small.
; 233  :     if ( TRUE == bBuffToSmall )
; 234  :     {
; 235  :         ASSERT ( !"Buffer to small in TLHELPGetLoadedModules\n" ) ;
; 236  :         SetLastErrorEx ( ERROR_INSUFFICIENT_BUFFER , SLE_ERROR ) ;

	mov	ecx, 122				; 0000007aH

; 237  :         return ( FALSE ) ;

	jmp	SHORT $LN20@TLHELPGetL
$LN7@TLHELPGetL:

; 220  :     }
; 221  :     else
; 222  :     {
; 223  :         DWORD dwLastErr = GetLastError ( ) ;

	call	QWORD PTR __imp_GetLastError

; 224  :         ASSERT ( !"Failed to get first module!\n" ) ;
; 225  :         SetLastErrorEx ( dwLastErr , SLE_ERROR ) ;

	mov	ecx, eax
$LN20@TLHELPGetL:

; 243  : }

	mov	edx, 1
	call	QWORD PTR __imp_SetLastErrorEx
$LN21@TLHELPGetL:
	xor	eax, eax
$LN1@TLHELPGetL:
	lea	r11, QWORD PTR [rsp+608]
	mov	rbx, QWORD PTR [r11+16]
	mov	rsi, QWORD PTR [r11+24]
	mov	rdi, QWORD PTR [r11+32]
	mov	rsp, r11
	pop	r14
	ret	0
?TLHELPGetLoadedModules@@YAHKIPEAPEAUHINSTANCE__@@PEAK@Z ENDP ; TLHELPGetLoadedModules
_TEXT	ENDS
; Function compile flags: /Ogtpy
; File C:\Users\Mahito\Desktop\Night outing\Night-outing\src\xrCore\blackbox\TLHELPProcessInfo.cpp
_TEXT	SEGMENT
?InitTOOLHELP32@@YAHXZ PROC				; InitTOOLHELP32

; 54   : {

	sub	rsp, 40					; 00000028H

; 55   :     if ( TRUE == g_bInitialized )

	cmp	DWORD PTR ?g_bInitialized@@3HA, 1
	jne	SHORT $LN2@InitTOOLHE

; 56   :     {
; 57   :         return ( TRUE ) ;

	mov	eax, 1

; 130  : }

	add	rsp, 40					; 00000028H
	ret	0
$LN2@InitTOOLHE:

; 58   :     }
; 59   : 
; 60   :     BOOL      bRet    = FALSE ;
; 61   :     HINSTANCE hKernel = NULL  ;
; 62   : 
; 63   :     // Obtain the module handle of the kernel to retrieve addresses of
; 64   :     // the tool helper functions.
; 65   :     hKernel = GetModuleHandleA ( "KERNEL32.DLL" ) ;

	lea	rcx, OFFSET FLAT:??_C@_0N@NHGLKGEC@KERNEL32?4DLL@
	mov	QWORD PTR [rsp+32], rbx
	call	QWORD PTR __imp_GetModuleHandleA
	mov	rbx, rax

; 66   :     ASSERT ( NULL != hKernel ) ;
; 67   : 
; 68   :     if ( NULL != hKernel )

	test	rax, rax
	je	$LN3@InitTOOLHE

; 69   :     {
; 70   :         g_pCreateToolhelp32Snapshot =

	lea	rdx, OFFSET FLAT:??_C@_0BJ@JEFKDHMD@CreateToolhelp32Snapshot@
	mov	rcx, rax
	call	QWORD PTR __imp_GetProcAddress

; 71   :            (CREATESNAPSHOT)GetProcAddress ( hKernel ,
; 72   :                                             "CreateToolhelp32Snapshot");
; 73   :         ASSERT ( NULL != g_pCreateToolhelp32Snapshot ) ;
; 74   : 
; 75   :         g_pModule32First = (MODULEWALK)GetProcAddress (hKernel ,

	lea	rdx, OFFSET FLAT:??_C@_0O@CNMFJJGO@Module32First@
	mov	rcx, rbx
	mov	QWORD PTR ?g_pCreateToolhelp32Snapshot@@3P6APEAXKK@ZEA, rax
	call	QWORD PTR __imp_GetProcAddress

; 76   :                                                        "Module32First");
; 77   :         ASSERT ( NULL != g_pModule32First ) ;
; 78   : 
; 79   :         g_pModule32Next = (MODULEWALK)GetProcAddress (hKernel        ,

	lea	rdx, OFFSET FLAT:??_C@_0N@KIGOLBLC@Module32Next@
	mov	rcx, rbx
	mov	QWORD PTR ?g_pModule32First@@3P6AHPEAXPEAUtagMODULEENTRY32@@@ZEA, rax
	call	QWORD PTR __imp_GetProcAddress

; 80   :                                                       "Module32Next"  );
; 81   :         ASSERT ( NULL != g_pModule32Next ) ;
; 82   : 
; 83   :         g_pProcess32First =

	lea	rdx, OFFSET FLAT:??_C@_0P@ILGHDLOE@Process32First@
	mov	rcx, rbx
	mov	QWORD PTR ?g_pModule32Next@@3P6AHPEAXPEAUtagMODULEENTRY32@@@ZEA, rax
	call	QWORD PTR __imp_GetProcAddress

; 84   :                 (PROCESSWALK)GetProcAddress ( hKernel          ,
; 85   :                                               "Process32First"  ) ;
; 86   :         ASSERT ( NULL != g_pProcess32First ) ;
; 87   : 
; 88   :         g_pProcess32Next =

	lea	rdx, OFFSET FLAT:??_C@_0O@LGJLFMBH@Process32Next@
	mov	rcx, rbx
	mov	QWORD PTR ?g_pProcess32First@@3P6AHPEAXPEAUtagPROCESSENTRY32@@@ZEA, rax
	call	QWORD PTR __imp_GetProcAddress

; 89   :                 (PROCESSWALK)GetProcAddress ( hKernel         ,
; 90   :                                               "Process32Next" ) ;
; 91   :         ASSERT ( NULL != g_pProcess32Next ) ;
; 92   : 
; 93   :         g_pThread32First =

	lea	rdx, OFFSET FLAT:??_C@_0O@DHAEEPDO@Thread32First@
	mov	rcx, rbx
	mov	QWORD PTR ?g_pProcess32Next@@3P6AHPEAXPEAUtagPROCESSENTRY32@@@ZEA, rax
	call	QWORD PTR __imp_GetProcAddress

; 94   :                 (THREADWALK)GetProcAddress ( hKernel         ,
; 95   :                                              "Thread32First"  ) ;
; 96   :         ASSERT ( NULL != g_pThread32First ) ;
; 97   : 
; 98   :         g_pThread32Next =

	lea	rdx, OFFSET FLAT:??_C@_0N@LDGMJMKG@Thread32Next@
	mov	rcx, rbx
	mov	QWORD PTR ?g_pThread32First@@3P6AHPEAXPEAUtagTHREADENTRY32@@@ZEA, rax
	call	QWORD PTR __imp_GetProcAddress

; 99   :                 (THREADWALK)GetProcAddress ( hKernel        ,
; 100  :                                              "Thread32Next"  ) ;
; 101  :         ASSERT ( NULL != g_pThread32Next ) ;
; 102  : 
; 103  :         // All addresses must be non-NULL to be successful.  If one of
; 104  :         // these addresses is NULL, one of the needed lists cannot be
; 105  :         // walked.
; 106  : 
; 107  :         bRet =  g_pModule32First            &&

	cmp	QWORD PTR ?g_pModule32First@@3P6AHPEAXPEAUtagMODULEENTRY32@@@ZEA, 0
	mov	QWORD PTR ?g_pThread32Next@@3P6AHPEAXPEAUtagTHREADENTRY32@@@ZEA, rax
	je	SHORT $LN7@InitTOOLHE
	cmp	QWORD PTR ?g_pModule32Next@@3P6AHPEAXPEAUtagMODULEENTRY32@@@ZEA, 0
	je	SHORT $LN7@InitTOOLHE
	cmp	QWORD PTR ?g_pProcess32First@@3P6AHPEAXPEAUtagPROCESSENTRY32@@@ZEA, 0
	je	SHORT $LN7@InitTOOLHE
	cmp	QWORD PTR ?g_pProcess32Next@@3P6AHPEAXPEAUtagPROCESSENTRY32@@@ZEA, 0
	je	SHORT $LN7@InitTOOLHE
	cmp	QWORD PTR ?g_pThread32First@@3P6AHPEAXPEAUtagTHREADENTRY32@@@ZEA, 0
	je	SHORT $LN7@InitTOOLHE
	test	rax, rax
	je	SHORT $LN7@InitTOOLHE
	cmp	QWORD PTR ?g_pCreateToolhelp32Snapshot@@3P6APEAXKK@ZEA, 0
	je	SHORT $LN7@InitTOOLHE
	mov	eax, 1
	jmp	SHORT $LN8@InitTOOLHE
$LN7@InitTOOLHE:
	xor	eax, eax
$LN8@InitTOOLHE:

; 120  :     }
; 121  : 
; 122  :     ASSERT ( TRUE == bRet ) ;
; 123  : 
; 124  :     if ( TRUE == bRet )

	cmp	eax, 1
	jne	SHORT $LN5@InitTOOLHE

; 125  :     {
; 126  :         // All OK, Jumpmaster!
; 127  :         g_bInitialized = TRUE ;
; 128  :     }
; 129  :     return ( bRet ) ;

	mov	rbx, QWORD PTR [rsp+32]
	mov	DWORD PTR ?g_bInitialized@@3HA, eax

; 130  : }

	add	rsp, 40					; 00000028H
	ret	0
$LN3@InitTOOLHE:

; 108  :                 g_pModule32Next             &&
; 109  :                 g_pProcess32First           &&
; 110  :                 g_pProcess32Next            &&
; 111  :                 g_pThread32First            &&
; 112  :                 g_pThread32Next             &&
; 113  :                 g_pCreateToolhelp32Snapshot    ;
; 114  :     }
; 115  :     else
; 116  :     {
; 117  :         // Could not get the module handle of kernel.
; 118  :         SetLastErrorEx ( ERROR_DLL_INIT_FAILED , SLE_ERROR ) ;

	mov	edx, 1
	mov	ecx, 1114				; 0000045aH
	call	QWORD PTR __imp_SetLastErrorEx

; 119  :         bRet = FALSE ;

	xor	eax, eax
$LN5@InitTOOLHE:

; 125  :     {
; 126  :         // All OK, Jumpmaster!
; 127  :         g_bInitialized = TRUE ;
; 128  :     }
; 129  :     return ( bRet ) ;

	mov	rbx, QWORD PTR [rsp+32]

; 130  : }

	add	rsp, 40					; 00000028H
	ret	0
?InitTOOLHELP32@@YAHXZ ENDP				; InitTOOLHELP32
_TEXT	ENDS
END
