; Listing generated by Microsoft (R) Optimizing Compiler Version 19.35.32217.1 

include listing.inc

INCLUDELIB OLDNAMES

PUBLIC	??_C@_06FHFOAHML@system@			; `string'
PUBLIC	??_C@_0BA@IJFHJFOH@?9?9?9?9?9loading?5?$CFs@	; `string'
PUBLIC	??_C@_0BF@HIBEFMCL@?$CBCan?8t?5save?5inifile?3@	; `string'
PUBLIC	??_C@_0P@PFFEEJAK@CInifile?3?3Load@		; `string'
PUBLIC	??_C@_0EI@OLNNDBE@C?3?2Users?2Mahito?2Desktop?2Night?5o@ ; `string'
PUBLIC	??_C@_01BIAFAFID@F@				; `string'
PUBLIC	??_C@_08GPLAJCBH@?$CDinclude@			; `string'
PUBLIC	??_C@_0O@OGKPJIFO@path?$CG?$CGpath?$FL0?$FN@	; `string'
PUBLIC	??_C@_0BJ@JNOOHJGB@Can?8t?5find?5include?5file?3@ ; `string'
PUBLIC	??_C@_01JPJNBJEM@I@				; `string'
PUBLIC	??_C@_0BO@PADAFPII@Duplicate?5section?5?8?$CFs?8?5found?4@ ; `string'
PUBLIC	??_C@_0BI@IHFKKOHL@Bad?5ini?5section?5found?3?5@ ; `string'
PUBLIC	??_C@_0BA@NMAHPAMG@strchr?$CIstr?0?8?$FN?8?$CJ@	; `string'
PUBLIC	??_C@_02EBHDEFHH@?$FN?3@			; `string'
PUBLIC	??_C@_0GJ@LPMKKHFJ@Incorrect?5inifile?5format?3?5secti@ ; `string'
PUBLIC	??_C@_0EC@IDCOAPHE@xr_strlen?$CIvalue_raw?$CJ?5?$CL?5xr_strle@ ; `string'
PUBLIC	??_C@_04LIFAFMCE@?$FL?$CFs?$FN@			; `string'
PUBLIC	??_C@_0L@CHOCBBDE@?$DL?5?$CFd?5?$CFd?5?$CFd@	; `string'
PUBLIC	??_C@_0BF@LHOOJCMC@?$CF8s?$CF?932s?5?$DN?5?$CF?932s?5?$DL?$CFs@ ; `string'
PUBLIC	??_C@_0BB@DGLKGBOG@?$CF8s?$CF?932s?5?$DN?5?$CF?932s@ ; `string'
PUBLIC	??_C@_0M@FGDEMPPI@?$CF8s?$CF?932s?5?$DN?5@	; `string'
PUBLIC	??_C@_0BC@LBCCFBEL@CInifile?3?3save_as@		; `string'
PUBLIC	??_C@_0BM@DCJLNCCH@m_file_name?$CG?$CGm_file_name?$FL0?$FN@ ; `string'
PUBLIC	??_C@_0EL@KHMLHMDB@Can?8t?5open?5section?5?8?$CFs?8?4?5Please@ ; `string'
PUBLIC	??_C@_0BE@BCNJJKHP@CInifile?3?3r_section@	; `string'
PUBLIC	??_C@_0BP@MHCNOEDN@Can?8t?5find?5variable?5?$CFs?5in?5?$FL?$CFs?$FN@ ; `string'
PUBLIC	??_C@_0BD@DOJGBPMF@CInifile?3?3r_string@	; `string'
PUBLIC	??_C@_0M@JJJBFJKB@?$CFf?0?$CFf?0?$CFf?0?$CFf@	; `string'
PUBLIC	??_C@_0M@MLCONGPP@?$CFd?0?$CFd?0?$CFd?0?$CFd@	; `string'
PUBLIC	??_C@_05KABNCBHK@?$CFd?0?$CFd@			; `string'
PUBLIC	??_C@_08GDAMKODC@?$CFd?0?$CFd?0?$CFd@		; `string'
PUBLIC	??_C@_05OIOLBAJI@?$CFf?0?$CFf@			; `string'
PUBLIC	??_C@_08GJNPJIKN@?$CFf?0?$CFf?0?$CFf@		; `string'
PUBLIC	??_C@_0BD@HEABFKIK@CInifile?3?3w_string@	; `string'
PUBLIC	??_C@_0BJ@HJHMDAE@?$CBm_flags?4test?$CIeReadOnly?$CJ@ ; `string'
PUBLIC	??_C@_0CG@GNNFKEAK@name?$FL?$CFs?$FN?5already?5exist?5in?5secti@ ; `string'
PUBLIC	??_C@_01OJONOECF@b@				; `string'
PUBLIC	??_C@_02DPKJAMEF@?$CFd@				; `string'
PUBLIC	??_C@_03MCADLMAF@off@				; `string'
PUBLIC	??_C@_0BG@HJJEFCMD@CInifile?3?3remove_line@	; `string'
PUBLIC	??_C@_0DA@GAFJJPBK@A?$CB?$DNdata?4Data?4end?$CI?$CJ?5?$CG?$CG?5xr_strcmp@ ; `string'
PUBLIC	??_R2CInifile@@8				; CInifile::`RTTI Base Class Array'
PUBLIC	??_R1A@?0A@EA@CInifile@@8			; CInifile::`RTTI Base Class Descriptor at (0,-1,0,64)'
PUBLIC	??_R3CInifile@@8				; CInifile::`RTTI Class Hierarchy Descriptor'
PUBLIC	??_R0?AVCInifile@@@8				; CInifile `RTTI Type Descriptor'
PUBLIC	??_R4CInifile@@6B@				; CInifile::`RTTI Complete Object Locator'
PUBLIC	??_C@_02NJPGOMH@?$CFf@				; `string'
PUBLIC	??_7CInifile@@6B@				; CInifile::`vftable'
EXTRN	__imp__i64toa_s:PROC
EXTRN	__imp__ui64toa_s:PROC
EXTRN	__imp__strlwr:PROC
EXTRN	__imp_atof:PROC
EXTRN	__imp__atoi64:PROC
EXTRN	__imp__strtoui64:PROC
EXTRN	__imp_atoi:PROC
EXTRN	__imp_isspace:PROC
;	COMDAT ?ignore_always@?L@??remove_line@CInifile@@QEAAXPEBD0@Z@4_NA
_BSS	SEGMENT
?ignore_always@?L@??remove_line@CInifile@@QEAAXPEBD0@Z@4_NA DB 01H DUP (?) ; `CInifile::remove_line'::`11'::ignore_always
_BSS	ENDS
;	COMDAT ?ignore_always@?3??remove_line@CInifile@@QEAAXPEBD0@Z@4_NA
_BSS	SEGMENT
?ignore_always@?3??remove_line@CInifile@@QEAAXPEBD0@Z@4_NA DB 01H DUP (?) ; `CInifile::remove_line'::`4'::ignore_always
_BSS	ENDS
;	COMDAT ?ignore_always@?BB@??w_string@CInifile@@QEAAXPEBD000@Z@4_NA
_BSS	SEGMENT
?ignore_always@?BB@??w_string@CInifile@@QEAAXPEBD000@Z@4_NA DB 01H DUP (?) ; `CInifile::w_string'::`17'::ignore_always
_BSS	ENDS
;	COMDAT ?ignore_always@?3??w_string@CInifile@@QEAAXPEBD000@Z@4_NA
_BSS	SEGMENT
?ignore_always@?3??w_string@CInifile@@QEAAXPEBD000@Z@4_NA DB 01H DUP (?) ; `CInifile::w_string'::`4'::ignore_always
_BSS	ENDS
;	COMDAT ?ignore_always@?5??save_as@CInifile@@QEAA_NPEBD@Z@4_NA
_BSS	SEGMENT
?ignore_always@?5??save_as@CInifile@@QEAA_NPEBD@Z@4_NA DB 01H DUP (?) ; `CInifile::save_as'::`6'::ignore_always
_BSS	ENDS
;	COMDAT ?ignore_always@?EN@??Load@CInifile@@AEAAXPEAVIReader@@PEBDV?$FastDelegate1@PEBD_N@fastdelegate@@@Z@4_NA
_BSS	SEGMENT
?ignore_always@?EN@??Load@CInifile@@AEAAXPEAVIReader@@PEBDV?$FastDelegate1@PEBD_N@fastdelegate@@@Z@4_NA DB 01H DUP (?) ; `CInifile::Load'::`77'::ignore_always
_BSS	ENDS
;	COMDAT ?ignore_always@?DC@??Load@CInifile@@AEAAXPEAVIReader@@PEBDV?$FastDelegate1@PEBD_N@fastdelegate@@@Z@4_NA
_BSS	SEGMENT
?ignore_always@?DC@??Load@CInifile@@AEAAXPEAVIReader@@PEBDV?$FastDelegate1@PEBD_N@fastdelegate@@@Z@4_NA DB 01H DUP (?) ; `CInifile::Load'::`50'::ignore_always
_BSS	ENDS
;	COMDAT ?ignore_always@?CF@??Load@CInifile@@AEAAXPEAVIReader@@PEBDV?$FastDelegate1@PEBD_N@fastdelegate@@@Z@4_NA
_BSS	SEGMENT
?ignore_always@?CF@??Load@CInifile@@AEAAXPEAVIReader@@PEBDV?$FastDelegate1@PEBD_N@fastdelegate@@@Z@4_NA DB 01H DUP (?) ; `CInifile::Load'::`37'::ignore_always
_BSS	ENDS
;	COMDAT ?ignore_always@?BL@??Load@CInifile@@AEAAXPEAVIReader@@PEBDV?$FastDelegate1@PEBD_N@fastdelegate@@@Z@4_NA
_BSS	SEGMENT
?ignore_always@?BL@??Load@CInifile@@AEAAXPEAVIReader@@PEBDV?$FastDelegate1@PEBD_N@fastdelegate@@@Z@4_NA DB 01H DUP (?) ; `CInifile::Load'::`27'::ignore_always
_BSS	ENDS
;	COMDAT ?ignore_always@?3??Load@CInifile@@AEAAXPEAVIReader@@PEBDV?$FastDelegate1@PEBD_N@fastdelegate@@@Z@4_NA
_BSS	SEGMENT
?ignore_always@?3??Load@CInifile@@AEAAXPEAVIReader@@PEBDV?$FastDelegate1@PEBD_N@fastdelegate@@@Z@4_NA DB 01H DUP (?) ; `CInifile::Load'::`4'::ignore_always
_BSS	ENDS
;	COMDAT ??_7CInifile@@6B@
CONST	SEGMENT
??_7CInifile@@6B@ DQ FLAT:??_R4CInifile@@6B@		; CInifile::`vftable'
	DQ	FLAT:??_ECInifile@@UEAAPEAXI@Z
CONST	ENDS
;	COMDAT ??_C@_02NJPGOMH@?$CFf@
CONST	SEGMENT
??_C@_02NJPGOMH@?$CFf@ DB '%f', 00H			; `string'
CONST	ENDS
;	COMDAT ??_R4CInifile@@6B@
rdata$r	SEGMENT
??_R4CInifile@@6B@ DD 01H				; CInifile::`RTTI Complete Object Locator'
	DD	00H
	DD	00H
	DD	imagerel ??_R0?AVCInifile@@@8
	DD	imagerel ??_R3CInifile@@8
	DD	imagerel ??_R4CInifile@@6B@
rdata$r	ENDS
;	COMDAT ??_R0?AVCInifile@@@8
data$rs	SEGMENT
??_R0?AVCInifile@@@8 DQ FLAT:??_7type_info@@6B@		; CInifile `RTTI Type Descriptor'
	DQ	0000000000000000H
	DB	'.?AVCInifile@@', 00H
data$rs	ENDS
;	COMDAT ??_R3CInifile@@8
rdata$r	SEGMENT
??_R3CInifile@@8 DD 00H					; CInifile::`RTTI Class Hierarchy Descriptor'
	DD	00H
	DD	01H
	DD	imagerel ??_R2CInifile@@8
rdata$r	ENDS
;	COMDAT ??_R1A@?0A@EA@CInifile@@8
rdata$r	SEGMENT
??_R1A@?0A@EA@CInifile@@8 DD imagerel ??_R0?AVCInifile@@@8 ; CInifile::`RTTI Base Class Descriptor at (0,-1,0,64)'
	DD	00H
	DD	00H
	DD	0ffffffffH
	DD	00H
	DD	040H
	DD	imagerel ??_R3CInifile@@8
rdata$r	ENDS
;	COMDAT ??_R2CInifile@@8
rdata$r	SEGMENT
??_R2CInifile@@8 DD imagerel ??_R1A@?0A@EA@CInifile@@8	; CInifile::`RTTI Base Class Array'
	ORG $+3
rdata$r	ENDS
;	COMDAT ??_C@_0DA@GAFJJPBK@A?$CB?$DNdata?4Data?4end?$CI?$CJ?5?$CG?$CG?5xr_strcmp@
CONST	SEGMENT
??_C@_0DA@GAFJJPBK@A?$CB?$DNdata?4Data?4end?$CI?$CJ?5?$CG?$CG?5xr_strcmp@ DB 'A'
	DB	'!=data.Data.end() && xr_strcmp(*A->first,L)==0', 00H ; `string'
CONST	ENDS
;	COMDAT ??_C@_0BG@HJJEFCMD@CInifile?3?3remove_line@
CONST	SEGMENT
??_C@_0BG@HJJEFCMD@CInifile?3?3remove_line@ DB 'CInifile::remove_line', 00H ; `string'
CONST	ENDS
;	COMDAT ??_C@_03MCADLMAF@off@
CONST	SEGMENT
??_C@_03MCADLMAF@off@ DB 'off', 00H			; `string'
CONST	ENDS
;	COMDAT ??_C@_02DPKJAMEF@?$CFd@
CONST	SEGMENT
??_C@_02DPKJAMEF@?$CFd@ DB '%d', 00H			; `string'
CONST	ENDS
;	COMDAT ??_C@_01OJONOECF@b@
CONST	SEGMENT
??_C@_01OJONOECF@b@ DB 'b', 00H				; `string'
CONST	ENDS
;	COMDAT ??_C@_0CG@GNNFKEAK@name?$FL?$CFs?$FN?5already?5exist?5in?5secti@
CONST	SEGMENT
??_C@_0CG@GNNFKEAK@name?$FL?$CFs?$FN?5already?5exist?5in?5secti@ DB 'name'
	DB	'[%s] already exist in section[%s]', 00H	; `string'
CONST	ENDS
;	COMDAT ??_C@_0BJ@HJHMDAE@?$CBm_flags?4test?$CIeReadOnly?$CJ@
CONST	SEGMENT
??_C@_0BJ@HJHMDAE@?$CBm_flags?4test?$CIeReadOnly?$CJ@ DB '!m_flags.test(e'
	DB	'ReadOnly)', 00H				; `string'
CONST	ENDS
;	COMDAT ??_C@_0BD@HEABFKIK@CInifile?3?3w_string@
CONST	SEGMENT
??_C@_0BD@HEABFKIK@CInifile?3?3w_string@ DB 'CInifile::w_string', 00H ; `string'
CONST	ENDS
;	COMDAT ??_C@_08GJNPJIKN@?$CFf?0?$CFf?0?$CFf@
CONST	SEGMENT
??_C@_08GJNPJIKN@?$CFf?0?$CFf?0?$CFf@ DB '%f,%f,%f', 00H ; `string'
CONST	ENDS
;	COMDAT ??_C@_05OIOLBAJI@?$CFf?0?$CFf@
CONST	SEGMENT
??_C@_05OIOLBAJI@?$CFf?0?$CFf@ DB '%f,%f', 00H		; `string'
CONST	ENDS
;	COMDAT ??_C@_08GDAMKODC@?$CFd?0?$CFd?0?$CFd@
CONST	SEGMENT
??_C@_08GDAMKODC@?$CFd?0?$CFd?0?$CFd@ DB '%d,%d,%d', 00H ; `string'
CONST	ENDS
;	COMDAT ??_C@_05KABNCBHK@?$CFd?0?$CFd@
CONST	SEGMENT
??_C@_05KABNCBHK@?$CFd?0?$CFd@ DB '%d,%d', 00H		; `string'
CONST	ENDS
;	COMDAT ??_C@_0M@MLCONGPP@?$CFd?0?$CFd?0?$CFd?0?$CFd@
CONST	SEGMENT
??_C@_0M@MLCONGPP@?$CFd?0?$CFd?0?$CFd?0?$CFd@ DB '%d,%d,%d,%d', 00H ; `string'
CONST	ENDS
;	COMDAT ??_C@_0M@JJJBFJKB@?$CFf?0?$CFf?0?$CFf?0?$CFf@
CONST	SEGMENT
??_C@_0M@JJJBFJKB@?$CFf?0?$CFf?0?$CFf?0?$CFf@ DB '%f,%f,%f,%f', 00H ; `string'
CONST	ENDS
;	COMDAT ??_C@_0BD@DOJGBPMF@CInifile?3?3r_string@
CONST	SEGMENT
??_C@_0BD@DOJGBPMF@CInifile?3?3r_string@ DB 'CInifile::r_string', 00H ; `string'
CONST	ENDS
;	COMDAT ??_C@_0BP@MHCNOEDN@Can?8t?5find?5variable?5?$CFs?5in?5?$FL?$CFs?$FN@
CONST	SEGMENT
??_C@_0BP@MHCNOEDN@Can?8t?5find?5variable?5?$CFs?5in?5?$FL?$CFs?$FN@ DB 'C'
	DB	'an''t find variable %s in [%s]', 00H	; `string'
CONST	ENDS
;	COMDAT ??_C@_0BE@BCNJJKHP@CInifile?3?3r_section@
CONST	SEGMENT
??_C@_0BE@BCNJJKHP@CInifile?3?3r_section@ DB 'CInifile::r_section', 00H ; `string'
CONST	ENDS
;	COMDAT ??_C@_0EL@KHMLHMDB@Can?8t?5open?5section?5?8?$CFs?8?4?5Please@
CONST	SEGMENT
??_C@_0EL@KHMLHMDB@Can?8t?5open?5section?5?8?$CFs?8?4?5Please@ DB 'Can''t'
	DB	' open section ''%s''. Please attach [*.ini_log] file to your '
	DB	'bug report', 00H				; `string'
CONST	ENDS
;	COMDAT ??_C@_0BM@DCJLNCCH@m_file_name?$CG?$CGm_file_name?$FL0?$FN@
CONST	SEGMENT
??_C@_0BM@DCJLNCCH@m_file_name?$CG?$CGm_file_name?$FL0?$FN@ DB 'm_file_na'
	DB	'me&&m_file_name[0]', 00H			; `string'
CONST	ENDS
;	COMDAT ??_C@_0BC@LBCCFBEL@CInifile?3?3save_as@
CONST	SEGMENT
??_C@_0BC@LBCCFBEL@CInifile?3?3save_as@ DB 'CInifile::save_as', 00H ; `string'
CONST	ENDS
;	COMDAT ??_C@_0M@FGDEMPPI@?$CF8s?$CF?932s?5?$DN?5@
CONST	SEGMENT
??_C@_0M@FGDEMPPI@?$CF8s?$CF?932s?5?$DN?5@ DB '%8s%-32s = ', 00H ; `string'
CONST	ENDS
;	COMDAT ??_C@_0BB@DGLKGBOG@?$CF8s?$CF?932s?5?$DN?5?$CF?932s@
CONST	SEGMENT
??_C@_0BB@DGLKGBOG@?$CF8s?$CF?932s?5?$DN?5?$CF?932s@ DB '%8s%-32s = %-32s'
	DB	00H						; `string'
CONST	ENDS
;	COMDAT ??_C@_0BF@LHOOJCMC@?$CF8s?$CF?932s?5?$DN?5?$CF?932s?5?$DL?$CFs@
CONST	SEGMENT
??_C@_0BF@LHOOJCMC@?$CF8s?$CF?932s?5?$DN?5?$CF?932s?5?$DL?$CFs@ DB '%8s%-'
	DB	'32s = %-32s ;%s', 00H			; `string'
CONST	ENDS
;	COMDAT ??_C@_0L@CHOCBBDE@?$DL?5?$CFd?5?$CFd?5?$CFd@
CONST	SEGMENT
??_C@_0L@CHOCBBDE@?$DL?5?$CFd?5?$CFd?5?$CFd@ DB '; %d %d %d', 00H ; `string'
CONST	ENDS
;	COMDAT ??_C@_04LIFAFMCE@?$FL?$CFs?$FN@
CONST	SEGMENT
??_C@_04LIFAFMCE@?$FL?$CFs?$FN@ DB '[%s]', 00H		; `string'
CONST	ENDS
;	COMDAT ??_C@_0EC@IDCOAPHE@xr_strlen?$CIvalue_raw?$CJ?5?$CL?5xr_strle@
CONST	SEGMENT
??_C@_0EC@IDCOAPHE@xr_strlen?$CIvalue_raw?$CJ?5?$CL?5xr_strle@ DB 'xr_str'
	DB	'len(value_raw) + xr_strlen(str_add_raw) < sizeof(value_raw)', 00H ; `string'
CONST	ENDS
;	COMDAT ??_C@_0GJ@LPMKKHFJ@Incorrect?5inifile?5format?3?5secti@
CONST	SEGMENT
??_C@_0GJ@LPMKKHFJ@Incorrect?5inifile?5format?3?5secti@ DB 'Incorrect ini'
	DB	'file format: section[%s], variable[%s]. Odd number of quotes '
	DB	'(") found, but should be even.', 00H	; `string'
CONST	ENDS
;	COMDAT ??_C@_02EBHDEFHH@?$FN?3@
CONST	SEGMENT
??_C@_02EBHDEFHH@?$FN?3@ DB ']:', 00H			; `string'
CONST	ENDS
;	COMDAT ??_C@_0BA@NMAHPAMG@strchr?$CIstr?0?8?$FN?8?$CJ@
CONST	SEGMENT
??_C@_0BA@NMAHPAMG@strchr?$CIstr?0?8?$FN?8?$CJ@ DB 'strchr(str,'']'')', 00H ; `string'
CONST	ENDS
;	COMDAT ??_C@_0BI@IHFKKOHL@Bad?5ini?5section?5found?3?5@
CONST	SEGMENT
??_C@_0BI@IHFKKOHL@Bad?5ini?5section?5found?3?5@ DB 'Bad ini section foun'
	DB	'd: ', 00H					; `string'
CONST	ENDS
;	COMDAT ??_C@_0BO@PADAFPII@Duplicate?5section?5?8?$CFs?8?5found?4@
CONST	SEGMENT
??_C@_0BO@PADAFPII@Duplicate?5section?5?8?$CFs?8?5found?4@ DB 'Duplicate '
	DB	'section ''%s'' found.', 00H			; `string'
CONST	ENDS
;	COMDAT ??_C@_01JPJNBJEM@I@
CONST	SEGMENT
??_C@_01JPJNBJEM@I@ DB 'I', 00H				; `string'
CONST	ENDS
;	COMDAT ??_C@_0BJ@JNOOHJGB@Can?8t?5find?5include?5file?3@
CONST	SEGMENT
??_C@_0BJ@JNOOHJGB@Can?8t?5find?5include?5file?3@ DB 'Can''t find include'
	DB	' file:', 00H				; `string'
CONST	ENDS
;	COMDAT ??_C@_0O@OGKPJIFO@path?$CG?$CGpath?$FL0?$FN@
CONST	SEGMENT
??_C@_0O@OGKPJIFO@path?$CG?$CGpath?$FL0?$FN@ DB 'path&&path[0]', 00H ; `string'
CONST	ENDS
;	COMDAT ??_C@_08GPLAJCBH@?$CDinclude@
CONST	SEGMENT
??_C@_08GPLAJCBH@?$CDinclude@ DB '#include', 00H	; `string'
CONST	ENDS
;	COMDAT ??_C@_01BIAFAFID@F@
CONST	SEGMENT
??_C@_01BIAFAFID@F@ DB 'F', 00H				; `string'
CONST	ENDS
;	COMDAT ??_C@_0EI@OLNNDBE@C?3?2Users?2Mahito?2Desktop?2Night?5o@
CONST	SEGMENT
??_C@_0EI@OLNNDBE@C?3?2Users?2Mahito?2Desktop?2Night?5o@ DB 'C:\Users\Mah'
	DB	'ito\Desktop\Night outing\Night-outing\src\xrCore\Xr_ini.cpp', 00H ; `string'
CONST	ENDS
;	COMDAT ??_C@_0P@PFFEEJAK@CInifile?3?3Load@
CONST	SEGMENT
??_C@_0P@PFFEEJAK@CInifile?3?3Load@ DB 'CInifile::Load', 00H ; `string'
CONST	ENDS
;	COMDAT ??_C@_0BF@HIBEFMCL@?$CBCan?8t?5save?5inifile?3@
CONST	SEGMENT
??_C@_0BF@HIBEFMCL@?$CBCan?8t?5save?5inifile?3@ DB '!Can''t save inifile:'
	DB	00H						; `string'
CONST	ENDS
;	COMDAT ??_C@_0BA@IJFHJFOH@?9?9?9?9?9loading?5?$CFs@
CONST	SEGMENT
??_C@_0BA@IJFHJFOH@?9?9?9?9?9loading?5?$CFs@ DB '-----loading %s', 00H ; `string'
CONST	ENDS
;	COMDAT ??_C@_06FHFOAHML@system@
CONST	SEGMENT
??_C@_06FHFOAHML@system@ DB 'system', 00H		; `string'
PUBLIC	??7shared_str@@QEBA_NXZ				; shared_str::operator!
PUBLIC	??M@YA_NAEBVshared_str@@0@Z			; operator<
PUBLIC	?zero@?$_flags@E@@QEAAAEAU1@XZ			; _flags<unsigned char>::zero
PUBLIC	?set@?$_flags@E@@QEAAAEAU1@EH@Z			; _flags<unsigned char>::set
PUBLIC	?equal@shared_str@@QEBA_NAEBV1@@Z		; shared_str::equal
PUBLIC	??0Item@CInifile@@QEAA@XZ			; CInifile::Item::Item
PUBLIC	??9@YA_NAEBVshared_str@@0@Z			; operator!=
PUBLIC	?w_open_ex@CLocatorAPI@@QEAAPEAVIWriter@@PEBD@Z	; CLocatorAPI::w_open_ex
PUBLIC	??7DelegateMemento@fastdelegate@@QEBA_NXZ	; fastdelegate::DelegateMemento::operator!
PUBLIC	?SetMementoFrom@DelegateMemento@fastdelegate@@IEAAXAEBV12@@Z ; fastdelegate::DelegateMemento::SetMementoFrom
PUBLIC	??$_Emplace_back@UItem@CInifile@@@?$_Uninitialized_backout_al@V?$xalloc@UItem@CInifile@@@@@std@@QEAAX$$QEAUItem@CInifile@@@Z ; std::_Uninitialized_backout_al<xalloc<CInifile::Item> >::_Emplace_back<CInifile::Item>
PUBLIC	??$_Refancy@PEAUItem@CInifile@@$0A@@std@@YAPEAUItem@CInifile@@PEAU12@@Z ; std::_Refancy<CInifile::Item *,0>
PUBLIC	??$_Refancy@PEAPEAUSect@CInifile@@$0A@@std@@YAPEAPEAUSect@CInifile@@PEAPEAU12@@Z ; std::_Refancy<CInifile::Sect * *,0>
PUBLIC	??$construct@UItem@CInifile@@AEAU12@@?$_Normal_allocator_traits@V?$xalloc@UItem@CInifile@@@@@std@@SAXAEAV?$xalloc@UItem@CInifile@@@@PEAUItem@CInifile@@AEAU34@@Z ; std::_Normal_allocator_traits<xalloc<CInifile::Item> >::construct<CInifile::Item,CInifile::Item &>
PUBLIC	??$forward@AEAUItem@CInifile@@@std@@YAAEAUItem@CInifile@@AEAU12@@Z ; std::forward<CInifile::Item &>
PUBLIC	??$_Get_unwrapped@AEBQEAUItem@CInifile@@@std@@YA?A_TAEBQEAUItem@CInifile@@@Z ; std::_Get_unwrapped<CInifile::Item * const &>
PUBLIC	??$_Uninitialized_move@PEAUItem@CInifile@@V?$xalloc@UItem@CInifile@@@@@std@@YAPEAUItem@CInifile@@QEAU12@0PEAU12@AEAV?$xalloc@UItem@CInifile@@@@@Z ; std::_Uninitialized_move<CInifile::Item *,xalloc<CInifile::Item> >
PUBLIC	??$forward@UItem@CInifile@@@std@@YA$$QEAUItem@CInifile@@AEAU12@@Z ; std::forward<CInifile::Item>
PUBLIC	??$_To_address@PEAPEAUSect@CInifile@@@std@@YA?A_PAEBQEAPEAUSect@CInifile@@@Z ; std::_To_address<CInifile::Sect * *>
PUBLIC	??$_Copy_backward_memmove@PEAPEAUSect@CInifile@@PEAPEAU12@@std@@YAPEAPEAUSect@CInifile@@PEAPEAU12@00@Z ; std::_Copy_backward_memmove<CInifile::Sect * *,CInifile::Sect * *>
PUBLIC	??$forward@PEAUSect@CInifile@@@std@@YA$$QEAPEAUSect@CInifile@@AEAPEAU12@@Z ; std::forward<CInifile::Sect *>
PUBLIC	??$forward@AEAPEBUItem@CInifile@@@std@@YAAEAPEBUItem@CInifile@@AEAPEBU12@@Z ; std::forward<CInifile::Item const * &>
PUBLIC	??$advance@PEBUItem@CInifile@@_J@std@@YAXAEAPEBUItem@CInifile@@_J@Z ; std::advance<CInifile::Item const *,__int64>
PUBLIC	??$forward@AEAPEBQEAUSect@CInifile@@@std@@YAAEAPEBQEAUSect@CInifile@@AEAPEBQEAU12@@Z ; std::forward<CInifile::Sect * const * &>
PUBLIC	??$advance@PEBQEAUSect@CInifile@@_J@std@@YAXAEAPEBQEAUSect@CInifile@@_J@Z ; std::advance<CInifile::Sect * const *,__int64>
PUBLIC	??$forward@AEAPEAPEAUSect@CInifile@@@std@@YAAEAPEAPEAUSect@CInifile@@AEAPEAPEAU12@@Z ; std::forward<CInifile::Sect * * &>
PUBLIC	??$advance@PEAPEAUSect@CInifile@@_J@std@@YAXAEAPEAPEAUSect@CInifile@@_J@Z ; std::advance<CInifile::Sect * *,__int64>
PUBLIC	??$forward@AEAPEAUItem@CInifile@@@std@@YAAEAPEAUItem@CInifile@@AEAPEAU12@@Z ; std::forward<CInifile::Item * &>
PUBLIC	??$advance@PEAUItem@CInifile@@_J@std@@YAXAEAPEAUItem@CInifile@@_J@Z ; std::advance<CInifile::Item *,__int64>
PUBLIC	??$construct@UItem@CInifile@@AEBU12@@?$_Normal_allocator_traits@V?$xalloc@UItem@CInifile@@@@@std@@SAXAEAV?$xalloc@UItem@CInifile@@@@PEAUItem@CInifile@@AEBU34@@Z ; std::_Normal_allocator_traits<xalloc<CInifile::Item> >::construct<CInifile::Item,CInifile::Item const &>
PUBLIC	??$construct@PEAUSect@CInifile@@AEBQEAU12@@?$_Normal_allocator_traits@V?$xalloc@PEAUSect@CInifile@@@@@std@@SAXAEAV?$xalloc@PEAUSect@CInifile@@@@PEAPEAUSect@CInifile@@AEBQEAU34@@Z ; std::_Normal_allocator_traits<xalloc<CInifile::Sect *> >::construct<CInifile::Sect *,CInifile::Sect * const &>
PUBLIC	??0Item@CInifile@@QEAA@AEBU01@@Z		; CInifile::Item::Item
PUBLIC	??0?$xalloc@UItem@CInifile@@@@QEAA@XZ		; xalloc<CInifile::Item>::xalloc<CInifile::Item>
PUBLIC	?construct@?$xalloc@UItem@CInifile@@@@QEAAXPEAUItem@CInifile@@AEBU23@@Z ; xalloc<CInifile::Item>::construct
PUBLIC	?_Calculate_growth@?$vector@UItem@CInifile@@V?$xalloc@UItem@CInifile@@@@@std@@AEBA_K_K@Z ; std::vector<CInifile::Item,xalloc<CInifile::Item> >::_Calculate_growth
PUBLIC	??0?$_Vector_val@U?$_Simple_types@UItem@CInifile@@@std@@@std@@QEAA@XZ ; std::_Vector_val<std::_Simple_types<CInifile::Item> >::_Vector_val<std::_Simple_types<CInifile::Item> >
PUBLIC	?construct@?$xalloc@PEAUSect@CInifile@@@@QEAAXPEAPEAUSect@CInifile@@AEBQEAU23@@Z ; xalloc<CInifile::Sect *>::construct
PUBLIC	?destroy@?$xalloc@PEAUSect@CInifile@@@@QEAAXPEAPEAUSect@CInifile@@@Z ; xalloc<CInifile::Sect *>::destroy
PUBLIC	?_Calculate_growth@?$vector@PEAUSect@CInifile@@V?$xalloc@PEAUSect@CInifile@@@@@std@@AEBA_K_K@Z ; std::vector<CInifile::Sect *,xalloc<CInifile::Sect *> >::_Calculate_growth
PUBLIC	?_Seek_to@?$_Vector_const_iterator@V?$_Vector_val@U?$_Simple_types@UItem@CInifile@@@std@@@std@@@std@@QEAAXPEBUItem@CInifile@@@Z ; std::_Vector_const_iterator<std::_Vector_val<std::_Simple_types<CInifile::Item> > >::_Seek_to
PUBLIC	?_Seek_to@?$_Vector_const_iterator@V?$_Vector_val@U?$_Simple_types@PEAUSect@CInifile@@@std@@@std@@@std@@QEAAXPEBQEAUSect@CInifile@@@Z ; std::_Vector_const_iterator<std::_Vector_val<std::_Simple_types<CInifile::Sect *> > >::_Seek_to
PUBLIC	??$?0$$V@?$_Compressed_pair@V?$xalloc@UItem@CInifile@@@@V?$_Vector_val@U?$_Simple_types@UItem@CInifile@@@std@@@std@@$00@std@@QEAA@U_Zero_then_variadic_args_t@1@@Z ; std::_Compressed_pair<xalloc<CInifile::Item>,std::_Vector_val<std::_Simple_types<CInifile::Item> >,1>::_Compressed_pair<xalloc<CInifile::Item>,std::_Vector_val<std::_Simple_types<CInifile::Item> >,1><>
PUBLIC	??$_Emplace_back@AEAUItem@CInifile@@@?$_Uninitialized_backout_al@V?$xalloc@UItem@CInifile@@@@@std@@QEAAXAEAUItem@CInifile@@@Z ; std::_Uninitialized_backout_al<xalloc<CInifile::Item> >::_Emplace_back<CInifile::Item &>
PUBLIC	??$move@AEAPEAUItem@CInifile@@@std@@YA$$QEAPEAUItem@CInifile@@AEAPEAU12@@Z ; std::move<CInifile::Item * &>
PUBLIC	??$_Emplace_back@PEAUSect@CInifile@@@?$_Uninitialized_backout_al@V?$xalloc@PEAUSect@CInifile@@@@@std@@QEAAX$$QEAPEAUSect@CInifile@@@Z ; std::_Uninitialized_backout_al<xalloc<CInifile::Sect *> >::_Emplace_back<CInifile::Sect *>
PUBLIC	??$destroy@PEAUSect@CInifile@@@?$_Normal_allocator_traits@V?$xalloc@PEAUSect@CInifile@@@@@std@@SAXAEAV?$xalloc@PEAUSect@CInifile@@@@PEAPEAUSect@CInifile@@@Z ; std::_Normal_allocator_traits<xalloc<CInifile::Sect *> >::destroy<CInifile::Sect *>
PUBLIC	??$_Emplace_reallocate@AEBUItem@CInifile@@@?$vector@UItem@CInifile@@V?$xalloc@UItem@CInifile@@@@@std@@AEAAPEAUItem@CInifile@@QEAU23@AEBU23@@Z ; std::vector<CInifile::Item,xalloc<CInifile::Item> >::_Emplace_reallocate<CInifile::Item const &>
PUBLIC	??$_Move_backward_unchecked@PEAUItem@CInifile@@PEAU12@@std@@YAPEAUItem@CInifile@@PEAU12@00@Z ; std::_Move_backward_unchecked<CInifile::Item *,CInifile::Item *>
PUBLIC	??$construct@UItem@CInifile@@U12@@?$_Normal_allocator_traits@V?$xalloc@UItem@CInifile@@@@@std@@SAXAEAV?$xalloc@UItem@CInifile@@@@PEAUItem@CInifile@@$$QEAU34@@Z ; std::_Normal_allocator_traits<xalloc<CInifile::Item> >::construct<CInifile::Item,CInifile::Item>
PUBLIC	??$addressof@UItem@CInifile@@@std@@YAPEAUItem@CInifile@@AEAU12@@Z ; std::addressof<CInifile::Item>
PUBLIC	??$?0AEBUItem@CInifile@@@?$_Alloc_temporary2@V?$xalloc@UItem@CInifile@@@@@std@@QEAA@AEAV?$xalloc@UItem@CInifile@@@@AEBUItem@CInifile@@@Z ; std::_Alloc_temporary2<xalloc<CInifile::Item> >::_Alloc_temporary2<xalloc<CInifile::Item> ><CInifile::Item const &>
PUBLIC	??$_Emplace_back_with_unused_capacity@AEBUItem@CInifile@@@?$vector@UItem@CInifile@@V?$xalloc@UItem@CInifile@@@@@std@@AEAAAEAUItem@CInifile@@AEBU23@@Z ; std::vector<CInifile::Item,xalloc<CInifile::Item> >::_Emplace_back_with_unused_capacity<CInifile::Item const &>
PUBLIC	??$forward@AEBUItem@CInifile@@@std@@YAAEBUItem@CInifile@@AEBU12@@Z ; std::forward<CInifile::Item const &>
PUBLIC	??$move@AEAUItem@CInifile@@@std@@YA$$QEAUItem@CInifile@@AEAU12@@Z ; std::move<CInifile::Item &>
PUBLIC	??$_Emplace_reallocate@AEBQEAUSect@CInifile@@@?$vector@PEAUSect@CInifile@@V?$xalloc@PEAUSect@CInifile@@@@@std@@AEAAPEAPEAUSect@CInifile@@QEAPEAU23@AEBQEAU23@@Z ; std::vector<CInifile::Sect *,xalloc<CInifile::Sect *> >::_Emplace_reallocate<CInifile::Sect * const &>
PUBLIC	??$_Move_backward_unchecked@PEAPEAUSect@CInifile@@PEAPEAU12@@std@@YAPEAPEAUSect@CInifile@@PEAPEAU12@00@Z ; std::_Move_backward_unchecked<CInifile::Sect * *,CInifile::Sect * *>
PUBLIC	??$construct@PEAUSect@CInifile@@PEAU12@@?$_Normal_allocator_traits@V?$xalloc@PEAUSect@CInifile@@@@@std@@SAXAEAV?$xalloc@PEAUSect@CInifile@@@@PEAPEAUSect@CInifile@@$$QEAPEAU34@@Z ; std::_Normal_allocator_traits<xalloc<CInifile::Sect *> >::construct<CInifile::Sect *,CInifile::Sect *>
PUBLIC	??$move@AEAPEAUSect@CInifile@@@std@@YA$$QEAPEAUSect@CInifile@@AEAPEAU12@@Z ; std::move<CInifile::Sect * &>
PUBLIC	??$_Unfancy@PEAUSect@CInifile@@@std@@YAPEAPEAUSect@CInifile@@PEAPEAU12@@Z ; std::_Unfancy<CInifile::Sect *>
PUBLIC	??$addressof@PEAUSect@CInifile@@@std@@YAPEAPEAUSect@CInifile@@AEAPEAU12@@Z ; std::addressof<CInifile::Sect *>
PUBLIC	??$?0AEBQEAUSect@CInifile@@@?$_Alloc_temporary2@V?$xalloc@PEAUSect@CInifile@@@@@std@@QEAA@AEAV?$xalloc@PEAUSect@CInifile@@@@AEBQEAUSect@CInifile@@@Z ; std::_Alloc_temporary2<xalloc<CInifile::Sect *> >::_Alloc_temporary2<xalloc<CInifile::Sect *> ><CInifile::Sect * const &>
PUBLIC	??$_Emplace_back_with_unused_capacity@AEBQEAUSect@CInifile@@@?$vector@PEAUSect@CInifile@@V?$xalloc@PEAUSect@CInifile@@@@@std@@AEAAAEAPEAUSect@CInifile@@AEBQEAU23@@Z ; std::vector<CInifile::Sect *,xalloc<CInifile::Sect *> >::_Emplace_back_with_unused_capacity<CInifile::Sect * const &>
PUBLIC	??$forward@AEBQEAUSect@CInifile@@@std@@YAAEBQEAUSect@CInifile@@AEBQEAU12@@Z ; std::forward<CInifile::Sect * const &>
PUBLIC	??$_Seek_wrapped@V?$_Vector_const_iterator@V?$_Vector_val@U?$_Simple_types@UItem@CInifile@@@std@@@std@@@std@@AEAPEBUItem@CInifile@@@std@@YAXAEAV?$_Vector_const_iterator@V?$_Vector_val@U?$_Simple_types@UItem@CInifile@@@std@@@std@@@0@AEAPEBUItem@CInifile@@@Z ; std::_Seek_wrapped<std::_Vector_const_iterator<std::_Vector_val<std::_Simple_types<CInifile::Item> > >,CInifile::Item const * &>
PUBLIC	??$_Next_iter@PEBUItem@CInifile@@@std@@YAPEBUItem@CInifile@@PEBU12@@Z ; std::_Next_iter<CInifile::Item const *>
PUBLIC	??$next@PEBUItem@CInifile@@@std@@YAPEBUItem@CInifile@@PEBU12@_J@Z ; std::next<CInifile::Item const *>
PUBLIC	??$distance@PEBUItem@CInifile@@@std@@YA_JPEBUItem@CInifile@@0@Z ; std::distance<CInifile::Item const *>
PUBLIC	??$_Adl_verify_range@V?$_Vector_const_iterator@V?$_Vector_val@U?$_Simple_types@UItem@CInifile@@@std@@@std@@@std@@V12@@std@@YAXAEBV?$_Vector_const_iterator@V?$_Vector_val@U?$_Simple_types@UItem@CInifile@@@std@@@std@@@0@0@Z ; std::_Adl_verify_range<std::_Vector_const_iterator<std::_Vector_val<std::_Simple_types<CInifile::Item> > >,std::_Vector_const_iterator<std::_Vector_val<std::_Simple_types<CInifile::Item> > > >
PUBLIC	??$_Seek_wrapped@V?$_Vector_const_iterator@V?$_Vector_val@U?$_Simple_types@PEAUSect@CInifile@@@std@@@std@@@std@@AEAPEBQEAUSect@CInifile@@@std@@YAXAEAV?$_Vector_const_iterator@V?$_Vector_val@U?$_Simple_types@PEAUSect@CInifile@@@std@@@std@@@0@AEAPEBQEAUSect@CInifile@@@Z ; std::_Seek_wrapped<std::_Vector_const_iterator<std::_Vector_val<std::_Simple_types<CInifile::Sect *> > >,CInifile::Sect * const * &>
PUBLIC	??$_Next_iter@PEBQEAUSect@CInifile@@@std@@YAPEBQEAUSect@CInifile@@PEBQEAU12@@Z ; std::_Next_iter<CInifile::Sect * const *>
PUBLIC	??$next@PEBQEAUSect@CInifile@@@std@@YAPEBQEAUSect@CInifile@@PEBQEAU12@_J@Z ; std::next<CInifile::Sect * const *>
PUBLIC	??$distance@PEBQEAUSect@CInifile@@@std@@YA_JPEBQEAUSect@CInifile@@0@Z ; std::distance<CInifile::Sect * const *>
PUBLIC	??$_Adl_verify_range@V?$_Vector_const_iterator@V?$_Vector_val@U?$_Simple_types@PEAUSect@CInifile@@@std@@@std@@@std@@V12@@std@@YAXAEBV?$_Vector_const_iterator@V?$_Vector_val@U?$_Simple_types@PEAUSect@CInifile@@@std@@@std@@@0@0@Z ; std::_Adl_verify_range<std::_Vector_const_iterator<std::_Vector_val<std::_Simple_types<CInifile::Sect *> > >,std::_Vector_const_iterator<std::_Vector_val<std::_Simple_types<CInifile::Sect *> > > >
PUBLIC	??$_Seek_wrapped@V?$_Vector_iterator@V?$_Vector_val@U?$_Simple_types@PEAUSect@CInifile@@@std@@@std@@@std@@AEAPEAPEAUSect@CInifile@@@std@@YAXAEAV?$_Vector_iterator@V?$_Vector_val@U?$_Simple_types@PEAUSect@CInifile@@@std@@@std@@@0@AEAPEAPEAUSect@CInifile@@@Z ; std::_Seek_wrapped<std::_Vector_iterator<std::_Vector_val<std::_Simple_types<CInifile::Sect *> > >,CInifile::Sect * * &>
PUBLIC	??$_Next_iter@PEAPEAUSect@CInifile@@@std@@YAPEAPEAUSect@CInifile@@PEAPEAU12@@Z ; std::_Next_iter<CInifile::Sect * *>
PUBLIC	??$next@PEAPEAUSect@CInifile@@@std@@YAPEAPEAUSect@CInifile@@PEAPEAU12@_J@Z ; std::next<CInifile::Sect * *>
PUBLIC	??$distance@PEAPEAUSect@CInifile@@@std@@YA_JPEAPEAUSect@CInifile@@0@Z ; std::distance<CInifile::Sect * *>
PUBLIC	??$_Adl_verify_range@V?$_Vector_iterator@V?$_Vector_val@U?$_Simple_types@PEAUSect@CInifile@@@std@@@std@@@std@@V12@@std@@YAXAEBV?$_Vector_iterator@V?$_Vector_val@U?$_Simple_types@PEAUSect@CInifile@@@std@@@std@@@0@0@Z ; std::_Adl_verify_range<std::_Vector_iterator<std::_Vector_val<std::_Simple_types<CInifile::Sect *> > >,std::_Vector_iterator<std::_Vector_val<std::_Simple_types<CInifile::Sect *> > > >
PUBLIC	??$_Seek_wrapped@V?$_Vector_iterator@V?$_Vector_val@U?$_Simple_types@UItem@CInifile@@@std@@@std@@@std@@AEAPEAUItem@CInifile@@@std@@YAXAEAV?$_Vector_iterator@V?$_Vector_val@U?$_Simple_types@UItem@CInifile@@@std@@@std@@@0@AEAPEAUItem@CInifile@@@Z ; std::_Seek_wrapped<std::_Vector_iterator<std::_Vector_val<std::_Simple_types<CInifile::Item> > >,CInifile::Item * &>
PUBLIC	??$_Next_iter@PEAUItem@CInifile@@@std@@YAPEAUItem@CInifile@@PEAU12@@Z ; std::_Next_iter<CInifile::Item *>
PUBLIC	??$next@PEAUItem@CInifile@@@std@@YAPEAUItem@CInifile@@PEAU12@_J@Z ; std::next<CInifile::Item *>
PUBLIC	??$distance@PEAUItem@CInifile@@@std@@YA_JPEAUItem@CInifile@@0@Z ; std::distance<CInifile::Item *>
PUBLIC	??$_Adl_verify_range@V?$_Vector_iterator@V?$_Vector_val@U?$_Simple_types@UItem@CInifile@@@std@@@std@@@std@@V12@@std@@YAXAEBV?$_Vector_iterator@V?$_Vector_val@U?$_Simple_types@UItem@CInifile@@@std@@@std@@@0@0@Z ; std::_Adl_verify_range<std::_Vector_iterator<std::_Vector_val<std::_Simple_types<CInifile::Item> > >,std::_Vector_iterator<std::_Vector_val<std::_Simple_types<CInifile::Item> > > >
PUBLIC	??0?$vector@UItem@CInifile@@V?$xalloc@UItem@CInifile@@@@@std@@QEAA@XZ ; std::vector<CInifile::Item,xalloc<CInifile::Item> >::vector<CInifile::Item,xalloc<CInifile::Item> >
PUBLIC	?_Tidy@?$vector@UItem@CInifile@@V?$xalloc@UItem@CInifile@@@@@std@@AEAAXXZ ; std::vector<CInifile::Item,xalloc<CInifile::Item> >::_Tidy
PUBLIC	??1Sect@CInifile@@QEAA@XZ			; CInifile::Sect::~Sect
PUBLIC	??_GItem@CInifile@@QEAAPEAXI@Z			; CInifile::Item::`scalar deleting destructor'
PUBLIC	??_GSect@CInifile@@QEAAPEAXI@Z			; CInifile::Sect::`scalar deleting destructor'
PUBLIC	?destroy@?$xalloc@UItem@CInifile@@@@QEAAXPEAUItem@CInifile@@@Z ; xalloc<CInifile::Item>::destroy
PUBLIC	??1?$vector@UItem@CInifile@@V?$xalloc@UItem@CInifile@@@@@std@@QEAA@XZ ; std::vector<CInifile::Item,xalloc<CInifile::Item> >::~vector<CInifile::Item,xalloc<CInifile::Item> >
PUBLIC	?_Make_iterator@?$vector@UItem@CInifile@@V?$xalloc@UItem@CInifile@@@@@std@@AEAA?AV?$_Vector_iterator@V?$_Vector_val@U?$_Simple_types@UItem@CInifile@@@std@@@std@@@2@QEAUItem@CInifile@@@Z ; std::vector<CInifile::Item,xalloc<CInifile::Item> >::_Make_iterator
PUBLIC	??0?$xr_vector@UItem@CInifile@@V?$xalloc@UItem@CInifile@@@@@@QEAA@XZ ; xr_vector<CInifile::Item,xalloc<CInifile::Item> >::xr_vector<CInifile::Item,xalloc<CInifile::Item> >
PUBLIC	??0?$xalloc@PEAUSect@CInifile@@@@QEAA@XZ	; xalloc<CInifile::Sect *>::xalloc<CInifile::Sect *>
PUBLIC	?_Orphan_range@?$vector@PEAUSect@CInifile@@V?$xalloc@PEAUSect@CInifile@@@@@std@@AEBAXPEAPEAUSect@CInifile@@0@Z ; std::vector<CInifile::Sect *,xalloc<CInifile::Sect *> >::_Orphan_range
PUBLIC	?_Make_iterator@?$vector@PEAUSect@CInifile@@V?$xalloc@PEAUSect@CInifile@@@@@std@@AEAA?AV?$_Vector_iterator@V?$_Vector_val@U?$_Simple_types@PEAUSect@CInifile@@@std@@@std@@@2@QEAPEAUSect@CInifile@@@Z ; std::vector<CInifile::Sect *,xalloc<CInifile::Sect *> >::_Make_iterator
PUBLIC	??0?$_Vector_val@U?$_Simple_types@PEAUSect@CInifile@@@std@@@std@@QEAA@XZ ; std::_Vector_val<std::_Simple_types<CInifile::Sect *> >::_Vector_val<std::_Simple_types<CInifile::Sect *> >
PUBLIC	?_Unwrapped@?$_Vector_const_iterator@V?$_Vector_val@U?$_Simple_types@UItem@CInifile@@@std@@@std@@@std@@QEBAPEBUItem@CInifile@@XZ ; std::_Vector_const_iterator<std::_Vector_val<std::_Simple_types<CInifile::Item> > >::_Unwrapped
PUBLIC	?_Unwrapped@?$_Vector_iterator@V?$_Vector_val@U?$_Simple_types@UItem@CInifile@@@std@@@std@@@std@@QEBAPEAUItem@CInifile@@XZ ; std::_Vector_iterator<std::_Vector_val<std::_Simple_types<CInifile::Item> > >::_Unwrapped
PUBLIC	?_Unwrapped@?$_Vector_const_iterator@V?$_Vector_val@U?$_Simple_types@PEAUSect@CInifile@@@std@@@std@@@std@@QEBAPEBQEAUSect@CInifile@@XZ ; std::_Vector_const_iterator<std::_Vector_val<std::_Simple_types<CInifile::Sect *> > >::_Unwrapped
PUBLIC	?_Unwrapped@?$_Vector_iterator@V?$_Vector_val@U?$_Simple_types@PEAUSect@CInifile@@@std@@@std@@@std@@QEBAPEAPEAUSect@CInifile@@XZ ; std::_Vector_iterator<std::_Vector_val<std::_Simple_types<CInifile::Sect *> > >::_Unwrapped
PUBLIC	??R?$xr_special_free@$0A@USect@CInifile@@@@QEAAXAEAPEAUSect@CInifile@@@Z ; xr_special_free<0,CInifile::Sect>::operator()
PUBLIC	?_Get_value@?$_Alloc_temporary2@V?$xalloc@PEAUSect@CInifile@@@@@std@@QEAAAEAPEAUSect@CInifile@@XZ ; std::_Alloc_temporary2<xalloc<CInifile::Sect *> >::_Get_value
PUBLIC	??1?$_Alloc_temporary2@V?$xalloc@PEAUSect@CInifile@@@@@std@@QEAA@XZ ; std::_Alloc_temporary2<xalloc<CInifile::Sect *> >::~_Alloc_temporary2<xalloc<CInifile::Sect *> >
PUBLIC	?_Get_value@?$_Alloc_temporary2@V?$xalloc@UItem@CInifile@@@@@std@@QEAAAEAUItem@CInifile@@XZ ; std::_Alloc_temporary2<xalloc<CInifile::Item> >::_Get_value
PUBLIC	??1?$_Alloc_temporary2@V?$xalloc@UItem@CInifile@@@@@std@@QEAA@XZ ; std::_Alloc_temporary2<xalloc<CInifile::Item> >::~_Alloc_temporary2<xalloc<CInifile::Item> >
PUBLIC	??0?$_Uninitialized_backout_al@V?$xalloc@PEAUSect@CInifile@@@@@std@@QEAA@PEAPEAUSect@CInifile@@AEAV?$xalloc@PEAUSect@CInifile@@@@@Z ; std::_Uninitialized_backout_al<xalloc<CInifile::Sect *> >::_Uninitialized_backout_al<xalloc<CInifile::Sect *> >
PUBLIC	??1?$_Uninitialized_backout_al@V?$xalloc@PEAUSect@CInifile@@@@@std@@QEAA@XZ ; std::_Uninitialized_backout_al<xalloc<CInifile::Sect *> >::~_Uninitialized_backout_al<xalloc<CInifile::Sect *> >
PUBLIC	?_Release@?$_Uninitialized_backout_al@V?$xalloc@PEAUSect@CInifile@@@@@std@@QEAAPEAPEAUSect@CInifile@@XZ ; std::_Uninitialized_backout_al<xalloc<CInifile::Sect *> >::_Release
PUBLIC	??0?$_Uninitialized_backout_al@V?$xalloc@UItem@CInifile@@@@@std@@QEAA@PEAUItem@CInifile@@AEAV?$xalloc@UItem@CInifile@@@@@Z ; std::_Uninitialized_backout_al<xalloc<CInifile::Item> >::_Uninitialized_backout_al<xalloc<CInifile::Item> >
PUBLIC	??1?$_Uninitialized_backout_al@V?$xalloc@UItem@CInifile@@@@@std@@QEAA@XZ ; std::_Uninitialized_backout_al<xalloc<CInifile::Item> >::~_Uninitialized_backout_al<xalloc<CInifile::Item> >
PUBLIC	?_Release@?$_Uninitialized_backout_al@V?$xalloc@UItem@CInifile@@@@@std@@QEAAPEAUItem@CInifile@@XZ ; std::_Uninitialized_backout_al<xalloc<CInifile::Item> >::_Release
PUBLIC	??1?$xr_vector@UItem@CInifile@@V?$xalloc@UItem@CInifile@@@@@@QEAA@XZ ; xr_vector<CInifile::Item,xalloc<CInifile::Item> >::~xr_vector<CInifile::Item,xalloc<CInifile::Item> >
PUBLIC	??4Item@CInifile@@QEAAAEAU01@$$QEAU01@@Z	; CInifile::Item::operator=
PUBLIC	??0Sect@CInifile@@QEAA@XZ			; CInifile::Sect::Sect
PUBLIC	??$xr_alloc@UItem@CInifile@@@@YAPEAUItem@CInifile@@I@Z ; xr_alloc<CInifile::Item>
PUBLIC	??$xr_free@UItem@CInifile@@@@YAXAEAPEAUItem@CInifile@@@Z ; xr_free<CInifile::Item>
PUBLIC	??$_Destroy_range@V?$xalloc@UItem@CInifile@@@@@std@@YAXPEAUItem@CInifile@@QEAU12@AEAV?$xalloc@UItem@CInifile@@@@@Z ; std::_Destroy_range<xalloc<CInifile::Item> >
PUBLIC	??$xr_alloc@PEAUSect@CInifile@@@@YAPEAPEAUSect@CInifile@@I@Z ; xr_alloc<CInifile::Sect *>
PUBLIC	??$xr_free@PEAUSect@CInifile@@@@YAXAEAPEAPEAUSect@CInifile@@@Z ; xr_free<CInifile::Sect *>
PUBLIC	??$_Get_unwrapped@PEAUItem@CInifile@@@std@@YA?A_T$$QEAPEAUItem@CInifile@@@Z ; std::_Get_unwrapped<CInifile::Item *>
PUBLIC	??$_Uninitialized_copy@PEAUItem@CInifile@@PEAU12@V?$xalloc@UItem@CInifile@@@@@std@@YAPEAUItem@CInifile@@PEAU12@00AEAV?$xalloc@UItem@CInifile@@@@@Z ; std::_Uninitialized_copy<CInifile::Item *,CInifile::Item *,xalloc<CInifile::Item> >
PUBLIC	??$?0$$V@?$_Compressed_pair@V?$xalloc@PEAUSect@CInifile@@@@V?$_Vector_val@U?$_Simple_types@PEAUSect@CInifile@@@std@@@std@@$00@std@@QEAA@U_Zero_then_variadic_args_t@1@@Z ; std::_Compressed_pair<xalloc<CInifile::Sect *>,std::_Vector_val<std::_Simple_types<CInifile::Sect *> >,1>::_Compressed_pair<xalloc<CInifile::Sect *>,std::_Vector_val<std::_Simple_types<CInifile::Sect *> >,1><>
PUBLIC	??$_Get_unwrapped@AEBQEAPEAUSect@CInifile@@@std@@YA?A_TAEBQEAPEAUSect@CInifile@@@Z ; std::_Get_unwrapped<CInifile::Sect * * const &>
PUBLIC	??$_Uninitialized_move@PEAPEAUSect@CInifile@@V?$xalloc@PEAUSect@CInifile@@@@@std@@YAPEAPEAUSect@CInifile@@QEAPEAU12@0PEAPEAU12@AEAV?$xalloc@PEAUSect@CInifile@@@@@Z ; std::_Uninitialized_move<CInifile::Sect * *,xalloc<CInifile::Sect *> >
PUBLIC	??$_Destroy_range@V?$xalloc@PEAUSect@CInifile@@@@@std@@YAXPEAPEAUSect@CInifile@@QEAPEAU12@AEAV?$xalloc@PEAUSect@CInifile@@@@@Z ; std::_Destroy_range<xalloc<CInifile::Sect *> >
PUBLIC	??$emplace@AEBUItem@CInifile@@@?$vector@UItem@CInifile@@V?$xalloc@UItem@CInifile@@@@@std@@QEAA?AV?$_Vector_iterator@V?$_Vector_val@U?$_Simple_types@UItem@CInifile@@@std@@@std@@@1@V?$_Vector_const_iterator@V?$_Vector_val@U?$_Simple_types@UItem@CInifile@@@std@@@std@@@1@AEBUItem@CInifile@@@Z ; std::vector<CInifile::Item,xalloc<CInifile::Item> >::emplace<CInifile::Item const &>
PUBLIC	??$destroy@UItem@CInifile@@@?$_Normal_allocator_traits@V?$xalloc@UItem@CInifile@@@@@std@@SAXAEAV?$xalloc@UItem@CInifile@@@@PEAUItem@CInifile@@@Z ; std::_Normal_allocator_traits<xalloc<CInifile::Item> >::destroy<CInifile::Item>
PUBLIC	??$_Unfancy@UItem@CInifile@@@std@@YAPEAUItem@CInifile@@PEAU12@@Z ; std::_Unfancy<CInifile::Item>
PUBLIC	??$addressof@V?$_Vector_val@U?$_Simple_types@UItem@CInifile@@@std@@@std@@@std@@YAPEAV?$_Vector_val@U?$_Simple_types@UItem@CInifile@@@std@@@0@AEAV10@@Z ; std::addressof<std::_Vector_val<std::_Simple_types<CInifile::Item> > >
PUBLIC	??$addressof@$$CBV?$_Vector_val@U?$_Simple_types@UItem@CInifile@@@std@@@std@@@std@@YAPEBV?$_Vector_val@U?$_Simple_types@UItem@CInifile@@@std@@@0@AEBV10@@Z ; std::addressof<std::_Vector_val<std::_Simple_types<CInifile::Item> > const >
PUBLIC	??$emplace@AEBQEAUSect@CInifile@@@?$vector@PEAUSect@CInifile@@V?$xalloc@PEAUSect@CInifile@@@@@std@@QEAA?AV?$_Vector_iterator@V?$_Vector_val@U?$_Simple_types@PEAUSect@CInifile@@@std@@@std@@@1@V?$_Vector_const_iterator@V?$_Vector_val@U?$_Simple_types@PEAUSect@CInifile@@@std@@@std@@@1@AEBQEAUSect@CInifile@@@Z ; std::vector<CInifile::Sect *,xalloc<CInifile::Sect *> >::emplace<CInifile::Sect * const &>
PUBLIC	??$addressof@V?$_Vector_val@U?$_Simple_types@PEAUSect@CInifile@@@std@@@std@@@std@@YAPEAV?$_Vector_val@U?$_Simple_types@PEAUSect@CInifile@@@std@@@0@AEAV10@@Z ; std::addressof<std::_Vector_val<std::_Simple_types<CInifile::Sect *> > >
PUBLIC	??$addressof@$$CBV?$_Vector_val@U?$_Simple_types@PEAUSect@CInifile@@@std@@@std@@@std@@YAPEBV?$_Vector_val@U?$_Simple_types@PEAUSect@CInifile@@@std@@@0@AEBV10@@Z ; std::addressof<std::_Vector_val<std::_Simple_types<CInifile::Sect *> > const >
PUBLIC	??$CopyFrom@V?$FastDelegate1@PEBD_N@fastdelegate@@@?$ClosurePtr@P8GenericClass@detail@fastdelegate@@EAA_NPEBD@ZP6A_N0@ZP6A_N0@Z@detail@fastdelegate@@QEAAXPEAV?$FastDelegate1@PEBD_N@2@AEBVDelegateMemento@2@@Z ; fastdelegate::detail::ClosurePtr<bool (__cdecl fastdelegate::detail::GenericClass::*)(char const *),bool (__cdecl*)(char const *),bool (__cdecl*)(char const *)>::CopyFrom<fastdelegate::FastDelegate1<char const *,bool> >
PUBLIC	??$_Get_unwrapped@AEBV?$_Vector_const_iterator@V?$_Vector_val@U?$_Simple_types@UItem@CInifile@@@std@@@std@@@std@@@std@@YA?A_TAEBV?$_Vector_const_iterator@V?$_Vector_val@U?$_Simple_types@UItem@CInifile@@@std@@@std@@@0@@Z ; std::_Get_unwrapped<std::_Vector_const_iterator<std::_Vector_val<std::_Simple_types<CInifile::Item> > > const &>
PUBLIC	??$_Get_unwrapped@AEAV?$_Vector_const_iterator@V?$_Vector_val@U?$_Simple_types@UItem@CInifile@@@std@@@std@@@std@@@std@@YA?A_TAEAV?$_Vector_const_iterator@V?$_Vector_val@U?$_Simple_types@UItem@CInifile@@@std@@@std@@@0@@Z ; std::_Get_unwrapped<std::_Vector_const_iterator<std::_Vector_val<std::_Simple_types<CInifile::Item> > > &>
PUBLIC	??$lower_bound@V?$_Vector_const_iterator@V?$_Vector_val@U?$_Simple_types@UItem@CInifile@@@std@@@std@@@std@@PEBDP6A_NAEBUItem@CInifile@@PEBD@Z@std@@YA?AV?$_Vector_const_iterator@V?$_Vector_val@U?$_Simple_types@UItem@CInifile@@@std@@@std@@@0@V10@V10@AEBQEBDP6A_NAEBUItem@CInifile@@PEBD@Z@Z ; std::lower_bound<std::_Vector_const_iterator<std::_Vector_val<std::_Simple_types<CInifile::Item> > >,char const *,bool (__cdecl*)(CInifile::Item const &,char const *)>
PUBLIC	??$lower_bound@V?$_Vector_const_iterator@V?$_Vector_val@U?$_Simple_types@PEAUSect@CInifile@@@std@@@std@@@std@@$$BY0BAA@DP6A_NPEBUSect@CInifile@@PEBD@Z@std@@YA?AV?$_Vector_const_iterator@V?$_Vector_val@U?$_Simple_types@PEAUSect@CInifile@@@std@@@std@@@0@V10@V10@AEAY0BAA@$$CBDP6A_NPEBUSect@CInifile@@PEBD@Z@Z ; std::lower_bound<std::_Vector_const_iterator<std::_Vector_val<std::_Simple_types<CInifile::Sect *> > >,char [256],bool (__cdecl*)(CInifile::Sect const *,char const *)>
PUBLIC	??$_Get_unwrapped@AEBV?$_Vector_const_iterator@V?$_Vector_val@U?$_Simple_types@PEAUSect@CInifile@@@std@@@std@@@std@@@std@@YA?A_TAEBV?$_Vector_const_iterator@V?$_Vector_val@U?$_Simple_types@PEAUSect@CInifile@@@std@@@std@@@0@@Z ; std::_Get_unwrapped<std::_Vector_const_iterator<std::_Vector_val<std::_Simple_types<CInifile::Sect *> > > const &>
PUBLIC	??$_Get_unwrapped@AEAV?$_Vector_const_iterator@V?$_Vector_val@U?$_Simple_types@PEAUSect@CInifile@@@std@@@std@@@std@@@std@@YA?A_TAEAV?$_Vector_const_iterator@V?$_Vector_val@U?$_Simple_types@PEAUSect@CInifile@@@std@@@std@@@0@@Z ; std::_Get_unwrapped<std::_Vector_const_iterator<std::_Vector_val<std::_Simple_types<CInifile::Sect *> > > &>
PUBLIC	??$_GetItem@$0CAA@@@YAPEADPEBDHAEAY0CAA@DD0_N@Z	; _GetItem<512>
PUBLIC	??$xr_new@USect@CInifile@@@@YAPEAUSect@CInifile@@XZ ; xr_new<CInifile::Sect>
PUBLIC	??$_Get_unwrapped@AEBV?$_Vector_iterator@V?$_Vector_val@U?$_Simple_types@PEAUSect@CInifile@@@std@@@std@@@std@@@std@@YA?A_TAEBV?$_Vector_iterator@V?$_Vector_val@U?$_Simple_types@PEAUSect@CInifile@@@std@@@std@@@0@@Z ; std::_Get_unwrapped<std::_Vector_iterator<std::_Vector_val<std::_Simple_types<CInifile::Sect *> > > const &>
PUBLIC	??$_Get_unwrapped@AEAV?$_Vector_iterator@V?$_Vector_val@U?$_Simple_types@PEAUSect@CInifile@@@std@@@std@@@std@@@std@@YA?A_TAEAV?$_Vector_iterator@V?$_Vector_val@U?$_Simple_types@PEAUSect@CInifile@@@std@@@std@@@0@@Z ; std::_Get_unwrapped<std::_Vector_iterator<std::_Vector_val<std::_Simple_types<CInifile::Sect *> > > &>
PUBLIC	??$lower_bound@V?$_Vector_iterator@V?$_Vector_val@U?$_Simple_types@PEAUSect@CInifile@@@std@@@std@@@std@@PEBDP6A_NPEBUSect@CInifile@@PEBD@Z@std@@YA?AV?$_Vector_iterator@V?$_Vector_val@U?$_Simple_types@PEAUSect@CInifile@@@std@@@std@@@0@V10@V10@AEBQEBDP6A_NPEBUSect@CInifile@@PEBD@Z@Z ; std::lower_bound<std::_Vector_iterator<std::_Vector_val<std::_Simple_types<CInifile::Sect *> > >,char const *,bool (__cdecl*)(CInifile::Sect const *,char const *)>
PUBLIC	??$xr_delete@USect@CInifile@@@@YAXAEAPEAUSect@CInifile@@@Z ; xr_delete<CInifile::Sect>
PUBLIC	??$_Get_unwrapped@AEBV?$_Vector_iterator@V?$_Vector_val@U?$_Simple_types@UItem@CInifile@@@std@@@std@@@std@@@std@@YA?A_TAEBV?$_Vector_iterator@V?$_Vector_val@U?$_Simple_types@UItem@CInifile@@@std@@@std@@@0@@Z ; std::_Get_unwrapped<std::_Vector_iterator<std::_Vector_val<std::_Simple_types<CInifile::Item> > > const &>
PUBLIC	??$_Get_unwrapped@AEAV?$_Vector_iterator@V?$_Vector_val@U?$_Simple_types@UItem@CInifile@@@std@@@std@@@std@@@std@@YA?A_TAEAV?$_Vector_iterator@V?$_Vector_val@U?$_Simple_types@UItem@CInifile@@@std@@@std@@@0@@Z ; std::_Get_unwrapped<std::_Vector_iterator<std::_Vector_val<std::_Simple_types<CInifile::Item> > > &>
PUBLIC	??$lower_bound@V?$_Vector_iterator@V?$_Vector_val@U?$_Simple_types@UItem@CInifile@@@std@@@std@@@std@@PEBDP6A_NAEBUItem@CInifile@@PEBD@Z@std@@YA?AV?$_Vector_iterator@V?$_Vector_val@U?$_Simple_types@UItem@CInifile@@@std@@@std@@@0@V10@V10@AEBQEBDP6A_NAEBUItem@CInifile@@PEBD@Z@Z ; std::lower_bound<std::_Vector_iterator<std::_Vector_val<std::_Simple_types<CInifile::Item> > >,char const *,bool (__cdecl*)(CInifile::Item const &,char const *)>
PUBLIC	?max_size@?$xalloc@UItem@CInifile@@@@QEBA_KXZ	; xalloc<CInifile::Item>::max_size
PUBLIC	?_Get_first@?$_Compressed_pair@V?$xalloc@UItem@CInifile@@@@V?$_Vector_val@U?$_Simple_types@UItem@CInifile@@@std@@@std@@$00@std@@QEBAAEBV?$xalloc@UItem@CInifile@@@@XZ ; std::_Compressed_pair<xalloc<CInifile::Item>,std::_Vector_val<std::_Simple_types<CInifile::Item> >,1>::_Get_first
PUBLIC	?max_size@?$xalloc@PEAUSect@CInifile@@@@QEBA_KXZ ; xalloc<CInifile::Sect *>::max_size
PUBLIC	?_Get_first@?$_Compressed_pair@V?$xalloc@PEAUSect@CInifile@@@@V?$_Vector_val@U?$_Simple_types@PEAUSect@CInifile@@@std@@@std@@$00@std@@QEAAAEAV?$xalloc@PEAUSect@CInifile@@@@XZ ; std::_Compressed_pair<xalloc<CInifile::Sect *>,std::_Vector_val<std::_Simple_types<CInifile::Sect *> >,1>::_Get_first
PUBLIC	?_Get_first@?$_Compressed_pair@V?$xalloc@PEAUSect@CInifile@@@@V?$_Vector_val@U?$_Simple_types@PEAUSect@CInifile@@@std@@@std@@$00@std@@QEBAAEBV?$xalloc@PEAUSect@CInifile@@@@XZ ; std::_Compressed_pair<xalloc<CInifile::Sect *>,std::_Vector_val<std::_Simple_types<CInifile::Sect *> >,1>::_Get_first
PUBLIC	?allocate@?$xalloc@UItem@CInifile@@@@QEBAPEAUItem@CInifile@@_KPEBX@Z ; xalloc<CInifile::Item>::allocate
PUBLIC	?deallocate@?$xalloc@UItem@CInifile@@@@QEBAXPEAUItem@CInifile@@_K@Z ; xalloc<CInifile::Item>::deallocate
PUBLIC	?max_size@?$_Normal_allocator_traits@V?$xalloc@UItem@CInifile@@@@@std@@SA_KAEBV?$xalloc@UItem@CInifile@@@@@Z ; std::_Normal_allocator_traits<xalloc<CInifile::Item> >::max_size
PUBLIC	?_Change_array@?$vector@UItem@CInifile@@V?$xalloc@UItem@CInifile@@@@@std@@AEAAXQEAUItem@CInifile@@_K1@Z ; std::vector<CInifile::Item,xalloc<CInifile::Item> >::_Change_array
PUBLIC	?_Getal@?$vector@UItem@CInifile@@V?$xalloc@UItem@CInifile@@@@@std@@AEBAAEBV?$xalloc@UItem@CInifile@@@@XZ ; std::vector<CInifile::Item,xalloc<CInifile::Item> >::_Getal
PUBLIC	?_Get_first@?$_Compressed_pair@V?$xalloc@UItem@CInifile@@@@V?$_Vector_val@U?$_Simple_types@UItem@CInifile@@@std@@@std@@$00@std@@QEAAAEAV?$xalloc@UItem@CInifile@@@@XZ ; std::_Compressed_pair<xalloc<CInifile::Item>,std::_Vector_val<std::_Simple_types<CInifile::Item> >,1>::_Get_first
PUBLIC	?allocate@?$xalloc@PEAUSect@CInifile@@@@QEBAPEAPEAUSect@CInifile@@_KPEBX@Z ; xalloc<CInifile::Sect *>::allocate
PUBLIC	?deallocate@?$xalloc@PEAUSect@CInifile@@@@QEBAXPEAPEAUSect@CInifile@@_K@Z ; xalloc<CInifile::Sect *>::deallocate
PUBLIC	?max_size@?$_Normal_allocator_traits@V?$xalloc@PEAUSect@CInifile@@@@@std@@SA_KAEBV?$xalloc@PEAUSect@CInifile@@@@@Z ; std::_Normal_allocator_traits<xalloc<CInifile::Sect *> >::max_size
PUBLIC	?_Change_array@?$vector@PEAUSect@CInifile@@V?$xalloc@PEAUSect@CInifile@@@@@std@@AEAAXQEAPEAUSect@CInifile@@_K1@Z ; std::vector<CInifile::Sect *,xalloc<CInifile::Sect *> >::_Change_array
PUBLIC	?_Getal@?$vector@PEAUSect@CInifile@@V?$xalloc@PEAUSect@CInifile@@@@@std@@AEAAAEAV?$xalloc@PEAUSect@CInifile@@@@XZ ; std::vector<CInifile::Sect *,xalloc<CInifile::Sect *> >::_Getal
PUBLIC	?_Getal@?$vector@PEAUSect@CInifile@@V?$xalloc@PEAUSect@CInifile@@@@@std@@AEBAAEBV?$xalloc@PEAUSect@CInifile@@@@XZ ; std::vector<CInifile::Sect *,xalloc<CInifile::Sect *> >::_Getal
PUBLIC	?_Compat@?$_Vector_const_iterator@V?$_Vector_val@U?$_Simple_types@UItem@CInifile@@@std@@@std@@@std@@QEBAXAEBV12@@Z ; std::_Vector_const_iterator<std::_Vector_val<std::_Simple_types<CInifile::Item> > >::_Compat
PUBLIC	?_Compat@?$_Vector_const_iterator@V?$_Vector_val@U?$_Simple_types@PEAUSect@CInifile@@@std@@@std@@@std@@QEBAXAEBV12@@Z ; std::_Vector_const_iterator<std::_Vector_val<std::_Simple_types<CInifile::Sect *> > >::_Compat
PUBLIC	?_Reallocate_exactly@?$vector@UItem@CInifile@@V?$xalloc@UItem@CInifile@@@@@std@@AEAAX_K@Z ; std::vector<CInifile::Item,xalloc<CInifile::Item> >::_Reallocate_exactly
PUBLIC	?size@?$vector@UItem@CInifile@@V?$xalloc@UItem@CInifile@@@@@std@@QEBA_KXZ ; std::vector<CInifile::Item,xalloc<CInifile::Item> >::size
PUBLIC	?max_size@?$vector@UItem@CInifile@@V?$xalloc@UItem@CInifile@@@@@std@@QEBA_KXZ ; std::vector<CInifile::Item,xalloc<CInifile::Item> >::max_size
PUBLIC	?capacity@?$vector@UItem@CInifile@@V?$xalloc@UItem@CInifile@@@@@std@@QEBA_KXZ ; std::vector<CInifile::Item,xalloc<CInifile::Item> >::capacity
PUBLIC	?_Xlength@?$vector@UItem@CInifile@@V?$xalloc@UItem@CInifile@@@@@std@@CAXXZ ; std::vector<CInifile::Item,xalloc<CInifile::Item> >::_Xlength
PUBLIC	?_Orphan_range@?$vector@UItem@CInifile@@V?$xalloc@UItem@CInifile@@@@@std@@AEBAXPEAUItem@CInifile@@0@Z ; std::vector<CInifile::Item,xalloc<CInifile::Item> >::_Orphan_range
PUBLIC	?_Getal@?$vector@UItem@CInifile@@V?$xalloc@UItem@CInifile@@@@@std@@AEAAAEAV?$xalloc@UItem@CInifile@@@@XZ ; std::vector<CInifile::Item,xalloc<CInifile::Item> >::_Getal
PUBLIC	??0?$vector@PEAUSect@CInifile@@V?$xalloc@PEAUSect@CInifile@@@@@std@@QEAA@XZ ; std::vector<CInifile::Sect *,xalloc<CInifile::Sect *> >::vector<CInifile::Sect *,xalloc<CInifile::Sect *> >
PUBLIC	?max_size@?$vector@PEAUSect@CInifile@@V?$xalloc@PEAUSect@CInifile@@@@@std@@QEBA_KXZ ; std::vector<CInifile::Sect *,xalloc<CInifile::Sect *> >::max_size
PUBLIC	?capacity@?$vector@PEAUSect@CInifile@@V?$xalloc@PEAUSect@CInifile@@@@@std@@QEBA_KXZ ; std::vector<CInifile::Sect *,xalloc<CInifile::Sect *> >::capacity
PUBLIC	?_Tidy@?$vector@PEAUSect@CInifile@@V?$xalloc@PEAUSect@CInifile@@@@@std@@AEAAXXZ ; std::vector<CInifile::Sect *,xalloc<CInifile::Sect *> >::_Tidy
PUBLIC	?_Xlength@?$vector@PEAUSect@CInifile@@V?$xalloc@PEAUSect@CInifile@@@@@std@@CAXXZ ; std::vector<CInifile::Sect *,xalloc<CInifile::Sect *> >::_Xlength
PUBLIC	?GetClosureThis@?$ClosurePtr@P8GenericClass@detail@fastdelegate@@EAA_NPEBD@ZP6A_N0@ZP6A_N0@Z@detail@fastdelegate@@QEBAPEAVGenericClass@23@XZ ; fastdelegate::detail::ClosurePtr<bool (__cdecl fastdelegate::detail::GenericClass::*)(char const *),bool (__cdecl*)(char const *),bool (__cdecl*)(char const *)>::GetClosureThis
PUBLIC	?GetClosureMemPtr@?$ClosurePtr@P8GenericClass@detail@fastdelegate@@EAA_NPEBD@ZP6A_N0@ZP6A_N0@Z@detail@fastdelegate@@QEBAP8GenericClass@23@EAA_NPEBD@ZXZ ; fastdelegate::detail::ClosurePtr<bool (__cdecl fastdelegate::detail::GenericClass::*)(char const *),bool (__cdecl*)(char const *),bool (__cdecl*)(char const *)>::GetClosureMemPtr
PUBLIC	??0?$_Vector_const_iterator@V?$_Vector_val@U?$_Simple_types@UItem@CInifile@@@std@@@std@@@std@@QEAA@PEAUItem@CInifile@@PEBU_Container_base0@1@@Z ; std::_Vector_const_iterator<std::_Vector_val<std::_Simple_types<CInifile::Item> > >::_Vector_const_iterator<std::_Vector_val<std::_Simple_types<CInifile::Item> > >
PUBLIC	??8?$_Vector_const_iterator@V?$_Vector_val@U?$_Simple_types@UItem@CInifile@@@std@@@std@@@std@@QEBA_NAEBV01@@Z ; std::_Vector_const_iterator<std::_Vector_val<std::_Simple_types<CInifile::Item> > >::operator==
PUBLIC	??0?$_Vector_const_iterator@V?$_Vector_val@U?$_Simple_types@PEAUSect@CInifile@@@std@@@std@@@std@@QEAA@PEAPEAUSect@CInifile@@PEBU_Container_base0@1@@Z ; std::_Vector_const_iterator<std::_Vector_val<std::_Simple_types<CInifile::Sect *> > >::_Vector_const_iterator<std::_Vector_val<std::_Simple_types<CInifile::Sect *> > >
PUBLIC	??8?$_Vector_const_iterator@V?$_Vector_val@U?$_Simple_types@PEAUSect@CInifile@@@std@@@std@@@std@@QEBA_NAEBV01@@Z ; std::_Vector_const_iterator<std::_Vector_val<std::_Simple_types<CInifile::Sect *> > >::operator==
PUBLIC	??0?$_Vector_iterator@V?$_Vector_val@U?$_Simple_types@UItem@CInifile@@@std@@@std@@@std@@QEAA@PEAUItem@CInifile@@PEBU_Container_base0@1@@Z ; std::_Vector_iterator<std::_Vector_val<std::_Simple_types<CInifile::Item> > >::_Vector_iterator<std::_Vector_val<std::_Simple_types<CInifile::Item> > >
PUBLIC	??0?$_Vector_iterator@V?$_Vector_val@U?$_Simple_types@PEAUSect@CInifile@@@std@@@std@@@std@@QEAA@PEAPEAUSect@CInifile@@PEBU_Container_base0@1@@Z ; std::_Vector_iterator<std::_Vector_val<std::_Simple_types<CInifile::Sect *> > >::_Vector_iterator<std::_Vector_val<std::_Simple_types<CInifile::Sect *> > >
PUBLIC	?test@?$_flags@E@@QEBAHE@Z			; _flags<unsigned char>::test
PUBLIC	?insert@?$vector@UItem@CInifile@@V?$xalloc@UItem@CInifile@@@@@std@@QEAA?AV?$_Vector_iterator@V?$_Vector_val@U?$_Simple_types@UItem@CInifile@@@std@@@std@@@2@V?$_Vector_const_iterator@V?$_Vector_val@U?$_Simple_types@UItem@CInifile@@@std@@@std@@@2@AEBUItem@CInifile@@@Z ; std::vector<CInifile::Item,xalloc<CInifile::Item> >::insert
PUBLIC	?reserve@?$vector@UItem@CInifile@@V?$xalloc@UItem@CInifile@@@@@std@@QEAAX_K@Z ; std::vector<CInifile::Item,xalloc<CInifile::Item> >::reserve
PUBLIC	?begin@?$vector@UItem@CInifile@@V?$xalloc@UItem@CInifile@@@@@std@@QEAA?AV?$_Vector_iterator@V?$_Vector_val@U?$_Simple_types@UItem@CInifile@@@std@@@std@@@2@XZ ; std::vector<CInifile::Item,xalloc<CInifile::Item> >::begin
PUBLIC	?begin@?$vector@UItem@CInifile@@V?$xalloc@UItem@CInifile@@@@@std@@QEBA?AV?$_Vector_const_iterator@V?$_Vector_val@U?$_Simple_types@UItem@CInifile@@@std@@@std@@@2@XZ ; std::vector<CInifile::Item,xalloc<CInifile::Item> >::begin
PUBLIC	?end@?$vector@UItem@CInifile@@V?$xalloc@UItem@CInifile@@@@@std@@QEAA?AV?$_Vector_iterator@V?$_Vector_val@U?$_Simple_types@UItem@CInifile@@@std@@@std@@@2@XZ ; std::vector<CInifile::Item,xalloc<CInifile::Item> >::end
PUBLIC	?end@?$vector@UItem@CInifile@@V?$xalloc@UItem@CInifile@@@@@std@@QEBA?AV?$_Vector_const_iterator@V?$_Vector_val@U?$_Simple_types@UItem@CInifile@@@std@@@std@@@2@XZ ; std::vector<CInifile::Item,xalloc<CInifile::Item> >::end
PUBLIC	?size@?$xr_vector@UItem@CInifile@@V?$xalloc@UItem@CInifile@@@@@@QEBAIXZ ; xr_vector<CInifile::Item,xalloc<CInifile::Item> >::size
PUBLIC	??1?$vector@PEAUSect@CInifile@@V?$xalloc@PEAUSect@CInifile@@@@@std@@QEAA@XZ ; std::vector<CInifile::Sect *,xalloc<CInifile::Sect *> >::~vector<CInifile::Sect *,xalloc<CInifile::Sect *> >
PUBLIC	?insert@?$vector@PEAUSect@CInifile@@V?$xalloc@PEAUSect@CInifile@@@@@std@@QEAA?AV?$_Vector_iterator@V?$_Vector_val@U?$_Simple_types@PEAUSect@CInifile@@@std@@@std@@@2@V?$_Vector_const_iterator@V?$_Vector_val@U?$_Simple_types@PEAUSect@CInifile@@@std@@@std@@@2@AEBQEAUSect@CInifile@@@Z ; std::vector<CInifile::Sect *,xalloc<CInifile::Sect *> >::insert
PUBLIC	?begin@?$vector@PEAUSect@CInifile@@V?$xalloc@PEAUSect@CInifile@@@@@std@@QEAA?AV?$_Vector_iterator@V?$_Vector_val@U?$_Simple_types@PEAUSect@CInifile@@@std@@@std@@@2@XZ ; std::vector<CInifile::Sect *,xalloc<CInifile::Sect *> >::begin
PUBLIC	?begin@?$vector@PEAUSect@CInifile@@V?$xalloc@PEAUSect@CInifile@@@@@std@@QEBA?AV?$_Vector_const_iterator@V?$_Vector_val@U?$_Simple_types@PEAUSect@CInifile@@@std@@@std@@@2@XZ ; std::vector<CInifile::Sect *,xalloc<CInifile::Sect *> >::begin
PUBLIC	?end@?$vector@PEAUSect@CInifile@@V?$xalloc@PEAUSect@CInifile@@@@@std@@QEAA?AV?$_Vector_iterator@V?$_Vector_val@U?$_Simple_types@PEAUSect@CInifile@@@std@@@std@@@2@XZ ; std::vector<CInifile::Sect *,xalloc<CInifile::Sect *> >::end
PUBLIC	?end@?$vector@PEAUSect@CInifile@@V?$xalloc@PEAUSect@CInifile@@@@@std@@QEBA?AV?$_Vector_const_iterator@V?$_Vector_val@U?$_Simple_types@PEAUSect@CInifile@@@std@@@std@@@2@XZ ; std::vector<CInifile::Sect *,xalloc<CInifile::Sect *> >::end
PUBLIC	??0?$xr_vector@PEAUSect@CInifile@@V?$xalloc@PEAUSect@CInifile@@@@@@QEAA@XZ ; xr_vector<CInifile::Sect *,xalloc<CInifile::Sect *> >::xr_vector<CInifile::Sect *,xalloc<CInifile::Sect *> >
PUBLIC	??0?$FastDelegate1@PEBD_N@fastdelegate@@QEAA@AEBV01@@Z ; fastdelegate::FastDelegate1<char const *,bool>::FastDelegate1<char const *,bool>
PUBLIC	??R?$FastDelegate1@PEBD_N@fastdelegate@@QEBA_NPEBD@Z ; fastdelegate::FastDelegate1<char const *,bool>::operator()
PUBLIC	??7?$FastDelegate1@PEBD_N@fastdelegate@@QEBA_NXZ ; fastdelegate::FastDelegate1<char const *,bool>::operator!
PUBLIC	??D?$_Vector_const_iterator@V?$_Vector_val@U?$_Simple_types@UItem@CInifile@@@std@@@std@@@std@@QEBAAEBUItem@CInifile@@XZ ; std::_Vector_const_iterator<std::_Vector_val<std::_Simple_types<CInifile::Item> > >::operator*
PUBLIC	??C?$_Vector_const_iterator@V?$_Vector_val@U?$_Simple_types@UItem@CInifile@@@std@@@std@@@std@@QEBAPEBUItem@CInifile@@XZ ; std::_Vector_const_iterator<std::_Vector_val<std::_Simple_types<CInifile::Item> > >::operator->
PUBLIC	??E?$_Vector_const_iterator@V?$_Vector_val@U?$_Simple_types@UItem@CInifile@@@std@@@std@@@std@@QEAAAEAV01@XZ ; std::_Vector_const_iterator<std::_Vector_val<std::_Simple_types<CInifile::Item> > >::operator++
PUBLIC	??9?$_Vector_const_iterator@V?$_Vector_val@U?$_Simple_types@UItem@CInifile@@@std@@@std@@@std@@QEBA_NAEBV01@@Z ; std::_Vector_const_iterator<std::_Vector_val<std::_Simple_types<CInifile::Item> > >::operator!=
PUBLIC	??D?$_Vector_iterator@V?$_Vector_val@U?$_Simple_types@UItem@CInifile@@@std@@@std@@@std@@QEBAAEAUItem@CInifile@@XZ ; std::_Vector_iterator<std::_Vector_val<std::_Simple_types<CInifile::Item> > >::operator*
PUBLIC	??C?$_Vector_iterator@V?$_Vector_val@U?$_Simple_types@UItem@CInifile@@@std@@@std@@@std@@QEBAPEAUItem@CInifile@@XZ ; std::_Vector_iterator<std::_Vector_val<std::_Simple_types<CInifile::Item> > >::operator->
PUBLIC	??E?$_Vector_iterator@V?$_Vector_val@U?$_Simple_types@UItem@CInifile@@@std@@@std@@@std@@QEAA?AV01@H@Z ; std::_Vector_iterator<std::_Vector_val<std::_Simple_types<CInifile::Item> > >::operator++
PUBLIC	??D?$_Vector_const_iterator@V?$_Vector_val@U?$_Simple_types@PEAUSect@CInifile@@@std@@@std@@@std@@QEBAAEBQEAUSect@CInifile@@XZ ; std::_Vector_const_iterator<std::_Vector_val<std::_Simple_types<CInifile::Sect *> > >::operator*
PUBLIC	??E?$_Vector_const_iterator@V?$_Vector_val@U?$_Simple_types@PEAUSect@CInifile@@@std@@@std@@@std@@QEAAAEAV01@XZ ; std::_Vector_const_iterator<std::_Vector_val<std::_Simple_types<CInifile::Sect *> > >::operator++
PUBLIC	??9?$_Vector_const_iterator@V?$_Vector_val@U?$_Simple_types@PEAUSect@CInifile@@@std@@@std@@@std@@QEBA_NAEBV01@@Z ; std::_Vector_const_iterator<std::_Vector_val<std::_Simple_types<CInifile::Sect *> > >::operator!=
PUBLIC	??D?$_Vector_iterator@V?$_Vector_val@U?$_Simple_types@PEAUSect@CInifile@@@std@@@std@@@std@@QEBAAEAPEAUSect@CInifile@@XZ ; std::_Vector_iterator<std::_Vector_val<std::_Simple_types<CInifile::Sect *> > >::operator*
PUBLIC	??E?$_Vector_iterator@V?$_Vector_val@U?$_Simple_types@PEAUSect@CInifile@@@std@@@std@@@std@@QEAAAEAV01@XZ ; std::_Vector_iterator<std::_Vector_val<std::_Simple_types<CInifile::Sect *> > >::operator++
PUBLIC	?r_section@CInifile@@QEBAAEAUSect@1@PEBD@Z	; CInifile::r_section
PUBLIC	?save_as@CInifile@@QEAA_NPEBD@Z			; CInifile::save_as
PUBLIC	?save_as@CInifile@@QEBAXAEAVIWriter@@_N@Z	; CInifile::save_as
PUBLIC	??1Item@CInifile@@QEAA@XZ			; CInifile::Item::~Item
PUBLIC	?Load@CInifile@@AEAAXPEAVIReader@@PEBDV?$FastDelegate1@PEBD_N@fastdelegate@@@Z ; CInifile::Load
PUBLIC	?is_empty_line_now@@YAHPEAVIReader@@@Z		; is_empty_line_now
PUBLIC	??1CInifile@@UEAA@XZ				; CInifile::~CInifile
PUBLIC	??1?$xr_vector@PEAUSect@CInifile@@V?$xalloc@PEAUSect@CInifile@@@@@@QEAA@XZ ; xr_vector<CInifile::Sect *,xalloc<CInifile::Sect *> >::~xr_vector<CInifile::Sect *,xalloc<CInifile::Sect *> >
PUBLIC	??_GCInifile@@UEAAPEAXI@Z			; CInifile::`scalar deleting destructor'
PUBLIC	?_decorate@@YAXPEADPEBD@Z			; _decorate
PUBLIC	?_parse@@YAHPEADPEBD@Z				; _parse
PUBLIC	?item_pred@@YA_NAEBUItem@CInifile@@PEBD@Z	; item_pred
PUBLIC	?sect_pred@@YA_NPEBUSect@CInifile@@PEBD@Z	; sect_pred
PUBLIC	?r_string@CInifile@@QEBAPEBDPEBD0@Z		; CInifile::r_string
PUBLIC	?r_bool@CInifile@@QEBAHPEBD0@Z			; CInifile::r_bool
PUBLIC	??0CInifile@@QEAA@PEAVIReader@@PEBDV?$FastDelegate1@PEBD_N@fastdelegate@@@Z ; CInifile::CInifile
EXTRN	??_ECInifile@@UEAAPEAXI@Z:PROC			; CInifile::`vector deleting destructor'
;	COMDAT pdata
pdata	SEGMENT
$pdata$??0Item@CInifile@@QEAA@XZ DD imagerel $LN5
	DD	imagerel $LN5+47
	DD	imagerel $unwind$??0Item@CInifile@@QEAA@XZ
pdata	ENDS
;	COMDAT pdata
pdata	SEGMENT
$pdata$??$_Emplace_reallocate@AEBUItem@CInifile@@@?$vector@UItem@CInifile@@V?$xalloc@UItem@CInifile@@@@@std@@AEAAPEAUItem@CInifile@@QEAU23@AEBU23@@Z DD imagerel $LN343
	DD	imagerel $LN343+1316
	DD	imagerel $unwind$??$_Emplace_reallocate@AEBUItem@CInifile@@@?$vector@UItem@CInifile@@V?$xalloc@UItem@CInifile@@@@@std@@AEAAPEAUItem@CInifile@@QEAU23@AEBU23@@Z
pdata	ENDS
;	COMDAT pdata
pdata	SEGMENT
$pdata$?catch$0@?0???$_Emplace_reallocate@AEBUItem@CInifile@@@?$vector@UItem@CInifile@@V?$xalloc@UItem@CInifile@@@@@std@@AEAAPEAUItem@CInifile@@QEAU23@AEBU23@@Z@4HA DD imagerel ?catch$0@?0???$_Emplace_reallocate@AEBUItem@CInifile@@@?$vector@UItem@CInifile@@V?$xalloc@UItem@CInifile@@@@@std@@AEAAPEAUItem@CInifile@@QEAU23@AEBU23@@Z@4HA
	DD	imagerel ?catch$0@?0???$_Emplace_reallocate@AEBUItem@CInifile@@@?$vector@UItem@CInifile@@V?$xalloc@UItem@CInifile@@@@@std@@AEAAPEAUItem@CInifile@@QEAU23@AEBU23@@Z@4HA+51
	DD	imagerel $unwind$?catch$0@?0???$_Emplace_reallocate@AEBUItem@CInifile@@@?$vector@UItem@CInifile@@V?$xalloc@UItem@CInifile@@@@@std@@AEAAPEAUItem@CInifile@@QEAU23@AEBU23@@Z@4HA
pdata	ENDS
;	COMDAT pdata
pdata	SEGMENT
$pdata$??$_Emplace_reallocate@AEBQEAUSect@CInifile@@@?$vector@PEAUSect@CInifile@@V?$xalloc@PEAUSect@CInifile@@@@@std@@AEAAPEAPEAUSect@CInifile@@QEAPEAU23@AEBQEAU23@@Z DD imagerel $LN123
	DD	imagerel $LN123+498
	DD	imagerel $unwind$??$_Emplace_reallocate@AEBQEAUSect@CInifile@@@?$vector@PEAUSect@CInifile@@V?$xalloc@PEAUSect@CInifile@@@@@std@@AEAAPEAPEAUSect@CInifile@@QEAPEAU23@AEBQEAU23@@Z
pdata	ENDS
;	COMDAT pdata
pdata	SEGMENT
$pdata$?catch$0@?0???$_Emplace_reallocate@AEBQEAUSect@CInifile@@@?$vector@PEAUSect@CInifile@@V?$xalloc@PEAUSect@CInifile@@@@@std@@AEAAPEAPEAUSect@CInifile@@QEAPEAU23@AEBQEAU23@@Z@4HA DD imagerel ?catch$0@?0???$_Emplace_reallocate@AEBQEAUSect@CInifile@@@?$vector@PEAUSect@CInifile@@V?$xalloc@PEAUSect@CInifile@@@@@std@@AEAAPEAPEAUSect@CInifile@@QEAPEAU23@AEBQEAU23@@Z@4HA
	DD	imagerel ?catch$0@?0???$_Emplace_reallocate@AEBQEAUSect@CInifile@@@?$vector@PEAUSect@CInifile@@V?$xalloc@PEAUSect@CInifile@@@@@std@@AEAAPEAPEAUSect@CInifile@@QEAPEAU23@AEBQEAU23@@Z@4HA+35
	DD	imagerel $unwind$?catch$0@?0???$_Emplace_reallocate@AEBQEAUSect@CInifile@@@?$vector@PEAUSect@CInifile@@V?$xalloc@PEAUSect@CInifile@@@@@std@@AEAAPEAPEAUSect@CInifile@@QEAPEAU23@AEBQEAU23@@Z@4HA
pdata	ENDS
;	COMDAT pdata
pdata	SEGMENT
$pdata$?_Tidy@?$vector@UItem@CInifile@@V?$xalloc@UItem@CInifile@@@@@std@@AEAAXXZ DD imagerel $LN29
	DD	imagerel $LN29+65
	DD	imagerel $unwind$?_Tidy@?$vector@UItem@CInifile@@V?$xalloc@UItem@CInifile@@@@@std@@AEAAXXZ
pdata	ENDS
;	COMDAT pdata
pdata	SEGMENT
$pdata$??1Sect@CInifile@@QEAA@XZ DD imagerel $LN42
	DD	imagerel $LN42+97
	DD	imagerel $unwind$??1Sect@CInifile@@QEAA@XZ
pdata	ENDS
;	COMDAT pdata
pdata	SEGMENT
$pdata$??_GSect@CInifile@@QEAAPEAXI@Z DD imagerel $LN47
	DD	imagerel $LN47+114
	DD	imagerel $unwind$??_GSect@CInifile@@QEAAPEAXI@Z
pdata	ENDS
;	COMDAT pdata
pdata	SEGMENT
$pdata$??1?$vector@UItem@CInifile@@V?$xalloc@UItem@CInifile@@@@@std@@QEAA@XZ DD imagerel $LN31
	DD	imagerel $LN31+65
	DD	imagerel $unwind$??1?$vector@UItem@CInifile@@V?$xalloc@UItem@CInifile@@@@@std@@QEAA@XZ
pdata	ENDS
;	COMDAT pdata
pdata	SEGMENT
$pdata$??R?$xr_special_free@$0A@USect@CInifile@@@@QEAAXAEAPEAUSect@CInifile@@@Z DD imagerel $LN66
	DD	imagerel $LN66+125
	DD	imagerel $unwind$??R?$xr_special_free@$0A@USect@CInifile@@@@QEAAXAEAPEAUSect@CInifile@@@Z
pdata	ENDS
;	COMDAT pdata
pdata	SEGMENT
$pdata$??1?$xr_vector@UItem@CInifile@@V?$xalloc@UItem@CInifile@@@@@@QEAA@XZ DD imagerel $LN34
	DD	imagerel $LN34+65
	DD	imagerel $unwind$??1?$xr_vector@UItem@CInifile@@V?$xalloc@UItem@CInifile@@@@@@QEAA@XZ
pdata	ENDS
;	COMDAT pdata
pdata	SEGMENT
$pdata$??$xr_alloc@UItem@CInifile@@@@YAPEAUItem@CInifile@@I@Z DD imagerel $LN34
	DD	imagerel $LN34+75
	DD	imagerel $unwind$??$xr_alloc@UItem@CInifile@@@@YAPEAUItem@CInifile@@I@Z
pdata	ENDS
;	COMDAT pdata
pdata	SEGMENT
$pdata$??$xr_free@UItem@CInifile@@@@YAXAEAPEAUItem@CInifile@@@Z DD imagerel $LN24
	DD	imagerel $LN24+42
	DD	imagerel $unwind$??$xr_free@UItem@CInifile@@@@YAXAEAPEAUItem@CInifile@@@Z
pdata	ENDS
;	COMDAT pdata
pdata	SEGMENT
$pdata$??$xr_alloc@PEAUSect@CInifile@@@@YAPEAPEAUSect@CInifile@@I@Z DD imagerel $LN34
	DD	imagerel $LN34+71
	DD	imagerel $unwind$??$xr_alloc@PEAUSect@CInifile@@@@YAPEAPEAUSect@CInifile@@I@Z
pdata	ENDS
;	COMDAT pdata
pdata	SEGMENT
$pdata$??$xr_free@PEAUSect@CInifile@@@@YAXAEAPEAPEAUSect@CInifile@@@Z DD imagerel $LN24
	DD	imagerel $LN24+42
	DD	imagerel $unwind$??$xr_free@PEAUSect@CInifile@@@@YAXAEAPEAPEAUSect@CInifile@@@Z
pdata	ENDS
;	COMDAT pdata
pdata	SEGMENT
$pdata$??$emplace@AEBUItem@CInifile@@@?$vector@UItem@CInifile@@V?$xalloc@UItem@CInifile@@@@@std@@QEAA?AV?$_Vector_iterator@V?$_Vector_val@U?$_Simple_types@UItem@CInifile@@@std@@@std@@@1@V?$_Vector_const_iterator@V?$_Vector_val@U?$_Simple_types@UItem@CInifile@@@std@@@std@@@1@AEBUItem@CInifile@@@Z DD imagerel $LN190
	DD	imagerel $LN190+142
	DD	imagerel $unwind$??$emplace@AEBUItem@CInifile@@@?$vector@UItem@CInifile@@V?$xalloc@UItem@CInifile@@@@@std@@QEAA?AV?$_Vector_iterator@V?$_Vector_val@U?$_Simple_types@UItem@CInifile@@@std@@@std@@@1@V?$_Vector_const_iterator@V?$_Vector_val@U?$_Simple_types@UItem@CInifile@@@std@@@std@@@1@AEBUItem@CInifile@@@Z
pdata	ENDS
;	COMDAT pdata
pdata	SEGMENT
$pdata$0$??$emplace@AEBUItem@CInifile@@@?$vector@UItem@CInifile@@V?$xalloc@UItem@CInifile@@@@@std@@QEAA?AV?$_Vector_iterator@V?$_Vector_val@U?$_Simple_types@UItem@CInifile@@@std@@@std@@@1@V?$_Vector_const_iterator@V?$_Vector_val@U?$_Simple_types@UItem@CInifile@@@std@@@std@@@1@AEBUItem@CInifile@@@Z DD imagerel $LN190+142
	DD	imagerel $LN190+150
	DD	imagerel $chain$0$??$emplace@AEBUItem@CInifile@@@?$vector@UItem@CInifile@@V?$xalloc@UItem@CInifile@@@@@std@@QEAA?AV?$_Vector_iterator@V?$_Vector_val@U?$_Simple_types@UItem@CInifile@@@std@@@std@@@1@V?$_Vector_const_iterator@V?$_Vector_val@U?$_Simple_types@UItem@CInifile@@@std@@@std@@@1@AEBUItem@CInifile@@@Z
pdata	ENDS
;	COMDAT pdata
pdata	SEGMENT
$pdata$1$??$emplace@AEBUItem@CInifile@@@?$vector@UItem@CInifile@@V?$xalloc@UItem@CInifile@@@@@std@@QEAA?AV?$_Vector_iterator@V?$_Vector_val@U?$_Simple_types@UItem@CInifile@@@std@@@std@@@1@V?$_Vector_const_iterator@V?$_Vector_val@U?$_Simple_types@UItem@CInifile@@@std@@@std@@@1@AEBUItem@CInifile@@@Z DD imagerel $LN190+150
	DD	imagerel $LN190+155
	DD	imagerel $chain$1$??$emplace@AEBUItem@CInifile@@@?$vector@UItem@CInifile@@V?$xalloc@UItem@CInifile@@@@@std@@QEAA?AV?$_Vector_iterator@V?$_Vector_val@U?$_Simple_types@UItem@CInifile@@@std@@@std@@@1@V?$_Vector_const_iterator@V?$_Vector_val@U?$_Simple_types@UItem@CInifile@@@std@@@std@@@1@AEBUItem@CInifile@@@Z
pdata	ENDS
;	COMDAT pdata
pdata	SEGMENT
$pdata$2$??$emplace@AEBUItem@CInifile@@@?$vector@UItem@CInifile@@V?$xalloc@UItem@CInifile@@@@@std@@QEAA?AV?$_Vector_iterator@V?$_Vector_val@U?$_Simple_types@UItem@CInifile@@@std@@@std@@@1@V?$_Vector_const_iterator@V?$_Vector_val@U?$_Simple_types@UItem@CInifile@@@std@@@std@@@1@AEBUItem@CInifile@@@Z DD imagerel $LN190+155
	DD	imagerel $LN190+394
	DD	imagerel $chain$2$??$emplace@AEBUItem@CInifile@@@?$vector@UItem@CInifile@@V?$xalloc@UItem@CInifile@@@@@std@@QEAA?AV?$_Vector_iterator@V?$_Vector_val@U?$_Simple_types@UItem@CInifile@@@std@@@std@@@1@V?$_Vector_const_iterator@V?$_Vector_val@U?$_Simple_types@UItem@CInifile@@@std@@@std@@@1@AEBUItem@CInifile@@@Z
pdata	ENDS
;	COMDAT pdata
pdata	SEGMENT
$pdata$3$??$emplace@AEBUItem@CInifile@@@?$vector@UItem@CInifile@@V?$xalloc@UItem@CInifile@@@@@std@@QEAA?AV?$_Vector_iterator@V?$_Vector_val@U?$_Simple_types@UItem@CInifile@@@std@@@std@@@1@V?$_Vector_const_iterator@V?$_Vector_val@U?$_Simple_types@UItem@CInifile@@@std@@@std@@@1@AEBUItem@CInifile@@@Z DD imagerel $LN190+394
	DD	imagerel $LN190+406
	DD	imagerel $chain$3$??$emplace@AEBUItem@CInifile@@@?$vector@UItem@CInifile@@V?$xalloc@UItem@CInifile@@@@@std@@QEAA?AV?$_Vector_iterator@V?$_Vector_val@U?$_Simple_types@UItem@CInifile@@@std@@@std@@@1@V?$_Vector_const_iterator@V?$_Vector_val@U?$_Simple_types@UItem@CInifile@@@std@@@std@@@1@AEBUItem@CInifile@@@Z
pdata	ENDS
;	COMDAT pdata
pdata	SEGMENT
$pdata$4$??$emplace@AEBUItem@CInifile@@@?$vector@UItem@CInifile@@V?$xalloc@UItem@CInifile@@@@@std@@QEAA?AV?$_Vector_iterator@V?$_Vector_val@U?$_Simple_types@UItem@CInifile@@@std@@@std@@@1@V?$_Vector_const_iterator@V?$_Vector_val@U?$_Simple_types@UItem@CInifile@@@std@@@std@@@1@AEBUItem@CInifile@@@Z DD imagerel $LN190+406
	DD	imagerel $LN190+426
	DD	imagerel $chain$4$??$emplace@AEBUItem@CInifile@@@?$vector@UItem@CInifile@@V?$xalloc@UItem@CInifile@@@@@std@@QEAA?AV?$_Vector_iterator@V?$_Vector_val@U?$_Simple_types@UItem@CInifile@@@std@@@std@@@1@V?$_Vector_const_iterator@V?$_Vector_val@U?$_Simple_types@UItem@CInifile@@@std@@@std@@@1@AEBUItem@CInifile@@@Z
pdata	ENDS
;	COMDAT pdata
pdata	SEGMENT
$pdata$5$??$emplace@AEBUItem@CInifile@@@?$vector@UItem@CInifile@@V?$xalloc@UItem@CInifile@@@@@std@@QEAA?AV?$_Vector_iterator@V?$_Vector_val@U?$_Simple_types@UItem@CInifile@@@std@@@std@@@1@V?$_Vector_const_iterator@V?$_Vector_val@U?$_Simple_types@UItem@CInifile@@@std@@@std@@@1@AEBUItem@CInifile@@@Z DD imagerel $LN190+426
	DD	imagerel $LN190+450
	DD	imagerel $chain$5$??$emplace@AEBUItem@CInifile@@@?$vector@UItem@CInifile@@V?$xalloc@UItem@CInifile@@@@@std@@QEAA?AV?$_Vector_iterator@V?$_Vector_val@U?$_Simple_types@UItem@CInifile@@@std@@@std@@@1@V?$_Vector_const_iterator@V?$_Vector_val@U?$_Simple_types@UItem@CInifile@@@std@@@std@@@1@AEBUItem@CInifile@@@Z
pdata	ENDS
;	COMDAT pdata
pdata	SEGMENT
$pdata$??$emplace@AEBQEAUSect@CInifile@@@?$vector@PEAUSect@CInifile@@V?$xalloc@PEAUSect@CInifile@@@@@std@@QEAA?AV?$_Vector_iterator@V?$_Vector_val@U?$_Simple_types@PEAUSect@CInifile@@@std@@@std@@@1@V?$_Vector_const_iterator@V?$_Vector_val@U?$_Simple_types@PEAUSect@CInifile@@@std@@@std@@@1@AEBQEAUSect@CInifile@@@Z DD imagerel $LN31
	DD	imagerel $LN31+29
	DD	imagerel $unwind$??$emplace@AEBQEAUSect@CInifile@@@?$vector@PEAUSect@CInifile@@V?$xalloc@PEAUSect@CInifile@@@@@std@@QEAA?AV?$_Vector_iterator@V?$_Vector_val@U?$_Simple_types@PEAUSect@CInifile@@@std@@@std@@@1@V?$_Vector_const_iterator@V?$_Vector_val@U?$_Simple_types@PEAUSect@CInifile@@@std@@@std@@@1@AEBQEAUSect@CInifile@@@Z
pdata	ENDS
;	COMDAT pdata
pdata	SEGMENT
$pdata$0$??$emplace@AEBQEAUSect@CInifile@@@?$vector@PEAUSect@CInifile@@V?$xalloc@PEAUSect@CInifile@@@@@std@@QEAA?AV?$_Vector_iterator@V?$_Vector_val@U?$_Simple_types@PEAUSect@CInifile@@@std@@@std@@@1@V?$_Vector_const_iterator@V?$_Vector_val@U?$_Simple_types@PEAUSect@CInifile@@@std@@@std@@@1@AEBQEAUSect@CInifile@@@Z DD imagerel $LN31+29
	DD	imagerel $LN31+72
	DD	imagerel $chain$0$??$emplace@AEBQEAUSect@CInifile@@@?$vector@PEAUSect@CInifile@@V?$xalloc@PEAUSect@CInifile@@@@@std@@QEAA?AV?$_Vector_iterator@V?$_Vector_val@U?$_Simple_types@PEAUSect@CInifile@@@std@@@std@@@1@V?$_Vector_const_iterator@V?$_Vector_val@U?$_Simple_types@PEAUSect@CInifile@@@std@@@std@@@1@AEBQEAUSect@CInifile@@@Z
pdata	ENDS
;	COMDAT pdata
pdata	SEGMENT
$pdata$2$??$emplace@AEBQEAUSect@CInifile@@@?$vector@PEAUSect@CInifile@@V?$xalloc@PEAUSect@CInifile@@@@@std@@QEAA?AV?$_Vector_iterator@V?$_Vector_val@U?$_Simple_types@PEAUSect@CInifile@@@std@@@std@@@1@V?$_Vector_const_iterator@V?$_Vector_val@U?$_Simple_types@PEAUSect@CInifile@@@std@@@std@@@1@AEBQEAUSect@CInifile@@@Z DD imagerel $LN31+72
	DD	imagerel $LN31+130
	DD	imagerel $chain$2$??$emplace@AEBQEAUSect@CInifile@@@?$vector@PEAUSect@CInifile@@V?$xalloc@PEAUSect@CInifile@@@@@std@@QEAA?AV?$_Vector_iterator@V?$_Vector_val@U?$_Simple_types@PEAUSect@CInifile@@@std@@@std@@@1@V?$_Vector_const_iterator@V?$_Vector_val@U?$_Simple_types@PEAUSect@CInifile@@@std@@@std@@@1@AEBQEAUSect@CInifile@@@Z
pdata	ENDS
;	COMDAT pdata
pdata	SEGMENT
$pdata$3$??$emplace@AEBQEAUSect@CInifile@@@?$vector@PEAUSect@CInifile@@V?$xalloc@PEAUSect@CInifile@@@@@std@@QEAA?AV?$_Vector_iterator@V?$_Vector_val@U?$_Simple_types@PEAUSect@CInifile@@@std@@@std@@@1@V?$_Vector_const_iterator@V?$_Vector_val@U?$_Simple_types@PEAUSect@CInifile@@@std@@@std@@@1@AEBQEAUSect@CInifile@@@Z DD imagerel $LN31+130
	DD	imagerel $LN31+161
	DD	imagerel $chain$3$??$emplace@AEBQEAUSect@CInifile@@@?$vector@PEAUSect@CInifile@@V?$xalloc@PEAUSect@CInifile@@@@@std@@QEAA?AV?$_Vector_iterator@V?$_Vector_val@U?$_Simple_types@PEAUSect@CInifile@@@std@@@std@@@1@V?$_Vector_const_iterator@V?$_Vector_val@U?$_Simple_types@PEAUSect@CInifile@@@std@@@std@@@1@AEBQEAUSect@CInifile@@@Z
pdata	ENDS
;	COMDAT pdata
pdata	SEGMENT
$pdata$??$lower_bound@V?$_Vector_const_iterator@V?$_Vector_val@U?$_Simple_types@UItem@CInifile@@@std@@@std@@@std@@PEBDP6A_NAEBUItem@CInifile@@PEBD@Z@std@@YA?AV?$_Vector_const_iterator@V?$_Vector_val@U?$_Simple_types@UItem@CInifile@@@std@@@std@@@0@V10@V10@AEBQEBDP6A_NAEBUItem@CInifile@@PEBD@Z@Z DD imagerel $LN19
	DD	imagerel $LN19+52
	DD	imagerel $unwind$??$lower_bound@V?$_Vector_const_iterator@V?$_Vector_val@U?$_Simple_types@UItem@CInifile@@@std@@@std@@@std@@PEBDP6A_NAEBUItem@CInifile@@PEBD@Z@std@@YA?AV?$_Vector_const_iterator@V?$_Vector_val@U?$_Simple_types@UItem@CInifile@@@std@@@std@@@0@V10@V10@AEBQEBDP6A_NAEBUItem@CInifile@@PEBD@Z@Z
pdata	ENDS
;	COMDAT pdata
pdata	SEGMENT
$pdata$1$??$lower_bound@V?$_Vector_const_iterator@V?$_Vector_val@U?$_Simple_types@UItem@CInifile@@@std@@@std@@@std@@PEBDP6A_NAEBUItem@CInifile@@PEBD@Z@std@@YA?AV?$_Vector_const_iterator@V?$_Vector_val@U?$_Simple_types@UItem@CInifile@@@std@@@std@@@0@V10@V10@AEBQEBDP6A_NAEBUItem@CInifile@@PEBD@Z@Z DD imagerel $LN19+52
	DD	imagerel $LN19+151
	DD	imagerel $chain$1$??$lower_bound@V?$_Vector_const_iterator@V?$_Vector_val@U?$_Simple_types@UItem@CInifile@@@std@@@std@@@std@@PEBDP6A_NAEBUItem@CInifile@@PEBD@Z@std@@YA?AV?$_Vector_const_iterator@V?$_Vector_val@U?$_Simple_types@UItem@CInifile@@@std@@@std@@@0@V10@V10@AEBQEBDP6A_NAEBUItem@CInifile@@PEBD@Z@Z
pdata	ENDS
;	COMDAT pdata
pdata	SEGMENT
$pdata$2$??$lower_bound@V?$_Vector_const_iterator@V?$_Vector_val@U?$_Simple_types@UItem@CInifile@@@std@@@std@@@std@@PEBDP6A_NAEBUItem@CInifile@@PEBD@Z@std@@YA?AV?$_Vector_const_iterator@V?$_Vector_val@U?$_Simple_types@UItem@CInifile@@@std@@@std@@@0@V10@V10@AEBQEBDP6A_NAEBUItem@CInifile@@PEBD@Z@Z DD imagerel $LN19+151
	DD	imagerel $LN19+172
	DD	imagerel $chain$2$??$lower_bound@V?$_Vector_const_iterator@V?$_Vector_val@U?$_Simple_types@UItem@CInifile@@@std@@@std@@@std@@PEBDP6A_NAEBUItem@CInifile@@PEBD@Z@std@@YA?AV?$_Vector_const_iterator@V?$_Vector_val@U?$_Simple_types@UItem@CInifile@@@std@@@std@@@0@V10@V10@AEBQEBDP6A_NAEBUItem@CInifile@@PEBD@Z@Z
pdata	ENDS
;	COMDAT pdata
pdata	SEGMENT
$pdata$??$lower_bound@V?$_Vector_const_iterator@V?$_Vector_val@U?$_Simple_types@PEAUSect@CInifile@@@std@@@std@@@std@@$$BY0BAA@DP6A_NPEBUSect@CInifile@@PEBD@Z@std@@YA?AV?$_Vector_const_iterator@V?$_Vector_val@U?$_Simple_types@PEAUSect@CInifile@@@std@@@std@@@0@V10@V10@AEAY0BAA@$$CBDP6A_NPEBUSect@CInifile@@PEBD@Z@Z DD imagerel $LN19
	DD	imagerel $LN19+37
	DD	imagerel $unwind$??$lower_bound@V?$_Vector_const_iterator@V?$_Vector_val@U?$_Simple_types@PEAUSect@CInifile@@@std@@@std@@@std@@$$BY0BAA@DP6A_NPEBUSect@CInifile@@PEBD@Z@std@@YA?AV?$_Vector_const_iterator@V?$_Vector_val@U?$_Simple_types@PEAUSect@CInifile@@@std@@@std@@@0@V10@V10@AEAY0BAA@$$CBDP6A_NPEBUSect@CInifile@@PEBD@Z@Z
pdata	ENDS
;	COMDAT pdata
pdata	SEGMENT
$pdata$1$??$lower_bound@V?$_Vector_const_iterator@V?$_Vector_val@U?$_Simple_types@PEAUSect@CInifile@@@std@@@std@@@std@@$$BY0BAA@DP6A_NPEBUSect@CInifile@@PEBD@Z@std@@YA?AV?$_Vector_const_iterator@V?$_Vector_val@U?$_Simple_types@PEAUSect@CInifile@@@std@@@std@@@0@V10@V10@AEAY0BAA@$$CBDP6A_NPEBUSect@CInifile@@PEBD@Z@Z DD imagerel $LN19+37
	DD	imagerel $LN19+131
	DD	imagerel $chain$1$??$lower_bound@V?$_Vector_const_iterator@V?$_Vector_val@U?$_Simple_types@PEAUSect@CInifile@@@std@@@std@@@std@@$$BY0BAA@DP6A_NPEBUSect@CInifile@@PEBD@Z@std@@YA?AV?$_Vector_const_iterator@V?$_Vector_val@U?$_Simple_types@PEAUSect@CInifile@@@std@@@std@@@0@V10@V10@AEAY0BAA@$$CBDP6A_NPEBUSect@CInifile@@PEBD@Z@Z
pdata	ENDS
;	COMDAT pdata
pdata	SEGMENT
$pdata$2$??$lower_bound@V?$_Vector_const_iterator@V?$_Vector_val@U?$_Simple_types@PEAUSect@CInifile@@@std@@@std@@@std@@$$BY0BAA@DP6A_NPEBUSect@CInifile@@PEBD@Z@std@@YA?AV?$_Vector_const_iterator@V?$_Vector_val@U?$_Simple_types@PEAUSect@CInifile@@@std@@@std@@@0@V10@V10@AEAY0BAA@$$CBDP6A_NPEBUSect@CInifile@@PEBD@Z@Z DD imagerel $LN19+131
	DD	imagerel $LN19+151
	DD	imagerel $chain$2$??$lower_bound@V?$_Vector_const_iterator@V?$_Vector_val@U?$_Simple_types@PEAUSect@CInifile@@@std@@@std@@@std@@$$BY0BAA@DP6A_NPEBUSect@CInifile@@PEBD@Z@std@@YA?AV?$_Vector_const_iterator@V?$_Vector_val@U?$_Simple_types@PEAUSect@CInifile@@@std@@@std@@@0@V10@V10@AEAY0BAA@$$CBDP6A_NPEBUSect@CInifile@@PEBD@Z@Z
pdata	ENDS
;	COMDAT pdata
pdata	SEGMENT
$pdata$??$_GetItem@$0CAA@@@YAPEADPEBDHAEAY0CAA@DD0_N@Z DD imagerel $LN4
	DD	imagerel $LN4+25
	DD	imagerel $unwind$??$_GetItem@$0CAA@@@YAPEADPEBDHAEAY0CAA@DD0_N@Z
pdata	ENDS
;	COMDAT pdata
pdata	SEGMENT
$pdata$??$xr_new@USect@CInifile@@@@YAPEAUSect@CInifile@@XZ DD imagerel $LN46
	DD	imagerel $LN46+46
	DD	imagerel $unwind$??$xr_new@USect@CInifile@@@@YAPEAUSect@CInifile@@XZ
pdata	ENDS
;	COMDAT pdata
pdata	SEGMENT
$pdata$??$lower_bound@V?$_Vector_iterator@V?$_Vector_val@U?$_Simple_types@PEAUSect@CInifile@@@std@@@std@@@std@@PEBDP6A_NPEBUSect@CInifile@@PEBD@Z@std@@YA?AV?$_Vector_iterator@V?$_Vector_val@U?$_Simple_types@PEAUSect@CInifile@@@std@@@std@@@0@V10@V10@AEBQEBDP6A_NPEBUSect@CInifile@@PEBD@Z@Z DD imagerel $LN19
	DD	imagerel $LN19+37
	DD	imagerel $unwind$??$lower_bound@V?$_Vector_iterator@V?$_Vector_val@U?$_Simple_types@PEAUSect@CInifile@@@std@@@std@@@std@@PEBDP6A_NPEBUSect@CInifile@@PEBD@Z@std@@YA?AV?$_Vector_iterator@V?$_Vector_val@U?$_Simple_types@PEAUSect@CInifile@@@std@@@std@@@0@V10@V10@AEBQEBDP6A_NPEBUSect@CInifile@@PEBD@Z@Z
pdata	ENDS
;	COMDAT pdata
pdata	SEGMENT
$pdata$1$??$lower_bound@V?$_Vector_iterator@V?$_Vector_val@U?$_Simple_types@PEAUSect@CInifile@@@std@@@std@@@std@@PEBDP6A_NPEBUSect@CInifile@@PEBD@Z@std@@YA?AV?$_Vector_iterator@V?$_Vector_val@U?$_Simple_types@PEAUSect@CInifile@@@std@@@std@@@0@V10@V10@AEBQEBDP6A_NPEBUSect@CInifile@@PEBD@Z@Z DD imagerel $LN19+37
	DD	imagerel $LN19+132
	DD	imagerel $chain$1$??$lower_bound@V?$_Vector_iterator@V?$_Vector_val@U?$_Simple_types@PEAUSect@CInifile@@@std@@@std@@@std@@PEBDP6A_NPEBUSect@CInifile@@PEBD@Z@std@@YA?AV?$_Vector_iterator@V?$_Vector_val@U?$_Simple_types@PEAUSect@CInifile@@@std@@@std@@@0@V10@V10@AEBQEBDP6A_NPEBUSect@CInifile@@PEBD@Z@Z
pdata	ENDS
;	COMDAT pdata
pdata	SEGMENT
$pdata$2$??$lower_bound@V?$_Vector_iterator@V?$_Vector_val@U?$_Simple_types@PEAUSect@CInifile@@@std@@@std@@@std@@PEBDP6A_NPEBUSect@CInifile@@PEBD@Z@std@@YA?AV?$_Vector_iterator@V?$_Vector_val@U?$_Simple_types@PEAUSect@CInifile@@@std@@@std@@@0@V10@V10@AEBQEBDP6A_NPEBUSect@CInifile@@PEBD@Z@Z DD imagerel $LN19+132
	DD	imagerel $LN19+152
	DD	imagerel $chain$2$??$lower_bound@V?$_Vector_iterator@V?$_Vector_val@U?$_Simple_types@PEAUSect@CInifile@@@std@@@std@@@std@@PEBDP6A_NPEBUSect@CInifile@@PEBD@Z@std@@YA?AV?$_Vector_iterator@V?$_Vector_val@U?$_Simple_types@PEAUSect@CInifile@@@std@@@std@@@0@V10@V10@AEBQEBDP6A_NPEBUSect@CInifile@@PEBD@Z@Z
pdata	ENDS
;	COMDAT pdata
pdata	SEGMENT
$pdata$??$xr_delete@USect@CInifile@@@@YAXAEAPEAUSect@CInifile@@@Z DD imagerel $LN69
	DD	imagerel $LN69+25
	DD	imagerel $unwind$??$xr_delete@USect@CInifile@@@@YAXAEAPEAUSect@CInifile@@@Z
pdata	ENDS
;	COMDAT pdata
pdata	SEGMENT
$pdata$0$??$xr_delete@USect@CInifile@@@@YAXAEAPEAUSect@CInifile@@@Z DD imagerel $LN69+25
	DD	imagerel $LN69+122
	DD	imagerel $chain$0$??$xr_delete@USect@CInifile@@@@YAXAEAPEAUSect@CInifile@@@Z
pdata	ENDS
;	COMDAT pdata
pdata	SEGMENT
$pdata$1$??$xr_delete@USect@CInifile@@@@YAXAEAPEAUSect@CInifile@@@Z DD imagerel $LN69+122
	DD	imagerel $LN69+133
	DD	imagerel $chain$1$??$xr_delete@USect@CInifile@@@@YAXAEAPEAUSect@CInifile@@@Z
pdata	ENDS
;	COMDAT pdata
pdata	SEGMENT
$pdata$??$lower_bound@V?$_Vector_iterator@V?$_Vector_val@U?$_Simple_types@UItem@CInifile@@@std@@@std@@@std@@PEBDP6A_NAEBUItem@CInifile@@PEBD@Z@std@@YA?AV?$_Vector_iterator@V?$_Vector_val@U?$_Simple_types@UItem@CInifile@@@std@@@std@@@0@V10@V10@AEBQEBDP6A_NAEBUItem@CInifile@@PEBD@Z@Z DD imagerel $LN19
	DD	imagerel $LN19+52
	DD	imagerel $unwind$??$lower_bound@V?$_Vector_iterator@V?$_Vector_val@U?$_Simple_types@UItem@CInifile@@@std@@@std@@@std@@PEBDP6A_NAEBUItem@CInifile@@PEBD@Z@std@@YA?AV?$_Vector_iterator@V?$_Vector_val@U?$_Simple_types@UItem@CInifile@@@std@@@std@@@0@V10@V10@AEBQEBDP6A_NAEBUItem@CInifile@@PEBD@Z@Z
pdata	ENDS
;	COMDAT pdata
pdata	SEGMENT
$pdata$1$??$lower_bound@V?$_Vector_iterator@V?$_Vector_val@U?$_Simple_types@UItem@CInifile@@@std@@@std@@@std@@PEBDP6A_NAEBUItem@CInifile@@PEBD@Z@std@@YA?AV?$_Vector_iterator@V?$_Vector_val@U?$_Simple_types@UItem@CInifile@@@std@@@std@@@0@V10@V10@AEBQEBDP6A_NAEBUItem@CInifile@@PEBD@Z@Z DD imagerel $LN19+52
	DD	imagerel $LN19+151
	DD	imagerel $chain$1$??$lower_bound@V?$_Vector_iterator@V?$_Vector_val@U?$_Simple_types@UItem@CInifile@@@std@@@std@@@std@@PEBDP6A_NAEBUItem@CInifile@@PEBD@Z@std@@YA?AV?$_Vector_iterator@V?$_Vector_val@U?$_Simple_types@UItem@CInifile@@@std@@@std@@@0@V10@V10@AEBQEBDP6A_NAEBUItem@CInifile@@PEBD@Z@Z
pdata	ENDS
;	COMDAT pdata
pdata	SEGMENT
$pdata$2$??$lower_bound@V?$_Vector_iterator@V?$_Vector_val@U?$_Simple_types@UItem@CInifile@@@std@@@std@@@std@@PEBDP6A_NAEBUItem@CInifile@@PEBD@Z@std@@YA?AV?$_Vector_iterator@V?$_Vector_val@U?$_Simple_types@UItem@CInifile@@@std@@@std@@@0@V10@V10@AEBQEBDP6A_NAEBUItem@CInifile@@PEBD@Z@Z DD imagerel $LN19+151
	DD	imagerel $LN19+172
	DD	imagerel $chain$2$??$lower_bound@V?$_Vector_iterator@V?$_Vector_val@U?$_Simple_types@UItem@CInifile@@@std@@@std@@@std@@PEBDP6A_NAEBUItem@CInifile@@PEBD@Z@std@@YA?AV?$_Vector_iterator@V?$_Vector_val@U?$_Simple_types@UItem@CInifile@@@std@@@std@@@0@V10@V10@AEBQEBDP6A_NAEBUItem@CInifile@@PEBD@Z@Z
pdata	ENDS
;	COMDAT pdata
pdata	SEGMENT
$pdata$?allocate@?$xalloc@UItem@CInifile@@@@QEBAPEAUItem@CInifile@@_KPEBX@Z DD imagerel $LN36
	DD	imagerel $LN36+75
	DD	imagerel $unwind$?allocate@?$xalloc@UItem@CInifile@@@@QEBAPEAUItem@CInifile@@_KPEBX@Z
pdata	ENDS
;	COMDAT pdata
pdata	SEGMENT
$pdata$?_Change_array@?$vector@UItem@CInifile@@V?$xalloc@UItem@CInifile@@@@@std@@AEAAXQEAUItem@CInifile@@_K1@Z DD imagerel $LN29
	DD	imagerel $LN29+119
	DD	imagerel $unwind$?_Change_array@?$vector@UItem@CInifile@@V?$xalloc@UItem@CInifile@@@@@std@@AEAAXQEAUItem@CInifile@@_K1@Z
pdata	ENDS
;	COMDAT pdata
pdata	SEGMENT
$pdata$?allocate@?$xalloc@PEAUSect@CInifile@@@@QEBAPEAPEAUSect@CInifile@@_KPEBX@Z DD imagerel $LN36
	DD	imagerel $LN36+71
	DD	imagerel $unwind$?allocate@?$xalloc@PEAUSect@CInifile@@@@QEBAPEAPEAUSect@CInifile@@_KPEBX@Z
pdata	ENDS
;	COMDAT pdata
pdata	SEGMENT
$pdata$?_Change_array@?$vector@PEAUSect@CInifile@@V?$xalloc@PEAUSect@CInifile@@@@@std@@AEAAXQEAPEAUSect@CInifile@@_K1@Z DD imagerel $LN29
	DD	imagerel $LN29+92
	DD	imagerel $unwind$?_Change_array@?$vector@PEAUSect@CInifile@@V?$xalloc@PEAUSect@CInifile@@@@@std@@AEAAXQEAPEAUSect@CInifile@@_K1@Z
pdata	ENDS
;	COMDAT pdata
pdata	SEGMENT
$pdata$?_Reallocate_exactly@?$vector@UItem@CInifile@@V?$xalloc@UItem@CInifile@@@@@std@@AEAAX_K@Z DD imagerel $LN128
	DD	imagerel $LN128+438
	DD	imagerel $unwind$?_Reallocate_exactly@?$vector@UItem@CInifile@@V?$xalloc@UItem@CInifile@@@@@std@@AEAAX_K@Z
pdata	ENDS
;	COMDAT pdata
pdata	SEGMENT
$pdata$?catch$0@?0??_Reallocate_exactly@?$vector@UItem@CInifile@@V?$xalloc@UItem@CInifile@@@@@std@@AEAAX_K@Z@4HA DD imagerel ?catch$0@?0??_Reallocate_exactly@?$vector@UItem@CInifile@@V?$xalloc@UItem@CInifile@@@@@std@@AEAAX_K@Z@4HA
	DD	imagerel ?catch$0@?0??_Reallocate_exactly@?$vector@UItem@CInifile@@V?$xalloc@UItem@CInifile@@@@@std@@AEAAX_K@Z@4HA+32
	DD	imagerel $unwind$?catch$0@?0??_Reallocate_exactly@?$vector@UItem@CInifile@@V?$xalloc@UItem@CInifile@@@@@std@@AEAAX_K@Z@4HA
pdata	ENDS
;	COMDAT pdata
pdata	SEGMENT
$pdata$?_Xlength@?$vector@UItem@CInifile@@V?$xalloc@UItem@CInifile@@@@@std@@CAXXZ DD imagerel $LN4
	DD	imagerel $LN4+18
	DD	imagerel $unwind$?_Xlength@?$vector@UItem@CInifile@@V?$xalloc@UItem@CInifile@@@@@std@@CAXXZ
pdata	ENDS
;	COMDAT pdata
pdata	SEGMENT
$pdata$?_Tidy@?$vector@PEAUSect@CInifile@@V?$xalloc@PEAUSect@CInifile@@@@@std@@AEAAXXZ DD imagerel $LN29
	DD	imagerel $LN29+48
	DD	imagerel $unwind$?_Tidy@?$vector@PEAUSect@CInifile@@V?$xalloc@PEAUSect@CInifile@@@@@std@@AEAAXXZ
pdata	ENDS
;	COMDAT pdata
pdata	SEGMENT
$pdata$?_Xlength@?$vector@PEAUSect@CInifile@@V?$xalloc@PEAUSect@CInifile@@@@@std@@CAXXZ DD imagerel $LN4
	DD	imagerel $LN4+18
	DD	imagerel $unwind$?_Xlength@?$vector@PEAUSect@CInifile@@V?$xalloc@PEAUSect@CInifile@@@@@std@@CAXXZ
pdata	ENDS
;	COMDAT pdata
pdata	SEGMENT
$pdata$?insert@?$vector@UItem@CInifile@@V?$xalloc@UItem@CInifile@@@@@std@@QEAA?AV?$_Vector_iterator@V?$_Vector_val@U?$_Simple_types@UItem@CInifile@@@std@@@std@@@2@V?$_Vector_const_iterator@V?$_Vector_val@U?$_Simple_types@UItem@CInifile@@@std@@@std@@@2@AEBUItem@CInifile@@@Z DD imagerel $LN4
	DD	imagerel $LN4+23
	DD	imagerel $unwind$?insert@?$vector@UItem@CInifile@@V?$xalloc@UItem@CInifile@@@@@std@@QEAA?AV?$_Vector_iterator@V?$_Vector_val@U?$_Simple_types@UItem@CInifile@@@std@@@std@@@2@V?$_Vector_const_iterator@V?$_Vector_val@U?$_Simple_types@UItem@CInifile@@@std@@@std@@@2@AEBUItem@CInifile@@@Z
pdata	ENDS
;	COMDAT pdata
pdata	SEGMENT
$pdata$?reserve@?$vector@UItem@CInifile@@V?$xalloc@UItem@CInifile@@@@@std@@QEAAX_K@Z DD imagerel $LN10
	DD	imagerel $LN10+69
	DD	imagerel $unwind$?reserve@?$vector@UItem@CInifile@@V?$xalloc@UItem@CInifile@@@@@std@@QEAAX_K@Z
pdata	ENDS
;	COMDAT pdata
pdata	SEGMENT
$pdata$??1?$vector@PEAUSect@CInifile@@V?$xalloc@PEAUSect@CInifile@@@@@std@@QEAA@XZ DD imagerel $LN31
	DD	imagerel $LN31+48
	DD	imagerel $unwind$??1?$vector@PEAUSect@CInifile@@V?$xalloc@PEAUSect@CInifile@@@@@std@@QEAA@XZ
pdata	ENDS
;	COMDAT pdata
pdata	SEGMENT
$pdata$?insert@?$vector@PEAUSect@CInifile@@V?$xalloc@PEAUSect@CInifile@@@@@std@@QEAA?AV?$_Vector_iterator@V?$_Vector_val@U?$_Simple_types@PEAUSect@CInifile@@@std@@@std@@@2@V?$_Vector_const_iterator@V?$_Vector_val@U?$_Simple_types@PEAUSect@CInifile@@@std@@@std@@@2@AEBQEAUSect@CInifile@@@Z DD imagerel $LN33
	DD	imagerel $LN33+29
	DD	imagerel $unwind$?insert@?$vector@PEAUSect@CInifile@@V?$xalloc@PEAUSect@CInifile@@@@@std@@QEAA?AV?$_Vector_iterator@V?$_Vector_val@U?$_Simple_types@PEAUSect@CInifile@@@std@@@std@@@2@V?$_Vector_const_iterator@V?$_Vector_val@U?$_Simple_types@PEAUSect@CInifile@@@std@@@std@@@2@AEBQEAUSect@CInifile@@@Z
pdata	ENDS
;	COMDAT pdata
pdata	SEGMENT
$pdata$0$?insert@?$vector@PEAUSect@CInifile@@V?$xalloc@PEAUSect@CInifile@@@@@std@@QEAA?AV?$_Vector_iterator@V?$_Vector_val@U?$_Simple_types@PEAUSect@CInifile@@@std@@@std@@@2@V?$_Vector_const_iterator@V?$_Vector_val@U?$_Simple_types@PEAUSect@CInifile@@@std@@@std@@@2@AEBQEAUSect@CInifile@@@Z DD imagerel $LN33+29
	DD	imagerel $LN33+72
	DD	imagerel $chain$0$?insert@?$vector@PEAUSect@CInifile@@V?$xalloc@PEAUSect@CInifile@@@@@std@@QEAA?AV?$_Vector_iterator@V?$_Vector_val@U?$_Simple_types@PEAUSect@CInifile@@@std@@@std@@@2@V?$_Vector_const_iterator@V?$_Vector_val@U?$_Simple_types@PEAUSect@CInifile@@@std@@@std@@@2@AEBQEAUSect@CInifile@@@Z
pdata	ENDS
;	COMDAT pdata
pdata	SEGMENT
$pdata$2$?insert@?$vector@PEAUSect@CInifile@@V?$xalloc@PEAUSect@CInifile@@@@@std@@QEAA?AV?$_Vector_iterator@V?$_Vector_val@U?$_Simple_types@PEAUSect@CInifile@@@std@@@std@@@2@V?$_Vector_const_iterator@V?$_Vector_val@U?$_Simple_types@PEAUSect@CInifile@@@std@@@std@@@2@AEBQEAUSect@CInifile@@@Z DD imagerel $LN33+72
	DD	imagerel $LN33+130
	DD	imagerel $chain$2$?insert@?$vector@PEAUSect@CInifile@@V?$xalloc@PEAUSect@CInifile@@@@@std@@QEAA?AV?$_Vector_iterator@V?$_Vector_val@U?$_Simple_types@PEAUSect@CInifile@@@std@@@std@@@2@V?$_Vector_const_iterator@V?$_Vector_val@U?$_Simple_types@PEAUSect@CInifile@@@std@@@std@@@2@AEBQEAUSect@CInifile@@@Z
pdata	ENDS
;	COMDAT pdata
pdata	SEGMENT
$pdata$3$?insert@?$vector@PEAUSect@CInifile@@V?$xalloc@PEAUSect@CInifile@@@@@std@@QEAA?AV?$_Vector_iterator@V?$_Vector_val@U?$_Simple_types@PEAUSect@CInifile@@@std@@@std@@@2@V?$_Vector_const_iterator@V?$_Vector_val@U?$_Simple_types@PEAUSect@CInifile@@@std@@@std@@@2@AEBQEAUSect@CInifile@@@Z DD imagerel $LN33+130
	DD	imagerel $LN33+161
	DD	imagerel $chain$3$?insert@?$vector@PEAUSect@CInifile@@V?$xalloc@PEAUSect@CInifile@@@@@std@@QEAA?AV?$_Vector_iterator@V?$_Vector_val@U?$_Simple_types@PEAUSect@CInifile@@@std@@@std@@@2@V?$_Vector_const_iterator@V?$_Vector_val@U?$_Simple_types@PEAUSect@CInifile@@@std@@@std@@@2@AEBQEAUSect@CInifile@@@Z
pdata	ENDS
pdata	SEGMENT
$pdata$?r_section@CInifile@@QEBAAEAUSect@1@PEBD@Z DD imagerel $LN63
	DD	imagerel $LN63+323
	DD	imagerel $unwind$?r_section@CInifile@@QEBAAEAUSect@1@PEBD@Z
$pdata$?save_as@CInifile@@QEAA_NPEBD@Z DD imagerel $LN17
	DD	imagerel $LN17+156
	DD	imagerel $unwind$?save_as@CInifile@@QEAA_NPEBD@Z
$pdata$?save_as@CInifile@@QEBAXAEAVIWriter@@_N@Z DD imagerel $LN163
	DD	imagerel $LN163+57
	DD	imagerel $unwind$?save_as@CInifile@@QEBAXAEAVIWriter@@_N@Z
$pdata$1$?save_as@CInifile@@QEBAXAEAVIWriter@@_N@Z DD imagerel $LN163+57
	DD	imagerel $LN163+900
	DD	imagerel $chain$1$?save_as@CInifile@@QEBAXAEAVIWriter@@_N@Z
$pdata$2$?save_as@CInifile@@QEBAXAEAVIWriter@@_N@Z DD imagerel $LN163+900
	DD	imagerel $LN163+913
	DD	imagerel $chain$2$?save_as@CInifile@@QEBAXAEAVIWriter@@_N@Z
$pdata$?Load@CInifile@@AEAAXPEAVIReader@@PEBDV?$FastDelegate1@PEBD_N@fastdelegate@@@Z DD imagerel $LN1374
	DD	imagerel $LN1374+155
	DD	imagerel $unwind$?Load@CInifile@@AEAAXPEAVIReader@@PEBDV?$FastDelegate1@PEBD_N@fastdelegate@@@Z
$pdata$1$?Load@CInifile@@AEAAXPEAVIReader@@PEBDV?$FastDelegate1@PEBD_N@fastdelegate@@@Z DD imagerel $LN1374+155
	DD	imagerel $LN1374+5985
	DD	imagerel $chain$1$?Load@CInifile@@AEAAXPEAVIReader@@PEBDV?$FastDelegate1@PEBD_N@fastdelegate@@@Z
$pdata$2$?Load@CInifile@@AEAAXPEAVIReader@@PEBDV?$FastDelegate1@PEBD_N@fastdelegate@@@Z DD imagerel $LN1374+5985
	DD	imagerel $LN1374+6002
	DD	imagerel $chain$2$?Load@CInifile@@AEAAXPEAVIReader@@PEBDV?$FastDelegate1@PEBD_N@fastdelegate@@@Z
$pdata$?insert_item@@YAXPEAUSect@CInifile@@AEBUItem@2@@Z DD imagerel ?insert_item@@YAXPEAUSect@CInifile@@AEBUItem@2@@Z
	DD	imagerel ?insert_item@@YAXPEAUSect@CInifile@@AEBUItem@2@@Z+16
	DD	imagerel $unwind$?insert_item@@YAXPEAUSect@CInifile@@AEBUItem@2@@Z
$pdata$2$?insert_item@@YAXPEAUSect@CInifile@@AEBUItem@2@@Z DD imagerel ?insert_item@@YAXPEAUSect@CInifile@@AEBUItem@2@@Z+16
	DD	imagerel ?insert_item@@YAXPEAUSect@CInifile@@AEBUItem@2@@Z+85
	DD	imagerel $chain$2$?insert_item@@YAXPEAUSect@CInifile@@AEBUItem@2@@Z
$pdata$4$?insert_item@@YAXPEAUSect@CInifile@@AEBUItem@2@@Z DD imagerel ?insert_item@@YAXPEAUSect@CInifile@@AEBUItem@2@@Z+85
	DD	imagerel ?insert_item@@YAXPEAUSect@CInifile@@AEBUItem@2@@Z+162
	DD	imagerel $chain$4$?insert_item@@YAXPEAUSect@CInifile@@AEBUItem@2@@Z
$pdata$5$?insert_item@@YAXPEAUSect@CInifile@@AEBUItem@2@@Z DD imagerel ?insert_item@@YAXPEAUSect@CInifile@@AEBUItem@2@@Z+162
	DD	imagerel ?insert_item@@YAXPEAUSect@CInifile@@AEBUItem@2@@Z+183
	DD	imagerel $chain$5$?insert_item@@YAXPEAUSect@CInifile@@AEBUItem@2@@Z
$pdata$6$?insert_item@@YAXPEAUSect@CInifile@@AEBUItem@2@@Z DD imagerel ?insert_item@@YAXPEAUSect@CInifile@@AEBUItem@2@@Z+183
	DD	imagerel ?insert_item@@YAXPEAUSect@CInifile@@AEBUItem@2@@Z+282
	DD	imagerel $chain$6$?insert_item@@YAXPEAUSect@CInifile@@AEBUItem@2@@Z
$pdata$??1CInifile@@UEAA@XZ DD imagerel $LN154
	DD	imagerel $LN154+15
	DD	imagerel $unwind$??1CInifile@@UEAA@XZ
$pdata$1$??1CInifile@@UEAA@XZ DD imagerel $LN154+15
	DD	imagerel $LN154+203
	DD	imagerel $chain$1$??1CInifile@@UEAA@XZ
$pdata$2$??1CInifile@@UEAA@XZ DD imagerel $LN154+203
	DD	imagerel $LN154+325
	DD	imagerel $chain$2$??1CInifile@@UEAA@XZ
$pdata$3$??1CInifile@@UEAA@XZ DD imagerel $LN154+325
	DD	imagerel $LN154+347
	DD	imagerel $chain$3$??1CInifile@@UEAA@XZ
$pdata$4$??1CInifile@@UEAA@XZ DD imagerel $LN154+347
	DD	imagerel $LN154+388
	DD	imagerel $chain$4$??1CInifile@@UEAA@XZ
pdata	ENDS
;	COMDAT pdata
pdata	SEGMENT
$pdata$??1?$xr_vector@PEAUSect@CInifile@@V?$xalloc@PEAUSect@CInifile@@@@@@QEAA@XZ DD imagerel $LN34
	DD	imagerel $LN34+48
	DD	imagerel $unwind$??1?$xr_vector@PEAUSect@CInifile@@V?$xalloc@PEAUSect@CInifile@@@@@@QEAA@XZ
pdata	ENDS
;	COMDAT pdata
pdata	SEGMENT
$pdata$??_GCInifile@@UEAAPEAXI@Z DD imagerel $LN6
	DD	imagerel $LN6+52
	DD	imagerel $unwind$??_GCInifile@@UEAAPEAXI@Z
pdata	ENDS
pdata	SEGMENT
$pdata$?_parse@@YAHPEADPEBD@Z DD imagerel $LN26
	DD	imagerel $LN26+160
	DD	imagerel $unwind$?_parse@@YAHPEADPEBD@Z
$pdata$?item_pred@@YA_NAEBUItem@CInifile@@PEBD@Z DD imagerel $LN69
	DD	imagerel $LN69+101
	DD	imagerel $unwind$?item_pred@@YA_NAEBUItem@CInifile@@PEBD@Z
$pdata$0$?item_pred@@YA_NAEBUItem@CInifile@@PEBD@Z DD imagerel $LN69+101
	DD	imagerel $LN69+106
	DD	imagerel $chain$0$?item_pred@@YA_NAEBUItem@CInifile@@PEBD@Z
$pdata$3$?item_pred@@YA_NAEBUItem@CInifile@@PEBD@Z DD imagerel $LN69+106
	DD	imagerel $LN69+342
	DD	imagerel $chain$3$?item_pred@@YA_NAEBUItem@CInifile@@PEBD@Z
$pdata$4$?item_pred@@YA_NAEBUItem@CInifile@@PEBD@Z DD imagerel $LN69+342
	DD	imagerel $LN69+365
	DD	imagerel $chain$4$?item_pred@@YA_NAEBUItem@CInifile@@PEBD@Z
$pdata$6$?item_pred@@YA_NAEBUItem@CInifile@@PEBD@Z DD imagerel $LN69+365
	DD	imagerel $LN69+384
	DD	imagerel $chain$6$?item_pred@@YA_NAEBUItem@CInifile@@PEBD@Z
$pdata$?r_string@CInifile@@QEBAPEBDPEBD0@Z DD imagerel $LN51
	DD	imagerel $LN51+17
	DD	imagerel $unwind$?r_string@CInifile@@QEBAPEBDPEBD0@Z
$pdata$1$?r_string@CInifile@@QEBAPEBDPEBD0@Z DD imagerel $LN51+17
	DD	imagerel $LN51+75
	DD	imagerel $chain$1$?r_string@CInifile@@QEBAPEBDPEBD0@Z
$pdata$3$?r_string@CInifile@@QEBAPEBDPEBD0@Z DD imagerel $LN51+75
	DD	imagerel $LN51+162
	DD	imagerel $chain$3$?r_string@CInifile@@QEBAPEBDPEBD0@Z
$pdata$4$?r_string@CInifile@@QEBAPEBDPEBD0@Z DD imagerel $LN51+162
	DD	imagerel $LN51+178
	DD	imagerel $chain$4$?r_string@CInifile@@QEBAPEBDPEBD0@Z
$pdata$5$?r_string@CInifile@@QEBAPEBDPEBD0@Z DD imagerel $LN51+178
	DD	imagerel $LN51+322
	DD	imagerel $chain$5$?r_string@CInifile@@QEBAPEBDPEBD0@Z
$pdata$?r_bool@CInifile@@QEBAHPEBD0@Z DD imagerel $LN27
	DD	imagerel $LN27+218
	DD	imagerel $unwind$?r_bool@CInifile@@QEBAHPEBD0@Z
$pdata$??0CInifile@@QEAA@PEAVIReader@@PEBDV?$FastDelegate1@PEBD_N@fastdelegate@@@Z DD imagerel $LN37
	DD	imagerel $LN37+84
	DD	imagerel $unwind$??0CInifile@@QEAA@PEAVIReader@@PEBDV?$FastDelegate1@PEBD_N@fastdelegate@@@Z
;	COMDAT xdata
xdata	SEGMENT
$unwind$??_GCInifile@@UEAAPEAXI@Z DD 040a01H
	DD	06340aH
	DD	07006320aH
xdata	ENDS
;	COMDAT xdata
xdata	SEGMENT
$unwind$??1?$xr_vector@PEAUSect@CInifile@@V?$xalloc@PEAUSect@CInifile@@@@@@QEAA@XZ DD 020601H
	DD	030023206H
xdata	ENDS
xdata	SEGMENT
$unwind$?r_section@CInifile@@QEBAAEAUSect@1@PEBD@Z DD 071201H
	DD	0296412H
	DD	0283412H
	DD	0260112H
	DD	0700bH
$unwind$?save_as@CInifile@@QEAA_NPEBD@Z DD 040f01H
	DD	0c340fH
	DD	0700b920fH
$unwind$?save_as@CInifile@@QEBAXAEAVIWriter@@_N@Z DD 061f01H
	DD	0409011fH
	DD	07008e00aH
	DD	050066007H
$chain$1$?save_as@CInifile@@QEBAXAEAVIWriter@@_N@Z DD 041021H
	DD	0408f410H
	DD	040f3408H
	DD	imagerel $LN163
	DD	imagerel $LN163+57
	DD	imagerel $unwind$?save_as@CInifile@@QEBAXAEAVIWriter@@_N@Z
$chain$2$?save_as@CInifile@@QEBAXAEAVIWriter@@_N@Z DD 021H
	DD	imagerel $LN163
	DD	imagerel $LN163+57
	DD	imagerel $unwind$?save_as@CInifile@@QEBAXAEAVIWriter@@_N@Z
$unwind$?Load@CInifile@@AEAAXPEAVIReader@@PEBDV?$FastDelegate1@PEBD_N@fastdelegate@@@Z DD 083201H
	DD	08df0132H
	DD	0e01bf01dH
	DD	07017c019H
	DD	050156016H
$chain$1$?Load@CInifile@@AEAAXPEAVIReader@@PEBDV?$FastDelegate1@PEBD_N@fastdelegate@@@Z DD 041021H
	DD	08ddd410H
	DD	08de3408H
	DD	imagerel $LN1374
	DD	imagerel $LN1374+155
	DD	imagerel $unwind$?Load@CInifile@@AEAAXPEAVIReader@@PEBDV?$FastDelegate1@PEBD_N@fastdelegate@@@Z
$chain$2$?Load@CInifile@@AEAAXPEAVIReader@@PEBDV?$FastDelegate1@PEBD_N@fastdelegate@@@Z DD 021H
	DD	imagerel $LN1374
	DD	imagerel $LN1374+155
	DD	imagerel $unwind$?Load@CInifile@@AEAAXPEAVIReader@@PEBDV?$FastDelegate1@PEBD_N@fastdelegate@@@Z
$unwind$?insert_item@@YAXPEAUSect@CInifile@@AEBUItem@2@@Z DD 040a01H
	DD	0e006520aH
	DD	06002c004H
$chain$2$?insert_item@@YAXPEAUSect@CInifile@@AEBUItem@2@@Z DD 061c21H
	DD	04f41cH
	DD	05d40aH
	DD	0b3405H
	DD	imagerel ?insert_item@@YAXPEAUSect@CInifile@@AEBUItem@2@@Z
	DD	imagerel ?insert_item@@YAXPEAUSect@CInifile@@AEBUItem@2@@Z+16
	DD	imagerel $unwind$?insert_item@@YAXPEAUSect@CInifile@@AEBUItem@2@@Z
$chain$4$?insert_item@@YAXPEAUSect@CInifile@@AEBUItem@2@@Z DD 040a21H
	DD	0d740aH
	DD	0c5405H
	DD	imagerel ?insert_item@@YAXPEAUSect@CInifile@@AEBUItem@2@@Z+16
	DD	imagerel ?insert_item@@YAXPEAUSect@CInifile@@AEBUItem@2@@Z+85
	DD	imagerel $chain$2$?insert_item@@YAXPEAUSect@CInifile@@AEBUItem@2@@Z
$chain$5$?insert_item@@YAXPEAUSect@CInifile@@AEBUItem@2@@Z DD 021H
	DD	imagerel ?insert_item@@YAXPEAUSect@CInifile@@AEBUItem@2@@Z+16
	DD	imagerel ?insert_item@@YAXPEAUSect@CInifile@@AEBUItem@2@@Z+85
	DD	imagerel $chain$2$?insert_item@@YAXPEAUSect@CInifile@@AEBUItem@2@@Z
$chain$6$?insert_item@@YAXPEAUSect@CInifile@@AEBUItem@2@@Z DD 021H
	DD	imagerel ?insert_item@@YAXPEAUSect@CInifile@@AEBUItem@2@@Z
	DD	imagerel ?insert_item@@YAXPEAUSect@CInifile@@AEBUItem@2@@Z+16
	DD	imagerel $unwind$?insert_item@@YAXPEAUSect@CInifile@@AEBUItem@2@@Z
$unwind$??1CInifile@@UEAA@XZ DD 030801H
	DD	0e004a208H
	DD	05002H
$chain$1$??1CInifile@@UEAA@XZ DD 041421H
	DD	0a7414H
	DD	0f3405H
	DD	imagerel $LN154
	DD	imagerel $LN154+15
	DD	imagerel $unwind$??1CInifile@@UEAA@XZ
$chain$2$??1CInifile@@UEAA@XZ DD 020821H
	DD	0106408H
	DD	imagerel $LN154+15
	DD	imagerel $LN154+203
	DD	imagerel $chain$1$??1CInifile@@UEAA@XZ
$chain$3$??1CInifile@@UEAA@XZ DD 021H
	DD	imagerel $LN154+15
	DD	imagerel $LN154+203
	DD	imagerel $chain$1$??1CInifile@@UEAA@XZ
$chain$4$??1CInifile@@UEAA@XZ DD 021H
	DD	imagerel $LN154
	DD	imagerel $LN154+15
	DD	imagerel $unwind$??1CInifile@@UEAA@XZ
$unwind$?_parse@@YAHPEADPEBD@Z DD 060f01H
	DD	07640fH
	DD	06340fH
	DD	0700b320fH
$unwind$?item_pred@@YA_NAEBUItem@CInifile@@PEBD@Z DD 030801H
	DD	0f0048208H
	DD	05002H
$chain$0$?item_pred@@YA_NAEBUItem@CInifile@@PEBD@Z DD 020521H
	DD	0c3405H
	DD	imagerel $LN69
	DD	imagerel $LN69+101
	DD	imagerel $unwind$?item_pred@@YA_NAEBUItem@CInifile@@PEBD@Z
$chain$3$?item_pred@@YA_NAEBUItem@CInifile@@PEBD@Z DD 060f21H
	DD	08e40fH
	DD	0e740aH
	DD	0d6405H
	DD	imagerel $LN69+101
	DD	imagerel $LN69+106
	DD	imagerel $chain$0$?item_pred@@YA_NAEBUItem@CInifile@@PEBD@Z
$chain$4$?item_pred@@YA_NAEBUItem@CInifile@@PEBD@Z DD 021H
	DD	imagerel $LN69+101
	DD	imagerel $LN69+106
	DD	imagerel $chain$0$?item_pred@@YA_NAEBUItem@CInifile@@PEBD@Z
$chain$6$?item_pred@@YA_NAEBUItem@CInifile@@PEBD@Z DD 020021H
	DD	0c3400H
	DD	imagerel $LN69
	DD	imagerel $LN69+101
	DD	imagerel $unwind$?item_pred@@YA_NAEBUItem@CInifile@@PEBD@Z
$unwind$?r_string@CInifile@@QEBAPEBDPEBD0@Z DD 040a01H
	DD	0e006720aH
	DD	06002c004H
$chain$1$?r_string@CInifile@@QEBAPEBDPEBD0@Z DD 040d21H
	DD	0ff40dH
	DD	0c3405H
	DD	imagerel $LN51
	DD	imagerel $LN51+17
	DD	imagerel $unwind$?r_string@CInifile@@QEBAPEBDPEBD0@Z
$chain$3$?r_string@CInifile@@QEBAPEBDPEBD0@Z DD 040a21H
	DD	0e740aH
	DD	0d5405H
	DD	imagerel $LN51+17
	DD	imagerel $LN51+75
	DD	imagerel $chain$1$?r_string@CInifile@@QEBAPEBDPEBD0@Z
$chain$4$?r_string@CInifile@@QEBAPEBDPEBD0@Z DD 021H
	DD	imagerel $LN51+17
	DD	imagerel $LN51+75
	DD	imagerel $chain$1$?r_string@CInifile@@QEBAPEBDPEBD0@Z
$chain$5$?r_string@CInifile@@QEBAPEBDPEBD0@Z DD 021H
	DD	imagerel $LN51
	DD	imagerel $LN51+17
	DD	imagerel $unwind$?r_string@CInifile@@QEBAPEBDPEBD0@Z
$unwind$?r_bool@CInifile@@QEBAHPEBD0@Z DD 010401H
	DD	06204H
$unwind$??0CInifile@@QEAA@PEAVIReader@@PEBDV?$FastDelegate1@PEBD_N@fastdelegate@@@Z DD 020601H
	DD	030025206H
xdata	ENDS
;	COMDAT xdata
xdata	SEGMENT
$chain$3$?insert@?$vector@PEAUSect@CInifile@@V?$xalloc@PEAUSect@CInifile@@@@@std@@QEAA?AV?$_Vector_iterator@V?$_Vector_val@U?$_Simple_types@PEAUSect@CInifile@@@std@@@std@@@2@V?$_Vector_const_iterator@V?$_Vector_val@U?$_Simple_types@PEAUSect@CInifile@@@std@@@std@@@2@AEBQEAUSect@CInifile@@@Z DD 021H
	DD	imagerel $LN33
	DD	imagerel $LN33+29
	DD	imagerel $unwind$?insert@?$vector@PEAUSect@CInifile@@V?$xalloc@PEAUSect@CInifile@@@@@std@@QEAA?AV?$_Vector_iterator@V?$_Vector_val@U?$_Simple_types@PEAUSect@CInifile@@@std@@@std@@@2@V?$_Vector_const_iterator@V?$_Vector_val@U?$_Simple_types@PEAUSect@CInifile@@@std@@@std@@@2@AEBQEAUSect@CInifile@@@Z
xdata	ENDS
;	COMDAT xdata
xdata	SEGMENT
$chain$2$?insert@?$vector@PEAUSect@CInifile@@V?$xalloc@PEAUSect@CInifile@@@@@std@@QEAA?AV?$_Vector_iterator@V?$_Vector_val@U?$_Simple_types@PEAUSect@CInifile@@@std@@@std@@@2@V?$_Vector_const_iterator@V?$_Vector_val@U?$_Simple_types@PEAUSect@CInifile@@@std@@@std@@@2@AEBQEAUSect@CInifile@@@Z DD 020021H
	DD	066400H
	DD	imagerel $LN33
	DD	imagerel $LN33+29
	DD	imagerel $unwind$?insert@?$vector@PEAUSect@CInifile@@V?$xalloc@PEAUSect@CInifile@@@@@std@@QEAA?AV?$_Vector_iterator@V?$_Vector_val@U?$_Simple_types@PEAUSect@CInifile@@@std@@@std@@@2@V?$_Vector_const_iterator@V?$_Vector_val@U?$_Simple_types@PEAUSect@CInifile@@@std@@@std@@@2@AEBQEAUSect@CInifile@@@Z
xdata	ENDS
;	COMDAT xdata
xdata	SEGMENT
$chain$0$?insert@?$vector@PEAUSect@CInifile@@V?$xalloc@PEAUSect@CInifile@@@@@std@@QEAA?AV?$_Vector_iterator@V?$_Vector_val@U?$_Simple_types@PEAUSect@CInifile@@@std@@@std@@@2@V?$_Vector_const_iterator@V?$_Vector_val@U?$_Simple_types@PEAUSect@CInifile@@@std@@@std@@@2@AEBQEAUSect@CInifile@@@Z DD 020521H
	DD	066405H
	DD	imagerel $LN33
	DD	imagerel $LN33+29
	DD	imagerel $unwind$?insert@?$vector@PEAUSect@CInifile@@V?$xalloc@PEAUSect@CInifile@@@@@std@@QEAA?AV?$_Vector_iterator@V?$_Vector_val@U?$_Simple_types@PEAUSect@CInifile@@@std@@@std@@@2@V?$_Vector_const_iterator@V?$_Vector_val@U?$_Simple_types@PEAUSect@CInifile@@@std@@@std@@@2@AEBQEAUSect@CInifile@@@Z
xdata	ENDS
;	COMDAT xdata
xdata	SEGMENT
$unwind$?insert@?$vector@PEAUSect@CInifile@@V?$xalloc@PEAUSect@CInifile@@@@@std@@QEAA?AV?$_Vector_iterator@V?$_Vector_val@U?$_Simple_types@PEAUSect@CInifile@@@std@@@std@@@2@V?$_Vector_const_iterator@V?$_Vector_val@U?$_Simple_types@PEAUSect@CInifile@@@std@@@std@@@2@AEBQEAUSect@CInifile@@@Z DD 040a01H
	DD	07340aH
	DD	07006320aH
xdata	ENDS
;	COMDAT xdata
xdata	SEGMENT
$unwind$??1?$vector@PEAUSect@CInifile@@V?$xalloc@PEAUSect@CInifile@@@@@std@@QEAA@XZ DD 020601H
	DD	030023206H
xdata	ENDS
;	COMDAT xdata
xdata	SEGMENT
$unwind$?reserve@?$vector@UItem@CInifile@@V?$xalloc@UItem@CInifile@@@@@std@@QEAAX_K@Z DD 010401H
	DD	04204H
xdata	ENDS
;	COMDAT xdata
xdata	SEGMENT
$unwind$?insert@?$vector@UItem@CInifile@@V?$xalloc@UItem@CInifile@@@@@std@@QEAA?AV?$_Vector_iterator@V?$_Vector_val@U?$_Simple_types@UItem@CInifile@@@std@@@std@@@2@V?$_Vector_const_iterator@V?$_Vector_val@U?$_Simple_types@UItem@CInifile@@@std@@@std@@@2@AEBUItem@CInifile@@@Z DD 020601H
	DD	030023206H
xdata	ENDS
;	COMDAT xdata
xdata	SEGMENT
$unwind$?_Xlength@?$vector@PEAUSect@CInifile@@V?$xalloc@PEAUSect@CInifile@@@@@std@@CAXXZ DD 010401H
	DD	04204H
xdata	ENDS
;	COMDAT xdata
xdata	SEGMENT
$unwind$?_Tidy@?$vector@PEAUSect@CInifile@@V?$xalloc@PEAUSect@CInifile@@@@@std@@AEAAXXZ DD 020601H
	DD	030023206H
xdata	ENDS
;	COMDAT xdata
xdata	SEGMENT
$unwind$?_Xlength@?$vector@UItem@CInifile@@V?$xalloc@UItem@CInifile@@@@@std@@CAXXZ DD 010401H
	DD	04204H
xdata	ENDS
;	COMDAT voltbl
voltbl	SEGMENT
_volmd	DB	00H
voltbl	ENDS
;	COMDAT xdata
xdata	SEGMENT
$unwind$?catch$0@?0??_Reallocate_exactly@?$vector@UItem@CInifile@@V?$xalloc@UItem@CInifile@@@@@std@@AEAAX_K@Z@4HA DD 020a01H
	DD	05006320aH
xdata	ENDS
;	COMDAT xdata
xdata	SEGMENT
$ip2state$?_Reallocate_exactly@?$vector@UItem@CInifile@@V?$xalloc@UItem@CInifile@@@@@std@@AEAAX_K@Z DB 06H
	DB	00H
	DB	00H
	DB	0d4H
	DB	02H
	DB	091H, 04H
	DB	00H
xdata	ENDS
;	COMDAT xdata
xdata	SEGMENT
$handlerMap$?_Reallocate_exactly@?$vector@UItem@CInifile@@V?$xalloc@UItem@CInifile@@@@@std@@AEAAX_K@Z DB 02H
	DB	00H
	DD	imagerel ?catch$0@?0??_Reallocate_exactly@?$vector@UItem@CInifile@@V?$xalloc@UItem@CInifile@@@@@std@@AEAAX_K@Z@4HA
xdata	ENDS
;	COMDAT xdata
xdata	SEGMENT
$tryMap$?_Reallocate_exactly@?$vector@UItem@CInifile@@V?$xalloc@UItem@CInifile@@@@@std@@AEAAX_K@Z DB 02H
	DB	00H
	DB	00H
	DB	02H
	DD	imagerel $handlerMap$?_Reallocate_exactly@?$vector@UItem@CInifile@@V?$xalloc@UItem@CInifile@@@@@std@@AEAAX_K@Z
xdata	ENDS
;	COMDAT xdata
xdata	SEGMENT
$stateUnwindMap$?_Reallocate_exactly@?$vector@UItem@CInifile@@V?$xalloc@UItem@CInifile@@@@@std@@AEAAX_K@Z DB 04H
	DB	08H
	DB	010H
xdata	ENDS
;	COMDAT xdata
xdata	SEGMENT
$cppxdata$?_Reallocate_exactly@?$vector@UItem@CInifile@@V?$xalloc@UItem@CInifile@@@@@std@@AEAAX_K@Z DB 018H
	DD	imagerel $stateUnwindMap$?_Reallocate_exactly@?$vector@UItem@CInifile@@V?$xalloc@UItem@CInifile@@@@@std@@AEAAX_K@Z
	DD	imagerel $tryMap$?_Reallocate_exactly@?$vector@UItem@CInifile@@V?$xalloc@UItem@CInifile@@@@@std@@AEAAX_K@Z
	DD	imagerel $ip2state$?_Reallocate_exactly@?$vector@UItem@CInifile@@V?$xalloc@UItem@CInifile@@@@@std@@AEAAX_K@Z
xdata	ENDS
;	COMDAT xdata
xdata	SEGMENT
$unwind$?_Reallocate_exactly@?$vector@UItem@CInifile@@V?$xalloc@UItem@CInifile@@@@@std@@AEAAX_K@Z DD 081319H
	DD	0106413H
	DD	0f3413H
	DD	0f00f9213H
	DD	0700be00dH
	DD	imagerel __CxxFrameHandler4
	DD	imagerel $cppxdata$?_Reallocate_exactly@?$vector@UItem@CInifile@@V?$xalloc@UItem@CInifile@@@@@std@@AEAAX_K@Z
xdata	ENDS
;	COMDAT xdata
xdata	SEGMENT
$unwind$?_Change_array@?$vector@PEAUSect@CInifile@@V?$xalloc@PEAUSect@CInifile@@@@@std@@AEAAXQEAPEAUSect@CInifile@@_K1@Z DD 081401H
	DD	086414H
	DD	075414H
	DD	063414H
	DD	070103214H
xdata	ENDS
;	COMDAT xdata
xdata	SEGMENT
$unwind$?allocate@?$xalloc@PEAUSect@CInifile@@@@QEBAPEAPEAUSect@CInifile@@_KPEBX@Z DD 040a01H
	DD	06340aH
	DD	07006320aH
xdata	ENDS
;	COMDAT xdata
xdata	SEGMENT
$unwind$?_Change_array@?$vector@UItem@CInifile@@V?$xalloc@UItem@CInifile@@@@@std@@AEAAXQEAUItem@CInifile@@_K1@Z DD 081501H
	DD	087415H
	DD	076415H
	DD	063415H
	DD	0e0113215H
xdata	ENDS
;	COMDAT xdata
xdata	SEGMENT
$unwind$?allocate@?$xalloc@UItem@CInifile@@@@QEBAPEAUItem@CInifile@@_KPEBX@Z DD 040a01H
	DD	06340aH
	DD	07006320aH
xdata	ENDS
;	COMDAT xdata
xdata	SEGMENT
$chain$2$??$lower_bound@V?$_Vector_iterator@V?$_Vector_val@U?$_Simple_types@UItem@CInifile@@@std@@@std@@@std@@PEBDP6A_NAEBUItem@CInifile@@PEBD@Z@std@@YA?AV?$_Vector_iterator@V?$_Vector_val@U?$_Simple_types@UItem@CInifile@@@std@@@std@@@0@V10@V10@AEBQEBDP6A_NAEBUItem@CInifile@@PEBD@Z@Z DD 021H
	DD	imagerel $LN19
	DD	imagerel $LN19+52
	DD	imagerel $unwind$??$lower_bound@V?$_Vector_iterator@V?$_Vector_val@U?$_Simple_types@UItem@CInifile@@@std@@@std@@@std@@PEBDP6A_NAEBUItem@CInifile@@PEBD@Z@std@@YA?AV?$_Vector_iterator@V?$_Vector_val@U?$_Simple_types@UItem@CInifile@@@std@@@std@@@0@V10@V10@AEBQEBDP6A_NAEBUItem@CInifile@@PEBD@Z@Z
xdata	ENDS
;	COMDAT xdata
xdata	SEGMENT
$chain$1$??$lower_bound@V?$_Vector_iterator@V?$_Vector_val@U?$_Simple_types@UItem@CInifile@@@std@@@std@@@std@@PEBDP6A_NAEBUItem@CInifile@@PEBD@Z@std@@YA?AV?$_Vector_iterator@V?$_Vector_val@U?$_Simple_types@UItem@CInifile@@@std@@@std@@@0@V10@V10@AEBQEBDP6A_NAEBUItem@CInifile@@PEBD@Z@Z DD 040a21H
	DD	09740aH
	DD	085405H
	DD	imagerel $LN19
	DD	imagerel $LN19+52
	DD	imagerel $unwind$??$lower_bound@V?$_Vector_iterator@V?$_Vector_val@U?$_Simple_types@UItem@CInifile@@@std@@@std@@@std@@PEBDP6A_NAEBUItem@CInifile@@PEBD@Z@std@@YA?AV?$_Vector_iterator@V?$_Vector_val@U?$_Simple_types@UItem@CInifile@@@std@@@std@@@0@V10@V10@AEBQEBDP6A_NAEBUItem@CInifile@@PEBD@Z@Z
xdata	ENDS
;	COMDAT xdata
xdata	SEGMENT
$unwind$??$lower_bound@V?$_Vector_iterator@V?$_Vector_val@U?$_Simple_types@UItem@CInifile@@@std@@@std@@@std@@PEBDP6A_NAEBUItem@CInifile@@PEBD@Z@std@@YA?AV?$_Vector_iterator@V?$_Vector_val@U?$_Simple_types@UItem@CInifile@@@std@@@std@@@0@V10@V10@AEBQEBDP6A_NAEBUItem@CInifile@@PEBD@Z@Z DD 060e01H
	DD	0a340eH
	DD	0f00a320eH
	DD	06006e008H
xdata	ENDS
;	COMDAT xdata
xdata	SEGMENT
$chain$1$??$xr_delete@USect@CInifile@@@@YAXAEAPEAUSect@CInifile@@@Z DD 021H
	DD	imagerel $LN69
	DD	imagerel $LN69+25
	DD	imagerel $unwind$??$xr_delete@USect@CInifile@@@@YAXAEAPEAUSect@CInifile@@@Z
xdata	ENDS
;	COMDAT xdata
xdata	SEGMENT
$chain$0$??$xr_delete@USect@CInifile@@@@YAXAEAPEAUSect@CInifile@@@Z DD 020521H
	DD	066405H
	DD	imagerel $LN69
	DD	imagerel $LN69+25
	DD	imagerel $unwind$??$xr_delete@USect@CInifile@@@@YAXAEAPEAUSect@CInifile@@@Z
xdata	ENDS
;	COMDAT xdata
xdata	SEGMENT
$unwind$??$xr_delete@USect@CInifile@@@@YAXAEAPEAUSect@CInifile@@@Z DD 040a01H
	DD	07340aH
	DD	07006320aH
xdata	ENDS
;	COMDAT xdata
xdata	SEGMENT
$chain$2$??$lower_bound@V?$_Vector_iterator@V?$_Vector_val@U?$_Simple_types@PEAUSect@CInifile@@@std@@@std@@@std@@PEBDP6A_NPEBUSect@CInifile@@PEBD@Z@std@@YA?AV?$_Vector_iterator@V?$_Vector_val@U?$_Simple_types@PEAUSect@CInifile@@@std@@@std@@@0@V10@V10@AEBQEBDP6A_NPEBUSect@CInifile@@PEBD@Z@Z DD 021H
	DD	imagerel $LN19
	DD	imagerel $LN19+37
	DD	imagerel $unwind$??$lower_bound@V?$_Vector_iterator@V?$_Vector_val@U?$_Simple_types@PEAUSect@CInifile@@@std@@@std@@@std@@PEBDP6A_NPEBUSect@CInifile@@PEBD@Z@std@@YA?AV?$_Vector_iterator@V?$_Vector_val@U?$_Simple_types@PEAUSect@CInifile@@@std@@@std@@@0@V10@V10@AEBQEBDP6A_NPEBUSect@CInifile@@PEBD@Z@Z
xdata	ENDS
;	COMDAT xdata
xdata	SEGMENT
$chain$1$??$lower_bound@V?$_Vector_iterator@V?$_Vector_val@U?$_Simple_types@PEAUSect@CInifile@@@std@@@std@@@std@@PEBDP6A_NPEBUSect@CInifile@@PEBD@Z@std@@YA?AV?$_Vector_iterator@V?$_Vector_val@U?$_Simple_types@PEAUSect@CInifile@@@std@@@std@@@0@V10@V10@AEBQEBDP6A_NPEBUSect@CInifile@@PEBD@Z@Z DD 040a21H
	DD	09e40aH
	DD	087405H
	DD	imagerel $LN19
	DD	imagerel $LN19+37
	DD	imagerel $unwind$??$lower_bound@V?$_Vector_iterator@V?$_Vector_val@U?$_Simple_types@PEAUSect@CInifile@@@std@@@std@@@std@@PEBDP6A_NPEBUSect@CInifile@@PEBD@Z@std@@YA?AV?$_Vector_iterator@V?$_Vector_val@U?$_Simple_types@PEAUSect@CInifile@@@std@@@std@@@0@V10@V10@AEBQEBDP6A_NPEBUSect@CInifile@@PEBD@Z@Z
xdata	ENDS
;	COMDAT xdata
xdata	SEGMENT
$unwind$??$lower_bound@V?$_Vector_iterator@V?$_Vector_val@U?$_Simple_types@PEAUSect@CInifile@@@std@@@std@@@std@@PEBDP6A_NPEBUSect@CInifile@@PEBD@Z@std@@YA?AV?$_Vector_iterator@V?$_Vector_val@U?$_Simple_types@PEAUSect@CInifile@@@std@@@std@@@0@V10@V10@AEBQEBDP6A_NPEBUSect@CInifile@@PEBD@Z@Z DD 060d01H
	DD	0a340dH
	DD	0f009320dH
	DD	050066007H
xdata	ENDS
;	COMDAT xdata
xdata	SEGMENT
$unwind$??$xr_new@USect@CInifile@@@@YAPEAUSect@CInifile@@XZ DD 010401H
	DD	04204H
xdata	ENDS
;	COMDAT xdata
xdata	SEGMENT
$unwind$??$_GetItem@$0CAA@@@YAPEADPEBDHAEAY0CAA@DD0_N@Z DD 010401H
	DD	08204H
xdata	ENDS
;	COMDAT xdata
xdata	SEGMENT
$chain$2$??$lower_bound@V?$_Vector_const_iterator@V?$_Vector_val@U?$_Simple_types@PEAUSect@CInifile@@@std@@@std@@@std@@$$BY0BAA@DP6A_NPEBUSect@CInifile@@PEBD@Z@std@@YA?AV?$_Vector_const_iterator@V?$_Vector_val@U?$_Simple_types@PEAUSect@CInifile@@@std@@@std@@@0@V10@V10@AEAY0BAA@$$CBDP6A_NPEBUSect@CInifile@@PEBD@Z@Z DD 021H
	DD	imagerel $LN19
	DD	imagerel $LN19+37
	DD	imagerel $unwind$??$lower_bound@V?$_Vector_const_iterator@V?$_Vector_val@U?$_Simple_types@PEAUSect@CInifile@@@std@@@std@@@std@@$$BY0BAA@DP6A_NPEBUSect@CInifile@@PEBD@Z@std@@YA?AV?$_Vector_const_iterator@V?$_Vector_val@U?$_Simple_types@PEAUSect@CInifile@@@std@@@std@@@0@V10@V10@AEAY0BAA@$$CBDP6A_NPEBUSect@CInifile@@PEBD@Z@Z
xdata	ENDS
;	COMDAT xdata
xdata	SEGMENT
$chain$1$??$lower_bound@V?$_Vector_const_iterator@V?$_Vector_val@U?$_Simple_types@PEAUSect@CInifile@@@std@@@std@@@std@@$$BY0BAA@DP6A_NPEBUSect@CInifile@@PEBD@Z@std@@YA?AV?$_Vector_const_iterator@V?$_Vector_val@U?$_Simple_types@PEAUSect@CInifile@@@std@@@std@@@0@V10@V10@AEAY0BAA@$$CBDP6A_NPEBUSect@CInifile@@PEBD@Z@Z DD 040a21H
	DD	09e40aH
	DD	087405H
	DD	imagerel $LN19
	DD	imagerel $LN19+37
	DD	imagerel $unwind$??$lower_bound@V?$_Vector_const_iterator@V?$_Vector_val@U?$_Simple_types@PEAUSect@CInifile@@@std@@@std@@@std@@$$BY0BAA@DP6A_NPEBUSect@CInifile@@PEBD@Z@std@@YA?AV?$_Vector_const_iterator@V?$_Vector_val@U?$_Simple_types@PEAUSect@CInifile@@@std@@@std@@@0@V10@V10@AEAY0BAA@$$CBDP6A_NPEBUSect@CInifile@@PEBD@Z@Z
xdata	ENDS
;	COMDAT xdata
xdata	SEGMENT
$unwind$??$lower_bound@V?$_Vector_const_iterator@V?$_Vector_val@U?$_Simple_types@PEAUSect@CInifile@@@std@@@std@@@std@@$$BY0BAA@DP6A_NPEBUSect@CInifile@@PEBD@Z@std@@YA?AV?$_Vector_const_iterator@V?$_Vector_val@U?$_Simple_types@PEAUSect@CInifile@@@std@@@std@@@0@V10@V10@AEAY0BAA@$$CBDP6A_NPEBUSect@CInifile@@PEBD@Z@Z DD 060d01H
	DD	0a340dH
	DD	0f009320dH
	DD	050066007H
xdata	ENDS
;	COMDAT xdata
xdata	SEGMENT
$chain$2$??$lower_bound@V?$_Vector_const_iterator@V?$_Vector_val@U?$_Simple_types@UItem@CInifile@@@std@@@std@@@std@@PEBDP6A_NAEBUItem@CInifile@@PEBD@Z@std@@YA?AV?$_Vector_const_iterator@V?$_Vector_val@U?$_Simple_types@UItem@CInifile@@@std@@@std@@@0@V10@V10@AEBQEBDP6A_NAEBUItem@CInifile@@PEBD@Z@Z DD 021H
	DD	imagerel $LN19
	DD	imagerel $LN19+52
	DD	imagerel $unwind$??$lower_bound@V?$_Vector_const_iterator@V?$_Vector_val@U?$_Simple_types@UItem@CInifile@@@std@@@std@@@std@@PEBDP6A_NAEBUItem@CInifile@@PEBD@Z@std@@YA?AV?$_Vector_const_iterator@V?$_Vector_val@U?$_Simple_types@UItem@CInifile@@@std@@@std@@@0@V10@V10@AEBQEBDP6A_NAEBUItem@CInifile@@PEBD@Z@Z
xdata	ENDS
;	COMDAT xdata
xdata	SEGMENT
$chain$1$??$lower_bound@V?$_Vector_const_iterator@V?$_Vector_val@U?$_Simple_types@UItem@CInifile@@@std@@@std@@@std@@PEBDP6A_NAEBUItem@CInifile@@PEBD@Z@std@@YA?AV?$_Vector_const_iterator@V?$_Vector_val@U?$_Simple_types@UItem@CInifile@@@std@@@std@@@0@V10@V10@AEBQEBDP6A_NAEBUItem@CInifile@@PEBD@Z@Z DD 040a21H
	DD	09740aH
	DD	085405H
	DD	imagerel $LN19
	DD	imagerel $LN19+52
	DD	imagerel $unwind$??$lower_bound@V?$_Vector_const_iterator@V?$_Vector_val@U?$_Simple_types@UItem@CInifile@@@std@@@std@@@std@@PEBDP6A_NAEBUItem@CInifile@@PEBD@Z@std@@YA?AV?$_Vector_const_iterator@V?$_Vector_val@U?$_Simple_types@UItem@CInifile@@@std@@@std@@@0@V10@V10@AEBQEBDP6A_NAEBUItem@CInifile@@PEBD@Z@Z
xdata	ENDS
;	COMDAT xdata
xdata	SEGMENT
$unwind$??$lower_bound@V?$_Vector_const_iterator@V?$_Vector_val@U?$_Simple_types@UItem@CInifile@@@std@@@std@@@std@@PEBDP6A_NAEBUItem@CInifile@@PEBD@Z@std@@YA?AV?$_Vector_const_iterator@V?$_Vector_val@U?$_Simple_types@UItem@CInifile@@@std@@@std@@@0@V10@V10@AEBQEBDP6A_NAEBUItem@CInifile@@PEBD@Z@Z DD 060e01H
	DD	0a340eH
	DD	0f00a320eH
	DD	06006e008H
xdata	ENDS
;	COMDAT xdata
xdata	SEGMENT
$chain$3$??$emplace@AEBQEAUSect@CInifile@@@?$vector@PEAUSect@CInifile@@V?$xalloc@PEAUSect@CInifile@@@@@std@@QEAA?AV?$_Vector_iterator@V?$_Vector_val@U?$_Simple_types@PEAUSect@CInifile@@@std@@@std@@@1@V?$_Vector_const_iterator@V?$_Vector_val@U?$_Simple_types@PEAUSect@CInifile@@@std@@@std@@@1@AEBQEAUSect@CInifile@@@Z DD 021H
	DD	imagerel $LN31
	DD	imagerel $LN31+29
	DD	imagerel $unwind$??$emplace@AEBQEAUSect@CInifile@@@?$vector@PEAUSect@CInifile@@V?$xalloc@PEAUSect@CInifile@@@@@std@@QEAA?AV?$_Vector_iterator@V?$_Vector_val@U?$_Simple_types@PEAUSect@CInifile@@@std@@@std@@@1@V?$_Vector_const_iterator@V?$_Vector_val@U?$_Simple_types@PEAUSect@CInifile@@@std@@@std@@@1@AEBQEAUSect@CInifile@@@Z
xdata	ENDS
;	COMDAT xdata
xdata	SEGMENT
$chain$2$??$emplace@AEBQEAUSect@CInifile@@@?$vector@PEAUSect@CInifile@@V?$xalloc@PEAUSect@CInifile@@@@@std@@QEAA?AV?$_Vector_iterator@V?$_Vector_val@U?$_Simple_types@PEAUSect@CInifile@@@std@@@std@@@1@V?$_Vector_const_iterator@V?$_Vector_val@U?$_Simple_types@PEAUSect@CInifile@@@std@@@std@@@1@AEBQEAUSect@CInifile@@@Z DD 020021H
	DD	066400H
	DD	imagerel $LN31
	DD	imagerel $LN31+29
	DD	imagerel $unwind$??$emplace@AEBQEAUSect@CInifile@@@?$vector@PEAUSect@CInifile@@V?$xalloc@PEAUSect@CInifile@@@@@std@@QEAA?AV?$_Vector_iterator@V?$_Vector_val@U?$_Simple_types@PEAUSect@CInifile@@@std@@@std@@@1@V?$_Vector_const_iterator@V?$_Vector_val@U?$_Simple_types@PEAUSect@CInifile@@@std@@@std@@@1@AEBQEAUSect@CInifile@@@Z
xdata	ENDS
;	COMDAT xdata
xdata	SEGMENT
$chain$0$??$emplace@AEBQEAUSect@CInifile@@@?$vector@PEAUSect@CInifile@@V?$xalloc@PEAUSect@CInifile@@@@@std@@QEAA?AV?$_Vector_iterator@V?$_Vector_val@U?$_Simple_types@PEAUSect@CInifile@@@std@@@std@@@1@V?$_Vector_const_iterator@V?$_Vector_val@U?$_Simple_types@PEAUSect@CInifile@@@std@@@std@@@1@AEBQEAUSect@CInifile@@@Z DD 020521H
	DD	066405H
	DD	imagerel $LN31
	DD	imagerel $LN31+29
	DD	imagerel $unwind$??$emplace@AEBQEAUSect@CInifile@@@?$vector@PEAUSect@CInifile@@V?$xalloc@PEAUSect@CInifile@@@@@std@@QEAA?AV?$_Vector_iterator@V?$_Vector_val@U?$_Simple_types@PEAUSect@CInifile@@@std@@@std@@@1@V?$_Vector_const_iterator@V?$_Vector_val@U?$_Simple_types@PEAUSect@CInifile@@@std@@@std@@@1@AEBQEAUSect@CInifile@@@Z
xdata	ENDS
;	COMDAT xdata
xdata	SEGMENT
$unwind$??$emplace@AEBQEAUSect@CInifile@@@?$vector@PEAUSect@CInifile@@V?$xalloc@PEAUSect@CInifile@@@@@std@@QEAA?AV?$_Vector_iterator@V?$_Vector_val@U?$_Simple_types@PEAUSect@CInifile@@@std@@@std@@@1@V?$_Vector_const_iterator@V?$_Vector_val@U?$_Simple_types@PEAUSect@CInifile@@@std@@@std@@@1@AEBQEAUSect@CInifile@@@Z DD 040a01H
	DD	07340aH
	DD	07006320aH
xdata	ENDS
;	COMDAT xdata
xdata	SEGMENT
$chain$5$??$emplace@AEBUItem@CInifile@@@?$vector@UItem@CInifile@@V?$xalloc@UItem@CInifile@@@@@std@@QEAA?AV?$_Vector_iterator@V?$_Vector_val@U?$_Simple_types@UItem@CInifile@@@std@@@std@@@1@V?$_Vector_const_iterator@V?$_Vector_val@U?$_Simple_types@UItem@CInifile@@@std@@@std@@@1@AEBUItem@CInifile@@@Z DD 021H
	DD	imagerel $LN190
	DD	imagerel $LN190+142
	DD	imagerel $unwind$??$emplace@AEBUItem@CInifile@@@?$vector@UItem@CInifile@@V?$xalloc@UItem@CInifile@@@@@std@@QEAA?AV?$_Vector_iterator@V?$_Vector_val@U?$_Simple_types@UItem@CInifile@@@std@@@std@@@1@V?$_Vector_const_iterator@V?$_Vector_val@U?$_Simple_types@UItem@CInifile@@@std@@@std@@@1@AEBUItem@CInifile@@@Z
xdata	ENDS
;	COMDAT xdata
xdata	SEGMENT
$chain$4$??$emplace@AEBUItem@CInifile@@@?$vector@UItem@CInifile@@V?$xalloc@UItem@CInifile@@@@@std@@QEAA?AV?$_Vector_iterator@V?$_Vector_val@U?$_Simple_types@UItem@CInifile@@@std@@@std@@@1@V?$_Vector_const_iterator@V?$_Vector_val@U?$_Simple_types@UItem@CInifile@@@std@@@std@@@1@AEBUItem@CInifile@@@Z DD 021H
	DD	imagerel $LN190+142
	DD	imagerel $LN190+150
	DD	imagerel $chain$0$??$emplace@AEBUItem@CInifile@@@?$vector@UItem@CInifile@@V?$xalloc@UItem@CInifile@@@@@std@@QEAA?AV?$_Vector_iterator@V?$_Vector_val@U?$_Simple_types@UItem@CInifile@@@std@@@std@@@1@V?$_Vector_const_iterator@V?$_Vector_val@U?$_Simple_types@UItem@CInifile@@@std@@@std@@@1@AEBUItem@CInifile@@@Z
xdata	ENDS
;	COMDAT xdata
xdata	SEGMENT
$chain$3$??$emplace@AEBUItem@CInifile@@@?$vector@UItem@CInifile@@V?$xalloc@UItem@CInifile@@@@@std@@QEAA?AV?$_Vector_iterator@V?$_Vector_val@U?$_Simple_types@UItem@CInifile@@@std@@@std@@@1@V?$_Vector_const_iterator@V?$_Vector_val@U?$_Simple_types@UItem@CInifile@@@std@@@std@@@1@AEBUItem@CInifile@@@Z DD 021H
	DD	imagerel $LN190+150
	DD	imagerel $LN190+155
	DD	imagerel $chain$1$??$emplace@AEBUItem@CInifile@@@?$vector@UItem@CInifile@@V?$xalloc@UItem@CInifile@@@@@std@@QEAA?AV?$_Vector_iterator@V?$_Vector_val@U?$_Simple_types@UItem@CInifile@@@std@@@std@@@1@V?$_Vector_const_iterator@V?$_Vector_val@U?$_Simple_types@UItem@CInifile@@@std@@@std@@@1@AEBUItem@CInifile@@@Z
xdata	ENDS
;	COMDAT xdata
xdata	SEGMENT
$chain$2$??$emplace@AEBUItem@CInifile@@@?$vector@UItem@CInifile@@V?$xalloc@UItem@CInifile@@@@@std@@QEAA?AV?$_Vector_iterator@V?$_Vector_val@U?$_Simple_types@UItem@CInifile@@@std@@@std@@@1@V?$_Vector_const_iterator@V?$_Vector_val@U?$_Simple_types@UItem@CInifile@@@std@@@std@@@1@AEBUItem@CInifile@@@Z DD 020521H
	DD	0c7405H
	DD	imagerel $LN190+150
	DD	imagerel $LN190+155
	DD	imagerel $chain$1$??$emplace@AEBUItem@CInifile@@@?$vector@UItem@CInifile@@V?$xalloc@UItem@CInifile@@@@@std@@QEAA?AV?$_Vector_iterator@V?$_Vector_val@U?$_Simple_types@UItem@CInifile@@@std@@@std@@@1@V?$_Vector_const_iterator@V?$_Vector_val@U?$_Simple_types@UItem@CInifile@@@std@@@std@@@1@AEBUItem@CInifile@@@Z
xdata	ENDS
;	COMDAT xdata
xdata	SEGMENT
$chain$1$??$emplace@AEBUItem@CInifile@@@?$vector@UItem@CInifile@@V?$xalloc@UItem@CInifile@@@@@std@@QEAA?AV?$_Vector_iterator@V?$_Vector_val@U?$_Simple_types@UItem@CInifile@@@std@@@std@@@1@V?$_Vector_const_iterator@V?$_Vector_val@U?$_Simple_types@UItem@CInifile@@@std@@@std@@@1@AEBUItem@CInifile@@@Z DD 020521H
	DD	0b6405H
	DD	imagerel $LN190+142
	DD	imagerel $LN190+150
	DD	imagerel $chain$0$??$emplace@AEBUItem@CInifile@@@?$vector@UItem@CInifile@@V?$xalloc@UItem@CInifile@@@@@std@@QEAA?AV?$_Vector_iterator@V?$_Vector_val@U?$_Simple_types@UItem@CInifile@@@std@@@std@@@1@V?$_Vector_const_iterator@V?$_Vector_val@U?$_Simple_types@UItem@CInifile@@@std@@@std@@@1@AEBUItem@CInifile@@@Z
xdata	ENDS
;	COMDAT xdata
xdata	SEGMENT
$chain$0$??$emplace@AEBUItem@CInifile@@@?$vector@UItem@CInifile@@V?$xalloc@UItem@CInifile@@@@@std@@QEAA?AV?$_Vector_iterator@V?$_Vector_val@U?$_Simple_types@UItem@CInifile@@@std@@@std@@@1@V?$_Vector_const_iterator@V?$_Vector_val@U?$_Simple_types@UItem@CInifile@@@std@@@std@@@1@AEBUItem@CInifile@@@Z DD 020521H
	DD	0a3405H
	DD	imagerel $LN190
	DD	imagerel $LN190+142
	DD	imagerel $unwind$??$emplace@AEBUItem@CInifile@@@?$vector@UItem@CInifile@@V?$xalloc@UItem@CInifile@@@@@std@@QEAA?AV?$_Vector_iterator@V?$_Vector_val@U?$_Simple_types@UItem@CInifile@@@std@@@std@@@1@V?$_Vector_const_iterator@V?$_Vector_val@U?$_Simple_types@UItem@CInifile@@@std@@@std@@@1@AEBUItem@CInifile@@@Z
xdata	ENDS
;	COMDAT xdata
xdata	SEGMENT
$unwind$??$emplace@AEBUItem@CInifile@@@?$vector@UItem@CInifile@@V?$xalloc@UItem@CInifile@@@@@std@@QEAA?AV?$_Vector_iterator@V?$_Vector_val@U?$_Simple_types@UItem@CInifile@@@std@@@std@@@1@V?$_Vector_const_iterator@V?$_Vector_val@U?$_Simple_types@UItem@CInifile@@@std@@@std@@@1@AEBUItem@CInifile@@@Z DD 020601H
	DD	0e0027206H
xdata	ENDS
;	COMDAT xdata
xdata	SEGMENT
$unwind$??$xr_free@PEAUSect@CInifile@@@@YAXAEAPEAPEAUSect@CInifile@@@Z DD 020601H
	DD	030023206H
xdata	ENDS
;	COMDAT xdata
xdata	SEGMENT
$unwind$??$xr_alloc@PEAUSect@CInifile@@@@YAPEAPEAUSect@CInifile@@I@Z DD 040a01H
	DD	06340aH
	DD	07006320aH
xdata	ENDS
;	COMDAT xdata
xdata	SEGMENT
$unwind$??$xr_free@UItem@CInifile@@@@YAXAEAPEAUItem@CInifile@@@Z DD 020601H
	DD	030023206H
xdata	ENDS
;	COMDAT xdata
xdata	SEGMENT
$unwind$??$xr_alloc@UItem@CInifile@@@@YAPEAUItem@CInifile@@I@Z DD 040a01H
	DD	06340aH
	DD	07006320aH
xdata	ENDS
;	COMDAT xdata
xdata	SEGMENT
$unwind$??1?$xr_vector@UItem@CInifile@@V?$xalloc@UItem@CInifile@@@@@@QEAA@XZ DD 020601H
	DD	030023206H
xdata	ENDS
;	COMDAT xdata
xdata	SEGMENT
$unwind$??R?$xr_special_free@$0A@USect@CInifile@@@@QEAAXAEAPEAUSect@CInifile@@@Z DD 060f01H
	DD	07640fH
	DD	06340fH
	DD	0700b320fH
xdata	ENDS
;	COMDAT xdata
xdata	SEGMENT
$unwind$??1?$vector@UItem@CInifile@@V?$xalloc@UItem@CInifile@@@@@std@@QEAA@XZ DD 020601H
	DD	030023206H
xdata	ENDS
;	COMDAT xdata
xdata	SEGMENT
$unwind$??_GSect@CInifile@@QEAAPEAXI@Z DD 040a01H
	DD	06340aH
	DD	07006320aH
xdata	ENDS
;	COMDAT xdata
xdata	SEGMENT
$unwind$??1Sect@CInifile@@QEAA@XZ DD 040a01H
	DD	06340aH
	DD	07006320aH
xdata	ENDS
;	COMDAT xdata
xdata	SEGMENT
$unwind$?_Tidy@?$vector@UItem@CInifile@@V?$xalloc@UItem@CInifile@@@@@std@@AEAAXXZ DD 020601H
	DD	030023206H
xdata	ENDS
;	COMDAT voltbl
voltbl	SEGMENT
_volmd	DB	00H
voltbl	ENDS
;	COMDAT xdata
xdata	SEGMENT
$unwind$?catch$0@?0???$_Emplace_reallocate@AEBQEAUSect@CInifile@@@?$vector@PEAUSect@CInifile@@V?$xalloc@PEAUSect@CInifile@@@@@std@@AEAAPEAPEAUSect@CInifile@@QEAPEAU23@AEBQEAU23@@Z@4HA DD 020a01H
	DD	05006320aH
xdata	ENDS
;	COMDAT xdata
xdata	SEGMENT
$ip2state$??$_Emplace_reallocate@AEBQEAUSect@CInifile@@@?$vector@PEAUSect@CInifile@@V?$xalloc@PEAUSect@CInifile@@@@@std@@AEAAPEAPEAUSect@CInifile@@QEAPEAU23@AEBQEAU23@@Z DB 06H
	DB	00H
	DB	00H
	DB	0e5H, 02H
	DB	02H
	DB	091H, 03H
	DB	00H
xdata	ENDS
;	COMDAT xdata
xdata	SEGMENT
$handlerMap$??$_Emplace_reallocate@AEBQEAUSect@CInifile@@@?$vector@PEAUSect@CInifile@@V?$xalloc@PEAUSect@CInifile@@@@@std@@AEAAPEAPEAUSect@CInifile@@QEAPEAU23@AEBQEAU23@@Z DB 02H
	DB	00H
	DD	imagerel ?catch$0@?0???$_Emplace_reallocate@AEBQEAUSect@CInifile@@@?$vector@PEAUSect@CInifile@@V?$xalloc@PEAUSect@CInifile@@@@@std@@AEAAPEAPEAUSect@CInifile@@QEAPEAU23@AEBQEAU23@@Z@4HA
xdata	ENDS
;	COMDAT xdata
xdata	SEGMENT
$tryMap$??$_Emplace_reallocate@AEBQEAUSect@CInifile@@@?$vector@PEAUSect@CInifile@@V?$xalloc@PEAUSect@CInifile@@@@@std@@AEAAPEAPEAUSect@CInifile@@QEAPEAU23@AEBQEAU23@@Z DB 02H
	DB	00H
	DB	00H
	DB	02H
	DD	imagerel $handlerMap$??$_Emplace_reallocate@AEBQEAUSect@CInifile@@@?$vector@PEAUSect@CInifile@@V?$xalloc@PEAUSect@CInifile@@@@@std@@AEAAPEAPEAUSect@CInifile@@QEAPEAU23@AEBQEAU23@@Z
xdata	ENDS
;	COMDAT xdata
xdata	SEGMENT
$stateUnwindMap$??$_Emplace_reallocate@AEBQEAUSect@CInifile@@@?$vector@PEAUSect@CInifile@@V?$xalloc@PEAUSect@CInifile@@@@@std@@AEAAPEAPEAUSect@CInifile@@QEAPEAU23@AEBQEAU23@@Z DB 04H
	DB	08H
	DB	010H
xdata	ENDS
;	COMDAT xdata
xdata	SEGMENT
$cppxdata$??$_Emplace_reallocate@AEBQEAUSect@CInifile@@@?$vector@PEAUSect@CInifile@@V?$xalloc@PEAUSect@CInifile@@@@@std@@AEAAPEAPEAUSect@CInifile@@QEAPEAU23@AEBQEAU23@@Z DB 018H
	DD	imagerel $stateUnwindMap$??$_Emplace_reallocate@AEBQEAUSect@CInifile@@@?$vector@PEAUSect@CInifile@@V?$xalloc@PEAUSect@CInifile@@@@@std@@AEAAPEAPEAUSect@CInifile@@QEAPEAU23@AEBQEAU23@@Z
	DD	imagerel $tryMap$??$_Emplace_reallocate@AEBQEAUSect@CInifile@@@?$vector@PEAUSect@CInifile@@V?$xalloc@PEAUSect@CInifile@@@@@std@@AEAAPEAPEAUSect@CInifile@@QEAPEAU23@AEBQEAU23@@Z
	DD	imagerel $ip2state$??$_Emplace_reallocate@AEBQEAUSect@CInifile@@@?$vector@PEAUSect@CInifile@@V?$xalloc@PEAUSect@CInifile@@@@@std@@AEAAPEAPEAUSect@CInifile@@QEAPEAU23@AEBQEAU23@@Z
xdata	ENDS
;	COMDAT xdata
xdata	SEGMENT
$unwind$??$_Emplace_reallocate@AEBQEAUSect@CInifile@@@?$vector@PEAUSect@CInifile@@V?$xalloc@PEAUSect@CInifile@@@@@std@@AEAAPEAPEAUSect@CInifile@@QEAPEAU23@AEBQEAU23@@Z DD 0a1a19H
	DD	019641aH
	DD	018341aH
	DD	0f013f21aH
	DD	0d00fe011H
	DD	0700bc00dH
	DD	imagerel __CxxFrameHandler4
	DD	imagerel $cppxdata$??$_Emplace_reallocate@AEBQEAUSect@CInifile@@@?$vector@PEAUSect@CInifile@@V?$xalloc@PEAUSect@CInifile@@@@@std@@AEAAPEAPEAUSect@CInifile@@QEAPEAU23@AEBQEAU23@@Z
xdata	ENDS
;	COMDAT voltbl
voltbl	SEGMENT
_volmd	DB	00H
voltbl	ENDS
;	COMDAT xdata
xdata	SEGMENT
$unwind$?catch$0@?0???$_Emplace_reallocate@AEBUItem@CInifile@@@?$vector@UItem@CInifile@@V?$xalloc@UItem@CInifile@@@@@std@@AEAAPEAUItem@CInifile@@QEAU23@AEBU23@@Z@4HA DD 020a01H
	DD	05006320aH
xdata	ENDS
;	COMDAT xdata
xdata	SEGMENT
$ip2state$??$_Emplace_reallocate@AEBUItem@CInifile@@@?$vector@UItem@CInifile@@V?$xalloc@UItem@CInifile@@@@@std@@AEAAPEAUItem@CInifile@@QEAU23@AEBU23@@Z DB 06H
	DB	00H
	DB	00H
	DB	0e1H, 03H
	DB	02H
	DB	0e9H, 0fH
	DB	00H
xdata	ENDS
;	COMDAT xdata
xdata	SEGMENT
$handlerMap$??$_Emplace_reallocate@AEBUItem@CInifile@@@?$vector@UItem@CInifile@@V?$xalloc@UItem@CInifile@@@@@std@@AEAAPEAUItem@CInifile@@QEAU23@AEBU23@@Z DB 02H
	DB	00H
	DD	imagerel ?catch$0@?0???$_Emplace_reallocate@AEBUItem@CInifile@@@?$vector@UItem@CInifile@@V?$xalloc@UItem@CInifile@@@@@std@@AEAAPEAUItem@CInifile@@QEAU23@AEBU23@@Z@4HA
xdata	ENDS
;	COMDAT xdata
xdata	SEGMENT
$tryMap$??$_Emplace_reallocate@AEBUItem@CInifile@@@?$vector@UItem@CInifile@@V?$xalloc@UItem@CInifile@@@@@std@@AEAAPEAUItem@CInifile@@QEAU23@AEBU23@@Z DB 02H
	DB	00H
	DB	00H
	DB	02H
	DD	imagerel $handlerMap$??$_Emplace_reallocate@AEBUItem@CInifile@@@?$vector@UItem@CInifile@@V?$xalloc@UItem@CInifile@@@@@std@@AEAAPEAUItem@CInifile@@QEAU23@AEBU23@@Z
xdata	ENDS
;	COMDAT xdata
xdata	SEGMENT
$stateUnwindMap$??$_Emplace_reallocate@AEBUItem@CInifile@@@?$vector@UItem@CInifile@@V?$xalloc@UItem@CInifile@@@@@std@@AEAAPEAUItem@CInifile@@QEAU23@AEBU23@@Z DB 04H
	DB	08H
	DB	010H
xdata	ENDS
;	COMDAT xdata
xdata	SEGMENT
$cppxdata$??$_Emplace_reallocate@AEBUItem@CInifile@@@?$vector@UItem@CInifile@@V?$xalloc@UItem@CInifile@@@@@std@@AEAAPEAUItem@CInifile@@QEAU23@AEBU23@@Z DB 018H
	DD	imagerel $stateUnwindMap$??$_Emplace_reallocate@AEBUItem@CInifile@@@?$vector@UItem@CInifile@@V?$xalloc@UItem@CInifile@@@@@std@@AEAAPEAUItem@CInifile@@QEAU23@AEBU23@@Z
	DD	imagerel $tryMap$??$_Emplace_reallocate@AEBUItem@CInifile@@@?$vector@UItem@CInifile@@V?$xalloc@UItem@CInifile@@@@@std@@AEAAPEAUItem@CInifile@@QEAU23@AEBU23@@Z
	DD	imagerel $ip2state$??$_Emplace_reallocate@AEBUItem@CInifile@@@?$vector@UItem@CInifile@@V?$xalloc@UItem@CInifile@@@@@std@@AEAAPEAUItem@CInifile@@QEAU23@AEBU23@@Z
xdata	ENDS
;	COMDAT xdata
xdata	SEGMENT
$unwind$??$_Emplace_reallocate@AEBUItem@CInifile@@@?$vector@UItem@CInifile@@V?$xalloc@UItem@CInifile@@@@@std@@AEAAPEAUItem@CInifile@@QEAU23@AEBU23@@Z DD 091319H
	DD	0140113H
	DD	0e00af00cH
	DD	0c006d008H
	DD	060037004H
	DD	03002H
	DD	imagerel __CxxFrameHandler4
	DD	imagerel $cppxdata$??$_Emplace_reallocate@AEBUItem@CInifile@@@?$vector@UItem@CInifile@@V?$xalloc@UItem@CInifile@@@@@std@@AEAAPEAUItem@CInifile@@QEAU23@AEBU23@@Z
xdata	ENDS
;	COMDAT xdata
xdata	SEGMENT
$unwind$??0Item@CInifile@@QEAA@XZ DD 020601H
	DD	030023206H
; Function compile flags: /Ogtpy
; File C:\Users\Mahito\Desktop\Night outing\Night-outing\src\xrCore\Xr_ini.cpp
; File C:\Users\Mahito\Desktop\Night outing\Night-outing\src\xrCore\_flags.h
; File C:\Users\Mahito\Desktop\Night outing\Night-outing\src\xrCore\Xr_ini.cpp
; File C:\Program Files\Microsoft Visual Studio\2022\Community\VC\Tools\MSVC\14.35.32215\include\vector
; File C:\Users\Mahito\Desktop\Night outing\Night-outing\src\xrCore\fastdelegate.h
; File C:\Users\Mahito\Desktop\Night outing\Night-outing\src\xrCore\Xr_ini.cpp
; File C:\Users\Mahito\Desktop\Night outing\Night-outing\src\xrCore\fastdelegate.h
; File C:\Users\Mahito\Desktop\Night outing\Night-outing\src\xrCore\Xr_ini.cpp
_TEXT	SEGMENT
$T1 = 32
this$ = 64
F$ = 72
path$ = 80
allow_include_func$ = 88
??0CInifile@@QEAA@PEAVIReader@@PEBDV?$FastDelegate1@PEBD_N@fastdelegate@@@Z PROC ; CInifile::CInifile

; 99   : {

$LN37:
	push	rbx
	sub	rsp, 48					; 00000030H
; File C:\Users\Mahito\Desktop\Night outing\Night-outing\src\xrCore\_flags.h

; 22   : 	IC	SelfRef	set		(const T mask,	BOOL value)					{ if (value) flags|=mask; else flags&=~mask; return *this; }

	mov	WORD PTR [rcx+8], 2
; File C:\Users\Mahito\Desktop\Night outing\Night-outing\src\xrCore\Xr_ini.cpp

; 99   : {

	lea	rax, OFFSET FLAT:??_7CInifile@@6B@
	mov	QWORD PTR [rcx], rax
	mov	rbx, rcx
; File C:\Program Files\Microsoft Visual Studio\2022\Community\VC\Tools\MSVC\14.35.32215\include\vector

; 390  :     _CONSTEXPR20 _Vector_val() noexcept : _Myfirst(), _Mylast(), _Myend() {}

	xor	eax, eax
	mov	QWORD PTR [rcx+536], rax
	mov	QWORD PTR [rcx+544], rax
	mov	QWORD PTR [rcx+552], rax
; File C:\Users\Mahito\Desktop\Night outing\Night-outing\src\xrCore\fastdelegate.h

; 646  : 		m_pFunction = right.m_pFunction;

	mov	rax, QWORD PTR [r9+8]
	mov	QWORD PTR $T1[rsp+8], rax

; 647  : 		m_pthis = right.m_pthis;

	mov	rax, QWORD PTR [r9]
; File C:\Users\Mahito\Desktop\Night outing\Night-outing\src\xrCore\Xr_ini.cpp

; 105  : 	Load			(F,path

	lea	r9, QWORD PTR $T1[rsp]
; File C:\Users\Mahito\Desktop\Night outing\Night-outing\src\xrCore\fastdelegate.h

; 647  : 		m_pthis = right.m_pthis;

	mov	QWORD PTR $T1[rsp], rax
; File C:\Users\Mahito\Desktop\Night outing\Night-outing\src\xrCore\Xr_ini.cpp

; 105  : 	Load			(F,path

	call	?Load@CInifile@@AEAAXPEAVIReader@@PEBDV?$FastDelegate1@PEBD_N@fastdelegate@@@Z ; CInifile::Load

; 106  :     #ifndef _EDITOR
; 107  :     , allow_include_func
; 108  :     #endif
; 109  :     );
; 110  : }

	mov	rax, rbx
	add	rsp, 48					; 00000030H
	pop	rbx
	ret	0
??0CInifile@@QEAA@PEAVIReader@@PEBDV?$FastDelegate1@PEBD_N@fastdelegate@@@Z ENDP ; CInifile::CInifile
_TEXT	ENDS
; Function compile flags: /Ogtpy
; File C:\Users\Mahito\Desktop\Night outing\Night-outing\src\xrCore\Xr_ini.cpp
; File C:\Users\Mahito\Desktop\Night outing\Night-outing\src\xrCore\_std_extensions.h
; File C:\Users\Mahito\Desktop\Night outing\Night-outing\src\xrCore\Xr_ini.cpp
; File C:\Users\Mahito\Desktop\Night outing\Night-outing\src\xrCore\_std_extensions.h
; File C:\Users\Mahito\Desktop\Night outing\Night-outing\src\xrCore\Xr_ini.cpp
; File C:\Users\Mahito\Desktop\Night outing\Night-outing\src\xrCore\_std_extensions.h
; File C:\Users\Mahito\Desktop\Night outing\Night-outing\src\xrCore\Xr_ini.cpp
_TEXT	SEGMENT
B$ = 32
this$ = 64
S$dead$ = 72
L$dead$ = 80
?r_bool@CInifile@@QEBAHPEBD0@Z PROC			; CInifile::r_bool

; 654  : {

$LN27:
	sub	rsp, 56					; 00000038H

; 655  : 	LPCSTR		C = r_string(S,L);

	lea	r8, OFFSET FLAT:??_C@_09EHFLBFLE@auto_load@
	call	?r_string@CInifile@@QEBAPEBDPEBD0@Z	; CInifile::r_string

; 656  : 	VERIFY2		(
; 657  : 		xr_strlen(C) <= 5,
; 658  : 		make_string(
; 659  : 			"\"%s\" is not a valid bool value, section[%s], line[%s]",
; 660  : 			C,
; 661  : 			S,
; 662  : 			L
; 663  : 		)
; 664  : 	);
; 665  : 	char		B[8];
; 666  : 	strncpy_s		(B,sizeof(B),C,7);

	mov	r9d, 7
	lea	rcx, QWORD PTR B$[rsp]
	mov	r8, rax
	lea	edx, QWORD PTR [r9+1]
	call	QWORD PTR __imp_strncpy_s

; 667  : 	B[7]		= 0;
; 668  : 	strlwr		(B);

	lea	rcx, QWORD PTR B$[rsp]
	mov	BYTE PTR B$[rsp+7], 0
	call	QWORD PTR __imp_strlwr
; File C:\Users\Mahito\Desktop\Night outing\Night-outing\src\xrCore\_std_extensions.h

; 195  : {	return (int)strcmp(S1,S2);  }

	movzx	r8d, BYTE PTR B$[rsp]
	movzx	edx, BYTE PTR B$[rsp+1]
	cmp	r8b, 111				; 0000006fH
	jne	SHORT $LN25@r_bool
	cmp	dl, 110					; 0000006eH
	jne	SHORT $LN25@r_bool
	cmp	BYTE PTR B$[rsp+2], 0
	je	SHORT $LN8@r_bool
$LN25@r_bool:
	xor	ecx, ecx
	lea	r9, QWORD PTR B$[rsp]
	lea	r10, OFFSET FLAT:??_C@_03ICICOMAL@yes@
	npad	13
$LL23@r_bool:
	movzx	eax, BYTE PTR [r9+rcx]
	inc	rcx
	cmp	al, BYTE PTR [r10+rcx-1]
	jne	SHORT $LN24@r_bool
	cmp	rcx, 4
	jne	SHORT $LL23@r_bool
; File C:\Users\Mahito\Desktop\Night outing\Night-outing\src\xrCore\Xr_ini.cpp

; 669  :     return 		IsBOOL(B);

	mov	eax, 1

; 670  : }

	add	rsp, 56					; 00000038H
	ret	0
$LN24@r_bool:
; File C:\Users\Mahito\Desktop\Night outing\Night-outing\src\xrCore\_std_extensions.h

; 195  : {	return (int)strcmp(S1,S2);  }

	xor	eax, eax
	lea	r9, QWORD PTR B$[rsp]
	lea	r10, OFFSET FLAT:??_C@_04LOAJBDKD@true@
	npad	3
$LL20@r_bool:
	movzx	ecx, BYTE PTR [r9+rax]
	inc	rax
	cmp	cl, BYTE PTR [r10+rax-1]
	jne	SHORT $LN21@r_bool
	cmp	rax, 5
	jne	SHORT $LL20@r_bool
; File C:\Users\Mahito\Desktop\Night outing\Night-outing\src\xrCore\Xr_ini.cpp

; 669  :     return 		IsBOOL(B);

	mov	eax, 1

; 670  : }

	add	rsp, 56					; 00000038H
	ret	0
$LN21@r_bool:
; File C:\Users\Mahito\Desktop\Night outing\Night-outing\src\xrCore\_std_extensions.h

; 195  : {	return (int)strcmp(S1,S2);  }

	cmp	r8b, 49					; 00000031H
	jne	SHORT $LN18@r_bool
	test	dl, dl
	jne	SHORT $LN18@r_bool
$LN8@r_bool:
; File C:\Users\Mahito\Desktop\Night outing\Night-outing\src\xrCore\Xr_ini.cpp

; 669  :     return 		IsBOOL(B);

	mov	eax, 1

; 670  : }

	add	rsp, 56					; 00000038H
	ret	0
$LN18@r_bool:

; 669  :     return 		IsBOOL(B);

	xor	eax, eax

; 670  : }

	add	rsp, 56					; 00000038H
	ret	0
?r_bool@CInifile@@QEBAHPEBD0@Z ENDP			; CInifile::r_bool
_TEXT	ENDS
; Function compile flags: /Ogtpy
; File C:\Users\Mahito\Desktop\Night outing\Night-outing\src\xrCore\Xr_ini.cpp
; File C:\Program Files\Microsoft Visual Studio\2022\Community\VC\Tools\MSVC\14.35.32215\include\xutility
; File C:\Program Files\Microsoft Visual Studio\2022\Community\VC\Tools\MSVC\14.35.32215\include\vector
; File C:\Users\Mahito\Desktop\Night outing\Night-outing\src\xrCore\Xr_ini.cpp
; File C:\Users\Mahito\Desktop\Night outing\Night-outing\src\xrCore\xrstring.h
; File C:\Users\Mahito\Desktop\Night outing\Night-outing\src\xrCore\_std_extensions.h
; File C:\Users\Mahito\Desktop\Night outing\Night-outing\src\xrCore\Xr_ini.cpp
; File C:\Users\Mahito\Desktop\Night outing\Night-outing\src\xrCore\xrstring.h
; File C:\Users\Mahito\Desktop\Night outing\Night-outing\src\xrCore\Xr_ini.cpp
_TEXT	SEGMENT
this$ = 96
S$dead$ = 104
L$ = 112
?r_string@CInifile@@QEBAPEBDPEBD0@Z PROC		; CInifile::r_string

; 507  : {

$LN51:
	push	rsi
	push	r12
	push	r14
	sub	rsp, 64					; 00000040H

; 508  : 	Sect const&	I = r_section(S);

	lea	r12, OFFSET FLAT:??_C@_06MBPAJAPM@header@
	mov	QWORD PTR [rsp+96], rbx
	mov	rdx, r12
	mov	QWORD PTR [rsp+120], r15
	mov	r14, r8
	call	?r_section@CInifile@@QEBAAEAUSect@1@PEBD@Z ; CInifile::r_section
	mov	r15, rax
; File C:\Program Files\Microsoft Visual Studio\2022\Community\VC\Tools\MSVC\14.35.32215\include\xutility

; 6713 :     auto _UFirst                = _Get_unwrapped(_First);

	mov	rsi, QWORD PTR [rax+8]

; 1207 :         return _Last - _First; // assume the iterator will do debug checking

	mov	rbx, QWORD PTR [rax+16]
	mov	rax, -6148914691236517205		; aaaaaaaaaaaaaaabH
	sub	rbx, rsi
	sar	rbx, 3
	imul	rbx, rax

; 6716 :     while (0 < _Count) { // divide and conquer, find half that contains answer

	test	rbx, rbx
	jle	SHORT $LN15@r_string
	mov	QWORD PTR [rsp+104], rbp
	mov	QWORD PTR [rsp+112], rdi
	npad	11
$LL14@r_string:

; 6717 :         const _Iter_diff_t<_FwdIt> _Count2 = _Count / 2;

	mov	rdi, rbx

; 6718 :         const auto _UMid                   = _STD next(_UFirst, _Count2);

	mov	rdx, r14
	shr	rdi, 1

; 1179 :         _Where += _Off;

	lea	rax, QWORD PTR [rdi+rdi*2]
	lea	rbp, QWORD PTR [rsi+rax*8]

; 6718 :         const auto _UMid                   = _STD next(_UFirst, _Count2);

	mov	rcx, rbp

; 6719 :         if (_Pred(*_UMid, _Val)) { // try top half

	call	?item_pred@@YA_NAEBUItem@CInifile@@PEBD@Z ; item_pred
	test	al, al
	je	SHORT $LN16@r_string

; 6720 :             _UFirst = _Next_iter(_UMid);
; 6721 :             _Count -= _Count2 + 1;

	mov	rax, -1
	lea	rsi, QWORD PTR [rbp+24]
	sub	rax, rdi
	add	rbx, rax

; 6722 :         } else {

	jmp	SHORT $LN17@r_string
$LN16@r_string:

; 6723 :             _Count = _Count2;

	mov	rbx, rdi
$LN17@r_string:

; 6714 :     _Iter_diff_t<_FwdIt> _Count = _STD distance(_UFirst, _Get_unwrapped(_Last));
; 6715 : 
; 6716 :     while (0 < _Count) { // divide and conquer, find half that contains answer

	test	rbx, rbx
	jg	SHORT $LL14@r_string
	mov	rdi, QWORD PTR [rsp+112]
	mov	rbp, QWORD PTR [rsp+104]
$LN15@r_string:
; File C:\Program Files\Microsoft Visual Studio\2022\Community\VC\Tools\MSVC\14.35.32215\include\vector

; 156  :         return _Ptr == _Right._Ptr;

	cmp	rsi, QWORD PTR [r15+16]
	mov	r15, QWORD PTR [rsp+120]
	mov	rbx, QWORD PTR [rsp+96]
; File C:\Users\Mahito\Desktop\Night outing\Night-outing\src\xrCore\Xr_ini.cpp

; 510  : 	if (A!=I.Data.end() && xr_strcmp(*A->first,L)==0)	return *A->second;

	je	SHORT $LN2@r_string
; File C:\Users\Mahito\Desktop\Night outing\Night-outing\src\xrCore\xrstring.h

; 80   : 	str_c				operator*	() const						{	return p_?p_->value:0;							}

	mov	rax, QWORD PTR [rsi]
; File C:\Users\Mahito\Desktop\Night outing\Night-outing\src\xrCore\_std_extensions.h

; 195  : {	return (int)strcmp(S1,S2);  }

	xor	r9d, r9d
	test	rax, rax
	mov	r8, r14
	lea	rcx, QWORD PTR [rax+20]
	cmove	rcx, r9
	sub	r8, rcx
	npad	7
$LL48@r_string:
	movzx	edx, BYTE PTR [rcx]
	movzx	eax, BYTE PTR [rcx+r8]
	sub	edx, eax
	jne	SHORT $LN49@r_string
	inc	rcx
	test	eax, eax
	jne	SHORT $LL48@r_string
$LN49@r_string:
; File C:\Users\Mahito\Desktop\Night outing\Night-outing\src\xrCore\Xr_ini.cpp

; 510  : 	if (A!=I.Data.end() && xr_strcmp(*A->first,L)==0)	return *A->second;

	test	edx, edx
	jne	SHORT $LN2@r_string
; File C:\Users\Mahito\Desktop\Night outing\Night-outing\src\xrCore\xrstring.h

; 80   : 	str_c				operator*	() const						{	return p_?p_->value:0;							}

	mov	rcx, QWORD PTR [rsi+8]
; File C:\Users\Mahito\Desktop\Night outing\Night-outing\src\xrCore\Xr_ini.cpp

; 510  : 	if (A!=I.Data.end() && xr_strcmp(*A->first,L)==0)	return *A->second;

	test	rcx, rcx
	lea	rax, QWORD PTR [rcx+20]
	cmove	rax, r9

; 514  : }

	add	rsp, 64					; 00000040H
	pop	r14
	pop	r12
	pop	rsi
	ret	0
$LN2@r_string:

; 511  : 	else
; 512  : 		Debug.fatal(DEBUG_INFO,"Can't find variable %s in [%s]",L,S);

	mov	QWORD PTR [rsp+48], r12
	lea	rax, OFFSET FLAT:??_C@_0BP@MHCNOEDN@Can?8t?5find?5variable?5?$CFs?5in?5?$FL?$CFs?$FN@
	mov	QWORD PTR [rsp+40], r14
	lea	r9, OFFSET FLAT:??_C@_0BD@DOJGBPMF@CInifile?3?3r_string@
	mov	r8d, 512				; 00000200H
	mov	QWORD PTR [rsp+32], rax
	lea	rdx, OFFSET FLAT:??_C@_0EI@OLNNDBE@C?3?2Users?2Mahito?2Desktop?2Night?5o@
	lea	rcx, OFFSET FLAT:?Debug@@3VxrDebug@@A	; Debug
	call	?fatal@xrDebug@@QEAAXPEBDH00ZZ		; xrDebug::fatal

; 513  : 	return 0;

	xor	eax, eax

; 514  : }

	add	rsp, 64					; 00000040H
	pop	r14
	pop	r12
	pop	rsi
	ret	0
?r_string@CInifile@@QEBAPEBDPEBD0@Z ENDP		; CInifile::r_string
_TEXT	ENDS
; Function compile flags: /Ogtpy
; File C:\Users\Mahito\Desktop\Night outing\Night-outing\src\xrCore\Xr_ini.cpp
; File C:\Users\Mahito\Desktop\Night outing\Night-outing\src\xrCore\xrstring.h
; File C:\Users\Mahito\Desktop\Night outing\Night-outing\src\xrCore\_std_extensions.h
; File C:\Users\Mahito\Desktop\Night outing\Night-outing\src\xrCore\Xr_ini.cpp
; File C:\Users\Mahito\Desktop\Night outing\Night-outing\src\xrCore\_std_extensions.h
; File C:\Users\Mahito\Desktop\Night outing\Night-outing\src\xrCore\Xr_ini.cpp
_TEXT	SEGMENT
x$ = 8
val$ = 16
?sect_pred@@YA_NPEBUSect@CInifile@@PEBD@Z PROC		; sect_pred
; File C:\Users\Mahito\Desktop\Night outing\Night-outing\src\xrCore\xrstring.h

; 80   : 	str_c				operator*	() const						{	return p_?p_->value:0;							}

	mov	r8, QWORD PTR [rcx]
; File C:\Users\Mahito\Desktop\Night outing\Night-outing\src\xrCore\_std_extensions.h

; 195  : {	return (int)strcmp(S1,S2);  }

	xor	r9d, r9d
	test	r8, r8
	lea	rax, QWORD PTR [r8+20]
	cmove	rax, r9
	sub	rdx, rax
$LL9@sect_pred:
	movzx	ecx, BYTE PTR [rax]
	cmp	cl, BYTE PTR [rax+rdx]
	jne	SHORT $LN11@sect_pred
	inc	rax
	test	cl, cl
	jne	SHORT $LL9@sect_pred
; File C:\Users\Mahito\Desktop\Night outing\Night-outing\src\xrCore\Xr_ini.cpp

; 18   : 	return xr_strcmp(*x->Name,val)<0;

	shr	r9d, 31
	movzx	eax, r9b

; 19   : };

	ret	0
$LN11@sect_pred:
; File C:\Users\Mahito\Desktop\Night outing\Night-outing\src\xrCore\_std_extensions.h

; 195  : {	return (int)strcmp(S1,S2);  }

	sbb	r9d, r9d
	or	r9d, 1
; File C:\Users\Mahito\Desktop\Night outing\Night-outing\src\xrCore\Xr_ini.cpp

; 18   : 	return xr_strcmp(*x->Name,val)<0;

	shr	r9d, 31
	movzx	eax, r9b

; 19   : };

	ret	0
?sect_pred@@YA_NPEBUSect@CInifile@@PEBD@Z ENDP		; sect_pred
_TEXT	ENDS
; Function compile flags: /Ogtpy
; File C:\Users\Mahito\Desktop\Night outing\Night-outing\src\xrCore\Xr_ini.cpp
; File C:\Users\Mahito\Desktop\Night outing\Night-outing\src\xrCore\xrstring.h
; File C:\Users\Mahito\Desktop\Night outing\Night-outing\src\xrCore\Xr_ini.cpp
; File C:\Users\Mahito\Desktop\Night outing\Night-outing\src\xrCore\xrstring.h
; File C:\Users\Mahito\Desktop\Night outing\Night-outing\src\xrCore\Xr_ini.cpp
; File C:\Users\Mahito\Desktop\Night outing\Night-outing\src\xrCore\_std_extensions.h
; File C:\Users\Mahito\Desktop\Night outing\Night-outing\src\xrCore\Xr_ini.cpp
; File C:\Users\Mahito\Desktop\Night outing\Night-outing\src\xrCore\_std_extensions.h
; File C:\Users\Mahito\Desktop\Night outing\Night-outing\src\xrCore\Xr_ini.cpp
; File C:\Users\Mahito\Desktop\Night outing\Night-outing\src\xrCore\xrstring.cpp
; File C:\Users\Mahito\Desktop\Night outing\Night-outing\src\xrCore\Xr_ini.cpp
; File C:\Users\Mahito\Desktop\Night outing\Night-outing\src\xrCore\xrSyncronize.cpp
; File C:\Users\Mahito\Desktop\Night outing\Night-outing\src\xrCore\_std_extensions.h
; File C:\Users\Mahito\Desktop\Night outing\Night-outing\src\xrCore\xrstring.cpp
; File C:\Users\Mahito\Desktop\Night outing\Night-outing\src\xrCore\xrSyncronize.cpp
; File C:\Users\Mahito\Desktop\Night outing\Night-outing\src\xrCore\xrstring.h
; File C:\Users\Mahito\Desktop\Night outing\Night-outing\src\xrCore\Xr_ini.cpp
; File C:\Users\Mahito\Desktop\Night outing\Night-outing\src\xrCore\xrstring.h
; File C:\Users\Mahito\Desktop\Night outing\Night-outing\src\xrCore\Xr_ini.cpp
_TEXT	SEGMENT
header$1 = 32
x$ = 96
val$ = 104
?item_pred@@YA_NAEBUItem@CInifile@@PEBD@Z PROC		; item_pred

; 22   : {

$LN69:
	push	rbp
	push	r15
	sub	rsp, 72					; 00000048H
; File C:\Users\Mahito\Desktop\Night outing\Night-outing\src\xrCore\xrstring.h

; 81   : 	bool				operator!	() const						{	return p_ == 0;									}

	mov	rax, QWORD PTR [rcx]
; File C:\Users\Mahito\Desktop\Night outing\Night-outing\src\xrCore\Xr_ini.cpp

; 22   : {

	mov	rbp, rdx
	mov	r15, rcx
; File C:\Users\Mahito\Desktop\Night outing\Night-outing\src\xrCore\xrstring.h

; 81   : 	bool				operator!	() const						{	return p_ == 0;									}

	test	rax, rax
; File C:\Users\Mahito\Desktop\Night outing\Night-outing\src\xrCore\Xr_ini.cpp

; 23   :     if ((!x.first) || (!val))	return x.first<val;

	je	SHORT $LN4@item_pred
	test	rdx, rdx
	je	SHORT $LN60@item_pred
; File C:\Users\Mahito\Desktop\Night outing\Night-outing\src\xrCore\_std_extensions.h

; 195  : {	return (int)strcmp(S1,S2);  }

	add	rax, 20
	sub	rbp, rax
$LL63@item_pred:
	movzx	ecx, BYTE PTR [rax]
	cmp	cl, BYTE PTR [rax+rbp]
	jne	SHORT $LN65@item_pred
	inc	rax
	test	cl, cl
	jne	SHORT $LL63@item_pred
	mov	eax, 0
; File C:\Users\Mahito\Desktop\Night outing\Night-outing\src\xrCore\Xr_ini.cpp

; 25   : }

	add	rsp, 72					; 00000048H
	pop	r15
	pop	rbp
	ret	0
$LN65@item_pred:
; File C:\Users\Mahito\Desktop\Night outing\Night-outing\src\xrCore\_std_extensions.h

; 195  : {	return (int)strcmp(S1,S2);  }

	sbb	eax, eax
	or	eax, 1
; File C:\Users\Mahito\Desktop\Night outing\Night-outing\src\xrCore\Xr_ini.cpp

; 24   :     else				   		return xr_strcmp(*x.first,val)<0;

	shr	eax, 31

; 25   : }

	add	rsp, 72					; 00000048H
	pop	r15
	pop	rbp
	ret	0
$LN4@item_pred:
; File C:\Users\Mahito\Desktop\Night outing\Night-outing\src\xrCore\xrstring.cpp

; 143  : 	if (0==value)				return 0;

	test	rbp, rbp
	jne	SHORT $LN17@item_pred
$LN60@item_pred:
	xor	al, al
; File C:\Users\Mahito\Desktop\Night outing\Night-outing\src\xrCore\Xr_ini.cpp

; 25   : }

	add	rsp, 72					; 00000048H
	pop	r15
	pop	rbp
	ret	0
$LN17@item_pred:
; File C:\Users\Mahito\Desktop\Night outing\Night-outing\src\xrCore\xrSyncronize.cpp

; 64   : 	EnterCriticalSection			( (CRITICAL_SECTION*)pmutex );

	mov	rcx, QWORD PTR ds:0
	mov	QWORD PTR [rsp+96], rbx
	mov	QWORD PTR [rsp+104], rsi
	mov	QWORD PTR [rsp+112], rdi
	mov	QWORD PTR [rsp+64], r14
	call	QWORD PTR __imp_EnterCriticalSection
; File C:\Users\Mahito\Desktop\Night outing\Night-outing\src\xrCore\_std_extensions.h

; 186  : {	return (u32)strlen(S);			}

	mov	rsi, -1
$LL62@item_pred:
	inc	rsi
	cmp	BYTE PTR [rsi+rbp], 0
	jne	SHORT $LL62@item_pred
; File C:\Users\Mahito\Desktop\Night outing\Night-outing\src\xrCore\xrstring.cpp

; 155  : 	u32		s_len_with_zero		= (u32)s_len+1;

	mov	edx, esi
	lea	edi, DWORD PTR [rsi+1]

; 156  : 	VERIFY	(HEADER+s_len_with_zero < 4096);
; 157  : 
; 158  : 	// setup find structure
; 159  : 	char	header[sizeof(str_value)];
; 160  : 	str_value*	sv				= (str_value*)header;
; 161  : 	sv->dwReference				= 0;
; 162  : 	sv->dwLength				= s_len;
; 163  : 	sv->dwCRC					= crc32	(value,s_len);

	mov	rcx, rbp
	call	?crc32@@YAIPEBXI@Z			; crc32

; 27   : 		str_value* candidate = buffer[ value->dwCRC % buffer_size ];

	mov	rbx, QWORD PTR ds:8

; 163  : 	sv->dwCRC					= crc32	(value,s_len);

	mov	r14d, eax
	mov	DWORD PTR header$1[rsp+8], eax

; 27   : 		str_value* candidate = buffer[ value->dwCRC % buffer_size ];

	mov	rcx, QWORD PTR header$1[rsp+8]
	and	ecx, 262143				; 0003ffffH
	mov	rbx, QWORD PTR [rbx+rcx*8]

; 28   : 		while ( candidate )

	test	rbx, rbx
	je	SHORT $LN61@item_pred
	npad	1
$LL25@item_pred:

; 29   : 		{
; 30   : 			if ( candidate->dwCRC == value->dwCRC &&
; 31   : 				 candidate->dwLength == value->dwLength &&

	cmp	DWORD PTR [rbx+8], r14d
	jne	SHORT $LN27@item_pred
	cmp	DWORD PTR [rbx+4], esi
	jne	SHORT $LN27@item_pred
	mov	r8d, esi
	lea	rcx, QWORD PTR [rbx+20]
	mov	rdx, rbp
	call	memcmp
	test	eax, eax
	je	SHORT $LN18@item_pred
$LN27@item_pred:

; 32   : 				 !memcmp(candidate->value, str, value->dwLength) )
; 33   : 			{
; 34   : 				return candidate;				
; 35   : 			}
; 36   : 
; 37   : 			candidate = candidate->next;

	mov	rbx, QWORD PTR [rbx+12]
	test	rbx, rbx
	jne	SHORT $LL25@item_pred
$LN61@item_pred:

; 179  : 		result					= (str_value*)Memory.mem_alloc(HEADER+s_len_with_zero

	lea	rdx, QWORD PTR [rdi+20]
	lea	rcx, OFFSET FLAT:?Memory@@3VxrMemory@@A	; Memory
	call	?mem_alloc@xrMemory@@QEAAPEAX_K@Z	; xrMemory::mem_alloc
	mov	rbx, rax

; 180  : #ifdef DEBUG_MEMORY_NAME
; 181  : 			, "storage: sstring"
; 182  : #endif // DEBUG_MEMORY_NAME
; 183  : 			);
; 184  : 
; 185  : #ifdef DEBUG
; 186  : 		static int num_leaked_string = 0;
; 187  : 		if ( is_leaked_string )
; 188  : 		{
; 189  : 			++num_leaked_string;
; 190  : 			Msg("leaked_string: %d 0x%08x", num_leaked_string, result);
; 191  : 		}
; 192  : #endif // DEBUG
; 193  : 
; 194  : 		result->dwReference		= 0;
; 195  : 		result->dwLength		= sv->dwLength;
; 196  : 		result->dwCRC			= sv->dwCRC;
; 197  : 		CopyMemory				(result->value,value,s_len_with_zero);

	mov	r8, rdi
	xor	eax, eax
	mov	rdx, rbp
	lea	rcx, QWORD PTR [rbx+20]
	mov	DWORD PTR [rbx], eax
	mov	DWORD PTR [rbx+4], esi
	mov	DWORD PTR [rbx+8], r14d
	call	memcpy

; 45   : 		str_value** element = &buffer[ value->dwCRC % buffer_size ];

	mov	rax, QWORD PTR ds:8
	mov	ecx, DWORD PTR [rbx+8]
	and	ecx, 262143				; 0003ffffH
	lea	rdx, QWORD PTR [rax+rcx*8]

; 46   : 		value->next = *element;

	mov	rax, QWORD PTR [rax+rcx*8]
	mov	QWORD PTR [rbx+12], rax

; 47   : 		*element = value;

	mov	QWORD PTR [rdx], rbx
$LN18@item_pred:
; File C:\Users\Mahito\Desktop\Night outing\Night-outing\src\xrCore\xrSyncronize.cpp

; 69   : 	LeaveCriticalSection			( (CRITICAL_SECTION*)pmutex );

	mov	rcx, QWORD PTR ds:0
	call	QWORD PTR __imp_LeaveCriticalSection
	mov	r14, QWORD PTR [rsp+64]
	mov	rdi, QWORD PTR [rsp+112]
	mov	rsi, QWORD PTR [rsp+104]
; File C:\Users\Mahito\Desktop\Night outing\Night-outing\src\xrCore\xrstring.h

; 63   : 	void				_set		(str_c rhs) 					{	str_value* v = g_pStringContainer->dock(rhs); if (0!=v) v->dwReference++; _dec(); p_ = v;	}

	test	rbx, rbx
	je	SHORT $LN35@item_pred
	inc	DWORD PTR [rbx]
	cmp	QWORD PTR [r15], rbx
	setb	al

; 61   : 	void				_dec		()								{	if (0==p_) return;	p_->dwReference--; 	if (0==p_->dwReference)	p_=0;						}

	dec	DWORD PTR [rbx]
	mov	rbx, QWORD PTR [rsp+96]
; File C:\Users\Mahito\Desktop\Night outing\Night-outing\src\xrCore\Xr_ini.cpp

; 25   : }

	add	rsp, 72					; 00000048H
	pop	r15
	pop	rbp
	ret	0
$LN35@item_pred:
; File C:\Users\Mahito\Desktop\Night outing\Night-outing\src\xrCore\xrstring.h

; 111  : IC bool operator	<	(shared_str const & a, shared_str const & b)		{ return a._get() <  b._get();					}

	cmp	QWORD PTR [r15], rbx
	mov	rbx, QWORD PTR [rsp+96]
	setb	al
; File C:\Users\Mahito\Desktop\Night outing\Night-outing\src\xrCore\Xr_ini.cpp

; 25   : }

	add	rsp, 72					; 00000048H
	pop	r15
	pop	rbp
	ret	0
?item_pred@@YA_NAEBUItem@CInifile@@PEBD@Z ENDP		; item_pred
_TEXT	ENDS
; Function compile flags: /Ogtpy
; File C:\Users\Mahito\Desktop\Night outing\Night-outing\src\xrCore\Xr_ini.cpp
_TEXT	SEGMENT
dest$ = 48
src$ = 56
?_parse@@YAHPEADPEBD@Z PROC				; _parse

; 31   : {

$LN26:
	mov	QWORD PTR [rsp+8], rbx
	mov	QWORD PTR [rsp+16], rsi
	push	rdi
	sub	rsp, 32					; 00000020H

; 32   : 	BOOL bInsideSTR = false;

	xor	esi, esi
	mov	rbx, rdx
	mov	rdi, rcx

; 33   : 	if (src) 

	test	rdx, rdx
	je	SHORT $LN23@parse

; 34   : 	{
; 35   : 		while (*src) 

	movzx	eax, BYTE PTR [rdx]
	test	al, al
	je	SHORT $LN23@parse
$LL2@parse:

; 36   : 		{
; 37   : 			if (isspace((u8)*src)) 

	movzx	ecx, al
	call	QWORD PTR __imp_isspace
	movzx	ecx, BYTE PTR [rbx]
	test	eax, eax
	je	SHORT $LN7@parse

; 38   : 			{
; 39   : 				if (bInsideSTR)

	test	esi, esi
	jne	SHORT $LN10@parse

; 40   : 				{
; 41   : 					*dest++ = *src++;
; 42   : 					continue;
; 43   : 				}
; 44   : 				while (*src && isspace(*src))

	test	cl, cl
	je	SHORT $LN17@parse
	npad	5
$LL4@parse:
	movsx	ecx, cl
	call	QWORD PTR __imp_isspace
	test	eax, eax
	je	SHORT $LN17@parse
	movzx	ecx, BYTE PTR [rbx+1]

; 45   : 				{
; 46   : 					++src;

	inc	rbx
	test	cl, cl
	jne	SHORT $LL4@parse

; 47   : 				}
; 48   : 				continue;

	jmp	SHORT $LN17@parse
$LN7@parse:

; 49   : 			} else if (*src=='"') 

	cmp	cl, 34					; 00000022H
	jne	SHORT $LN10@parse

; 50   : 			{
; 51   : 				bInsideSTR = !bInsideSTR;

	xor	eax, eax
	test	esi, esi
	sete	al
	mov	esi, eax
$LN10@parse:

; 34   : 	{
; 35   : 		while (*src) 

	inc	rbx
	mov	BYTE PTR [rdi], cl
	inc	rdi
$LN17@parse:
	movzx	eax, BYTE PTR [rbx]
	test	al, al
	jne	SHORT $LL2@parse

; 52   : 			}
; 53   : 			*dest++ = *src++;
; 54   : 		}
; 55   : 	}
; 56   : 	*dest = 0;

	mov	BYTE PTR [rdi], al

; 57   : 	return bInsideSTR;
; 58   : }

	mov	eax, esi
	mov	rbx, QWORD PTR [rsp+48]
	mov	rsi, QWORD PTR [rsp+56]
	add	rsp, 32					; 00000020H
	pop	rdi
	ret	0
$LN23@parse:
	mov	rbx, QWORD PTR [rsp+48]
	mov	eax, esi
	mov	BYTE PTR [rcx], sil
	mov	rsi, QWORD PTR [rsp+56]
	add	rsp, 32					; 00000020H
	pop	rdi
	ret	0
?_parse@@YAHPEADPEBD@Z ENDP				; _parse
_TEXT	ENDS
; Function compile flags: /Ogtpy
; File C:\Users\Mahito\Desktop\Night outing\Night-outing\src\xrCore\Xr_ini.cpp
_TEXT	SEGMENT
dest$ = 8
src$ = 16
?_decorate@@YAXPEADPEBD@Z PROC				; _decorate

; 62   : 	if (src) 

	test	rdx, rdx
	je	SHORT $LN17@decorate

; 63   : 	{
; 64   : 		BOOL bInsideSTR = false;
; 65   : 		while (*src) 

	movzx	r8d, BYTE PTR [rdx]
	xor	r9d, r9d
	test	r8b, r8b
	je	SHORT $LN16@decorate
$LL2@decorate:

; 66   : 		{
; 67   : 			if (*src == ',') 

	mov	rax, rcx
	cmp	r8b, 44					; 0000002cH
	jne	SHORT $LN5@decorate

; 68   : 			{
; 69   : 				if (bInsideSTR) { *dest++ = *src++; }

	inc	rcx
	mov	BYTE PTR [rax], r8b
	test	r9d, r9d
	jne	SHORT $LN13@decorate

; 70   : 				else			{ *dest++ = *src++; *dest++ = ' '; }

	mov	BYTE PTR [rcx], 32			; 00000020H

; 71   : 				continue;

	jmp	SHORT $LN18@decorate
$LN5@decorate:

; 72   : 			} else if (*src=='"')

	cmp	r8b, 34					; 00000022H
	jne	SHORT $LN9@decorate

; 73   : 			{
; 74   : 				bInsideSTR = !bInsideSTR;

	xor	eax, eax
	test	r9d, r9d
	sete	al
	mov	r9d, eax
$LN9@decorate:

; 75   : 			}
; 76   : 			*dest++ = *src++;

	mov	BYTE PTR [rcx], r8b
$LN18@decorate:

; 63   : 	{
; 64   : 		BOOL bInsideSTR = false;
; 65   : 		while (*src) 

	inc	rcx
$LN13@decorate:
	movzx	r8d, BYTE PTR [rdx+1]
	inc	rdx
	test	r8b, r8b
	jne	SHORT $LL2@decorate
$LN17@decorate:

; 80   : }

	mov	BYTE PTR [rcx], 0
	ret	0
$LN16@decorate:

; 77   : 		}
; 78   : 	}
; 79   : 	*dest = 0;

	mov	BYTE PTR [rcx], r9b

; 80   : }

	ret	0
?_decorate@@YAXPEADPEBD@Z ENDP				; _decorate
_TEXT	ENDS
; Function compile flags: /Ogtpy
;	COMDAT ??_GCInifile@@UEAAPEAXI@Z
_TEXT	SEGMENT
this$ = 48
__flags$ = 56
??_GCInifile@@UEAAPEAXI@Z PROC				; CInifile::`scalar deleting destructor', COMDAT
$LN6:
	mov	QWORD PTR [rsp+8], rbx
	push	rdi
	sub	rsp, 32					; 00000020H
	mov	ebx, edx
	mov	rdi, rcx
	call	??1CInifile@@UEAA@XZ			; CInifile::~CInifile
	test	bl, 1
	je	SHORT $LN4@scalar
	mov	edx, 560				; 00000230H
	mov	rcx, rdi
	call	??3@YAXPEAX_K@Z				; operator delete
$LN4@scalar:
	mov	rbx, QWORD PTR [rsp+48]
	mov	rax, rdi
	add	rsp, 32					; 00000020H
	pop	rdi
	ret	0
??_GCInifile@@UEAAPEAXI@Z ENDP				; CInifile::`scalar deleting destructor'
_TEXT	ENDS
; Function compile flags: /Ogtpy
; File C:\Program Files\Microsoft Visual Studio\2022\Community\VC\Tools\MSVC\14.35.32215\include\vector
; File C:\Users\Mahito\Desktop\Night outing\Night-outing\src\xrCore\xrMemory_subst_msvc.cpp
; File C:\Program Files\Microsoft Visual Studio\2022\Community\VC\Tools\MSVC\14.35.32215\include\vector
;	COMDAT ??1?$xr_vector@PEAUSect@CInifile@@V?$xalloc@PEAUSect@CInifile@@@@@@QEAA@XZ
_TEXT	SEGMENT
this$ = 48
??1?$xr_vector@PEAUSect@CInifile@@V?$xalloc@PEAUSect@CInifile@@@@@@QEAA@XZ PROC ; xr_vector<CInifile::Sect *,xalloc<CInifile::Sect *> >::~xr_vector<CInifile::Sect *,xalloc<CInifile::Sect *> >, COMDAT
$LN34:
	push	rbx
	sub	rsp, 32					; 00000020H
	mov	rbx, rcx

; 2107 :         if (_Myfirst) { // destroy and deallocate old array

	mov	rcx, QWORD PTR [rcx]
	test	rcx, rcx
	je	SHORT $LN6@xr_vector
; File C:\Users\Mahito\Desktop\Night outing\Night-outing\src\xrCore\xrMemory_subst_msvc.cpp

; 99   : 	stat_calls++;

	inc	DWORD PTR ?Memory@@3VxrMemory@@A

; 100  : 
; 101  : #ifdef PURE_ALLOC
; 102  : 	if (g_use_pure_alloc)
; 103  : 	{
; 104  : 		//free(P);
; 105  : 		_aligned_free(P);

	call	QWORD PTR __imp__aligned_free
; File C:\Program Files\Microsoft Visual Studio\2022\Community\VC\Tools\MSVC\14.35.32215\include\vector

; 2112 :             _Myfirst = nullptr;

	xor	eax, eax
	mov	QWORD PTR [rbx], rax

; 2113 :             _Mylast  = nullptr;

	mov	QWORD PTR [rbx+8], rax

; 2114 :             _Myend   = nullptr;

	mov	QWORD PTR [rbx+16], rax
$LN6@xr_vector:
	add	rsp, 32					; 00000020H
	pop	rbx
	ret	0
??1?$xr_vector@PEAUSect@CInifile@@V?$xalloc@PEAUSect@CInifile@@@@@@QEAA@XZ ENDP ; xr_vector<CInifile::Sect *,xalloc<CInifile::Sect *> >::~xr_vector<CInifile::Sect *,xalloc<CInifile::Sect *> >
_TEXT	ENDS
; Function compile flags: /Ogtpy
; File C:\Users\Mahito\Desktop\Night outing\Night-outing\src\xrCore\Xr_ini.cpp
; File C:\Users\Mahito\Desktop\Night outing\Night-outing\src\xrCore\_flags.h
; File C:\Users\Mahito\Desktop\Night outing\Night-outing\src\xrCore\Xr_ini.cpp
; File C:\Users\Mahito\Desktop\Night outing\Night-outing\src\xrCore\_flags.h
; File C:\Users\Mahito\Desktop\Night outing\Night-outing\src\xrCore\Xr_ini.cpp
; File C:\Users\Mahito\Desktop\Night outing\Night-outing\src\xrCore\xrDebugNew.cpp
; File C:\Users\Mahito\Desktop\Night outing\Night-outing\src\xrCore\LocatorAPI.h
; File C:\Users\Mahito\Desktop\Night outing\Night-outing\src\xrCore\Xr_ini.cpp
; File C:\Program Files\Microsoft Visual Studio\2022\Community\VC\Tools\MSVC\14.35.32215\include\vector
; File C:\Users\Mahito\Desktop\Night outing\Night-outing\src\xrCore\Xr_ini.cpp
; File C:\Users\Mahito\Desktop\Night outing\Night-outing\src\xrCore\xrMemory_subst_msvc.h
; File C:\Program Files\Microsoft Visual Studio\2022\Community\VC\Tools\MSVC\14.35.32215\include\vector
; File C:\Users\Mahito\Desktop\Night outing\Night-outing\src\xrCore\xrMemory.h
; File C:\Users\Mahito\Desktop\Night outing\Night-outing\src\xrCore\xrMemory_subst_msvc.cpp
; File C:\Program Files\Microsoft Visual Studio\2022\Community\VC\Tools\MSVC\14.35.32215\include\vector
; File C:\Users\Mahito\Desktop\Night outing\Night-outing\src\xrCore\xrstring.h
; File C:\Users\Mahito\Desktop\Night outing\Night-outing\src\xrCore\xrMemory_subst_msvc.h
; File C:\Users\Mahito\Desktop\Night outing\Night-outing\src\xrCore\xrMemory_subst_msvc.cpp
; File C:\Users\Mahito\Desktop\Night outing\Night-outing\src\xrCore\xrMemory_subst_msvc.h
; File C:\Program Files\Microsoft Visual Studio\2022\Community\VC\Tools\MSVC\14.35.32215\include\vector
; File C:\Users\Mahito\Desktop\Night outing\Night-outing\src\xrCore\Xr_ini.cpp
; File C:\Program Files\Microsoft Visual Studio\2022\Community\VC\Tools\MSVC\14.35.32215\include\vector
; File C:\Users\Mahito\Desktop\Night outing\Night-outing\src\xrCore\xrMemory_subst_msvc.cpp
; File C:\Program Files\Microsoft Visual Studio\2022\Community\VC\Tools\MSVC\14.35.32215\include\vector
; File C:\Users\Mahito\Desktop\Night outing\Night-outing\src\xrCore\Xr_ini.cpp
_TEXT	SEGMENT
F$1 = 112
this$ = 112
??1CInifile@@UEAA@XZ PROC				; CInifile::~CInifile

; 154  : {

$LN154:
	push	rbp
	push	r14
	sub	rsp, 88					; 00000058H
	lea	rax, OFFSET FLAT:??_7CInifile@@6B@
	mov	QWORD PTR [rsp+120], rbx
	mov	QWORD PTR [rcx], rax
	mov	r14, rcx
; File C:\Users\Mahito\Desktop\Night outing\Night-outing\src\xrCore\_flags.h

; 25   : 	IC 	BOOL	test	(const T mask)						const	{ return BOOL(!!(flags&mask));			}

	movzx	eax, BYTE PTR [rcx+8]
; File C:\Users\Mahito\Desktop\Night outing\Night-outing\src\xrCore\Xr_ini.cpp

; 154  : {

	mov	QWORD PTR [rsp+80], rdi

; 155  : 	if (!m_flags.test(eReadOnly) && m_flags.test(eSaveAtEnd)) 

	test	al, 2
	jne	$LN6@CInifile
; File C:\Users\Mahito\Desktop\Night outing\Night-outing\src\xrCore\_flags.h

; 25   : 	IC 	BOOL	test	(const T mask)						const	{ return BOOL(!!(flags&mask));			}

	test	al, 1
; File C:\Users\Mahito\Desktop\Night outing\Night-outing\src\xrCore\Xr_ini.cpp

; 155  : 	if (!m_flags.test(eReadOnly) && m_flags.test(eSaveAtEnd)) 

	je	$LN6@CInifile

; 434  :     R_ASSERT			(m_file_name&&m_file_name[0]);

	lea	rbx, QWORD PTR [rcx+9]
	test	rbx, rbx
	je	SHORT $LN135@CInifile
	cmp	BYTE PTR [rbx], 0
	jne	SHORT $LN130@CInifile
$LN135@CInifile:
; File C:\Users\Mahito\Desktop\Night outing\Night-outing\src\xrCore\xrDebugNew.cpp

; 388  :     backend(e1, "assertion failed", 0, 0, file, line, function, ignore_always);

	lea	rax, OFFSET FLAT:??_C@_0BC@LBCCFBEL@CInifile?3?3save_as@
	xor	r9d, r9d
	mov	QWORD PTR [rsp+56], rax
	lea	r8, OFFSET FLAT:??_C@_0BB@DBHFCHNO@assertion?5failed@
	lea	rax, OFFSET FLAT:??_C@_0EI@OLNNDBE@C?3?2Users?2Mahito?2Desktop?2Night?5o@
	mov	DWORD PTR [rsp+48], 434			; 000001b2H
	lea	rdx, OFFSET FLAT:??_C@_0BM@DCJLNCCH@m_file_name?$CG?$CGm_file_name?$FL0?$FN@
	mov	QWORD PTR [rsp+40], rax
	lea	rcx, OFFSET FLAT:?Debug@@3VxrDebug@@A	; Debug
	call	?backend@xrDebug@@QEAAXPEBD0000H0AEA_N@Z ; xrDebug::backend
$LN130@CInifile:
; File C:\Users\Mahito\Desktop\Night outing\Night-outing\src\xrCore\LocatorAPI.h

; 140  : 	IC IWriter*					w_open_ex			(LPCSTR N){return w_open_ex(0,N);}

	mov	r8, rbx
	call	?w_open_ex@CLocatorAPI@@QEAAPEAVIWriter@@PEBD0@Z ; CLocatorAPI::w_open_ex
	mov	QWORD PTR F$1[rsp], rax
; File C:\Users\Mahito\Desktop\Night outing\Night-outing\src\xrCore\Xr_ini.cpp

; 436  :     if (!F)

	test	rax, rax
	jne	SHORT $LN136@CInifile

; 156  : 	{
; 157  : 		if (!save_as())
; 158  : 			Log		("!Can't save inifile:",m_file_name);

	mov	rdx, rbx
	lea	rcx, OFFSET FLAT:??_C@_0BF@HIBEFMCL@?$CBCan?8t?5save?5inifile?3@
	call	?Log@@YAXPEBD0@Z			; Log
	jmp	SHORT $LN6@CInifile
$LN136@CInifile:

; 439  : 	save_as				(*F);

	mov	rdx, rax
	mov	rcx, r14
	call	?save_as@CInifile@@QEBAXAEAVIWriter@@_N@Z ; CInifile::save_as

; 440  :     FS.w_close			(F);

	lea	rdx, QWORD PTR F$1[rsp]
	call	?w_close@CLocatorAPI@@QEAAXAEAPEAVIWriter@@@Z ; CLocatorAPI::w_close
$LN6@CInifile:
; File C:\Program Files\Microsoft Visual Studio\2022\Community\VC\Tools\MSVC\14.35.32215\include\vector

; 41   :     _CONSTEXPR20 _Vector_const_iterator(_Tptr _Parg, const _Container_base* _Pvector) noexcept : _Ptr(_Parg) {

	mov	rdi, QWORD PTR [r14+544]
; File C:\Users\Mahito\Desktop\Night outing\Night-outing\src\xrCore\Xr_ini.cpp

; 163  : 	for ( ; I != E; ++I)

	xor	ebp, ebp
	mov	rbx, QWORD PTR [r14+536]
	cmp	rbx, rdi
	je	SHORT $LN3@CInifile
	mov	QWORD PTR [rsp+128], rsi
$LL4@CInifile:
; File C:\Users\Mahito\Desktop\Night outing\Night-outing\src\xrCore\xrMemory_subst_msvc.h

; 39   : 	if (ptr)

	mov	rsi, QWORD PTR [rbx]
	test	rsi, rsi
	je	SHORT $LN2@CInifile
; File C:\Program Files\Microsoft Visual Studio\2022\Community\VC\Tools\MSVC\14.35.32215\include\vector

; 2107 :         if (_Myfirst) { // destroy and deallocate old array

	mov	rcx, QWORD PTR [rsi+8]
	test	rcx, rcx
	je	SHORT $LN31@CInifile

; 2108 :             _Destroy_range(_Myfirst, _Mylast, _Al);

	mov	rdx, QWORD PTR [rsi+16]
	call	??$_Destroy_range@V?$xalloc@UItem@CInifile@@@@@std@@YAXPEAUItem@CInifile@@QEAU12@AEAV?$xalloc@UItem@CInifile@@@@@Z ; std::_Destroy_range<xalloc<CInifile::Item> >

; 2109 :             _ASAN_VECTOR_REMOVE;
; 2110 :             _Al.deallocate(_Myfirst, static_cast<size_type>(_Myend - _Myfirst));

	mov	rcx, QWORD PTR [rsi+8]
; File C:\Users\Mahito\Desktop\Night outing\Night-outing\src\xrCore\xrMemory.h

; 69   : 	if (P)

	test	rcx, rcx
	je	SHORT $LN36@CInifile
; File C:\Users\Mahito\Desktop\Night outing\Night-outing\src\xrCore\xrMemory_subst_msvc.cpp

; 99   : 	stat_calls++;

	inc	DWORD PTR ?Memory@@3VxrMemory@@A

; 100  : 
; 101  : #ifdef PURE_ALLOC
; 102  : 	if (g_use_pure_alloc)
; 103  : 	{
; 104  : 		//free(P);
; 105  : 		_aligned_free(P);

	call	QWORD PTR __imp__aligned_free
$LN36@CInifile:
; File C:\Program Files\Microsoft Visual Studio\2022\Community\VC\Tools\MSVC\14.35.32215\include\vector

; 2112 :             _Myfirst = nullptr;

	mov	QWORD PTR [rsi+8], rbp

; 2113 :             _Mylast  = nullptr;

	mov	QWORD PTR [rsi+16], rbp

; 2114 :             _Myend   = nullptr;

	mov	QWORD PTR [rsi+24], rbp
$LN31@CInifile:
; File C:\Users\Mahito\Desktop\Night outing\Night-outing\src\xrCore\xrstring.h

; 61   : 	void				_dec		()								{	if (0==p_) return;	p_->dwReference--; 	if (0==p_->dwReference)	p_=0;						}

	mov	rax, QWORD PTR [rsi]
	test	rax, rax
	je	SHORT $LN61@CInifile
	dec	DWORD PTR [rax]
	mov	rax, QWORD PTR [rsi]
	cmp	DWORD PTR [rax], ebp
	jne	SHORT $LN61@CInifile
	mov	QWORD PTR [rsi], rbp
$LN61@CInifile:
; File C:\Users\Mahito\Desktop\Night outing\Night-outing\src\xrCore\xrMemory_subst_msvc.h

; 32   : 		Memory.mem_free(ptr);

	mov	rcx, QWORD PTR [rbx]
; File C:\Users\Mahito\Desktop\Night outing\Night-outing\src\xrCore\xrMemory_subst_msvc.cpp

; 99   : 	stat_calls++;

	inc	DWORD PTR ?Memory@@3VxrMemory@@A

; 100  : 
; 101  : #ifdef PURE_ALLOC
; 102  : 	if (g_use_pure_alloc)
; 103  : 	{
; 104  : 		//free(P);
; 105  : 		_aligned_free(P);

	call	QWORD PTR __imp__aligned_free
; File C:\Users\Mahito\Desktop\Night outing\Night-outing\src\xrCore\xrMemory_subst_msvc.h

; 42   : 		ptr = NULL;

	mov	QWORD PTR [rbx], rbp
$LN2@CInifile:
; File C:\Program Files\Microsoft Visual Studio\2022\Community\VC\Tools\MSVC\14.35.32215\include\vector

; 74   :         ++_Ptr;

	add	rbx, 8
; File C:\Users\Mahito\Desktop\Night outing\Night-outing\src\xrCore\Xr_ini.cpp

; 163  : 	for ( ; I != E; ++I)

	cmp	rbx, rdi
	jne	SHORT $LL4@CInifile
	mov	rsi, QWORD PTR [rsp+128]
$LN3@CInifile:
; File C:\Program Files\Microsoft Visual Studio\2022\Community\VC\Tools\MSVC\14.35.32215\include\vector

; 2107 :         if (_Myfirst) { // destroy and deallocate old array

	mov	rcx, QWORD PTR [r14+536]
	mov	rdi, QWORD PTR [rsp+80]
	mov	rbx, QWORD PTR [rsp+120]
	test	rcx, rcx
	je	SHORT $LN87@CInifile
; File C:\Users\Mahito\Desktop\Night outing\Night-outing\src\xrCore\xrMemory_subst_msvc.cpp

; 99   : 	stat_calls++;

	inc	DWORD PTR ?Memory@@3VxrMemory@@A

; 100  : 
; 101  : #ifdef PURE_ALLOC
; 102  : 	if (g_use_pure_alloc)
; 103  : 	{
; 104  : 		//free(P);
; 105  : 		_aligned_free(P);

	call	QWORD PTR __imp__aligned_free
; File C:\Program Files\Microsoft Visual Studio\2022\Community\VC\Tools\MSVC\14.35.32215\include\vector

; 2112 :             _Myfirst = nullptr;

	mov	QWORD PTR [r14+536], rbp

; 2113 :             _Mylast  = nullptr;

	mov	QWORD PTR [r14+544], rbp

; 2114 :             _Myend   = nullptr;

	mov	QWORD PTR [r14+552], rbp
$LN87@CInifile:
; File C:\Users\Mahito\Desktop\Night outing\Night-outing\src\xrCore\Xr_ini.cpp

; 165  : }

	add	rsp, 88					; 00000058H
	pop	r14
	pop	rbp
	ret	0
??1CInifile@@UEAA@XZ ENDP				; CInifile::~CInifile
_TEXT	ENDS
; Function compile flags: /Ogtpy
; File C:\Users\Mahito\Desktop\Night outing\Night-outing\src\xrCore\Xr_ini.cpp
; File C:\Users\Mahito\Desktop\Night outing\Night-outing\src\xrCore\xrstring.h
; File C:\Users\Mahito\Desktop\Night outing\Night-outing\src\xrCore\Xr_ini.cpp
; File C:\Program Files\Microsoft Visual Studio\2022\Community\VC\Tools\MSVC\14.35.32215\include\xutility
; File C:\Program Files\Microsoft Visual Studio\2022\Community\VC\Tools\MSVC\14.35.32215\include\vector
; File C:\Users\Mahito\Desktop\Night outing\Night-outing\src\xrCore\Xr_ini.cpp
; File C:\Program Files\Microsoft Visual Studio\2022\Community\VC\Tools\MSVC\14.35.32215\include\vector
; File C:\Program Files\Microsoft Visual Studio\2022\Community\VC\Tools\MSVC\14.35.32215\include\xutility
; File C:\Program Files\Microsoft Visual Studio\2022\Community\VC\Tools\MSVC\14.35.32215\include\vector
; File C:\Program Files\Microsoft Visual Studio\2022\Community\VC\Tools\MSVC\14.35.32215\include\xutility
; File C:\Program Files\Microsoft Visual Studio\2022\Community\VC\Tools\MSVC\14.35.32215\include\vector
; File C:\Users\Mahito\Desktop\Night outing\Night-outing\src\xrCore\Xr_ini.cpp
; File C:\Users\Mahito\Desktop\Night outing\Night-outing\src\xrCore\xrstring.h
; File C:\Users\Mahito\Desktop\Night outing\Night-outing\src\xrCore\Xr_ini.cpp
; File C:\Users\Mahito\Desktop\Night outing\Night-outing\src\xrCore\xrstring.h
; File C:\Users\Mahito\Desktop\Night outing\Night-outing\src\xrCore\Xr_ini.cpp
; File C:\Program Files\Microsoft Visual Studio\2022\Community\VC\Tools\MSVC\14.35.32215\include\vector
; File C:\Users\Mahito\Desktop\Night outing\Night-outing\src\xrCore\Xr_ini.cpp
_TEXT	SEGMENT
$T1 = 80
tgt$ = 80
I$ = 88
?insert_item@@YAXPEAUSect@CInifile@@AEBUItem@2@@Z PROC	; insert_item

; 168  : {

	push	rsi
	push	r12
	push	r14
	sub	rsp, 48					; 00000030H
; File C:\Users\Mahito\Desktop\Night outing\Night-outing\src\xrCore\xrstring.h

; 80   : 	str_c				operator*	() const						{	return p_?p_->value:0;							}

	mov	rax, QWORD PTR [rdx]
; File C:\Users\Mahito\Desktop\Night outing\Night-outing\src\xrCore\Xr_ini.cpp

; 168  : {

	mov	r14, rdx
	mov	QWORD PTR [rsp+88], rbx
	mov	QWORD PTR [rsp+40], r13
	mov	r13, rcx
; File C:\Program Files\Microsoft Visual Studio\2022\Community\VC\Tools\MSVC\14.35.32215\include\xutility

; 6713 :     auto _UFirst                = _Get_unwrapped(_First);

	mov	rsi, QWORD PTR [r13+8]
; File C:\Program Files\Microsoft Visual Studio\2022\Community\VC\Tools\MSVC\14.35.32215\include\vector

; 1859 :         return iterator(_My_data._Myfirst, _STD addressof(_My_data));

	lea	r12, QWORD PTR [r13+8]
	xor	ecx, ecx
; File C:\Users\Mahito\Desktop\Night outing\Night-outing\src\xrCore\Xr_ini.cpp

; 168  : {

	mov	QWORD PTR [rsp+32], r15
; File C:\Program Files\Microsoft Visual Studio\2022\Community\VC\Tools\MSVC\14.35.32215\include\vector

; 1859 :         return iterator(_My_data._Myfirst, _STD addressof(_My_data));

	test	rax, rax
	lea	r15, QWORD PTR [rax+20]
; File C:\Program Files\Microsoft Visual Studio\2022\Community\VC\Tools\MSVC\14.35.32215\include\xutility

; 1207 :         return _Last - _First; // assume the iterator will do debug checking

	mov	rbx, QWORD PTR [r13+16]
	mov	rax, -6148914691236517205		; aaaaaaaaaaaaaaabH
; File C:\Program Files\Microsoft Visual Studio\2022\Community\VC\Tools\MSVC\14.35.32215\include\vector

; 1859 :         return iterator(_My_data._Myfirst, _STD addressof(_My_data));

	cmove	r15, rcx
; File C:\Program Files\Microsoft Visual Studio\2022\Community\VC\Tools\MSVC\14.35.32215\include\xutility

; 1207 :         return _Last - _First; // assume the iterator will do debug checking

	sub	rbx, rsi
	sar	rbx, 3
	imul	rbx, rax

; 6716 :     while (0 < _Count) { // divide and conquer, find half that contains answer

	test	rbx, rbx
	jle	SHORT $LN23@insert_ite
	mov	QWORD PTR [rsp+96], rbp
	mov	QWORD PTR [rsp+104], rdi
	npad	1
$LL22@insert_ite:

; 6717 :         const _Iter_diff_t<_FwdIt> _Count2 = _Count / 2;

	mov	rdi, rbx

; 6718 :         const auto _UMid                   = _STD next(_UFirst, _Count2);

	mov	rdx, r15
	shr	rdi, 1

; 1179 :         _Where += _Off;

	lea	rax, QWORD PTR [rdi+rdi*2]
	lea	rbp, QWORD PTR [rsi+rax*8]

; 6718 :         const auto _UMid                   = _STD next(_UFirst, _Count2);

	mov	rcx, rbp

; 6719 :         if (_Pred(*_UMid, _Val)) { // try top half

	call	?item_pred@@YA_NAEBUItem@CInifile@@PEBD@Z ; item_pred
	test	al, al
	je	SHORT $LN24@insert_ite

; 6720 :             _UFirst = _Next_iter(_UMid);
; 6721 :             _Count -= _Count2 + 1;

	mov	rax, -1
	lea	rsi, QWORD PTR [rbp+24]
	sub	rax, rdi
	add	rbx, rax

; 6722 :         } else {

	jmp	SHORT $LN25@insert_ite
$LN24@insert_ite:

; 6723 :             _Count = _Count2;

	mov	rbx, rdi
$LN25@insert_ite:

; 6714 :     _Iter_diff_t<_FwdIt> _Count = _STD distance(_UFirst, _Get_unwrapped(_Last));
; 6715 : 
; 6716 :     while (0 < _Count) { // divide and conquer, find half that contains answer

	test	rbx, rbx
	jg	SHORT $LL22@insert_ite
	mov	rdi, QWORD PTR [rsp+104]
	mov	rbp, QWORD PTR [rsp+96]
$LN23@insert_ite:
; File C:\Program Files\Microsoft Visual Studio\2022\Community\VC\Tools\MSVC\14.35.32215\include\vector

; 156  :         return _Ptr == _Right._Ptr;

	cmp	rsi, QWORD PTR [r13+16]
	mov	r13, QWORD PTR [rsp+40]
	mov	r15, QWORD PTR [rsp+32]
	mov	rbx, QWORD PTR [rsp+88]
; File C:\Users\Mahito\Desktop\Night outing\Night-outing\src\xrCore\Xr_ini.cpp

; 170  : 	if (sect_it!=tgt->Data.end() && sect_it->first.equal(I.first))

	je	SHORT $LN2@insert_ite
; File C:\Users\Mahito\Desktop\Night outing\Night-outing\src\xrCore\xrstring.h

; 89   : 	bool				equal		(const shared_str & rhs) const	{	return (p_ == rhs.p_);							}

	mov	rax, QWORD PTR [r14]
	cmp	QWORD PTR [rsi], rax
; File C:\Users\Mahito\Desktop\Night outing\Night-outing\src\xrCore\Xr_ini.cpp

; 170  : 	if (sect_it!=tgt->Data.end() && sect_it->first.equal(I.first))

	jne	SHORT $LN2@insert_ite
; File C:\Users\Mahito\Desktop\Night outing\Night-outing\src\xrCore\xrstring.h

; 64   : 	void				_set		(shared_str const &rhs)			{	str_value* v = rhs.p_; if (0!=v) v->dwReference++; _dec(); p_ = v;							}

	mov	rax, QWORD PTR [r14+8]
	test	rax, rax
	je	SHORT $LN52@insert_ite
	inc	DWORD PTR [rax]
$LN52@insert_ite:

; 61   : 	void				_dec		()								{	if (0==p_) return;	p_->dwReference--; 	if (0==p_->dwReference)	p_=0;						}

	mov	rcx, QWORD PTR [rsi+8]
	test	rcx, rcx
	je	SHORT $LN56@insert_ite
	dec	DWORD PTR [rcx]
$LN56@insert_ite:

; 64   : 	void				_set		(shared_str const &rhs)			{	str_value* v = rhs.p_; if (0!=v) v->dwReference++; _dec(); p_ = v;							}

	mov	QWORD PTR [rsi+8], rax
	mov	rax, QWORD PTR [r14+16]
	test	rax, rax
	je	SHORT $LN61@insert_ite
	inc	DWORD PTR [rax]
$LN61@insert_ite:

; 61   : 	void				_dec		()								{	if (0==p_) return;	p_->dwReference--; 	if (0==p_->dwReference)	p_=0;						}

	mov	rcx, QWORD PTR [rsi+16]
	test	rcx, rcx
	je	SHORT $LN65@insert_ite
	dec	DWORD PTR [rcx]
$LN65@insert_ite:

; 64   : 	void				_set		(shared_str const &rhs)			{	str_value* v = rhs.p_; if (0!=v) v->dwReference++; _dec(); p_ = v;							}

	mov	QWORD PTR [rsi+16], rax
; File C:\Users\Mahito\Desktop\Night outing\Night-outing\src\xrCore\Xr_ini.cpp

; 179  : }

	add	rsp, 48					; 00000030H
	pop	r14
	pop	r12
	pop	rsi
	ret	0
$LN2@insert_ite:
; File C:\Program Files\Microsoft Visual Studio\2022\Community\VC\Tools\MSVC\14.35.32215\include\vector

; 1066 :         return emplace(_Where, _Val);

	mov	r9, r14
	lea	rdx, QWORD PTR $T1[rsp]
	mov	r8, rsi
	mov	rcx, r12
	call	??$emplace@AEBUItem@CInifile@@@?$vector@UItem@CInifile@@V?$xalloc@UItem@CInifile@@@@@std@@QEAA?AV?$_Vector_iterator@V?$_Vector_val@U?$_Simple_types@UItem@CInifile@@@std@@@std@@@1@V?$_Vector_const_iterator@V?$_Vector_val@U?$_Simple_types@UItem@CInifile@@@std@@@std@@@1@AEBUItem@CInifile@@@Z ; std::vector<CInifile::Item,xalloc<CInifile::Item> >::emplace<CInifile::Item const &>
; File C:\Users\Mahito\Desktop\Night outing\Night-outing\src\xrCore\Xr_ini.cpp

; 179  : }

	add	rsp, 48					; 00000030H
	pop	r14
	pop	r12
	pop	rsi
	ret	0
?insert_item@@YAXPEAUSect@CInifile@@AEBUItem@2@@Z ENDP	; insert_item
_TEXT	ENDS
; Function compile flags: /Ogtpy
; File C:\Users\Mahito\Desktop\Night outing\Night-outing\src\xrCore\Xr_ini.cpp
; File C:\Users\Mahito\Desktop\Night outing\Night-outing\src\xrCore\FS.h
; File C:\Users\Mahito\Desktop\Night outing\Night-outing\src\xrCore\Xr_ini.cpp
;	COMDAT ?is_empty_line_now@@YAHPEAVIReader@@@Z
_TEXT	SEGMENT
F$ = 8
?is_empty_line_now@@YAHPEAVIReader@@@Z PROC		; is_empty_line_now, COMDAT
; File C:\Users\Mahito\Desktop\Night outing\Night-outing\src\xrCore\FS.h

; 295  : 	IC void*		pointer		()	const		{	return &(data[Pos]);	};

	movsxd	rdx, DWORD PTR [rcx+24]
	mov	rax, QWORD PTR [rcx+16]
; File C:\Users\Mahito\Desktop\Night outing\Night-outing\src\xrCore\Xr_ini.cpp

; 188  : 	return (*a0==13) && ( *a1==10) && (*a2==13) && ( *a3==10); 

	cmp	BYTE PTR [rdx+rax-4], 13
	jne	SHORT $LN3@is_empty_l
	cmp	BYTE PTR [rdx+rax-3], 10
	jne	SHORT $LN3@is_empty_l
	cmp	BYTE PTR [rdx+rax-2], 13
	jne	SHORT $LN3@is_empty_l
	cmp	BYTE PTR [rdx+rax-1], 10
	jne	SHORT $LN3@is_empty_l
	mov	eax, 1

; 189  : };

	ret	0
$LN3@is_empty_l:

; 188  : 	return (*a0==13) && ( *a1==10) && (*a2==13) && ( *a3==10); 

	xor	eax, eax

; 189  : };

	ret	0
?is_empty_line_now@@YAHPEAVIReader@@@Z ENDP		; is_empty_line_now
_TEXT	ENDS
; Function compile flags: /Ogtpy
; File C:\Users\Mahito\Desktop\Night outing\Night-outing\src\xrCore\Xr_ini.cpp
; File C:\Users\Mahito\Desktop\Night outing\Night-outing\src\xrCore\xrDebugNew.cpp
; File C:\Users\Mahito\Desktop\Night outing\Night-outing\src\xrCore\FS.h
; File C:\Users\Mahito\Desktop\Night outing\Night-outing\src\xrCore\Xr_ini.cpp
; File C:\Users\Mahito\Desktop\Night outing\Night-outing\src\xrCore\FS.h
; File C:\Users\Mahito\Desktop\Night outing\Night-outing\src\xrCore\Xr_ini.cpp
; File C:\Users\Mahito\Desktop\Night outing\Night-outing\src\xrCore\FS.h
; File C:\Users\Mahito\Desktop\Night outing\Night-outing\src\xrCore\Xr_ini.cpp
; File C:\Users\Mahito\Desktop\Night outing\Night-outing\src\xrCore\xr_trims.cpp
; File C:\Users\Mahito\Desktop\Night outing\Night-outing\src\xrCore\_std_extensions.h
; File C:\Users\Mahito\Desktop\Night outing\Night-outing\src\xrCore\xr_trims.cpp
; File C:\Program Files (x86)\Windows Kits\10\Include\10.0.26100.0\ucrt\string.h
; File C:\Users\Mahito\Desktop\Night outing\Night-outing\src\xrCore\Xr_ini.cpp
; File C:\Users\Mahito\Desktop\Night outing\Night-outing\src\xrCore\xrstring.h
; File C:\Users\Mahito\Desktop\Night outing\Night-outing\src\xrCore\Xr_ini.cpp
; File C:\Program Files (x86)\Windows Kits\10\Include\10.0.26100.0\ucrt\string.h
; File C:\Users\Mahito\Desktop\Night outing\Night-outing\src\xrCore\Xr_ini.cpp
; File C:\Program Files (x86)\Windows Kits\10\Include\10.0.26100.0\ucrt\string.h
; File C:\Users\Mahito\Desktop\Night outing\Night-outing\src\xrCore\Xr_ini.cpp
; File C:\Users\Mahito\Desktop\Night outing\Night-outing\src\xrCore\xrDebugNew.cpp
; File C:\Users\Mahito\Desktop\Night outing\Night-outing\src\xrCore\Xr_ini.cpp
; File C:\Users\Mahito\Desktop\Night outing\Night-outing\src\xrCore\xr_trims.cpp
; File C:\Users\Mahito\Desktop\Night outing\Night-outing\src\xrCore\_std_extensions.h
; File C:\Users\Mahito\Desktop\Night outing\Night-outing\src\xrCore\xr_trims.cpp
; File C:\Users\Mahito\Desktop\Night outing\Night-outing\src\xrCore\_std_extensions.h
; File C:\Users\Mahito\Desktop\Night outing\Night-outing\src\xrCore\xr_trims.cpp
; File C:\Users\Mahito\Desktop\Night outing\Night-outing\src\xrCore\_std_extensions.h
; File C:\Users\Mahito\Desktop\Night outing\Night-outing\src\xrCore\xr_trims.cpp
; File C:\Users\Mahito\Desktop\Night outing\Night-outing\src\xrCore\string_concatenations.cpp
; File C:\Users\Mahito\Desktop\Night outing\Night-outing\src\xrCore\xr_trims.cpp
; File C:\Users\Mahito\Desktop\Night outing\Night-outing\src\xrCore\string_concatenations.cpp
; File C:\Users\Mahito\Desktop\Night outing\Night-outing\src\xrCore\Xr_ini.cpp
; File C:\Users\Mahito\Desktop\Night outing\Night-outing\src\xrCore\string_concatenations.cpp
; File C:\Users\Mahito\Desktop\Night outing\Night-outing\src\xrCore\Xr_ini.cpp
; File C:\Users\Mahito\Desktop\Night outing\Night-outing\src\xrCore\string_concatenations.cpp
; File C:\Users\Mahito\Desktop\Night outing\Night-outing\src\xrCore\Xr_ini.cpp
; File C:\Users\Mahito\Desktop\Night outing\Night-outing\src\xrCore\_std_extensions.h
; File C:\Users\Mahito\Desktop\Night outing\Night-outing\src\xrCore\fastdelegate.h
; File C:\Users\Mahito\Desktop\Night outing\Night-outing\src\xrCore\Xr_ini.cpp
; File C:\Users\Mahito\Desktop\Night outing\Night-outing\src\xrCore\LocatorAPI.cpp
; File C:\Users\Mahito\Desktop\Night outing\Night-outing\src\xrCore\Xr_ini.cpp
; File C:\Users\Mahito\Desktop\Night outing\Night-outing\src\xrCore\xrDebugNew.cpp
; File C:\Users\Mahito\Desktop\Night outing\Night-outing\src\xrCore\fastdelegate.h
; File C:\Users\Mahito\Desktop\Night outing\Night-outing\src\xrCore\Xr_ini.cpp
; File C:\Users\Mahito\Desktop\Night outing\Night-outing\src\xrCore\fastdelegate.h
; File C:\Users\Mahito\Desktop\Night outing\Night-outing\src\xrCore\Xr_ini.cpp
; File C:\Users\Mahito\Desktop\Night outing\Night-outing\src\xrCore\fastdelegate.h
; File C:\Users\Mahito\Desktop\Night outing\Night-outing\src\xrCore\Xr_ini.cpp
; File C:\Users\Mahito\Desktop\Night outing\Night-outing\src\xrCore\fastdelegate.h
; File C:\Users\Mahito\Desktop\Night outing\Night-outing\src\xrCore\Xr_ini.cpp
; File C:\Users\Mahito\Desktop\Night outing\Night-outing\src\xrCore\xrstring.h
; File C:\Program Files\Microsoft Visual Studio\2022\Community\VC\Tools\MSVC\14.35.32215\include\vector
; File C:\Program Files\Microsoft Visual Studio\2022\Community\VC\Tools\MSVC\14.35.32215\include\xutility
; File C:\Program Files\Microsoft Visual Studio\2022\Community\VC\Tools\MSVC\14.35.32215\include\vector
; File C:\Program Files\Microsoft Visual Studio\2022\Community\VC\Tools\MSVC\14.35.32215\include\xutility
; File C:\Program Files\Microsoft Visual Studio\2022\Community\VC\Tools\MSVC\14.35.32215\include\vector
; File C:\Program Files\Microsoft Visual Studio\2022\Community\VC\Tools\MSVC\14.35.32215\include\xutility
; File C:\Program Files\Microsoft Visual Studio\2022\Community\VC\Tools\MSVC\14.35.32215\include\vector
; File C:\Program Files\Microsoft Visual Studio\2022\Community\VC\Tools\MSVC\14.35.32215\include\xutility
; File C:\Users\Mahito\Desktop\Night outing\Night-outing\src\xrCore\_std_extensions.h
; File C:\Program Files\Microsoft Visual Studio\2022\Community\VC\Tools\MSVC\14.35.32215\include\xutility
; File C:\Users\Mahito\Desktop\Night outing\Night-outing\src\xrCore\xrstring.h
; File C:\Users\Mahito\Desktop\Night outing\Night-outing\src\xrCore\_std_extensions.h
; File C:\Users\Mahito\Desktop\Night outing\Night-outing\src\xrCore\Xr_ini.cpp
; File C:\Program Files\Microsoft Visual Studio\2022\Community\VC\Tools\MSVC\14.35.32215\include\xutility
; File C:\Program Files\Microsoft Visual Studio\2022\Community\VC\Tools\MSVC\14.35.32215\include\vector
; File C:\Users\Mahito\Desktop\Night outing\Night-outing\src\xrCore\Xr_ini.cpp
; File C:\Users\Mahito\Desktop\Night outing\Night-outing\src\xrCore\xrstring.h
; File C:\Users\Mahito\Desktop\Night outing\Night-outing\src\xrCore\Xr_ini.cpp
; File C:\Program Files\Microsoft Visual Studio\2022\Community\VC\Tools\MSVC\14.35.32215\include\vector
; File C:\Program Files\Microsoft Visual Studio\2022\Community\VC\Tools\MSVC\14.35.32215\include\xutility
; File C:\Program Files\Microsoft Visual Studio\2022\Community\VC\Tools\MSVC\14.35.32215\include\vector
; File C:\Program Files\Microsoft Visual Studio\2022\Community\VC\Tools\MSVC\14.35.32215\include\xutility
; File C:\Program Files\Microsoft Visual Studio\2022\Community\VC\Tools\MSVC\14.35.32215\include\vector
; File C:\Program Files\Microsoft Visual Studio\2022\Community\VC\Tools\MSVC\14.35.32215\include\xutility
; File C:\Program Files\Microsoft Visual Studio\2022\Community\VC\Tools\MSVC\14.35.32215\include\vector
; File C:\Users\Mahito\Desktop\Night outing\Night-outing\src\xrCore\Xr_ini.cpp
; File C:\Users\Mahito\Desktop\Night outing\Night-outing\src\xrCore\xrMemory_subst_msvc.cpp
; File C:\Users\Mahito\Desktop\Night outing\Night-outing\src\xrCore\xrstring.h
; File C:\Users\Mahito\Desktop\Night outing\Night-outing\src\xrCore\xrMemory_subst_msvc.cpp
; File C:\Users\Mahito\Desktop\Night outing\Night-outing\src\xrCore\xrMemory_subst_msvc.h
; File C:\Users\Mahito\Desktop\Night outing\Night-outing\src\xrCore\xrstring.h
; File C:\Program Files\Microsoft Visual Studio\2022\Community\VC\Tools\MSVC\14.35.32215\include\vector
; File C:\Users\Mahito\Desktop\Night outing\Night-outing\src\xrCore\Xr_ini.cpp
; File C:\Users\Mahito\Desktop\Night outing\Night-outing\src\xrCore\xrstring.h
; File C:\Program Files (x86)\Windows Kits\10\Include\10.0.26100.0\ucrt\string.h
; File C:\Users\Mahito\Desktop\Night outing\Night-outing\src\xrCore\Xr_ini.cpp
; File C:\Users\Mahito\Desktop\Night outing\Night-outing\src\xrCore\xrDebugNew.cpp
; File C:\Program Files (x86)\Windows Kits\10\Include\10.0.26100.0\ucrt\string.h
; File C:\Users\Mahito\Desktop\Night outing\Night-outing\src\xrCore\Xr_ini.cpp
; File C:\Users\Mahito\Desktop\Night outing\Night-outing\src\xrCore\xr_trims.cpp
; File C:\Users\Mahito\Desktop\Night outing\Night-outing\src\xrCore\Xr_ini.cpp
; File C:\Users\Mahito\Desktop\Night outing\Night-outing\src\xrCore\xr_trims.cpp
; File C:\Users\Mahito\Desktop\Night outing\Night-outing\src\xrCore\_std_extensions.h
; File C:\Users\Mahito\Desktop\Night outing\Night-outing\src\xrCore\xr_trims.cpp
; File C:\Users\Mahito\Desktop\Night outing\Night-outing\src\xrCore\Xr_ini.cpp
; File C:\Users\Mahito\Desktop\Night outing\Night-outing\src\xrCore\xr_trims.h
; File C:\Users\Mahito\Desktop\Night outing\Night-outing\src\xrCore\Xr_ini.cpp
; File C:\Program Files\Microsoft Visual Studio\2022\Community\VC\Tools\MSVC\14.35.32215\include\vector
; File C:\Users\Mahito\Desktop\Night outing\Night-outing\src\xrCore\Xr_ini.cpp
; File C:\Program Files\Microsoft Visual Studio\2022\Community\VC\Tools\MSVC\14.35.32215\include\vector
; File C:\Users\Mahito\Desktop\Night outing\Night-outing\src\xrCore\Xr_ini.cpp
; File C:\Program Files\Microsoft Visual Studio\2022\Community\VC\Tools\MSVC\14.35.32215\include\vector
; File C:\Users\Mahito\Desktop\Night outing\Night-outing\src\xrCore\Xr_ini.cpp
; File C:\Users\Mahito\Desktop\Night outing\Night-outing\src\xrCore\xr_trims.h
; File C:\Users\Mahito\Desktop\Night outing\Night-outing\src\xrCore\Xr_ini.cpp
; File C:\Program Files\Microsoft Visual Studio\2022\Community\VC\Tools\MSVC\14.35.32215\include\vector
; File C:\Users\Mahito\Desktop\Night outing\Night-outing\src\xrCore\Xr_ini.cpp
; File C:\Program Files\Microsoft Visual Studio\2022\Community\VC\Tools\MSVC\14.35.32215\include\vector
; File C:\Users\Mahito\Desktop\Night outing\Night-outing\src\xrCore\Xr_ini.cpp
; File C:\Program Files (x86)\Windows Kits\10\Include\10.0.26100.0\ucrt\string.h
; File C:\Users\Mahito\Desktop\Night outing\Night-outing\src\xrCore\Xr_ini.cpp
; File C:\Users\Mahito\Desktop\Night outing\Night-outing\src\xrCore\xrstring.cpp
; File C:\Users\Mahito\Desktop\Night outing\Night-outing\src\xrCore\xrSyncronize.cpp
; File C:\Users\Mahito\Desktop\Night outing\Night-outing\src\xrCore\_std_extensions.h
; File C:\Users\Mahito\Desktop\Night outing\Night-outing\src\xrCore\xrstring.cpp
; File C:\Users\Mahito\Desktop\Night outing\Night-outing\src\xrCore\xrSyncronize.cpp
; File C:\Users\Mahito\Desktop\Night outing\Night-outing\src\xrCore\xrstring.h
; File C:\Users\Mahito\Desktop\Night outing\Night-outing\src\xrCore\Xr_ini.cpp
; File C:\Users\Mahito\Desktop\Night outing\Night-outing\src\xrCore\xrstring.h
; File C:\Users\Mahito\Desktop\Night outing\Night-outing\src\xrCore\FS.h
; File C:\Users\Mahito\Desktop\Night outing\Night-outing\src\xrCore\Xr_ini.cpp
; File C:\Program Files (x86)\Windows Kits\10\Include\10.0.26100.0\ucrt\string.h
; File C:\Users\Mahito\Desktop\Night outing\Night-outing\src\xrCore\Xr_ini.cpp
; File C:\Program Files (x86)\Windows Kits\10\Include\10.0.26100.0\ucrt\string.h
; File C:\Users\Mahito\Desktop\Night outing\Night-outing\src\xrCore\Xr_ini.cpp
; File C:\Users\Mahito\Desktop\Night outing\Night-outing\src\xrCore\_std_extensions.h
; File C:\Users\Mahito\Desktop\Night outing\Night-outing\src\xrCore\Xr_ini.cpp
; File C:\Users\Mahito\Desktop\Night outing\Night-outing\src\xrCore\_std_extensions.h
; File C:\Users\Mahito\Desktop\Night outing\Night-outing\src\xrCore\Xr_ini.cpp
; File C:\Users\Mahito\Desktop\Night outing\Night-outing\src\xrCore\_std_extensions.h
; File C:\Users\Mahito\Desktop\Night outing\Night-outing\src\xrCore\Xr_ini.cpp
; File C:\Users\Mahito\Desktop\Night outing\Night-outing\src\xrCore\_std_extensions.h
; File C:\Users\Mahito\Desktop\Night outing\Night-outing\src\xrCore\Xr_ini.cpp
; File C:\Users\Mahito\Desktop\Night outing\Night-outing\src\xrCore\xrstring.h
; File C:\Users\Mahito\Desktop\Night outing\Night-outing\src\xrCore\Xr_ini.cpp
; File C:\Program Files\Microsoft Visual Studio\2022\Community\VC\Tools\MSVC\14.35.32215\include\xstring
; File C:\Users\Mahito\Desktop\Night outing\Night-outing\src\xrCore\xrDebugNew.cpp
; File C:\Program Files\Microsoft Visual Studio\2022\Community\VC\Tools\MSVC\14.35.32215\include\xstring
; File C:\Program Files\Microsoft Visual Studio\2022\Community\VC\Tools\MSVC\14.35.32215\include\xmemory
; File C:\Program Files\Microsoft Visual Studio\2022\Community\VC\Tools\MSVC\14.35.32215\include\xstring
; File C:\Program Files\Microsoft Visual Studio\2022\Community\VC\Tools\MSVC\14.35.32215\include\xmemory
; File C:\Users\Mahito\Desktop\Night outing\Night-outing\src\xrCore\_std_extensions.h
; File C:\Users\Mahito\Desktop\Night outing\Night-outing\src\xrCore\Xr_ini.cpp
; File C:\Users\Mahito\Desktop\Night outing\Night-outing\src\xrCore\_std_extensions.h
; File C:\Users\Mahito\Desktop\Night outing\Night-outing\src\xrCore\Xr_ini.cpp
; File C:\Users\Mahito\Desktop\Night outing\Night-outing\src\xrCore\xr_ini.h
; File C:\Users\Mahito\Desktop\Night outing\Night-outing\src\xrCore\Xr_ini.cpp
; File C:\Users\Mahito\Desktop\Night outing\Night-outing\src\xrCore\xrstring.cpp
; File C:\Users\Mahito\Desktop\Night outing\Night-outing\src\xrCore\xrSyncronize.cpp
; File C:\Users\Mahito\Desktop\Night outing\Night-outing\src\xrCore\_std_extensions.h
; File C:\Users\Mahito\Desktop\Night outing\Night-outing\src\xrCore\xrstring.cpp
; File C:\Users\Mahito\Desktop\Night outing\Night-outing\src\xrCore\xrSyncronize.cpp
; File C:\Users\Mahito\Desktop\Night outing\Night-outing\src\xrCore\xrstring.h
; File C:\Users\Mahito\Desktop\Night outing\Night-outing\src\xrCore\Xr_ini.cpp
; File C:\Users\Mahito\Desktop\Night outing\Night-outing\src\xrCore\xrstring.h
; File C:\Users\Mahito\Desktop\Night outing\Night-outing\src\xrCore\Xr_ini.cpp
; File C:\Users\Mahito\Desktop\Night outing\Night-outing\src\xrCore\xrstring.cpp
; File C:\Users\Mahito\Desktop\Night outing\Night-outing\src\xrCore\xrSyncronize.cpp
; File C:\Users\Mahito\Desktop\Night outing\Night-outing\src\xrCore\_std_extensions.h
; File C:\Users\Mahito\Desktop\Night outing\Night-outing\src\xrCore\xrstring.cpp
; File C:\Users\Mahito\Desktop\Night outing\Night-outing\src\xrCore\xrSyncronize.cpp
; File C:\Users\Mahito\Desktop\Night outing\Night-outing\src\xrCore\xrstring.h
; File C:\Users\Mahito\Desktop\Night outing\Night-outing\src\xrCore\Xr_ini.cpp
; File C:\Users\Mahito\Desktop\Night outing\Night-outing\src\xrCore\xrstring.h
; File C:\Users\Mahito\Desktop\Night outing\Night-outing\src\xrCore\Xr_ini.cpp
; File C:\Users\Mahito\Desktop\Night outing\Night-outing\src\xrCore\xrstring.cpp
; File C:\Users\Mahito\Desktop\Night outing\Night-outing\src\xrCore\xrSyncronize.cpp
; File C:\Users\Mahito\Desktop\Night outing\Night-outing\src\xrCore\_std_extensions.h
; File C:\Users\Mahito\Desktop\Night outing\Night-outing\src\xrCore\xrstring.cpp
; File C:\Users\Mahito\Desktop\Night outing\Night-outing\src\xrCore\xrSyncronize.cpp
; File C:\Users\Mahito\Desktop\Night outing\Night-outing\src\xrCore\xrstring.h
; File C:\Users\Mahito\Desktop\Night outing\Night-outing\src\xrCore\Xr_ini.cpp
; File C:\Users\Mahito\Desktop\Night outing\Night-outing\src\xrCore\xrstring.h
; File C:\Users\Mahito\Desktop\Night outing\Night-outing\src\xrCore\Xr_ini.cpp
; File C:\Users\Mahito\Desktop\Night outing\Night-outing\src\xrCore\xrstring.h
; File C:\Users\Mahito\Desktop\Night outing\Night-outing\src\xrCore\Xr_ini.cpp
; File C:\Program Files\Microsoft Visual Studio\2022\Community\VC\Tools\MSVC\14.35.32215\include\vector
; File C:\Program Files\Microsoft Visual Studio\2022\Community\VC\Tools\MSVC\14.35.32215\include\xutility
; File C:\Program Files\Microsoft Visual Studio\2022\Community\VC\Tools\MSVC\14.35.32215\include\vector
; File C:\Program Files\Microsoft Visual Studio\2022\Community\VC\Tools\MSVC\14.35.32215\include\xutility
; File C:\Program Files\Microsoft Visual Studio\2022\Community\VC\Tools\MSVC\14.35.32215\include\vector
; File C:\Users\Mahito\Desktop\Night outing\Night-outing\src\xrCore\Xr_ini.cpp
; File C:\Users\Mahito\Desktop\Night outing\Night-outing\src\xrCore\xrstring.h
; File C:\Users\Mahito\Desktop\Night outing\Night-outing\src\xrCore\Xr_ini.cpp
; File C:\Users\Mahito\Desktop\Night outing\Night-outing\src\xrCore\xrstring.h
; File C:\Program Files\Microsoft Visual Studio\2022\Community\VC\Tools\MSVC\14.35.32215\include\vector
; File C:\Users\Mahito\Desktop\Night outing\Night-outing\src\xrCore\xrstring.h
; File C:\Program Files\Microsoft Visual Studio\2022\Community\VC\Tools\MSVC\14.35.32215\include\vector
; File C:\Users\Mahito\Desktop\Night outing\Night-outing\src\xrCore\xrstring.h
; File C:\Program Files\Microsoft Visual Studio\2022\Community\VC\Tools\MSVC\14.35.32215\include\xmemory
; File C:\Users\Mahito\Desktop\Night outing\Night-outing\src\xrCore\xrstring.h
; File C:\Program Files\Microsoft Visual Studio\2022\Community\VC\Tools\MSVC\14.35.32215\include\vector
; File C:\Users\Mahito\Desktop\Night outing\Night-outing\src\xrCore\xrstring.h
; File C:\Program Files\Microsoft Visual Studio\2022\Community\VC\Tools\MSVC\14.35.32215\include\vector
; File C:\Program Files\Microsoft Visual Studio\2022\Community\VC\Tools\MSVC\14.35.32215\include\xutility
; File C:\Users\Mahito\Desktop\Night outing\Night-outing\src\xrCore\xrstring.h
; File C:\Program Files\Microsoft Visual Studio\2022\Community\VC\Tools\MSVC\14.35.32215\include\xutility
; File C:\Users\Mahito\Desktop\Night outing\Night-outing\src\xrCore\xrstring.h
; File C:\Program Files\Microsoft Visual Studio\2022\Community\VC\Tools\MSVC\14.35.32215\include\xutility
; File C:\Program Files\Microsoft Visual Studio\2022\Community\VC\Tools\MSVC\14.35.32215\include\vector
; File C:\Users\Mahito\Desktop\Night outing\Night-outing\src\xrCore\Xr_ini.cpp
; File C:\Users\Mahito\Desktop\Night outing\Night-outing\src\xrCore\xrstring.h
; File C:\Users\Mahito\Desktop\Night outing\Night-outing\src\xrCore\Xr_ini.cpp
; File C:\Users\Mahito\Desktop\Night outing\Night-outing\src\xrCore\xrstring.h
; File C:\Users\Mahito\Desktop\Night outing\Night-outing\src\xrCore\Xr_ini.cpp
; File C:\Users\Mahito\Desktop\Night outing\Night-outing\src\xrCore\xrstring.h
; File C:\Users\Mahito\Desktop\Night outing\Night-outing\src\xrCore\Xr_ini.cpp
; File C:\Users\Mahito\Desktop\Night outing\Night-outing\src\xrCore\xrstring.h
; File C:\Program Files\Microsoft Visual Studio\2022\Community\VC\Tools\MSVC\14.35.32215\include\vector
; File C:\Program Files\Microsoft Visual Studio\2022\Community\VC\Tools\MSVC\14.35.32215\include\xutility
; File C:\Program Files\Microsoft Visual Studio\2022\Community\VC\Tools\MSVC\14.35.32215\include\vector
; File C:\Users\Mahito\Desktop\Night outing\Night-outing\src\xrCore\Xr_ini.cpp
; File C:\Users\Mahito\Desktop\Night outing\Night-outing\src\xrCore\xrstring.h
; File C:\Users\Mahito\Desktop\Night outing\Night-outing\src\xrCore\Xr_ini.cpp
; File C:\Program Files\Microsoft Visual Studio\2022\Community\VC\Tools\MSVC\14.35.32215\include\vector
; File C:\Users\Mahito\Desktop\Night outing\Night-outing\src\xrCore\xrstring.h
; File C:\Program Files\Microsoft Visual Studio\2022\Community\VC\Tools\MSVC\14.35.32215\include\vector
; File C:\Users\Mahito\Desktop\Night outing\Night-outing\src\xrCore\xrstring.h
; File C:\Program Files\Microsoft Visual Studio\2022\Community\VC\Tools\MSVC\14.35.32215\include\vector
; File C:\Users\Mahito\Desktop\Night outing\Night-outing\src\xrCore\xrstring.h
; File C:\Program Files\Microsoft Visual Studio\2022\Community\VC\Tools\MSVC\14.35.32215\include\vector
; File C:\Program Files\Microsoft Visual Studio\2022\Community\VC\Tools\MSVC\14.35.32215\include\xutility
; File C:\Users\Mahito\Desktop\Night outing\Night-outing\src\xrCore\xrstring.h
; File C:\Program Files\Microsoft Visual Studio\2022\Community\VC\Tools\MSVC\14.35.32215\include\xutility
; File C:\Users\Mahito\Desktop\Night outing\Night-outing\src\xrCore\xrstring.h
; File C:\Program Files\Microsoft Visual Studio\2022\Community\VC\Tools\MSVC\14.35.32215\include\xutility
; File C:\Users\Mahito\Desktop\Night outing\Night-outing\src\xrCore\xrstring.h
; File C:\Program Files\Microsoft Visual Studio\2022\Community\VC\Tools\MSVC\14.35.32215\include\vector
; File C:\Users\Mahito\Desktop\Night outing\Night-outing\src\xrCore\xrstring.h
; File C:\Users\Mahito\Desktop\Night outing\Night-outing\src\xrCore\FS.h
; File C:\Users\Mahito\Desktop\Night outing\Night-outing\src\xrCore\Xr_ini.cpp
; File C:\Users\Mahito\Desktop\Night outing\Night-outing\src\xrCore\xrstring.h
; File C:\Program Files\Microsoft Visual Studio\2022\Community\VC\Tools\MSVC\14.35.32215\include\xutility
; File C:\Program Files\Microsoft Visual Studio\2022\Community\VC\Tools\MSVC\14.35.32215\include\vector
; File C:\Program Files\Microsoft Visual Studio\2022\Community\VC\Tools\MSVC\14.35.32215\include\xutility
; File C:\Program Files\Microsoft Visual Studio\2022\Community\VC\Tools\MSVC\14.35.32215\include\vector
; File C:\Program Files\Microsoft Visual Studio\2022\Community\VC\Tools\MSVC\14.35.32215\include\xutility
; File C:\Users\Mahito\Desktop\Night outing\Night-outing\src\xrCore\_std_extensions.h
; File C:\Program Files\Microsoft Visual Studio\2022\Community\VC\Tools\MSVC\14.35.32215\include\xutility
; File C:\Users\Mahito\Desktop\Night outing\Night-outing\src\xrCore\xrstring.h
; File C:\Users\Mahito\Desktop\Night outing\Night-outing\src\xrCore\_std_extensions.h
; File C:\Program Files\Microsoft Visual Studio\2022\Community\VC\Tools\MSVC\14.35.32215\include\xmemory
; File C:\Users\Mahito\Desktop\Night outing\Night-outing\src\xrCore\_std_extensions.h
; File C:\Users\Mahito\Desktop\Night outing\Night-outing\src\xrCore\Xr_ini.cpp
; File C:\Program Files\Microsoft Visual Studio\2022\Community\VC\Tools\MSVC\14.35.32215\include\xutility
; File C:\Program Files\Microsoft Visual Studio\2022\Community\VC\Tools\MSVC\14.35.32215\include\vector
; File C:\Users\Mahito\Desktop\Night outing\Night-outing\src\xrCore\Xr_ini.cpp
; File C:\Users\Mahito\Desktop\Night outing\Night-outing\src\xrCore\xrstring.h
; File C:\Users\Mahito\Desktop\Night outing\Night-outing\src\xrCore\Xr_ini.cpp
; File C:\Program Files\Microsoft Visual Studio\2022\Community\VC\Tools\MSVC\14.35.32215\include\vector
; File C:\Program Files\Microsoft Visual Studio\2022\Community\VC\Tools\MSVC\14.35.32215\include\xutility
; File C:\Program Files\Microsoft Visual Studio\2022\Community\VC\Tools\MSVC\14.35.32215\include\vector
; File C:\Program Files\Microsoft Visual Studio\2022\Community\VC\Tools\MSVC\14.35.32215\include\xutility
; File C:\Program Files\Microsoft Visual Studio\2022\Community\VC\Tools\MSVC\14.35.32215\include\vector
; File C:\Program Files\Microsoft Visual Studio\2022\Community\VC\Tools\MSVC\14.35.32215\include\xutility
; File C:\Program Files\Microsoft Visual Studio\2022\Community\VC\Tools\MSVC\14.35.32215\include\vector
; File C:\Users\Mahito\Desktop\Night outing\Night-outing\src\xrCore\Xr_ini.cpp
_TEXT	SEGMENT
I$7 = 80
Current$1$ = 104
_Obj$8 = 112
_Obj$9 = 112
$T10 = 112
Current$ = 144
I$11 = 152
$T12 = 160
inc_name$13 = 176
fn$14 = 704
inc_path$15 = 1232
str$ = 1760
value_raw$16 = 5856
str_add_raw$17 = 9952
tmp$18 = 9952
tmp$19 = 9952
folder$20 = 9952
str2$ = 14048
this$ = 18224
F$ = 18232
path$ = 18240
allow_include_func$ = 18248
?Load@CInifile@@AEAAXPEAVIReader@@PEBDV?$FastDelegate1@PEBD_N@fastdelegate@@@Z PROC ; CInifile::Load

; 196  : {

$LN1374:
	mov	QWORD PTR [rsp+32], r9
	mov	QWORD PTR [rsp+24], r8
	mov	QWORD PTR [rsp+16], rdx
	mov	QWORD PTR [rsp+8], rcx
	push	rbp
	push	rsi
	push	rdi
	push	r12
	push	r14
	push	r15
	lea	rbp, QWORD PTR [rsp-17912]
	mov	eax, 18168				; 000046f8H
	call	__chkstk
	sub	rsp, rax

; 197  : 	R_ASSERT(F);

	lea	rax, OFFSET FLAT:??_C@_0P@PFFEEJAK@CInifile?3?3Load@
	mov	r15, r9
	lea	rcx, OFFSET FLAT:??_C@_0EI@OLNNDBE@C?3?2Users?2Mahito?2Desktop?2Night?5o@
	mov	rsi, r8
	mov	r14, rdx
	test	rdx, rdx
	jne	SHORT $LN2@Load
; File C:\Users\Mahito\Desktop\Night outing\Night-outing\src\xrCore\xrDebugNew.cpp

; 388  :     backend(e1, "assertion failed", 0, 0, file, line, function, ignore_always);

	mov	QWORD PTR [rsp+56], rax
	lea	r8, OFFSET FLAT:??_C@_0BB@DBHFCHNO@assertion?5failed@
	mov	DWORD PTR [rsp+48], 197			; 000000c5H
	lea	rdx, OFFSET FLAT:??_C@_01BIAFAFID@F@
	mov	QWORD PTR [rsp+40], rcx
	xor	r9d, r9d
	lea	rcx, OFFSET FLAT:?Debug@@3VxrDebug@@A	; Debug
	call	?backend@xrDebug@@QEAAXPEBD0000H0AEA_N@Z ; xrDebug::backend
$LN2@Load:
; File C:\Users\Mahito\Desktop\Night outing\Night-outing\src\xrCore\FS.h

; 291  : 	IC int			elapsed		()	const		{	return Size-Pos;		};

	mov	eax, DWORD PTR [r14+28]
; File C:\Users\Mahito\Desktop\Night outing\Night-outing\src\xrCore\Xr_ini.cpp

; 198  : 	Sect		*Current = 0;

	xor	edi, edi
; File C:\Users\Mahito\Desktop\Night outing\Night-outing\src\xrCore\FS.h

; 291  : 	IC int			elapsed		()	const		{	return Size-Pos;		};

	sub	eax, DWORD PTR [r14+24]
; File C:\Users\Mahito\Desktop\Night outing\Night-outing\src\xrCore\Xr_ini.cpp

; 198  : 	Sect		*Current = 0;

	mov	r12d, edi
	mov	QWORD PTR Current$1$[rsp], rdi
	mov	QWORD PTR Current$[rbp-256], rdi
; File C:\Users\Mahito\Desktop\Night outing\Night-outing\src\xrCore\FS.h

; 181  : 	IC BOOL			eof			()	const		{return impl().elapsed()<=0;	};

	test	eax, eax
; File C:\Users\Mahito\Desktop\Night outing\Night-outing\src\xrCore\Xr_ini.cpp

; 204  : 	while (!F->eof())

	jle	$LN239@Load
	mov	QWORD PTR [rsp+18160], rbx
	mov	QWORD PTR [rsp+18152], r13
	npad	5
$LL5@Load:

; 205  : 	{
; 206  : 		F->r_string		(str,sizeof(str));

	lea	rdx, QWORD PTR str$[rbp-256]
	mov	rcx, r14
	call	?r_string@IReader@@QEAAXPEADI@Z		; IReader::r_string
; File C:\Users\Mahito\Desktop\Night outing\Night-outing\src\xrCore\xr_trims.cpp

; 7    : 	while( *p && (u8(*p)<=u8(' ')) ) p++;

	movzx	ecx, BYTE PTR str$[rbp-256]
	lea	rax, QWORD PTR str$[rbp-256]
	test	cl, cl
	je	SHORT $LN180@Load
$LL175@Load:
	cmp	cl, 32					; 00000020H
	ja	SHORT $LN176@Load
	movzx	ecx, BYTE PTR [rax+1]
	inc	rax
	test	cl, cl
	jne	SHORT $LL175@Load
$LN176@Load:

; 8    :     if (p!=str){

	lea	rcx, QWORD PTR str$[rbp-256]
	cmp	rax, rcx
	je	SHORT $LN180@Load

; 9    :         for (LPSTR t=str; *p; t++,p++) *t=*p;

	movzx	edx, BYTE PTR [rax]
	lea	rcx, QWORD PTR str$[rbp-256]
	test	dl, dl
	je	SHORT $LN178@Load
	lea	r8, QWORD PTR str$[rbp-256]
	sub	rax, r8
	npad	11
$LL179@Load:
	mov	BYTE PTR [rcx], dl
	inc	rcx
	movzx	edx, BYTE PTR [rax+rcx]
	test	dl, dl
	jne	SHORT $LL179@Load
$LN178@Load:

; 10   :         *t = 0;

	mov	BYTE PTR [rcx], 0
$LN180@Load:
; File C:\Users\Mahito\Desktop\Night outing\Night-outing\src\xrCore\_std_extensions.h

; 186  : {	return (u32)strlen(S);			}

	lea	rcx, QWORD PTR str$[rbp-256]
	mov	rax, -1
	npad	2
$LL1336@Load:
	inc	rax
	cmp	BYTE PTR [rcx+rax], 0
	jne	SHORT $LL1336@Load
; File C:\Users\Mahito\Desktop\Night outing\Night-outing\src\xrCore\xr_trims.cpp

; 17   : 	LPSTR p 	= str+xr_strlen(str);

	mov	eax, eax
	lea	rcx, QWORD PTR str$[rbp-256]
	add	rcx, rax

; 18   : 	while( (p!=str) && (u8(*p)<=u8(' ')) ) p--;

	test	rax, rax
	je	SHORT $LN1344@Load
	npad	6
$LL183@Load:
	cmp	BYTE PTR [rcx], 32			; 00000020H
	ja	SHORT $LN1344@Load
	dec	rcx
	lea	rax, QWORD PTR str$[rbp-256]
	cmp	rcx, rax
	jne	SHORT $LL183@Load
$LN1344@Load:

; 19   :     *(++p) 		= 0;

	mov	BYTE PTR [rcx+1], 0
; File C:\Program Files (x86)\Windows Kits\10\Include\10.0.26100.0\ucrt\string.h

; 502  :         return const_cast<char*>(strchr(static_cast<char const*>(_String), _Ch));

	mov	edx, 59					; 0000003bH
	lea	rcx, QWORD PTR str$[rbp-256]
	call	QWORD PTR __imp_strchr
	mov	edx, 47					; 0000002fH
	lea	rcx, QWORD PTR str$[rbp-256]
	mov	rbx, rax
	call	QWORD PTR __imp_strchr
; File C:\Users\Mahito\Desktop\Night outing\Night-outing\src\xrCore\Xr_ini.cpp

; 211  : 		if(comm_1 && (*(comm_1+1)=='/') && ((!comm) || (comm && (comm_1<comm) )) )

	test	rax, rax
	je	SHORT $LN34@Load
	cmp	BYTE PTR [rax+1], 47			; 0000002fH
	jne	SHORT $LN34@Load
	test	rbx, rbx
	je	SHORT $LN35@Load
	cmp	rax, rbx
	jae	SHORT $LN34@Load
$LN35@Load:

; 212  : 		{
; 213  : 			comm = comm_1;

	mov	rbx, rax
	mov	r13, rdi
; File C:\Users\Mahito\Desktop\Night outing\Night-outing\src\xrCore\xrstring.h

; 64   : 	void				_set		(shared_str const &rhs)			{	str_value* v = rhs.p_; if (0!=v) v->dwReference++; _dec(); p_ = v;							}

	jmp	SHORT $LN1310@Load
$LN34@Load:
; File C:\Users\Mahito\Desktop\Night outing\Night-outing\src\xrCore\Xr_ini.cpp

; 216  : 		LPSTR comment	= 0;

	mov	r13, rdi

; 217  : 
; 218  : 		if (comm) 

	test	rbx, rbx
	je	SHORT $LN39@Load
$LN1310@Load:
; File C:\Program Files (x86)\Windows Kits\10\Include\10.0.26100.0\ucrt\string.h

; 502  :         return const_cast<char*>(strchr(static_cast<char const*>(_String), _Ch));

	mov	edx, 34					; 00000022H
	lea	rcx, QWORD PTR str$[rbp-256]
	call	QWORD PTR __imp_strchr
; File C:\Users\Mahito\Desktop\Night outing\Night-outing\src\xrCore\Xr_ini.cpp

; 225  : 			if(q1 && q1<comm)

	test	rax, rax
	je	SHORT $LN1299@Load
	cmp	rax, rbx
	jae	SHORT $LN1299@Load

; 226  : 			{
; 227  : 				LPCSTR q2 = strchr(++q1,quot);

	lea	rcx, QWORD PTR [rax+1]
	mov	edx, 34					; 00000022H
	call	QWORD PTR __imp_strchr

; 228  : 				if(q2 && q2>comm)

	test	rax, rax
	je	SHORT $LN1299@Load
	cmp	rax, rbx
	ja	SHORT $LN39@Load
$LN1299@Load:

; 229  : 					in_quot = true;
; 230  : 			}
; 231  : 
; 232  : 			if(!in_quot)
; 233  : 			{
; 234  : 				*comm		= 0;

	mov	BYTE PTR [rbx], 0

; 235  : 
; 236  : 				comment		= comm+1;

	lea	r13, QWORD PTR [rbx+1]
$LN39@Load:

; 242  :         if (str[0] && (str[0]=='#') && strstr(str,"#include")) //handle includes

	movzx	eax, BYTE PTR str$[rbp-256]
	test	al, al
	je	$LN48@Load
	cmp	al, 35					; 00000023H
	jne	$LN40@Load
; File C:\Program Files (x86)\Windows Kits\10\Include\10.0.26100.0\ucrt\string.h

; 520  :         return const_cast<char*>(strstr(static_cast<char const*>(_String), _SubString));

	lea	rdx, OFFSET FLAT:??_C@_08GPLAJCBH@?$CDinclude@
	lea	rcx, QWORD PTR str$[rbp-256]
	call	QWORD PTR __imp_strstr
; File C:\Users\Mahito\Desktop\Night outing\Night-outing\src\xrCore\Xr_ini.cpp

; 242  :         if (str[0] && (str[0]=='#') && strstr(str,"#include")) //handle includes

	test	rax, rax
	je	$LN1337@Load

; 245  : 			R_ASSERT		(path&&path[0]);

	test	rsi, rsi
	je	SHORT $LN1264@Load
	cmp	BYTE PTR [rsi], 0
	jne	SHORT $LN1358@Load
$LN1264@Load:
; File C:\Users\Mahito\Desktop\Night outing\Night-outing\src\xrCore\xrDebugNew.cpp

; 388  :     backend(e1, "assertion failed", 0, 0, file, line, function, ignore_always);

	lea	rax, OFFSET FLAT:??_C@_0EI@OLNNDBE@C?3?2Users?2Mahito?2Desktop?2Night?5o@
	xor	r9d, r9d
	lea	r13, OFFSET FLAT:??_C@_0P@PFFEEJAK@CInifile?3?3Load@
	mov	QWORD PTR [rsp+56], r13
	lea	r8, OFFSET FLAT:??_C@_0BB@DBHFCHNO@assertion?5failed@
	mov	DWORD PTR [rsp+48], 245			; 000000f5H
	lea	rdx, OFFSET FLAT:??_C@_0O@OGKPJIFO@path?$CG?$CGpath?$FL0?$FN@
	lea	rcx, OFFSET FLAT:?Debug@@3VxrDebug@@A	; Debug
	mov	QWORD PTR [rsp+40], rax
	call	?backend@xrDebug@@QEAAXPEBD0000H0AEA_N@Z ; xrDebug::backend
; File C:\Users\Mahito\Desktop\Night outing\Night-outing\src\xrCore\Xr_ini.cpp

; 245  : 			R_ASSERT		(path&&path[0]);

	jmp	SHORT $LN7@Load
$LN1358@Load:
	lea	r13, OFFSET FLAT:??_C@_0P@PFFEEJAK@CInifile?3?3Load@
$LN7@Load:
; File C:\Users\Mahito\Desktop\Night outing\Night-outing\src\xrCore\xr_trims.cpp

; 32   : 	LPCSTR	res			= src;

	lea	rbx, QWORD PTR str$[rbp-256]
	npad	5
$LL767@Load:

; 33   : 	u32		p			= 0;
; 34   : 	while( (p<pos) && (0!=(res=strchr(res,separator))) )

	mov	edx, 34					; 00000022H
	mov	rcx, rbx
	call	QWORD PTR __imp_strchr
	mov	rbx, rax
	test	rax, rax
	je	SHORT $LN768@Load

; 35   : 	{
; 36   : 		res		++;

	inc	rbx

; 37   : 		p		++;

	inc	edi
	cmp	edi, 1
	jb	SHORT $LL767@Load
$LN768@Load:

; 75   : 	if( ptr )	_CopyVal	( ptr, dst, separator );

	test	rbx, rbx
	je	SHORT $LN762@Load

; 46   : 	p			= strchr	( src, separator );

	mov	edx, 34					; 00000022H
	mov	rcx, rbx
	call	QWORD PTR __imp_strchr
	mov	rdi, rax

; 47   : 	n			= (p>0) ? (p-src) : xr_strlen(src);

	test	rax, rax
	je	SHORT $LN772@Load
	sub	rdi, rbx
	jmp	SHORT $LN773@Load
$LN772@Load:
; File C:\Users\Mahito\Desktop\Night outing\Night-outing\src\xrCore\_std_extensions.h

; 186  : {	return (u32)strlen(S);			}

	mov	rax, -1
$LL1335@Load:
	inc	rax
	cmp	BYTE PTR [rbx+rax], 0
	jne	SHORT $LL1335@Load
	mov	edi, eax
$LN773@Load:
; File C:\Users\Mahito\Desktop\Night outing\Night-outing\src\xrCore\xr_trims.cpp

; 48   : 	strncpy		( dst, src, n );

	mov	r8, rdi
	lea	rcx, QWORD PTR inc_name$13[rbp-256]
	mov	rdx, rbx
	call	QWORD PTR __imp_strncpy

; 49   : 	dst[n]		= 0;

	mov	BYTE PTR inc_name$13[rbp+rdi-256], 0

; 75   : 	if( ptr )	_CopyVal	( ptr, dst, separator );

	jmp	SHORT $LN763@Load
$LN762@Load:
; File C:\Users\Mahito\Desktop\Night outing\Night-outing\src\xrCore\_std_extensions.h

; 229  : 	return						strncpy_s( destination, destination_size, source, destination_size );

	mov	r9d, 520				; 00000208H
	lea	r8, OFFSET FLAT:??_C@_00CNPNBAHC@@
	mov	edx, r9d
	lea	rcx, QWORD PTR inc_name$13[rbp-256]
	call	QWORD PTR __imp_strncpy_s
$LN763@Load:
; File C:\Users\Mahito\Desktop\Night outing\Night-outing\src\xrCore\xr_trims.cpp

; 7    : 	while( *p && (u8(*p)<=u8(' ')) ) p++;

	movzx	ecx, BYTE PTR inc_name$13[rbp-256]
	lea	rax, QWORD PTR inc_name$13[rbp-256]
	test	cl, cl
	je	SHORT $LN786@Load
	npad	1
$LL781@Load:
	cmp	cl, 32					; 00000020H
	ja	SHORT $LN782@Load
	movzx	ecx, BYTE PTR [rax+1]
	inc	rax
	test	cl, cl
	jne	SHORT $LL781@Load
$LN782@Load:

; 8    :     if (p!=str){

	lea	rcx, QWORD PTR inc_name$13[rbp-256]
	cmp	rax, rcx
	je	SHORT $LN786@Load

; 9    :         for (LPSTR t=str; *p; t++,p++) *t=*p;

	movzx	edx, BYTE PTR [rax]
	lea	rcx, QWORD PTR inc_name$13[rbp-256]
	test	dl, dl
	je	SHORT $LN784@Load
	lea	r8, QWORD PTR inc_name$13[rbp-256]
	sub	rax, r8
	npad	5
$LL785@Load:
	mov	BYTE PTR [rcx], dl
	inc	rcx
	movzx	edx, BYTE PTR [rax+rcx]
	test	dl, dl
	jne	SHORT $LL785@Load
$LN784@Load:

; 10   :         *t = 0;

	mov	BYTE PTR [rcx], 0
$LN786@Load:
; File C:\Users\Mahito\Desktop\Night outing\Night-outing\src\xrCore\_std_extensions.h

; 186  : {	return (u32)strlen(S);			}

	lea	rcx, QWORD PTR inc_name$13[rbp-256]
	mov	rax, -1
	npad	5
$LL1334@Load:
	inc	rax
	cmp	BYTE PTR [rcx+rax], 0
	jne	SHORT $LL1334@Load
; File C:\Users\Mahito\Desktop\Night outing\Night-outing\src\xrCore\xr_trims.cpp

; 17   : 	LPSTR p 	= str+xr_strlen(str);

	mov	eax, eax
	lea	rcx, QWORD PTR inc_name$13[rbp-256]
	add	rcx, rax

; 18   : 	while( (p!=str) && (u8(*p)<=u8(' ')) ) p--;

	test	rax, rax
	je	SHORT $LN1345@Load
$LL789@Load:
	cmp	BYTE PTR [rcx], 32			; 00000020H
	ja	SHORT $LN1345@Load
	dec	rcx
	lea	rax, QWORD PTR inc_name$13[rbp-256]
	cmp	rcx, rax
	jne	SHORT $LL789@Load
$LN1345@Load:

; 19   :     *(++p) 		= 0;

	mov	BYTE PTR [rcx+1], 0
; File C:\Users\Mahito\Desktop\Night outing\Night-outing\src\xrCore\string_concatenations.cpp

; 129  : 	LPSTR			i = dest;

	lea	rcx, QWORD PTR fn$14[rbp-256]

; 132  : 	for (j = S1; *j && i < e; ++i, ++j)

	cmp	BYTE PTR [rsi], 0
	je	SHORT $LN1114@Load
; File C:\Users\Mahito\Desktop\Night outing\Night-outing\src\xrCore\xr_trims.cpp

; 19   :     *(++p) 		= 0;

	lea	rax, QWORD PTR fn$14[rbp-256]
	mov	rdx, rsi
	sub	rdx, rax
	npad	11
$LL1097@Load:
; File C:\Users\Mahito\Desktop\Night outing\Night-outing\src\xrCore\string_concatenations.cpp

; 132  : 	for (j = S1; *j && i < e; ++i, ++j)

	lea	rax, QWORD PTR fn$14[rbp+264]
	cmp	rcx, rax
	jae	SHORT $LN1114@Load

; 133  : 		*i			= *j;

	movzx	eax, BYTE PTR [rcx+rdx]
	mov	BYTE PTR [rcx], al
	inc	rcx
	cmp	BYTE PTR [rcx+rdx], 0
	jne	SHORT $LL1097@Load
$LN1114@Load:

; 134  : 
; 135  : 	strconcat_error::process	( i, e, 0, strings );
; 136  : 
; 137  : 	for (j = S2; *j && i < e; ++i, ++j)

	lea	rax, QWORD PTR fn$14[rbp+264]
	cmp	rcx, rax
	lea	rdx, QWORD PTR fn$14[rbp+263]
	cmovne	rdx, rcx
	cmp	BYTE PTR inc_name$13[rbp-256], 0
	lea	rcx, QWORD PTR inc_name$13[rbp-256]
	je	SHORT $LN1105@Load
	npad	6
$LL1100@Load:
	lea	rax, QWORD PTR fn$14[rbp+264]
	cmp	rdx, rax
	jae	SHORT $LN1105@Load

; 138  : 		*i			= *j;

	movzx	eax, BYTE PTR [rcx]
	inc	rcx
	mov	BYTE PTR [rdx], al
	inc	rdx
	cmp	BYTE PTR [rcx], 0
	jne	SHORT $LL1100@Load
$LN1105@Load:

; 142  : 	*i				= 0;

	lea	rcx, QWORD PTR fn$14[rbp+264]
	cmp	rdx, rcx
	lea	rax, QWORD PTR fn$14[rbp+263]
; File C:\Users\Mahito\Desktop\Night outing\Night-outing\src\xrCore\Xr_ini.cpp

; 250  : 				_splitpath	(fn,inc_path,folder, 0, 0 );

	lea	r8, QWORD PTR folder$20[rbp-256]
; File C:\Users\Mahito\Desktop\Night outing\Night-outing\src\xrCore\string_concatenations.cpp

; 142  : 	*i				= 0;

	cmovne	rax, rdx
; File C:\Users\Mahito\Desktop\Night outing\Night-outing\src\xrCore\Xr_ini.cpp

; 250  : 				_splitpath	(fn,inc_path,folder, 0, 0 );

	lea	rcx, QWORD PTR fn$14[rbp-256]
	xor	edi, edi
	lea	rdx, QWORD PTR inc_path$15[rbp-256]
	xor	r9d, r9d
	mov	QWORD PTR [rsp+32], rdi
; File C:\Users\Mahito\Desktop\Night outing\Night-outing\src\xrCore\string_concatenations.cpp

; 142  : 	*i				= 0;

	mov	BYTE PTR [rax], 0
; File C:\Users\Mahito\Desktop\Night outing\Night-outing\src\xrCore\Xr_ini.cpp

; 250  : 				_splitpath	(fn,inc_path,folder, 0, 0 );

	call	QWORD PTR __imp__splitpath
; File C:\Users\Mahito\Desktop\Night outing\Night-outing\src\xrCore\_std_extensions.h

; 186  : {	return (u32)strlen(S);			}

	lea	rcx, QWORD PTR inc_path$15[rbp-256]
	mov	rax, -1
$LL1333@Load:
	inc	rax
	cmp	BYTE PTR [rcx+rax], dil
	jne	SHORT $LL1333@Load

; 235  : 	LPSTR i						= destination + destination_length;

	mov	eax, eax
	lea	rcx, QWORD PTR inc_path$15[rbp-256]
	add	rcx, rax

; 236  : 	LPSTR const e				= destination + buffer_size - 1;
; 237  : 	if ( i > e )

	lea	rax, QWORD PTR inc_path$15[rbp+263]
	cmp	rcx, rax
	ja	SHORT $LN1126@Load

; 238  : 		return					0;
; 239  : 
; 240  : 	for ( LPCSTR j = source; *j && (i != e); ++i, ++j )

	lea	rdx, QWORD PTR folder$20[rbp-256]
	cmp	BYTE PTR folder$20[rbp-256], dil
	je	SHORT $LN1348@Load
	npad	8
$LL1129@Load:
	lea	rax, QWORD PTR inc_path$15[rbp+263]
	cmp	rcx, rax
	je	SHORT $LN1348@Load

; 241  : 		*i						= *j;

	movzx	eax, BYTE PTR [rdx]
	inc	rdx
	mov	BYTE PTR [rcx], al
	inc	rcx
	cmp	BYTE PTR [rdx], dil
	jne	SHORT $LL1129@Load
$LN1348@Load:

; 242  : 
; 243  : 	*i							= 0;

	mov	BYTE PTR [rcx], dil
$LN1126@Load:
; File C:\Users\Mahito\Desktop\Night outing\Night-outing\src\xrCore\fastdelegate.h

; 624  : 	{ return m_pthis==0 && m_pFunction==0; }

	mov	rcx, QWORD PTR [r15]
	lea	rbx, QWORD PTR [r15+8]
	test	rcx, rcx
	jne	SHORT $LN1265@Load
	cmp	QWORD PTR [rbx], rdi
	je	SHORT $LN46@Load
$LN1265@Load:

; 1000 : 						return (m_Closure.GetClosureThis()->*(m_Closure.GetClosureMemPtr()))(p1); }

	mov	rax, QWORD PTR [rbx]
	lea	rdx, QWORD PTR fn$14[rbp-256]
	call	rax
; File C:\Users\Mahito\Desktop\Night outing\Night-outing\src\xrCore\Xr_ini.cpp

; 253  : 				if (!allow_include_func || allow_include_func(fn))

	test	al, al
	je	$LN1353@Load
$LN46@Load:
; File C:\Users\Mahito\Desktop\Night outing\Night-outing\src\xrCore\LocatorAPI.cpp

; 1297 : 	return					(r_open_impl<IReader>(path,_fname));

	lea	r8, QWORD PTR fn$14[rbp-256]
	xor	edx, edx
	xor	ecx, ecx
	call	??$r_open_impl@VIReader@@@CLocatorAPI@@AEAAPEAVIReader@@PEBD0@Z ; CLocatorAPI::r_open_impl<IReader>
	mov	QWORD PTR I$11[rbp-256], rax
	mov	rdi, rax
; File C:\Users\Mahito\Desktop\Night outing\Night-outing\src\xrCore\Xr_ini.cpp

; 256  : 					IReader* I 	= FS.r_open(fn); R_ASSERT3(I,"Can't find include file:", inc_name);

	test	rax, rax
	jne	SHORT $LN10@Load
; File C:\Users\Mahito\Desktop\Night outing\Night-outing\src\xrCore\xrDebugNew.cpp

; 406  :     backend(e1, e2, e3, 0, file, line, function, ignore_always);

	mov	QWORD PTR [rsp+56], r13
	lea	rax, OFFSET FLAT:??_C@_0EI@OLNNDBE@C?3?2Users?2Mahito?2Desktop?2Night?5o@
	mov	DWORD PTR [rsp+48], 256			; 00000100H
	lea	r9, QWORD PTR inc_name$13[rbp-256]
	lea	r8, OFFSET FLAT:??_C@_0BJ@JNOOHJGB@Can?8t?5find?5include?5file?3@
	mov	QWORD PTR [rsp+40], rax
	lea	rdx, OFFSET FLAT:??_C@_01JPJNBJEM@I@
	lea	rcx, OFFSET FLAT:?Debug@@3VxrDebug@@A	; Debug
	call	?backend@xrDebug@@QEAAXPEBD0000H0AEA_N@Z ; xrDebug::backend
$LN10@Load:
; File C:\Users\Mahito\Desktop\Night outing\Night-outing\src\xrCore\fastdelegate.h

; 646  : 		m_pFunction = right.m_pFunction;

	mov	rax, QWORD PTR [rbx]
; File C:\Users\Mahito\Desktop\Night outing\Night-outing\src\xrCore\Xr_ini.cpp

; 257  :             		Load		(I,inc_path

	lea	r9, QWORD PTR $T12[rbp-256]
	mov	r13, QWORD PTR this$[rbp-256]
	lea	r8, QWORD PTR inc_path$15[rbp-256]
; File C:\Users\Mahito\Desktop\Night outing\Night-outing\src\xrCore\fastdelegate.h

; 646  : 		m_pFunction = right.m_pFunction;

	mov	QWORD PTR $T12[rbp-248], rax
; File C:\Users\Mahito\Desktop\Night outing\Night-outing\src\xrCore\Xr_ini.cpp

; 257  :             		Load		(I,inc_path

	mov	rdx, rdi
; File C:\Users\Mahito\Desktop\Night outing\Night-outing\src\xrCore\fastdelegate.h

; 647  : 		m_pthis = right.m_pthis;

	mov	rax, QWORD PTR [r15]
; File C:\Users\Mahito\Desktop\Night outing\Night-outing\src\xrCore\Xr_ini.cpp

; 257  :             		Load		(I,inc_path

	mov	rcx, r13
; File C:\Users\Mahito\Desktop\Night outing\Night-outing\src\xrCore\fastdelegate.h

; 647  : 		m_pthis = right.m_pthis;

	mov	QWORD PTR $T12[rbp-256], rax
; File C:\Users\Mahito\Desktop\Night outing\Night-outing\src\xrCore\Xr_ini.cpp

; 257  :             		Load		(I,inc_path

	call	?Load@CInifile@@AEAAXPEAVIReader@@PEBDV?$FastDelegate1@PEBD_N@fastdelegate@@@Z ; CInifile::Load

; 258  :                     #ifndef _EDITOR
; 259  :                     , allow_include_func
; 260  :                     #endif
; 261  :                     );
; 262  : 					FS.r_close	(I);

	lea	rdx, QWORD PTR I$11[rbp-256]
	call	?r_close@CLocatorAPI@@QEAAXAEAPEAVIReader@@@Z ; CLocatorAPI::r_close

; 263  : 				}
; 264  :             }
; 265  :         } 

	xor	edi, edi
	jmp	$LN369@Load
$LN1337@Load:

; 242  :         if (str[0] && (str[0]=='#') && strstr(str,"#include")) //handle includes

	movzx	eax, BYTE PTR str$[rbp-256]
$LN40@Load:

; 266  : 		else if (str[0] && (str[0]=='[')) //new section ?

	cmp	al, 91					; 0000005bH
	jne	$LN48@Load

; 269  : 			if (Current)

	mov	r13, QWORD PTR this$[rbp-256]
	test	r12, r12
	je	$LN1354@Load
; File C:\Users\Mahito\Desktop\Night outing\Night-outing\src\xrCore\xrstring.h

; 80   : 	str_c				operator*	() const						{	return p_?p_->value:0;							}

	mov	rsi, QWORD PTR [r12]
; File C:\Program Files\Microsoft Visual Studio\2022\Community\VC\Tools\MSVC\14.35.32215\include\vector

; 1859 :         return iterator(_My_data._Myfirst, _STD addressof(_My_data));

	lea	rdi, QWORD PTR [r13+536]
; File C:\Program Files\Microsoft Visual Studio\2022\Community\VC\Tools\MSVC\14.35.32215\include\xutility

; 1207 :         return _Last - _First; // assume the iterator will do debug checking

	mov	r14, QWORD PTR [r13+544]
; File C:\Program Files\Microsoft Visual Studio\2022\Community\VC\Tools\MSVC\14.35.32215\include\vector

; 1859 :         return iterator(_My_data._Myfirst, _STD addressof(_My_data));

	test	rsi, rsi
; File C:\Program Files\Microsoft Visual Studio\2022\Community\VC\Tools\MSVC\14.35.32215\include\xutility

; 6713 :     auto _UFirst                = _Get_unwrapped(_First);

	mov	rbx, QWORD PTR [rdi]
; File C:\Program Files\Microsoft Visual Studio\2022\Community\VC\Tools\MSVC\14.35.32215\include\vector

; 1859 :         return iterator(_My_data._Myfirst, _STD addressof(_My_data));

	mov	r15d, 0
; File C:\Program Files\Microsoft Visual Studio\2022\Community\VC\Tools\MSVC\14.35.32215\include\xutility

; 1207 :         return _Last - _First; // assume the iterator will do debug checking

	mov	r8, r14
; File C:\Program Files\Microsoft Visual Studio\2022\Community\VC\Tools\MSVC\14.35.32215\include\vector

; 1859 :         return iterator(_My_data._Myfirst, _STD addressof(_My_data));

	lea	r11, QWORD PTR [rsi+20]
	cmove	r11, r15
; File C:\Program Files\Microsoft Visual Studio\2022\Community\VC\Tools\MSVC\14.35.32215\include\xutility

; 1207 :         return _Last - _First; // assume the iterator will do debug checking

	sub	r8, rbx
	sar	r8, 3

; 6716 :     while (0 < _Count) { // divide and conquer, find half that contains answer

	test	r8, r8
	jle	SHORT $LN812@Load
	npad	10
$LL811@Load:

; 6717 :         const _Iter_diff_t<_FwdIt> _Count2 = _Count / 2;

	mov	r9, r8
; File C:\Users\Mahito\Desktop\Night outing\Night-outing\src\xrCore\_std_extensions.h

; 195  : {	return (int)strcmp(S1,S2);  }

	mov	rdx, r11
; File C:\Program Files\Microsoft Visual Studio\2022\Community\VC\Tools\MSVC\14.35.32215\include\xutility

; 6717 :         const _Iter_diff_t<_FwdIt> _Count2 = _Count / 2;

	shr	r9, 1

; 6719 :         if (_Pred(*_UMid, _Val)) { // try top half

	mov	rax, QWORD PTR [rbx+r9*8]

; 1179 :         _Where += _Off;

	lea	r10, QWORD PTR [rbx+r9*8]
; File C:\Users\Mahito\Desktop\Night outing\Night-outing\src\xrCore\xrstring.h

; 80   : 	str_c				operator*	() const						{	return p_?p_->value:0;							}

	mov	rcx, QWORD PTR [rax]
; File C:\Users\Mahito\Desktop\Night outing\Night-outing\src\xrCore\_std_extensions.h

; 195  : {	return (int)strcmp(S1,S2);  }

	test	rcx, rcx
	lea	rax, QWORD PTR [rcx+20]
	cmove	rax, r15
	sub	rdx, rax
$LL1330@Load:
	movzx	ecx, BYTE PTR [rax]
	cmp	cl, BYTE PTR [rax+rdx]
	jne	SHORT $LN1332@Load
	inc	rax
	test	cl, cl
	jne	SHORT $LL1330@Load
	mov	eax, r15d
	jmp	SHORT $LN1331@Load
$LN1332@Load:
	sbb	eax, eax
	or	eax, 1
$LN1331@Load:
; File C:\Users\Mahito\Desktop\Night outing\Night-outing\src\xrCore\Xr_ini.cpp

; 18   : 	return xr_strcmp(*x->Name,val)<0;

	shr	eax, 31
; File C:\Program Files\Microsoft Visual Studio\2022\Community\VC\Tools\MSVC\14.35.32215\include\xutility

; 6719 :         if (_Pred(*_UMid, _Val)) { // try top half

	test	al, al
	je	SHORT $LN813@Load

; 6720 :             _UFirst = _Next_iter(_UMid);
; 6721 :             _Count -= _Count2 + 1;

	mov	rax, -1
	lea	rbx, QWORD PTR [r10+8]
	sub	rax, r9
	add	r8, rax

; 6722 :         } else {

	jmp	SHORT $LN814@Load
$LN813@Load:

; 6723 :             _Count = _Count2;

	mov	r8, r9
$LN814@Load:

; 6714 :     _Iter_diff_t<_FwdIt> _Count = _STD distance(_UFirst, _Get_unwrapped(_Last));
; 6715 : 
; 6716 :     while (0 < _Count) { // divide and conquer, find half that contains answer

	test	r8, r8
	jg	SHORT $LL811@Load
$LN812@Load:
; File C:\Program Files\Microsoft Visual Studio\2022\Community\VC\Tools\MSVC\14.35.32215\include\vector

; 41   :     _CONSTEXPR20 _Vector_const_iterator(_Tptr _Parg, const _Container_base* _Pvector) noexcept : _Ptr(_Parg) {

	cmp	rbx, r14
; File C:\Users\Mahito\Desktop\Night outing\Night-outing\src\xrCore\Xr_ini.cpp

; 273  : 				if ((I!=DATA.end())&&((*I)->Name==Current->Name))

	je	SHORT $LN51@Load
	mov	rax, QWORD PTR [rbx]
; File C:\Users\Mahito\Desktop\Night outing\Night-outing\src\xrCore\xrstring.h

; 109  : IC bool operator	==	(shared_str const & a, shared_str const & b)		{ return a._get() == b._get();					}

	cmp	QWORD PTR [rax], rsi
; File C:\Users\Mahito\Desktop\Night outing\Night-outing\src\xrCore\Xr_ini.cpp

; 273  : 				if ((I!=DATA.end())&&((*I)->Name==Current->Name))

	jne	SHORT $LN51@Load

; 274  : 					Debug.fatal(DEBUG_INFO,"Duplicate section '%s' found.",*Current->Name);

	lea	rax, OFFSET FLAT:??_C@_0BO@PADAFPII@Duplicate?5section?5?8?$CFs?8?5found?4@
	mov	QWORD PTR [rsp+40], r11
	lea	r9, OFFSET FLAT:??_C@_0P@PFFEEJAK@CInifile?3?3Load@
	mov	QWORD PTR [rsp+32], rax
	mov	r8d, 274				; 00000112H
	lea	rdx, OFFSET FLAT:??_C@_0EI@OLNNDBE@C?3?2Users?2Mahito?2Desktop?2Night?5o@
	lea	rcx, OFFSET FLAT:?Debug@@3VxrDebug@@A	; Debug
	call	?fatal@xrDebug@@QEAAXPEBDH00ZZ		; xrDebug::fatal
$LN51@Load:
; File C:\Program Files\Microsoft Visual Studio\2022\Community\VC\Tools\MSVC\14.35.32215\include\vector

; 1036 :         const pointer _Oldlast  = _My_data._Mylast;

	mov	rcx, QWORD PTR [rdi+8]

; 1037 : #if _ITERATOR_DEBUG_LEVEL == 2
; 1038 :         _STL_VERIFY(
; 1039 :             _Where._Getcont() == _STD addressof(_My_data) && _Whereptr >= _My_data._Myfirst && _Oldlast >= _Whereptr,
; 1040 :             "vector emplace iterator outside range");
; 1041 : #endif // _ITERATOR_DEBUG_LEVEL == 2
; 1042 : 
; 1043 :         if (_Oldlast != _My_data._Myend) {

	cmp	rcx, QWORD PTR [rdi+16]
	je	SHORT $LN841@Load

; 1044 :             if (_Whereptr == _Oldlast) { // at back, provide strong guarantee

	cmp	rbx, rcx
	jne	SHORT $LN842@Load

; 863  :             _Alty_traits::construct(_Getal(), _Unfancy(_Mylast), _STD forward<_Valty>(_Val)...);

	mov	QWORD PTR [rcx], r12

; 869  :         ++_Mylast;

	add	QWORD PTR [rdi+8], 8

; 1046 :             } else {

	jmp	SHORT $LN840@Load
$LN842@Load:

; 1052 :                 _Alty_traits::construct(_Al, _Unfancy(_Oldlast), _STD move(_Oldlast[-1]));

	mov	rax, QWORD PTR [rcx-8]
; File C:\Program Files\Microsoft Visual Studio\2022\Community\VC\Tools\MSVC\14.35.32215\include\xutility

; 4546 :     const auto _Count           = static_cast<size_t>(_Last_ch - _First_ch);

	mov	r8, rcx
; File C:\Program Files\Microsoft Visual Studio\2022\Community\VC\Tools\MSVC\14.35.32215\include\vector

; 1052 :                 _Alty_traits::construct(_Al, _Unfancy(_Oldlast), _STD move(_Oldlast[-1]));

	mov	QWORD PTR [rcx], rax
; File C:\Program Files\Microsoft Visual Studio\2022\Community\VC\Tools\MSVC\14.35.32215\include\xutility

; 4546 :     const auto _Count           = static_cast<size_t>(_Last_ch - _First_ch);

	sub	r8, rbx
; File C:\Program Files\Microsoft Visual Studio\2022\Community\VC\Tools\MSVC\14.35.32215\include\vector

; 1054 :                 ++_My_data._Mylast;

	add	QWORD PTR [rdi+8], 8
; File C:\Program Files\Microsoft Visual Studio\2022\Community\VC\Tools\MSVC\14.35.32215\include\xutility

; 4546 :     const auto _Count           = static_cast<size_t>(_Last_ch - _First_ch);

	sub	r8, 8

; 4547 :     auto _Result                = _CSTD memmove(_Dest_ch - _Count, _First_ch, _Count);

	sub	rcx, r8
	mov	rdx, rbx
	call	memmove
; File C:\Program Files\Microsoft Visual Studio\2022\Community\VC\Tools\MSVC\14.35.32215\include\vector

; 1056 :                 *_Whereptr = _STD move(_Obj._Get_value());

	mov	QWORD PTR [rbx], r12

; 1057 :             }
; 1058 : 
; 1059 :             return _Make_iterator(_Whereptr);

	jmp	SHORT $LN840@Load
$LN841@Load:

; 1062 :         return _Make_iterator(_Emplace_reallocate(_Whereptr, _STD forward<_Valty>(_Val)...));

	lea	r8, QWORD PTR Current$[rbp-256]
	mov	rdx, rbx
	mov	rcx, rdi
	call	??$_Emplace_reallocate@AEBQEAUSect@CInifile@@@?$vector@PEAUSect@CInifile@@V?$xalloc@PEAUSect@CInifile@@@@@std@@AEAAPEAPEAUSect@CInifile@@QEAPEAU23@AEBQEAU23@@Z ; std::vector<CInifile::Sect *,xalloc<CInifile::Sect *> >::_Emplace_reallocate<CInifile::Sect * const &>
; File C:\Users\Mahito\Desktop\Night outing\Night-outing\src\xrCore\Xr_ini.cpp

; 269  : 			if (Current)

	jmp	SHORT $LN840@Load
$LN1354@Load:
	xor	r15d, r15d
$LN840@Load:
; File C:\Users\Mahito\Desktop\Night outing\Night-outing\src\xrCore\xrMemory_subst_msvc.cpp

; 39   : 	stat_calls++;

	inc	DWORD PTR ?Memory@@3VxrMemory@@A

; 45   : 		void* result = _aligned_malloc(size, PURE_MEMORY_ALIGNMENT);

	mov	edx, 16
	lea	ecx, QWORD PTR [rdx+16]
	call	QWORD PTR __imp__aligned_malloc
	mov	QWORD PTR Current$1$[rsp], rax
; File C:\Users\Mahito\Desktop\Night outing\Night-outing\src\xrCore\xrstring.h

; 78   : 	shared_str&			operator=	(str_c rhs)						{	_set(rhs);	return (shared_str&)*this;			}

	xor	edx, edx
	mov	rcx, rax
; File C:\Users\Mahito\Desktop\Night outing\Night-outing\src\xrCore\xrMemory_subst_msvc.cpp

; 45   : 		void* result = _aligned_malloc(size, PURE_MEMORY_ALIGNMENT);

	mov	r12, rax
; File C:\Users\Mahito\Desktop\Night outing\Night-outing\src\xrCore\xrMemory_subst_msvc.h

; 5    : 	return new (ptr) T();

	mov	QWORD PTR [rax+16], r15
	lea	rsi, QWORD PTR [rax+8]
	mov	QWORD PTR [rax+24], r15
; File C:\Users\Mahito\Desktop\Night outing\Night-outing\src\xrCore\xrstring.h

; 72   : 						shared_str	()								{	p_ = 0;											}

	mov	QWORD PTR [rax], r15
; File C:\Program Files\Microsoft Visual Studio\2022\Community\VC\Tools\MSVC\14.35.32215\include\vector

; 390  :     _CONSTEXPR20 _Vector_val() noexcept : _Myfirst(), _Mylast(), _Myend() {}

	mov	QWORD PTR [rsi], r15
	mov	QWORD PTR [rsi+8], r15
	mov	QWORD PTR [rsi+16], r15
; File C:\Users\Mahito\Desktop\Night outing\Night-outing\src\xrCore\Xr_ini.cpp

; 277  : 			Current				= xr_new<Sect>();

	mov	QWORD PTR Current$[rbp-256], rax
; File C:\Users\Mahito\Desktop\Night outing\Night-outing\src\xrCore\xrstring.h

; 78   : 	shared_str&			operator=	(str_c rhs)						{	_set(rhs);	return (shared_str&)*this;			}

	call	?_set@shared_str@@QEAAXPEBD@Z		; shared_str::_set
; File C:\Program Files (x86)\Windows Kits\10\Include\10.0.26100.0\ucrt\string.h

; 502  :         return const_cast<char*>(strchr(static_cast<char const*>(_String), _Ch));

	mov	edx, 93					; 0000005dH
	lea	rcx, QWORD PTR str$[rbp-256]
	call	QWORD PTR __imp_strchr
; File C:\Users\Mahito\Desktop\Night outing\Night-outing\src\xrCore\Xr_ini.cpp

; 280  : 			R_ASSERT3(strchr(str,']'),"Bad ini section found: ",str);

	test	rax, rax
	jne	SHORT $LN13@Load
; File C:\Users\Mahito\Desktop\Night outing\Night-outing\src\xrCore\xrDebugNew.cpp

; 406  :     backend(e1, e2, e3, 0, file, line, function, ignore_always);

	lea	rax, OFFSET FLAT:??_C@_0P@PFFEEJAK@CInifile?3?3Load@
	mov	QWORD PTR [rsp+56], rax
	lea	r9, QWORD PTR str$[rbp-256]
	lea	rax, OFFSET FLAT:??_C@_0EI@OLNNDBE@C?3?2Users?2Mahito?2Desktop?2Night?5o@
	mov	DWORD PTR [rsp+48], 280			; 00000118H
	lea	r8, OFFSET FLAT:??_C@_0BI@IHFKKOHL@Bad?5ini?5section?5found?3?5@
	mov	QWORD PTR [rsp+40], rax
	lea	rdx, OFFSET FLAT:??_C@_0BA@NMAHPAMG@strchr?$CIstr?0?8?$FN?8?$CJ@
	lea	rcx, OFFSET FLAT:?Debug@@3VxrDebug@@A	; Debug
	call	?backend@xrDebug@@QEAAXPEBD0000H0AEA_N@Z ; xrDebug::backend
$LN13@Load:
; File C:\Program Files (x86)\Windows Kits\10\Include\10.0.26100.0\ucrt\string.h

; 520  :         return const_cast<char*>(strstr(static_cast<char const*>(_String), _SubString));

	lea	rdx, OFFSET FLAT:??_C@_02EBHDEFHH@?$FN?3@
	lea	rcx, QWORD PTR str$[rbp-256]
	call	QWORD PTR __imp_strstr
	mov	r15, rax
; File C:\Users\Mahito\Desktop\Night outing\Night-outing\src\xrCore\Xr_ini.cpp

; 282  : 			if (0!=inherited_names)

	test	rax, rax
	je	$LN1355@Load
; File C:\Users\Mahito\Desktop\Night outing\Night-outing\src\xrCore\xr_trims.cpp

; 55   : 	u32		cnt			= 0;

	mov	edi, 0
	mov	r14d, edi
; File C:\Users\Mahito\Desktop\Night outing\Night-outing\src\xrCore\Xr_ini.cpp

; 285  : 				inherited_names		+= 2;

	add	r15, 2
; File C:\Users\Mahito\Desktop\Night outing\Night-outing\src\xrCore\xr_trims.cpp

; 56   : 	if (src&&src[0]){

	je	SHORT $LN878@Load
	cmp	BYTE PTR [r15], dil
	je	SHORT $LN878@Load

; 57   : 		LPCSTR	res			= src;
; 58   : 		LPCSTR	last_res	= res;
; 59   : 		while( 0!=(res=strchr(res,separator)) )

	lea	edx, QWORD PTR [rdi+44]
	mov	rcx, r15
	mov	rbx, r15
	call	QWORD PTR __imp_strchr
	test	rax, rax
	je	SHORT $LN1349@Load
$LL874@Load:

; 60   : 		{
; 61   : 			res		++;
; 62   : 			last_res=res;
; 63   : 			cnt		++;

	inc	r14d
	lea	rbx, QWORD PTR [rax+1]

; 64   : 			if (res[0]==separator) break;

	cmp	BYTE PTR [rax+1], 44			; 0000002cH
	je	SHORT $LN1349@Load

; 57   : 		LPCSTR	res			= src;
; 58   : 		LPCSTR	last_res	= res;
; 59   : 		while( 0!=(res=strchr(res,separator)) )

	mov	edx, 44					; 0000002cH
	lea	rcx, QWORD PTR [rax+1]
	call	QWORD PTR __imp_strchr
	test	rax, rax
	jne	SHORT $LL874@Load
$LN1349@Load:
; File C:\Users\Mahito\Desktop\Night outing\Night-outing\src\xrCore\_std_extensions.h

; 186  : {	return (u32)strlen(S);			}

	mov	rax, -1
	npad	7
$LL1329@Load:
	inc	rax
	cmp	BYTE PTR [rbx+rax], dil
	jne	SHORT $LL1329@Load
; File C:\Users\Mahito\Desktop\Night outing\Night-outing\src\xrCore\xr_trims.cpp

; 66   : 		if (xr_strlen(last_res)) cnt++;

	test	eax, eax
	je	SHORT $LN878@Load
	inc	r14d
$LN878@Load:
; File C:\Users\Mahito\Desktop\Night outing\Night-outing\src\xrCore\Xr_ini.cpp

; 286  : 				u32 cnt				= _GetItemCount(inherited_names);

	xor	eax, eax
	mov	ebx, eax

; 287  : 				u32 total_count		= 0;
; 288  :                 u32 k               = 0;
; 289  : 				for (k=0; k<cnt; ++k) {

	test	r14d, r14d
	je	SHORT $LN20@Load
	mov	r12, -6148914691236517205		; aaaaaaaaaaaaaaabH
$LL21@Load:
; File C:\Users\Mahito\Desktop\Night outing\Night-outing\src\xrCore\xr_trims.h

; 27   : 	return					_GetItem(src,index,dst,count,separator,def,trim);

	mov	r9d, 512				; 00000200H
	mov	BYTE PTR [rsp+32], 44			; 0000002cH
	lea	r8, QWORD PTR tmp$19[rbp-256]
	mov	edx, ebx
	mov	rcx, r15
	call	?_GetItem@@YAPEADPEBDHPEADID0_N@Z	; _GetItem
; File C:\Users\Mahito\Desktop\Night outing\Night-outing\src\xrCore\Xr_ini.cpp

; 292  : 					Sect& inherited_section = r_section(tmp);

	lea	rdx, QWORD PTR tmp$19[rbp-256]
	mov	rcx, r13
	call	?r_section@CInifile@@QEBAAEAUSect@1@PEBD@Z ; CInifile::r_section
	inc	ebx
; File C:\Program Files\Microsoft Visual Studio\2022\Community\VC\Tools\MSVC\14.35.32215\include\vector

; 1932 :         return static_cast<size_type>(_My_data._Mylast - _My_data._Myfirst);

	mov	rcx, QWORD PTR [rax+16]
	sub	rcx, QWORD PTR [rax+8]
	sar	rcx, 3
	imul	rcx, r12
; File C:\Users\Mahito\Desktop\Night outing\Night-outing\src\xrCore\Xr_ini.cpp

; 293  : 					total_count		+= inherited_section.Data.size();

	add	edi, ecx
	cmp	ebx, r14d
	jb	SHORT $LL21@Load
	mov	r12, QWORD PTR Current$1$[rsp]
$LN20@Load:
; File C:\Program Files\Microsoft Visual Studio\2022\Community\VC\Tools\MSVC\14.35.32215\include\vector

; 1932 :         return static_cast<size_type>(_My_data._Mylast - _My_data._Myfirst);

	mov	rdx, QWORD PTR [rsi+8]
	mov	rcx, -6148914691236517205		; aaaaaaaaaaaaaaabH
	sub	rdx, QWORD PTR [rsi]

; 1942 :         return static_cast<size_type>(_My_data._Myend - _My_data._Myfirst);

	mov	rax, QWORD PTR [rsi+16]
	sub	rax, QWORD PTR [rsi]

; 1932 :         return static_cast<size_type>(_My_data._Mylast - _My_data._Myfirst);

	sar	rdx, 3
	imul	rdx, rcx

; 1942 :         return static_cast<size_type>(_My_data._Myend - _My_data._Myfirst);

	sar	rax, 3
	imul	rax, rcx
; File C:\Users\Mahito\Desktop\Night outing\Night-outing\src\xrCore\Xr_ini.cpp

; 296  : 				Current->Data.reserve( Current->Data.size() + total_count );

	add	edx, edi
; File C:\Program Files\Microsoft Visual Studio\2022\Community\VC\Tools\MSVC\14.35.32215\include\vector

; 1743 :         if (_Newcapacity > capacity()) { // something to do (reserve() never shrinks)

	cmp	rdx, rax
	jbe	SHORT $LN230@Load

; 1744 :             if (_Newcapacity > max_size()) {
; 1745 :                 _Xlength();
; 1746 :             }
; 1747 : 
; 1748 :             _Reallocate_exactly(_Newcapacity);

	mov	rcx, rsi
	call	?_Reallocate_exactly@?$vector@UItem@CInifile@@V?$xalloc@UItem@CInifile@@@@@std@@AEAAX_K@Z ; std::vector<CInifile::Item,xalloc<CInifile::Item> >::_Reallocate_exactly
$LN230@Load:
; File C:\Users\Mahito\Desktop\Night outing\Night-outing\src\xrCore\Xr_ini.cpp

; 298  : 				for (k=0; k<cnt; ++k)

	xor	ebx, ebx
	mov	esi, ebx
	test	r14d, r14d
	je	SHORT $LN23@Load
	npad	4
$LL24@Load:
; File C:\Users\Mahito\Desktop\Night outing\Night-outing\src\xrCore\xr_trims.h

; 27   : 	return					_GetItem(src,index,dst,count,separator,def,trim);

	mov	r9d, 512				; 00000200H
	mov	BYTE PTR [rsp+32], 44			; 0000002cH
	lea	r8, QWORD PTR tmp$18[rbp-256]
	mov	edx, esi
	mov	rcx, r15
	call	?_GetItem@@YAPEADPEBDHPEADID0_N@Z	; _GetItem
; File C:\Users\Mahito\Desktop\Night outing\Night-outing\src\xrCore\Xr_ini.cpp

; 302  : 					Sect& inherited_section = r_section(tmp);

	lea	rdx, QWORD PTR tmp$18[rbp-256]
	mov	rcx, r13
	call	?r_section@CInifile@@QEBAAEAUSect@1@PEBD@Z ; CInifile::r_section
	mov	rdi, rax
; File C:\Program Files\Microsoft Visual Studio\2022\Community\VC\Tools\MSVC\14.35.32215\include\vector

; 41   :     _CONSTEXPR20 _Vector_const_iterator(_Tptr _Parg, const _Container_base* _Pvector) noexcept : _Ptr(_Parg) {

	mov	rbx, QWORD PTR [rax+8]
	cmp	rbx, QWORD PTR [rax+16]
; File C:\Users\Mahito\Desktop\Night outing\Night-outing\src\xrCore\Xr_ini.cpp

; 303  : 					for (SectIt_ it =inherited_section.Data.begin(); it!=inherited_section.Data.end(); it++)

	je	SHORT $LN22@Load
	npad	8
$LL27@Load:

; 304  : 						insert_item	(Current,*it);

	mov	rdx, rbx
	mov	rcx, r12
	call	?insert_item@@YAXPEAUSect@CInifile@@AEBUItem@2@@Z ; insert_item
; File C:\Program Files\Microsoft Visual Studio\2022\Community\VC\Tools\MSVC\14.35.32215\include\vector

; 74   :         ++_Ptr;

	add	rbx, 24

; 156  :         return _Ptr == _Right._Ptr;

	cmp	rbx, QWORD PTR [rdi+16]
; File C:\Users\Mahito\Desktop\Night outing\Night-outing\src\xrCore\Xr_ini.cpp

; 303  : 					for (SectIt_ it =inherited_section.Data.begin(); it!=inherited_section.Data.end(); it++)

	jne	SHORT $LL27@Load
$LN22@Load:

; 298  : 				for (k=0; k<cnt; ++k)

	inc	esi
	cmp	esi, r14d
	jb	SHORT $LL24@Load
$LN1355@Load:
; File C:\Program Files (x86)\Windows Kits\10\Include\10.0.26100.0\ucrt\string.h

; 502  :         return const_cast<char*>(strchr(static_cast<char const*>(_String), _Ch));

	xor	ebx, ebx
$LN23@Load:
	mov	edx, 93					; 0000005dH
	lea	rcx, QWORD PTR str$[rbp-256]
	call	QWORD PTR __imp_strchr
; File C:\Users\Mahito\Desktop\Night outing\Night-outing\src\xrCore\Xr_ini.cpp

; 308  : 			Current->Name 		= strlwr(str+1);

	lea	rcx, QWORD PTR str$[rbp-255]
	mov	BYTE PTR [rax], 0
	call	QWORD PTR __imp_strlwr
	mov	r14, rax
; File C:\Users\Mahito\Desktop\Night outing\Night-outing\src\xrCore\xrstring.cpp

; 143  : 	if (0==value)				return 0;

	test	rax, rax
	jne	SHORT $LN102@Load
	mov	rdi, rbx
	jmp	$LN96@Load
$LN102@Load:
; File C:\Users\Mahito\Desktop\Night outing\Night-outing\src\xrCore\xrSyncronize.cpp

; 64   : 	EnterCriticalSection			( (CRITICAL_SECTION*)pmutex );

	mov	rcx, QWORD PTR ds:0
	call	QWORD PTR __imp_EnterCriticalSection
; File C:\Users\Mahito\Desktop\Night outing\Night-outing\src\xrCore\_std_extensions.h

; 186  : {	return (u32)strlen(S);			}

	mov	rsi, -1
$LL1328@Load:
	inc	rsi
	cmp	BYTE PTR [r14+rsi], 0
	jne	SHORT $LL1328@Load
; File C:\Users\Mahito\Desktop\Night outing\Night-outing\src\xrCore\xrstring.cpp

; 155  : 	u32		s_len_with_zero		= (u32)s_len+1;

	mov	edx, esi
	lea	ebx, DWORD PTR [rsi+1]

; 156  : 	VERIFY	(HEADER+s_len_with_zero < 4096);
; 157  : 
; 158  : 	// setup find structure
; 159  : 	char	header[sizeof(str_value)];
; 160  : 	str_value*	sv				= (str_value*)header;
; 161  : 	sv->dwReference				= 0;
; 162  : 	sv->dwLength				= s_len;
; 163  : 	sv->dwCRC					= crc32	(value,s_len);

	mov	rcx, r14
	call	?crc32@@YAIPEBXI@Z			; crc32

; 27   : 		str_value* candidate = buffer[ value->dwCRC % buffer_size ];

	mov	rcx, QWORD PTR ds:8
	mov	edx, eax
	and	edx, 262143				; 0003ffffH

; 163  : 	sv->dwCRC					= crc32	(value,s_len);

	mov	r15d, eax

; 27   : 		str_value* candidate = buffer[ value->dwCRC % buffer_size ];

	mov	rdi, QWORD PTR [rcx+rdx*8]

; 28   : 		while ( candidate )

	test	rdi, rdi
	je	SHORT $LN1311@Load
$LL110@Load:

; 29   : 		{
; 30   : 			if ( candidate->dwCRC == value->dwCRC &&
; 31   : 				 candidate->dwLength == value->dwLength &&

	cmp	DWORD PTR [rdi+8], r15d
	jne	SHORT $LN112@Load
	cmp	DWORD PTR [rdi+4], esi
	jne	SHORT $LN112@Load
	mov	r8d, esi
	lea	rcx, QWORD PTR [rdi+20]
	mov	rdx, r14
	call	memcmp
	test	eax, eax
	je	SHORT $LN103@Load
$LN112@Load:

; 32   : 				 !memcmp(candidate->value, str, value->dwLength) )
; 33   : 			{
; 34   : 				return candidate;				
; 35   : 			}
; 36   : 
; 37   : 			candidate = candidate->next;

	mov	rdi, QWORD PTR [rdi+12]
	test	rdi, rdi
	jne	SHORT $LL110@Load
$LN1311@Load:

; 179  : 		result					= (str_value*)Memory.mem_alloc(HEADER+s_len_with_zero

	lea	rdx, QWORD PTR [rbx+20]
	lea	rcx, OFFSET FLAT:?Memory@@3VxrMemory@@A	; Memory
	call	?mem_alloc@xrMemory@@QEAAPEAX_K@Z	; xrMemory::mem_alloc
	mov	rdi, rax

; 180  : #ifdef DEBUG_MEMORY_NAME
; 181  : 			, "storage: sstring"
; 182  : #endif // DEBUG_MEMORY_NAME
; 183  : 			);
; 184  : 
; 185  : #ifdef DEBUG
; 186  : 		static int num_leaked_string = 0;
; 187  : 		if ( is_leaked_string )
; 188  : 		{
; 189  : 			++num_leaked_string;
; 190  : 			Msg("leaked_string: %d 0x%08x", num_leaked_string, result);
; 191  : 		}
; 192  : #endif // DEBUG
; 193  : 
; 194  : 		result->dwReference		= 0;
; 195  : 		result->dwLength		= sv->dwLength;
; 196  : 		result->dwCRC			= sv->dwCRC;
; 197  : 		CopyMemory				(result->value,value,s_len_with_zero);

	mov	r8, rbx
	xor	eax, eax
	mov	rdx, r14
	lea	rcx, QWORD PTR [rdi+20]
	mov	DWORD PTR [rdi], eax
	mov	DWORD PTR [rdi+4], esi
	mov	DWORD PTR [rdi+8], r15d
	call	memcpy

; 45   : 		str_value** element = &buffer[ value->dwCRC % buffer_size ];

	mov	rcx, QWORD PTR ds:8
	mov	edx, DWORD PTR [rdi+8]
	and	edx, 262143				; 0003ffffH
	lea	r8, QWORD PTR [rcx+rdx*8]

; 46   : 		value->next = *element;

	mov	rcx, QWORD PTR [rcx+rdx*8]
	mov	QWORD PTR [rdi+12], rcx

; 47   : 		*element = value;

	mov	QWORD PTR [r8], rdi
$LN103@Load:
; File C:\Users\Mahito\Desktop\Night outing\Night-outing\src\xrCore\xrSyncronize.cpp

; 69   : 	LeaveCriticalSection			( (CRITICAL_SECTION*)pmutex );

	mov	rcx, QWORD PTR ds:0
	call	QWORD PTR __imp_LeaveCriticalSection
; File C:\Users\Mahito\Desktop\Night outing\Night-outing\src\xrCore\xrstring.h

; 63   : 	void				_set		(str_c rhs) 					{	str_value* v = g_pStringContainer->dock(rhs); if (0!=v) v->dwReference++; _dec(); p_ = v;	}

	test	rdi, rdi
	je	SHORT $LN96@Load
	inc	DWORD PTR [rdi]
$LN96@Load:

; 61   : 	void				_dec		()								{	if (0==p_) return;	p_->dwReference--; 	if (0==p_->dwReference)	p_=0;						}

	mov	rax, QWORD PTR [r12]
	test	rax, rax
	je	SHORT $LN120@Load
	dec	DWORD PTR [rax]
$LN120@Load:
; File C:\Users\Mahito\Desktop\Night outing\Night-outing\src\xrCore\Xr_ini.cpp

; 309  : 		} 

	mov	r14, QWORD PTR F$[rbp-256]
	mov	rsi, QWORD PTR path$[rbp-256]
	mov	r15, QWORD PTR allow_include_func$[rbp-256]
; File C:\Users\Mahito\Desktop\Night outing\Night-outing\src\xrCore\xrstring.h

; 63   : 	void				_set		(str_c rhs) 					{	str_value* v = g_pStringContainer->dock(rhs); if (0!=v) v->dwReference++; _dec(); p_ = v;	}

	mov	QWORD PTR [r12], rdi
$LN1351@Load:
; File C:\Users\Mahito\Desktop\Night outing\Night-outing\src\xrCore\FS.h

; 291  : 	IC int			elapsed		()	const		{	return Size-Pos;		};

	xor	edi, edi
	jmp	$LN369@Load
$LN48@Load:
; File C:\Users\Mahito\Desktop\Night outing\Night-outing\src\xrCore\Xr_ini.cpp

; 312  : 			if (Current)

	test	r12, r12
	je	$LN1353@Load
; File C:\Program Files (x86)\Windows Kits\10\Include\10.0.26100.0\ucrt\string.h

; 502  :         return const_cast<char*>(strchr(static_cast<char const*>(_String), _Ch));

	mov	edx, 61					; 0000003dH
	lea	rcx, QWORD PTR str$[rbp-256]
	call	QWORD PTR __imp_strchr
; File C:\Users\Mahito\Desktop\Night outing\Night-outing\src\xrCore\Xr_ini.cpp

; 317  : 				if (t)		

	lea	rcx, QWORD PTR str$[rbp-256]
; File C:\Program Files (x86)\Windows Kits\10\Include\10.0.26100.0\ucrt\string.h

; 502  :         return const_cast<char*>(strchr(static_cast<char const*>(_String), _Ch));

	mov	r9, rax
; File C:\Users\Mahito\Desktop\Night outing\Night-outing\src\xrCore\Xr_ini.cpp

; 317  : 				if (t)		

	test	rax, rax
	je	$LN55@Load

; 318  : 				{
; 319  : 					*t				= 0;

	mov	BYTE PTR [rax], 0

; 320  : 					_Trim			(name);

	call	?_Trim@@YAPEADPEAD@Z			; _Trim
; File C:\Users\Mahito\Desktop\Night outing\Night-outing\src\xrCore\_std_extensions.h

; 229  : 	return						strncpy_s( destination, destination_size, source, destination_size );

	mov	edx, 4096				; 00001000H
; File C:\Users\Mahito\Desktop\Night outing\Night-outing\src\xrCore\Xr_ini.cpp

; 321  : 					++t;

	lea	r8, QWORD PTR [r9+1]
; File C:\Users\Mahito\Desktop\Night outing\Night-outing\src\xrCore\_std_extensions.h

; 229  : 	return						strncpy_s( destination, destination_size, source, destination_size );

	mov	r9d, edx
	lea	rcx, QWORD PTR value_raw$16[rbp-256]
	call	QWORD PTR __imp_strncpy_s
; File C:\Users\Mahito\Desktop\Night outing\Night-outing\src\xrCore\Xr_ini.cpp

; 35   : 		while (*src) 

	movzx	eax, BYTE PTR value_raw$16[rbp-256]

; 322  : 					xr_strcpy		(value_raw, sizeof(value_raw), t);
; 323  : 					bInsideSTR		= _parse(str2, value_raw);

	lea	rbx, QWORD PTR value_raw$16[rbp-256]

; 32   : 	BOOL bInsideSTR = false;

	xor	r15d, r15d

; 322  : 					xr_strcpy		(value_raw, sizeof(value_raw), t);
; 323  : 					bInsideSTR		= _parse(str2, value_raw);

	lea	rdi, QWORD PTR str2$[rbp-256]

; 32   : 	BOOL bInsideSTR = false;

	mov	esi, r15d

; 35   : 		while (*src) 

	test	al, al
	je	SHORT $LN498@Load
	npad	6
$LL497@Load:

; 36   : 		{
; 37   : 			if (isspace((u8)*src)) 

	movzx	ecx, al
	call	QWORD PTR __imp_isspace
	movzx	ecx, BYTE PTR [rbx]
	test	eax, eax
	je	SHORT $LN502@Load

; 38   : 			{
; 39   : 				if (bInsideSTR)

	test	esi, esi
	jne	SHORT $LN505@Load

; 40   : 				{
; 41   : 					*dest++ = *src++;
; 42   : 					continue;
; 43   : 				}
; 44   : 				while (*src && isspace(*src))

	test	cl, cl
	je	SHORT $LN1218@Load
	npad	8
$LL499@Load:
	movsx	ecx, cl
	call	QWORD PTR __imp_isspace
	test	eax, eax
	je	SHORT $LN1218@Load
	movzx	ecx, BYTE PTR [rbx+1]

; 45   : 				{
; 46   : 					++src;

	inc	rbx
	test	cl, cl
	jne	SHORT $LL499@Load

; 47   : 				}
; 48   : 				continue;

	jmp	SHORT $LN1218@Load
$LN502@Load:

; 49   : 			} else if (*src=='"') 

	cmp	cl, 34					; 00000022H
	jne	SHORT $LN505@Load

; 50   : 			{
; 51   : 				bInsideSTR = !bInsideSTR;

	test	esi, esi
	mov	eax, r15d
	sete	al
	mov	esi, eax
$LN505@Load:

; 35   : 		while (*src) 

	inc	rbx
	mov	BYTE PTR [rdi], cl
	inc	rdi
$LN1218@Load:
	movzx	eax, BYTE PTR [rbx]
	test	al, al
	jne	SHORT $LL497@Load
$LN498@Load:

; 52   : 			}
; 53   : 			*dest++ = *src++;
; 54   : 		}
; 55   : 	}
; 56   : 	*dest = 0;

	mov	BYTE PTR [rdi], r15b

; 324  : 					if(bInsideSTR)//multiline str value

	test	esi, esi
	je	$LN1338@Load
	npad	13
$LL28@Load:
; File C:\Users\Mahito\Desktop\Night outing\Night-outing\src\xrCore\_std_extensions.h

; 186  : {	return (u32)strlen(S);			}

	lea	rcx, QWORD PTR value_raw$16[rbp-256]
	mov	rax, -1
	npad	2
$LL1327@Load:
	inc	rax
	cmp	BYTE PTR [rcx+rax], r15b
	jne	SHORT $LL1327@Load

; 235  : 	LPSTR i						= destination + destination_length;

	mov	eax, eax
	lea	rcx, QWORD PTR value_raw$16[rbp-256]
	add	rcx, rax

; 236  : 	LPSTR const e				= destination + buffer_size - 1;
; 237  : 	if ( i > e )

	lea	rax, QWORD PTR value_raw$16[rbp+3839]
	cmp	rcx, rax
	ja	SHORT $LN203@Load

; 238  : 		return					0;
; 239  : 
; 240  : 	for ( LPCSTR j = source; *j && (i != e); ++i, ++j )

	lea	rdx, OFFSET FLAT:??_C@_02PCIJFNDE@?$AN?6@
	npad	8
$LL206@Load:
	lea	rax, QWORD PTR value_raw$16[rbp+3839]
	cmp	rcx, rax
	je	SHORT $LN205@Load

; 241  : 		*i						= *j;

	movzx	eax, BYTE PTR [rdx]
	inc	rdx
	mov	BYTE PTR [rcx], al
	inc	rcx
	cmp	BYTE PTR [rdx], r15b
	jne	SHORT $LL206@Load
$LN205@Load:

; 242  : 
; 243  : 	*i							= 0;

	mov	BYTE PTR [rcx], r15b
$LN203@Load:
; File C:\Users\Mahito\Desktop\Night outing\Night-outing\src\xrCore\Xr_ini.cpp

; 330  : 							F->r_string		(str_add_raw, sizeof(str_add_raw));

	lea	rdx, QWORD PTR str_add_raw$17[rbp-256]
	mov	rcx, r14
	call	?r_string@IReader@@QEAAXPEADI@Z		; IReader::r_string
; File C:\Users\Mahito\Desktop\Night outing\Night-outing\src\xrCore\_std_extensions.h

; 186  : {	return (u32)strlen(S);			}

	lea	rcx, QWORD PTR str_add_raw$17[rbp-256]
	mov	rax, -1
	npad	4
$LL1326@Load:
	inc	rax
	cmp	BYTE PTR [rcx+rax], r15b
	jne	SHORT $LL1326@Load
	lea	rdx, QWORD PTR value_raw$16[rbp-256]
	mov	rcx, -1
$LL1325@Load:
	inc	rcx
	cmp	BYTE PTR [rdx+rcx], r15b
	jne	SHORT $LL1325@Load
; File C:\Users\Mahito\Desktop\Night outing\Night-outing\src\xrCore\Xr_ini.cpp

; 331  : 							R_ASSERT2		(

	add	eax, ecx
	cmp	eax, 4096				; 00001000H
	jb	$LN30@Load
; File C:\Users\Mahito\Desktop\Night outing\Night-outing\src\xrCore\xrstring.h

; 83   : 	str_c				c_str		() const						{	return p_?p_->value:0;							}

	mov	rax, QWORD PTR [r12]
; File C:\Users\Mahito\Desktop\Night outing\Night-outing\src\xrCore\Xr_ini.cpp

; 331  : 							R_ASSERT2		(

	lea	r9, QWORD PTR str$[rbp-256]
	test	rax, rax
	lea	rdx, OFFSET FLAT:??_C@_0GJ@LPMKKHFJ@Incorrect?5inifile?5format?3?5secti@
	lea	rcx, QWORD PTR $T10[rsp]
	lea	r8, QWORD PTR [rax+20]
	cmove	r8, r15
	call	?make_string@@YA?AV?$basic_string@DU?$char_traits@D@std@@V?$allocator@D@2@@std@@PEBDZZ ; make_string
; File C:\Program Files\Microsoft Visual Studio\2022\Community\VC\Tools\MSVC\14.35.32215\include\xstring

; 2300 :         return _BUF_SIZE <= _Myres;

	cmp	QWORD PTR [rax+24], 16

; 2292 :         if (_Large_string_engaged()) {

	jb	SHORT $LN139@Load

; 2293 :             _Result = _Unfancy(_Bx._Ptr);

	mov	rax, QWORD PTR [rax]
$LN139@Load:
; File C:\Users\Mahito\Desktop\Night outing\Night-outing\src\xrCore\xrDebugNew.cpp

; 394  :     backend(e1, e2.c_str(), 0, 0, file, line, function, ignore_always);

	lea	rcx, OFFSET FLAT:??_C@_0P@PFFEEJAK@CInifile?3?3Load@
	xor	r9d, r9d
	mov	QWORD PTR [rsp+56], rcx
	lea	rdx, OFFSET FLAT:??_C@_0EC@IDCOAPHE@xr_strlen?$CIvalue_raw?$CJ?5?$CL?5xr_strle@
	lea	rcx, OFFSET FLAT:??_C@_0EI@OLNNDBE@C?3?2Users?2Mahito?2Desktop?2Night?5o@
	mov	DWORD PTR [rsp+48], 338			; 00000152H
	mov	QWORD PTR [rsp+40], rcx
	mov	r8, rax
	lea	rcx, OFFSET FLAT:?Debug@@3VxrDebug@@A	; Debug
	call	?backend@xrDebug@@QEAAXPEBD0000H0AEA_N@Z ; xrDebug::backend
; File C:\Program Files\Microsoft Visual Studio\2022\Community\VC\Tools\MSVC\14.35.32215\include\xstring

; 2300 :         return _BUF_SIZE <= _Myres;

	mov	rdx, QWORD PTR $T10[rbp-232]
	cmp	rdx, 16

; 5014 :         if (_My_data._Large_string_engaged()) {

	jb	SHORT $LN30@Load
; File C:\Program Files\Microsoft Visual Studio\2022\Community\VC\Tools\MSVC\14.35.32215\include\xmemory

; 829  :         _Deallocate<_New_alignof<_Ty>>(_Ptr, sizeof(_Ty) * _Count);

	mov	rcx, QWORD PTR $T10[rsp]
; File C:\Program Files\Microsoft Visual Studio\2022\Community\VC\Tools\MSVC\14.35.32215\include\xstring

; 5019 :             _Al.deallocate(_Ptr, _My_data._Myres + 1);

	inc	rdx
; File C:\Program Files\Microsoft Visual Studio\2022\Community\VC\Tools\MSVC\14.35.32215\include\xmemory

; 829  :         _Deallocate<_New_alignof<_Ty>>(_Ptr, sizeof(_Ty) * _Count);

	mov	rax, rcx

; 251  :         if (_Bytes >= _Big_allocation_threshold) { // boost the alignment of big allocations to help autovectorization

	cmp	rdx, 4096				; 00001000H
	jb	SHORT $LN164@Load

; 150  :     const uintptr_t _Ptr_container   = _Ptr_user[-1];

	mov	rcx, QWORD PTR [rcx-8]
	add	rdx, 39					; 00000027H
	sub	rax, rcx

; 164  :     _STL_VERIFY(_Back_shift >= _Min_back_shift && _Back_shift <= _Non_user_size, "invalid argument");

	add	rax, -8
	cmp	rax, 31
	ja	$LN161@Load
$LN164@Load:

; 255  :         ::operator delete(_Ptr, _Bytes);

	call	??3@YAXPEAX_K@Z				; operator delete
$LN30@Load:
; File C:\Users\Mahito\Desktop\Night outing\Night-outing\src\xrCore\_std_extensions.h

; 186  : {	return (u32)strlen(S);			}

	lea	rcx, QWORD PTR value_raw$16[rbp-256]
	mov	rax, -1
$LL1324@Load:
	inc	rax
	cmp	BYTE PTR [rcx+rax], r15b
	jne	SHORT $LL1324@Load

; 235  : 	LPSTR i						= destination + destination_length;

	mov	eax, eax
	lea	rcx, QWORD PTR value_raw$16[rbp-256]
	add	rcx, rax

; 236  : 	LPSTR const e				= destination + buffer_size - 1;
; 237  : 	if ( i > e )

	lea	rax, QWORD PTR value_raw$16[rbp+3839]
	cmp	rcx, rax
	ja	SHORT $LN211@Load

; 238  : 		return					0;
; 239  : 
; 240  : 	for ( LPCSTR j = source; *j && (i != e); ++i, ++j )

	lea	rdx, QWORD PTR str_add_raw$17[rbp-256]
	cmp	BYTE PTR str_add_raw$17[rbp-256], r15b
	je	SHORT $LN1350@Load
$LL214@Load:
	lea	rax, QWORD PTR value_raw$16[rbp+3839]
	cmp	rcx, rax
	je	SHORT $LN1350@Load

; 241  : 		*i						= *j;

	movzx	eax, BYTE PTR [rdx]
	inc	rdx
	mov	BYTE PTR [rcx], al
	inc	rcx
	cmp	BYTE PTR [rdx], r15b
	jne	SHORT $LL214@Load
$LN1350@Load:

; 242  : 
; 243  : 	*i							= 0;

	mov	BYTE PTR [rcx], r15b
$LN211@Load:
; File C:\Users\Mahito\Desktop\Night outing\Night-outing\src\xrCore\Xr_ini.cpp

; 35   : 		while (*src) 

	movzx	eax, BYTE PTR value_raw$16[rbp-256]

; 332  : 								xr_strlen(value_raw) + xr_strlen(str_add_raw) < sizeof(value_raw),
; 333  : 								make_string(
; 334  : 									"Incorrect inifile format: section[%s], variable[%s]. Odd number of quotes (\") found, but should be even.",
; 335  : 									Current->Name.c_str(),
; 336  : 									name
; 337  : 								)
; 338  : 							);
; 339  : 							xr_strcat		(value_raw, sizeof(value_raw),str_add_raw);
; 340  : 							bInsideSTR		= _parse(str2, value_raw);

	lea	rbx, QWORD PTR value_raw$16[rbp-256]
	lea	rdi, QWORD PTR str2$[rbp-256]

; 32   : 	BOOL bInsideSTR = false;

	mov	esi, r15d

; 35   : 		while (*src) 

	test	al, al
	je	SHORT $LN194@Load
	npad	3
$LL193@Load:

; 36   : 		{
; 37   : 			if (isspace((u8)*src)) 

	movzx	ecx, al
	call	QWORD PTR __imp_isspace
	movzx	ecx, BYTE PTR [rbx]
	test	eax, eax
	je	SHORT $LN198@Load

; 38   : 			{
; 39   : 				if (bInsideSTR)

	test	esi, esi
	jne	SHORT $LN201@Load

; 40   : 				{
; 41   : 					*dest++ = *src++;
; 42   : 					continue;
; 43   : 				}
; 44   : 				while (*src && isspace(*src))

	test	cl, cl
	je	SHORT $LN1222@Load
	npad	8
$LL195@Load:
	movsx	ecx, cl
	call	QWORD PTR __imp_isspace
	test	eax, eax
	je	SHORT $LN1222@Load
	movzx	ecx, BYTE PTR [rbx+1]

; 45   : 				{
; 46   : 					++src;

	inc	rbx
	test	cl, cl
	jne	SHORT $LL195@Load

; 47   : 				}
; 48   : 				continue;

	jmp	SHORT $LN1222@Load
$LN198@Load:

; 49   : 			} else if (*src=='"') 

	cmp	cl, 34					; 00000022H
	jne	SHORT $LN201@Load

; 50   : 			{
; 51   : 				bInsideSTR = !bInsideSTR;

	test	esi, esi
	mov	eax, r15d
	sete	al
	mov	esi, eax
$LN201@Load:

; 35   : 		while (*src) 

	inc	rbx
	mov	BYTE PTR [rdi], cl
	inc	rdi
$LN1222@Load:
	movzx	eax, BYTE PTR [rbx]
	test	al, al
	jne	SHORT $LL193@Load
$LN194@Load:

; 52   : 			}
; 53   : 			*dest++ = *src++;
; 54   : 		}
; 55   : 	}
; 56   : 	*dest = 0;

	mov	BYTE PTR [rdi], r15b

; 341  :                             if(bInsideSTR)

	test	esi, esi
	je	SHORT $LN1338@Load

; 342  :                             {
; 343  :                             	if( is_empty_line_now(F) )

	mov	rcx, r14
	call	?is_empty_line_now@@YAHPEAVIReader@@@Z	; is_empty_line_now
	test	eax, eax
	je	$LL28@Load
; File C:\Users\Mahito\Desktop\Night outing\Night-outing\src\xrCore\_std_extensions.h

; 186  : {	return (u32)strlen(S);			}

	lea	rcx, QWORD PTR value_raw$16[rbp-256]
	mov	rax, -1
	npad	3
$LL1323@Load:
	inc	rax
	cmp	BYTE PTR [rcx+rax], r15b
	jne	SHORT $LL1323@Load

; 235  : 	LPSTR i						= destination + destination_length;

	mov	eax, eax
	lea	rcx, QWORD PTR value_raw$16[rbp-256]
	add	rcx, rax

; 236  : 	LPSTR const e				= destination + buffer_size - 1;
; 237  : 	if ( i > e )

	lea	rax, QWORD PTR value_raw$16[rbp+3839]
	cmp	rcx, rax
	ja	$LL28@Load

; 238  : 		return					0;
; 239  : 
; 240  : 	for ( LPCSTR j = source; *j && (i != e); ++i, ++j )

	lea	rdx, OFFSET FLAT:??_C@_02PCIJFNDE@?$AN?6@
	npad	4
$LL489@Load:
	lea	rax, QWORD PTR value_raw$16[rbp+3839]
	cmp	rcx, rax
	je	SHORT $LN488@Load

; 241  : 		*i						= *j;

	movzx	eax, BYTE PTR [rdx]
	inc	rdx
	mov	BYTE PTR [rcx], al
	inc	rcx
	cmp	BYTE PTR [rdx], r15b
	jne	SHORT $LL489@Load
$LN488@Load:

; 242  : 
; 243  : 	*i							= 0;

	mov	BYTE PTR [rcx], r15b
; File C:\Users\Mahito\Desktop\Night outing\Night-outing\src\xrCore\Xr_ini.cpp

; 326  : 						while(bInsideSTR)

	jmp	$LL28@Load
$LN1338@Load:

; 324  : 					if(bInsideSTR)//multiline str value

	movzx	r12d, BYTE PTR str2$[rbp-256]
	jmp	SHORT $LN56@Load
$LN55@Load:

; 344  : 									xr_strcat		(value_raw, sizeof(value_raw),"\r\n");
; 345  :                             }
; 346  : 						}
; 347  : 					}
; 348  : 				} else 
; 349  : 				{
; 350  : 					_Trim	(name);

	call	?_Trim@@YAPEADPEAD@Z			; _Trim

; 351  : 					str2[0]	= 0;

	xor	r12b, r12b
	mov	BYTE PTR str2$[rbp-256], r12b
	xor	r15d, r15d
$LN56@Load:
; File C:\Users\Mahito\Desktop\Night outing\Night-outing\src\xrCore\xr_ini.h

; 21   : 		Item() : first(0), second(0)

	xor	edx, edx
	lea	rcx, QWORD PTR I$7[rsp]
	call	??0shared_str@@QEAA@PEBD@Z		; shared_str::shared_str
	xor	edx, edx
	lea	rcx, QWORD PTR I$7[rsp+8]
	call	??0shared_str@@QEAA@PEBD@Z		; shared_str::shared_str

; 22   : 
; 23   : 			, comment(0)

	xor	edx, edx
	lea	rcx, QWORD PTR I$7[rsp+16]
	call	??0shared_str@@QEAA@PEBD@Z		; shared_str::shared_str
; File C:\Users\Mahito\Desktop\Night outing\Night-outing\src\xrCore\Xr_ini.cpp

; 355  : 				I.first		= (name[0]?name:NULL);

	cmp	BYTE PTR str$[rbp-256], 0
	lea	r14, QWORD PTR str$[rbp-256]
	cmove	r14, r15
; File C:\Users\Mahito\Desktop\Night outing\Night-outing\src\xrCore\xrstring.cpp

; 143  : 	if (0==value)				return 0;

	test	r14, r14
	jne	SHORT $LN384@Load
	mov	rdi, r15
	jmp	$LN378@Load
$LN384@Load:
; File C:\Users\Mahito\Desktop\Night outing\Night-outing\src\xrCore\xrSyncronize.cpp

; 64   : 	EnterCriticalSection			( (CRITICAL_SECTION*)pmutex );

	mov	rcx, QWORD PTR ds:0
	call	QWORD PTR __imp_EnterCriticalSection
; File C:\Users\Mahito\Desktop\Night outing\Night-outing\src\xrCore\_std_extensions.h

; 186  : {	return (u32)strlen(S);			}

	mov	rsi, -1
	npad	8
$LL1322@Load:
	inc	rsi
	cmp	BYTE PTR [r14+rsi], 0
	jne	SHORT $LL1322@Load
; File C:\Users\Mahito\Desktop\Night outing\Night-outing\src\xrCore\xrstring.cpp

; 155  : 	u32		s_len_with_zero		= (u32)s_len+1;

	mov	edx, esi
	lea	ebx, DWORD PTR [rsi+1]

; 156  : 	VERIFY	(HEADER+s_len_with_zero < 4096);
; 157  : 
; 158  : 	// setup find structure
; 159  : 	char	header[sizeof(str_value)];
; 160  : 	str_value*	sv				= (str_value*)header;
; 161  : 	sv->dwReference				= 0;
; 162  : 	sv->dwLength				= s_len;
; 163  : 	sv->dwCRC					= crc32	(value,s_len);

	mov	rcx, r14
	call	?crc32@@YAIPEBXI@Z			; crc32

; 27   : 		str_value* candidate = buffer[ value->dwCRC % buffer_size ];

	mov	rcx, QWORD PTR ds:8
	mov	edx, eax
	and	edx, 262143				; 0003ffffH

; 163  : 	sv->dwCRC					= crc32	(value,s_len);

	mov	r15d, eax

; 27   : 		str_value* candidate = buffer[ value->dwCRC % buffer_size ];

	mov	rdi, QWORD PTR [rcx+rdx*8]

; 28   : 		while ( candidate )

	test	rdi, rdi
	je	SHORT $LN1312@Load
$LL392@Load:

; 29   : 		{
; 30   : 			if ( candidate->dwCRC == value->dwCRC &&
; 31   : 				 candidate->dwLength == value->dwLength &&

	cmp	DWORD PTR [rdi+8], r15d
	jne	SHORT $LN394@Load
	cmp	DWORD PTR [rdi+4], esi
	jne	SHORT $LN394@Load
	mov	r8d, esi
	lea	rcx, QWORD PTR [rdi+20]
	mov	rdx, r14
	call	memcmp
	test	eax, eax
	je	SHORT $LN385@Load
$LN394@Load:

; 32   : 				 !memcmp(candidate->value, str, value->dwLength) )
; 33   : 			{
; 34   : 				return candidate;				
; 35   : 			}
; 36   : 
; 37   : 			candidate = candidate->next;

	mov	rdi, QWORD PTR [rdi+12]
	test	rdi, rdi
	jne	SHORT $LL392@Load
$LN1312@Load:

; 179  : 		result					= (str_value*)Memory.mem_alloc(HEADER+s_len_with_zero

	lea	rdx, QWORD PTR [rbx+20]
	lea	rcx, OFFSET FLAT:?Memory@@3VxrMemory@@A	; Memory
	call	?mem_alloc@xrMemory@@QEAAPEAX_K@Z	; xrMemory::mem_alloc
	mov	rdi, rax

; 180  : #ifdef DEBUG_MEMORY_NAME
; 181  : 			, "storage: sstring"
; 182  : #endif // DEBUG_MEMORY_NAME
; 183  : 			);
; 184  : 
; 185  : #ifdef DEBUG
; 186  : 		static int num_leaked_string = 0;
; 187  : 		if ( is_leaked_string )
; 188  : 		{
; 189  : 			++num_leaked_string;
; 190  : 			Msg("leaked_string: %d 0x%08x", num_leaked_string, result);
; 191  : 		}
; 192  : #endif // DEBUG
; 193  : 
; 194  : 		result->dwReference		= 0;
; 195  : 		result->dwLength		= sv->dwLength;
; 196  : 		result->dwCRC			= sv->dwCRC;
; 197  : 		CopyMemory				(result->value,value,s_len_with_zero);

	mov	r8, rbx
	xor	eax, eax
	mov	rdx, r14
	lea	rcx, QWORD PTR [rdi+20]
	mov	DWORD PTR [rdi], eax
	mov	DWORD PTR [rdi+4], esi
	mov	DWORD PTR [rdi+8], r15d
	call	memcpy

; 45   : 		str_value** element = &buffer[ value->dwCRC % buffer_size ];

	mov	rcx, QWORD PTR ds:8
	mov	edx, DWORD PTR [rdi+8]
	and	edx, 262143				; 0003ffffH
	lea	r8, QWORD PTR [rcx+rdx*8]

; 46   : 		value->next = *element;

	mov	rcx, QWORD PTR [rcx+rdx*8]
	mov	QWORD PTR [rdi+12], rcx

; 47   : 		*element = value;

	mov	QWORD PTR [r8], rdi
$LN385@Load:
; File C:\Users\Mahito\Desktop\Night outing\Night-outing\src\xrCore\xrSyncronize.cpp

; 69   : 	LeaveCriticalSection			( (CRITICAL_SECTION*)pmutex );

	mov	rcx, QWORD PTR ds:0
	call	QWORD PTR __imp_LeaveCriticalSection
; File C:\Users\Mahito\Desktop\Night outing\Night-outing\src\xrCore\xrstring.h

; 63   : 	void				_set		(str_c rhs) 					{	str_value* v = g_pStringContainer->dock(rhs); if (0!=v) v->dwReference++; _dec(); p_ = v;	}

	test	rdi, rdi
	je	SHORT $LN1357@Load
	inc	DWORD PTR [rdi]
$LN1357@Load:

; 61   : 	void				_dec		()								{	if (0==p_) return;	p_->dwReference--; 	if (0==p_->dwReference)	p_=0;						}

	xor	r15d, r15d
$LN378@Load:
	mov	rax, QWORD PTR I$7[rsp]
	test	rax, rax
	je	SHORT $LN402@Load
	dec	DWORD PTR [rax]
$LN402@Load:
; File C:\Users\Mahito\Desktop\Night outing\Night-outing\src\xrCore\Xr_ini.cpp

; 356  : 				I.second	= (str2[0]?str2:NULL);

	test	r12b, r12b
; File C:\Users\Mahito\Desktop\Night outing\Night-outing\src\xrCore\xrstring.h

; 63   : 	void				_set		(str_c rhs) 					{	str_value* v = g_pStringContainer->dock(rhs); if (0!=v) v->dwReference++; _dec(); p_ = v;	}

	mov	QWORD PTR I$7[rsp], rdi
; File C:\Users\Mahito\Desktop\Night outing\Night-outing\src\xrCore\Xr_ini.cpp

; 356  : 				I.second	= (str2[0]?str2:NULL);

	lea	r14, QWORD PTR str2$[rbp-256]
	cmove	r14, r15
; File C:\Users\Mahito\Desktop\Night outing\Night-outing\src\xrCore\xrstring.cpp

; 143  : 	if (0==value)				return 0;

	test	r14, r14
	jne	SHORT $LN413@Load
	mov	rdi, r15
	jmp	$LN1339@Load
$LN413@Load:
; File C:\Users\Mahito\Desktop\Night outing\Night-outing\src\xrCore\xrSyncronize.cpp

; 64   : 	EnterCriticalSection			( (CRITICAL_SECTION*)pmutex );

	mov	rcx, QWORD PTR ds:0
	call	QWORD PTR __imp_EnterCriticalSection
; File C:\Users\Mahito\Desktop\Night outing\Night-outing\src\xrCore\_std_extensions.h

; 186  : {	return (u32)strlen(S);			}

	mov	rsi, -1
$LL1321@Load:
	inc	rsi
	cmp	BYTE PTR [r14+rsi], 0
	jne	SHORT $LL1321@Load
; File C:\Users\Mahito\Desktop\Night outing\Night-outing\src\xrCore\xrstring.cpp

; 155  : 	u32		s_len_with_zero		= (u32)s_len+1;

	mov	edx, esi
	lea	ebx, DWORD PTR [rsi+1]

; 156  : 	VERIFY	(HEADER+s_len_with_zero < 4096);
; 157  : 
; 158  : 	// setup find structure
; 159  : 	char	header[sizeof(str_value)];
; 160  : 	str_value*	sv				= (str_value*)header;
; 161  : 	sv->dwReference				= 0;
; 162  : 	sv->dwLength				= s_len;
; 163  : 	sv->dwCRC					= crc32	(value,s_len);

	mov	rcx, r14
	call	?crc32@@YAIPEBXI@Z			; crc32

; 27   : 		str_value* candidate = buffer[ value->dwCRC % buffer_size ];

	mov	rcx, QWORD PTR ds:8
	mov	edx, eax
	and	edx, 262143				; 0003ffffH

; 163  : 	sv->dwCRC					= crc32	(value,s_len);

	mov	r15d, eax

; 27   : 		str_value* candidate = buffer[ value->dwCRC % buffer_size ];

	mov	rdi, QWORD PTR [rcx+rdx*8]

; 28   : 		while ( candidate )

	test	rdi, rdi
	je	SHORT $LN1313@Load
$LL421@Load:

; 29   : 		{
; 30   : 			if ( candidate->dwCRC == value->dwCRC &&
; 31   : 				 candidate->dwLength == value->dwLength &&

	cmp	DWORD PTR [rdi+8], r15d
	jne	SHORT $LN423@Load
	cmp	DWORD PTR [rdi+4], esi
	jne	SHORT $LN423@Load
	mov	r8d, esi
	lea	rcx, QWORD PTR [rdi+20]
	mov	rdx, r14
	call	memcmp
	test	eax, eax
	je	SHORT $LN414@Load
$LN423@Load:

; 32   : 				 !memcmp(candidate->value, str, value->dwLength) )
; 33   : 			{
; 34   : 				return candidate;				
; 35   : 			}
; 36   : 
; 37   : 			candidate = candidate->next;

	mov	rdi, QWORD PTR [rdi+12]
	test	rdi, rdi
	jne	SHORT $LL421@Load
$LN1313@Load:

; 179  : 		result					= (str_value*)Memory.mem_alloc(HEADER+s_len_with_zero

	lea	rdx, QWORD PTR [rbx+20]
	lea	rcx, OFFSET FLAT:?Memory@@3VxrMemory@@A	; Memory
	call	?mem_alloc@xrMemory@@QEAAPEAX_K@Z	; xrMemory::mem_alloc
	mov	rdi, rax

; 180  : #ifdef DEBUG_MEMORY_NAME
; 181  : 			, "storage: sstring"
; 182  : #endif // DEBUG_MEMORY_NAME
; 183  : 			);
; 184  : 
; 185  : #ifdef DEBUG
; 186  : 		static int num_leaked_string = 0;
; 187  : 		if ( is_leaked_string )
; 188  : 		{
; 189  : 			++num_leaked_string;
; 190  : 			Msg("leaked_string: %d 0x%08x", num_leaked_string, result);
; 191  : 		}
; 192  : #endif // DEBUG
; 193  : 
; 194  : 		result->dwReference		= 0;
; 195  : 		result->dwLength		= sv->dwLength;
; 196  : 		result->dwCRC			= sv->dwCRC;
; 197  : 		CopyMemory				(result->value,value,s_len_with_zero);

	mov	r8, rbx
	xor	eax, eax
	mov	rdx, r14
	lea	rcx, QWORD PTR [rdi+20]
	mov	DWORD PTR [rdi], eax
	mov	DWORD PTR [rdi+4], esi
	mov	DWORD PTR [rdi+8], r15d
	call	memcpy

; 45   : 		str_value** element = &buffer[ value->dwCRC % buffer_size ];

	mov	rcx, QWORD PTR ds:8
	mov	edx, DWORD PTR [rdi+8]
	and	edx, 262143				; 0003ffffH
	lea	r8, QWORD PTR [rcx+rdx*8]

; 46   : 		value->next = *element;

	mov	rcx, QWORD PTR [rcx+rdx*8]
	mov	QWORD PTR [rdi+12], rcx

; 47   : 		*element = value;

	mov	QWORD PTR [r8], rdi
$LN414@Load:
; File C:\Users\Mahito\Desktop\Night outing\Night-outing\src\xrCore\xrSyncronize.cpp

; 69   : 	LeaveCriticalSection			( (CRITICAL_SECTION*)pmutex );

	mov	rcx, QWORD PTR ds:0
	call	QWORD PTR __imp_LeaveCriticalSection
; File C:\Users\Mahito\Desktop\Night outing\Night-outing\src\xrCore\xrstring.h

; 63   : 	void				_set		(str_c rhs) 					{	str_value* v = g_pStringContainer->dock(rhs); if (0!=v) v->dwReference++; _dec(); p_ = v;	}

	test	rdi, rdi
	je	SHORT $LN1356@Load
	inc	DWORD PTR [rdi]
$LN1356@Load:

; 61   : 	void				_dec		()								{	if (0==p_) return;	p_->dwReference--; 	if (0==p_->dwReference)	p_=0;						}

	xor	r15d, r15d
$LN1339@Load:
	mov	rax, QWORD PTR I$7[rsp+8]
	test	rax, rax
	je	SHORT $LN431@Load
	dec	DWORD PTR [rax]
$LN431@Load:
; File C:\Users\Mahito\Desktop\Night outing\Night-outing\src\xrCore\Xr_ini.cpp

; 357  : 				I.comment	= m_flags.test(eReadOnly)?0:comment;

	mov	rax, QWORD PTR this$[rbp-256]
; File C:\Users\Mahito\Desktop\Night outing\Night-outing\src\xrCore\xrstring.h

; 63   : 	void				_set		(str_c rhs) 					{	str_value* v = g_pStringContainer->dock(rhs); if (0!=v) v->dwReference++; _dec(); p_ = v;	}

	mov	QWORD PTR I$7[rsp+8], rdi
; File C:\Users\Mahito\Desktop\Night outing\Night-outing\src\xrCore\Xr_ini.cpp

; 357  : 				I.comment	= m_flags.test(eReadOnly)?0:comment;

	test	BYTE PTR [rax+8], 2
	cmovne	r13, r15
; File C:\Users\Mahito\Desktop\Night outing\Night-outing\src\xrCore\xrstring.cpp

; 143  : 	if (0==value)				return 0;

	test	r13, r13
	jne	SHORT $LN329@Load
	mov	rdi, r15
	jmp	$LN1340@Load
$LN329@Load:
; File C:\Users\Mahito\Desktop\Night outing\Night-outing\src\xrCore\xrSyncronize.cpp

; 64   : 	EnterCriticalSection			( (CRITICAL_SECTION*)pmutex );

	mov	rcx, QWORD PTR ds:0
	call	QWORD PTR __imp_EnterCriticalSection
; File C:\Users\Mahito\Desktop\Night outing\Night-outing\src\xrCore\_std_extensions.h

; 186  : {	return (u32)strlen(S);			}

	mov	rsi, -1
$LL1320@Load:
	inc	rsi
	cmp	BYTE PTR [rsi+r13], 0
	jne	SHORT $LL1320@Load
; File C:\Users\Mahito\Desktop\Night outing\Night-outing\src\xrCore\xrstring.cpp

; 155  : 	u32		s_len_with_zero		= (u32)s_len+1;

	mov	edx, esi
	lea	ebx, DWORD PTR [rsi+1]

; 156  : 	VERIFY	(HEADER+s_len_with_zero < 4096);
; 157  : 
; 158  : 	// setup find structure
; 159  : 	char	header[sizeof(str_value)];
; 160  : 	str_value*	sv				= (str_value*)header;
; 161  : 	sv->dwReference				= 0;
; 162  : 	sv->dwLength				= s_len;
; 163  : 	sv->dwCRC					= crc32	(value,s_len);

	mov	rcx, r13
	call	?crc32@@YAIPEBXI@Z			; crc32

; 27   : 		str_value* candidate = buffer[ value->dwCRC % buffer_size ];

	mov	rcx, QWORD PTR ds:8
	mov	edx, eax
	and	edx, 262143				; 0003ffffH

; 163  : 	sv->dwCRC					= crc32	(value,s_len);

	mov	r14d, eax

; 27   : 		str_value* candidate = buffer[ value->dwCRC % buffer_size ];

	mov	rdi, QWORD PTR [rcx+rdx*8]

; 28   : 		while ( candidate )

	test	rdi, rdi
	je	SHORT $LN1314@Load
$LL337@Load:

; 29   : 		{
; 30   : 			if ( candidate->dwCRC == value->dwCRC &&
; 31   : 				 candidate->dwLength == value->dwLength &&

	cmp	DWORD PTR [rdi+8], r14d
	jne	SHORT $LN339@Load
	cmp	DWORD PTR [rdi+4], esi
	jne	SHORT $LN339@Load
	mov	r8d, esi
	lea	rcx, QWORD PTR [rdi+20]
	mov	rdx, r13
	call	memcmp
	test	eax, eax
	je	SHORT $LN330@Load
$LN339@Load:

; 32   : 				 !memcmp(candidate->value, str, value->dwLength) )
; 33   : 			{
; 34   : 				return candidate;				
; 35   : 			}
; 36   : 
; 37   : 			candidate = candidate->next;

	mov	rdi, QWORD PTR [rdi+12]
	test	rdi, rdi
	jne	SHORT $LL337@Load
$LN1314@Load:

; 179  : 		result					= (str_value*)Memory.mem_alloc(HEADER+s_len_with_zero

	lea	rdx, QWORD PTR [rbx+20]
	lea	rcx, OFFSET FLAT:?Memory@@3VxrMemory@@A	; Memory
	call	?mem_alloc@xrMemory@@QEAAPEAX_K@Z	; xrMemory::mem_alloc

; 180  : #ifdef DEBUG_MEMORY_NAME
; 181  : 			, "storage: sstring"
; 182  : #endif // DEBUG_MEMORY_NAME
; 183  : 			);
; 184  : 
; 185  : #ifdef DEBUG
; 186  : 		static int num_leaked_string = 0;
; 187  : 		if ( is_leaked_string )
; 188  : 		{
; 189  : 			++num_leaked_string;
; 190  : 			Msg("leaked_string: %d 0x%08x", num_leaked_string, result);
; 191  : 		}
; 192  : #endif // DEBUG
; 193  : 
; 194  : 		result->dwReference		= 0;
; 195  : 		result->dwLength		= sv->dwLength;
; 196  : 		result->dwCRC			= sv->dwCRC;
; 197  : 		CopyMemory				(result->value,value,s_len_with_zero);

	mov	r8, rbx
	mov	rdx, r13
	mov	rdi, rax
	lea	rcx, QWORD PTR [rax+20]
	mov	DWORD PTR [rax], r15d
	mov	DWORD PTR [rax+4], esi
	mov	DWORD PTR [rax+8], r14d
	call	memcpy

; 45   : 		str_value** element = &buffer[ value->dwCRC % buffer_size ];

	mov	rcx, QWORD PTR ds:8
	mov	edx, DWORD PTR [rdi+8]
	and	edx, 262143				; 0003ffffH
	lea	r8, QWORD PTR [rcx+rdx*8]

; 46   : 		value->next = *element;

	mov	rcx, QWORD PTR [rcx+rdx*8]
	mov	QWORD PTR [rdi+12], rcx

; 47   : 		*element = value;

	mov	QWORD PTR [r8], rdi
$LN330@Load:
; File C:\Users\Mahito\Desktop\Night outing\Night-outing\src\xrCore\xrSyncronize.cpp

; 69   : 	LeaveCriticalSection			( (CRITICAL_SECTION*)pmutex );

	mov	rcx, QWORD PTR ds:0
	call	QWORD PTR __imp_LeaveCriticalSection
; File C:\Users\Mahito\Desktop\Night outing\Night-outing\src\xrCore\xrstring.h

; 63   : 	void				_set		(str_c rhs) 					{	str_value* v = g_pStringContainer->dock(rhs); if (0!=v) v->dwReference++; _dec(); p_ = v;	}

	test	rdi, rdi
	je	SHORT $LN1340@Load
	inc	DWORD PTR [rdi]
$LN1340@Load:

; 61   : 	void				_dec		()								{	if (0==p_) return;	p_->dwReference--; 	if (0==p_->dwReference)	p_=0;						}

	mov	rax, QWORD PTR I$7[rsp+16]
	test	rax, rax
	je	SHORT $LN347@Load
	dec	DWORD PTR [rax]
$LN347@Load:
; File C:\Users\Mahito\Desktop\Night outing\Night-outing\src\xrCore\Xr_ini.cpp

; 359  : 				if (m_flags.test(eReadOnly)) 

	mov	r13, QWORD PTR this$[rbp-256]
	mov	r11, QWORD PTR I$7[rsp]
; File C:\Users\Mahito\Desktop\Night outing\Night-outing\src\xrCore\xrstring.h

; 63   : 	void				_set		(str_c rhs) 					{	str_value* v = g_pStringContainer->dock(rhs); if (0!=v) v->dwReference++; _dec(); p_ = v;	}

	mov	QWORD PTR I$7[rsp+16], rdi
; File C:\Users\Mahito\Desktop\Night outing\Night-outing\src\xrCore\Xr_ini.cpp

; 359  : 				if (m_flags.test(eReadOnly)) 

	test	BYTE PTR [r13+8], 2
	je	$LN61@Load
; File C:\Users\Mahito\Desktop\Night outing\Night-outing\src\xrCore\xrstring.h

; 80   : 	str_c				operator*	() const						{	return p_?p_->value:0;							}

	test	r11, r11
	je	$LN561@Load
	lea	r14, QWORD PTR [r11+20]
; File C:\Users\Mahito\Desktop\Night outing\Night-outing\src\xrCore\Xr_ini.cpp

; 361  : 					if (*I.first)							insert_item	(Current,I);

	test	r14, r14
	je	$LN561@Load
; File C:\Program Files\Microsoft Visual Studio\2022\Community\VC\Tools\MSVC\14.35.32215\include\vector

; 1859 :         return iterator(_My_data._Myfirst, _STD addressof(_My_data));

	mov	r13, QWORD PTR Current$1$[rsp]
; File C:\Program Files\Microsoft Visual Studio\2022\Community\VC\Tools\MSVC\14.35.32215\include\xutility

; 1207 :         return _Last - _First; // assume the iterator will do debug checking

	mov	rax, -6148914691236517205		; aaaaaaaaaaaaaaabH

; 6713 :     auto _UFirst                = _Get_unwrapped(_First);

	mov	r15, QWORD PTR [r13+8]
; File C:\Program Files\Microsoft Visual Studio\2022\Community\VC\Tools\MSVC\14.35.32215\include\vector

; 1859 :         return iterator(_My_data._Myfirst, _STD addressof(_My_data));

	lea	r12, QWORD PTR [r13+8]
; File C:\Program Files\Microsoft Visual Studio\2022\Community\VC\Tools\MSVC\14.35.32215\include\xutility

; 1207 :         return _Last - _First; // assume the iterator will do debug checking

	mov	rbx, QWORD PTR [r13+16]
	sub	rbx, r15
	sar	rbx, 3
	imul	rbx, rax

; 6716 :     while (0 < _Count) { // divide and conquer, find half that contains answer

	test	rbx, rbx
	jle	SHORT $LN908@Load
	npad	11
$LL907@Load:

; 6717 :         const _Iter_diff_t<_FwdIt> _Count2 = _Count / 2;

	mov	rdi, rbx

; 6718 :         const auto _UMid                   = _STD next(_UFirst, _Count2);

	mov	rdx, r14
	shr	rdi, 1

; 1179 :         _Where += _Off;

	lea	rax, QWORD PTR [rdi+rdi*2]
	lea	rsi, QWORD PTR [r15+rax*8]

; 6718 :         const auto _UMid                   = _STD next(_UFirst, _Count2);

	mov	rcx, rsi

; 6719 :         if (_Pred(*_UMid, _Val)) { // try top half

	call	?item_pred@@YA_NAEBUItem@CInifile@@PEBD@Z ; item_pred
	test	al, al
	je	SHORT $LN909@Load

; 6720 :             _UFirst = _Next_iter(_UMid);
; 6721 :             _Count -= _Count2 + 1;

	mov	rax, -1
	lea	r15, QWORD PTR [rsi+24]
	sub	rax, rdi
	add	rbx, rax

; 6722 :         } else {

	jmp	SHORT $LN910@Load
$LN909@Load:

; 6723 :             _Count = _Count2;

	mov	rbx, rdi
$LN910@Load:

; 6714 :     _Iter_diff_t<_FwdIt> _Count = _STD distance(_UFirst, _Get_unwrapped(_Last));
; 6715 : 
; 6716 :     while (0 < _Count) { // divide and conquer, find half that contains answer

	test	rbx, rbx
	jg	SHORT $LL907@Load
$LN908@Load:
; File C:\Program Files\Microsoft Visual Studio\2022\Community\VC\Tools\MSVC\14.35.32215\include\vector

; 156  :         return _Ptr == _Right._Ptr;

	cmp	r15, QWORD PTR [r13+16]
; File C:\Users\Mahito\Desktop\Night outing\Night-outing\src\xrCore\Xr_ini.cpp

; 170  : 	if (sect_it!=tgt->Data.end() && sect_it->first.equal(I.first))

	je	SHORT $LN887@Load
; File C:\Users\Mahito\Desktop\Night outing\Night-outing\src\xrCore\xrstring.h

; 89   : 	bool				equal		(const shared_str & rhs) const	{	return (p_ == rhs.p_);							}

	mov	rax, QWORD PTR I$7[rsp]
	cmp	QWORD PTR [r15], rax
; File C:\Users\Mahito\Desktop\Night outing\Night-outing\src\xrCore\Xr_ini.cpp

; 170  : 	if (sect_it!=tgt->Data.end() && sect_it->first.equal(I.first))

	jne	SHORT $LN887@Load
$LN1371@Load:
; File C:\Users\Mahito\Desktop\Night outing\Night-outing\src\xrCore\xrstring.h

; 61   : 	void				_dec		()								{	if (0==p_) return;	p_->dwReference--; 	if (0==p_->dwReference)	p_=0;						}

	mov	r10, QWORD PTR I$7[rsp+8]
	test	r10, r10
	je	SHORT $LN1066@Load
	inc	DWORD PTR [r10]
$LN1066@Load:
	mov	rax, QWORD PTR [r15+8]
	test	rax, rax
	je	SHORT $LN1070@Load
	dec	DWORD PTR [rax]
$LN1070@Load:
	mov	QWORD PTR [r15+8], r10
	mov	rax, QWORD PTR I$7[rsp+16]
	test	rax, rax
	je	SHORT $LN1075@Load
	inc	DWORD PTR [rax]
$LN1075@Load:
	mov	rcx, QWORD PTR [r15+16]
	test	rcx, rcx
	je	SHORT $LN1079@Load
	dec	DWORD PTR [rcx]
$LN1079@Load:
	mov	QWORD PTR [r15+16], rax
	jmp	$LN1362@Load
$LN887@Load:
; File C:\Program Files\Microsoft Visual Studio\2022\Community\VC\Tools\MSVC\14.35.32215\include\vector

; 1036 :         const pointer _Oldlast  = _My_data._Mylast;

	mov	rdx, QWORD PTR [r12+8]

; 1037 : #if _ITERATOR_DEBUG_LEVEL == 2
; 1038 :         _STL_VERIFY(
; 1039 :             _Where._Getcont() == _STD addressof(_My_data) && _Whereptr >= _My_data._Myfirst && _Oldlast >= _Whereptr,
; 1040 :             "vector emplace iterator outside range");
; 1041 : #endif // _ITERATOR_DEBUG_LEVEL == 2
; 1042 : 
; 1043 :         if (_Oldlast != _My_data._Myend) {

	cmp	rdx, QWORD PTR [r12+16]
	je	$LN933@Load

; 1044 :             if (_Whereptr == _Oldlast) { // at back, provide strong guarantee

	cmp	r15, rdx
	jne	SHORT $LN934@Load
; File C:\Users\Mahito\Desktop\Night outing\Night-outing\src\xrCore\xrstring.h

; 74   : 						shared_str	(shared_str const &rhs)			{	p_ = 0;	_set(rhs);								}

	xor	r15d, r15d
	mov	QWORD PTR [rdx], r15

; 64   : 	void				_set		(shared_str const &rhs)			{	str_value* v = rhs.p_; if (0!=v) v->dwReference++; _dec(); p_ = v;							}

	mov	rax, QWORD PTR I$7[rsp]
	test	rax, rax
	je	SHORT $LN960@Load
	inc	DWORD PTR [rax]
$LN960@Load:

; 61   : 	void				_dec		()								{	if (0==p_) return;	p_->dwReference--; 	if (0==p_->dwReference)	p_=0;						}

	mov	rcx, QWORD PTR [rdx]
	test	rcx, rcx
	je	SHORT $LN964@Load
	dec	DWORD PTR [rcx]
$LN964@Load:

; 64   : 	void				_set		(shared_str const &rhs)			{	str_value* v = rhs.p_; if (0!=v) v->dwReference++; _dec(); p_ = v;							}

	mov	QWORD PTR [rdx], rax

; 74   : 						shared_str	(shared_str const &rhs)			{	p_ = 0;	_set(rhs);								}

	mov	QWORD PTR [rdx+8], r15

; 64   : 	void				_set		(shared_str const &rhs)			{	str_value* v = rhs.p_; if (0!=v) v->dwReference++; _dec(); p_ = v;							}

	mov	rax, QWORD PTR I$7[rsp+8]
	test	rax, rax
	je	SHORT $LN969@Load
	inc	DWORD PTR [rax]
$LN969@Load:

; 61   : 	void				_dec		()								{	if (0==p_) return;	p_->dwReference--; 	if (0==p_->dwReference)	p_=0;						}

	mov	rcx, QWORD PTR [rdx+8]
	test	rcx, rcx
	je	SHORT $LN973@Load
	dec	DWORD PTR [rcx]
$LN973@Load:

; 64   : 	void				_set		(shared_str const &rhs)			{	str_value* v = rhs.p_; if (0!=v) v->dwReference++; _dec(); p_ = v;							}

	mov	QWORD PTR [rdx+8], rax

; 74   : 						shared_str	(shared_str const &rhs)			{	p_ = 0;	_set(rhs);								}

	mov	QWORD PTR [rdx+16], r15

; 64   : 	void				_set		(shared_str const &rhs)			{	str_value* v = rhs.p_; if (0!=v) v->dwReference++; _dec(); p_ = v;							}

	mov	rax, QWORD PTR I$7[rsp+16]
	test	rax, rax
	je	SHORT $LN978@Load
	inc	DWORD PTR [rax]
$LN978@Load:

; 61   : 	void				_dec		()								{	if (0==p_) return;	p_->dwReference--; 	if (0==p_->dwReference)	p_=0;						}

	mov	rcx, QWORD PTR [rdx+16]
	test	rcx, rcx
	je	SHORT $LN982@Load
	dec	DWORD PTR [rcx]
$LN982@Load:

; 64   : 	void				_set		(shared_str const &rhs)			{	str_value* v = rhs.p_; if (0!=v) v->dwReference++; _dec(); p_ = v;							}

	mov	QWORD PTR [rdx+16], rax
; File C:\Program Files\Microsoft Visual Studio\2022\Community\VC\Tools\MSVC\14.35.32215\include\vector

; 869  :         ++_Mylast;

	add	QWORD PTR [r12+8], 24

; 1046 :             } else {

	jmp	$LN1363@Load
$LN934@Load:
; File C:\Users\Mahito\Desktop\Night outing\Night-outing\src\xrCore\xrstring.h

; 64   : 	void				_set		(shared_str const &rhs)			{	str_value* v = rhs.p_; if (0!=v) v->dwReference++; _dec(); p_ = v;							}

	mov	r11, QWORD PTR I$7[rsp]

; 74   : 						shared_str	(shared_str const &rhs)			{	p_ = 0;	_set(rhs);								}

	xor	ecx, ecx
; File C:\Program Files\Microsoft Visual Studio\2022\Community\VC\Tools\MSVC\14.35.32215\include\xmemory

; 2019 :         : _Al(_Al_) {

	mov	QWORD PTR _Obj$8[rsp], r12
; File C:\Users\Mahito\Desktop\Night outing\Night-outing\src\xrCore\xrstring.h

; 74   : 						shared_str	(shared_str const &rhs)			{	p_ = 0;	_set(rhs);								}

	mov	QWORD PTR _Obj$8[rsp+8], rcx

; 64   : 	void				_set		(shared_str const &rhs)			{	str_value* v = rhs.p_; if (0!=v) v->dwReference++; _dec(); p_ = v;							}

	test	r11, r11
	je	SHORT $LN1341@Load
	inc	DWORD PTR [r11]

; 61   : 	void				_dec		()								{	if (0==p_) return;	p_->dwReference--; 	if (0==p_->dwReference)	p_=0;						}

	mov	rax, QWORD PTR _Obj$8[rsp+8]
	test	rax, rax
	je	SHORT $LN1341@Load
	dec	DWORD PTR [rax]
$LN1341@Load:

; 64   : 	void				_set		(shared_str const &rhs)			{	str_value* v = rhs.p_; if (0!=v) v->dwReference++; _dec(); p_ = v;							}

	mov	r10, QWORD PTR I$7[rsp+8]
	mov	QWORD PTR _Obj$8[rsp+8], r11

; 74   : 						shared_str	(shared_str const &rhs)			{	p_ = 0;	_set(rhs);								}

	mov	QWORD PTR _Obj$8[rbp-240], rcx

; 64   : 	void				_set		(shared_str const &rhs)			{	str_value* v = rhs.p_; if (0!=v) v->dwReference++; _dec(); p_ = v;							}

	test	r10, r10
	je	SHORT $LN1342@Load
	inc	DWORD PTR [r10]

; 61   : 	void				_dec		()								{	if (0==p_) return;	p_->dwReference--; 	if (0==p_->dwReference)	p_=0;						}

	mov	rax, QWORD PTR _Obj$8[rbp-240]
	test	rax, rax
	je	SHORT $LN1342@Load
	dec	DWORD PTR [rax]
$LN1342@Load:

; 64   : 	void				_set		(shared_str const &rhs)			{	str_value* v = rhs.p_; if (0!=v) v->dwReference++; _dec(); p_ = v;							}

	mov	rbx, QWORD PTR I$7[rsp+16]
	mov	QWORD PTR _Obj$8[rbp-240], r10

; 74   : 						shared_str	(shared_str const &rhs)			{	p_ = 0;	_set(rhs);								}

	mov	QWORD PTR _Obj$8[rbp-232], rcx

; 64   : 	void				_set		(shared_str const &rhs)			{	str_value* v = rhs.p_; if (0!=v) v->dwReference++; _dec(); p_ = v;							}

	test	rbx, rbx
	je	SHORT $LN1017@Load
	inc	DWORD PTR [rbx]

; 61   : 	void				_dec		()								{	if (0==p_) return;	p_->dwReference--; 	if (0==p_->dwReference)	p_=0;						}

	mov	rax, QWORD PTR _Obj$8[rbp-232]
	test	rax, rax
	je	SHORT $LN1017@Load
	dec	DWORD PTR [rax]
$LN1017@Load:
; File C:\Program Files\Microsoft Visual Studio\2022\Community\VC\Tools\MSVC\14.35.32215\include\vector

; 1052 :                 _Alty_traits::construct(_Al, _Unfancy(_Oldlast), _STD move(_Oldlast[-1]));

	lea	r8, QWORD PTR [rdx-24]
; File C:\Users\Mahito\Desktop\Night outing\Night-outing\src\xrCore\xrstring.h

; 64   : 	void				_set		(shared_str const &rhs)			{	str_value* v = rhs.p_; if (0!=v) v->dwReference++; _dec(); p_ = v;							}

	mov	QWORD PTR _Obj$8[rbp-232], rbx
; File C:\Program Files\Microsoft Visual Studio\2022\Community\VC\Tools\MSVC\14.35.32215\include\vector

; 1052 :                 _Alty_traits::construct(_Al, _Unfancy(_Oldlast), _STD move(_Oldlast[-1]));

	call	??$construct@UItem@CInifile@@U12@@?$_Normal_allocator_traits@V?$xalloc@UItem@CInifile@@@@@std@@SAXAEAV?$xalloc@UItem@CInifile@@@@PEAUItem@CInifile@@$$QEAU34@@Z ; std::_Normal_allocator_traits<xalloc<CInifile::Item> >::construct<CInifile::Item,CInifile::Item>

; 1054 :                 ++_My_data._Mylast;

	add	QWORD PTR [r12+8], 24
; File C:\Program Files\Microsoft Visual Studio\2022\Community\VC\Tools\MSVC\14.35.32215\include\xutility

; 4645 :     while (_First != _Last) {

	cmp	r8, r15
	je	SHORT $LN1021@Load
; File C:\Users\Mahito\Desktop\Night outing\Night-outing\src\xrCore\xrstring.h

; 64   : 	void				_set		(shared_str const &rhs)			{	str_value* v = rhs.p_; if (0!=v) v->dwReference++; _dec(); p_ = v;							}

	lea	rax, QWORD PTR [rdx+8]
	npad	14
$LL1229@Load:
; File C:\Program Files\Microsoft Visual Studio\2022\Community\VC\Tools\MSVC\14.35.32215\include\xutility

; 4646 :         *--_Dest = _STD move(*--_Last);

	lea	rax, QWORD PTR [rax-24]
; File C:\Users\Mahito\Desktop\Night outing\Night-outing\src\xrCore\xrstring.h

; 64   : 	void				_set		(shared_str const &rhs)			{	str_value* v = rhs.p_; if (0!=v) v->dwReference++; _dec(); p_ = v;							}

	mov	rcx, QWORD PTR [rax-32]
	lea	r9, QWORD PTR [rax-32]
	test	rcx, rcx
	je	SHORT $LN1028@Load
	inc	DWORD PTR [rcx]
$LN1028@Load:

; 61   : 	void				_dec		()								{	if (0==p_) return;	p_->dwReference--; 	if (0==p_->dwReference)	p_=0;						}

	mov	rdx, QWORD PTR [rax-8]
	test	rdx, rdx
	je	SHORT $LN1032@Load
	dec	DWORD PTR [rdx]
$LN1032@Load:

; 64   : 	void				_set		(shared_str const &rhs)			{	str_value* v = rhs.p_; if (0!=v) v->dwReference++; _dec(); p_ = v;							}

	mov	QWORD PTR [rax-8], rcx
	mov	rcx, QWORD PTR [rax-24]
	test	rcx, rcx
	je	SHORT $LN1037@Load
	inc	DWORD PTR [rcx]
$LN1037@Load:

; 61   : 	void				_dec		()								{	if (0==p_) return;	p_->dwReference--; 	if (0==p_->dwReference)	p_=0;						}

	mov	rdx, QWORD PTR [rax]
	test	rdx, rdx
	je	SHORT $LN1041@Load
	dec	DWORD PTR [rdx]
$LN1041@Load:

; 64   : 	void				_set		(shared_str const &rhs)			{	str_value* v = rhs.p_; if (0!=v) v->dwReference++; _dec(); p_ = v;							}

	mov	QWORD PTR [rax], rcx
	mov	rdx, QWORD PTR [rax-16]
	test	rdx, rdx
	je	SHORT $LN1046@Load
	inc	DWORD PTR [rdx]
$LN1046@Load:

; 61   : 	void				_dec		()								{	if (0==p_) return;	p_->dwReference--; 	if (0==p_->dwReference)	p_=0;						}

	mov	r8, QWORD PTR [rax+8]
	test	r8, r8
	je	SHORT $LN1050@Load
	dec	DWORD PTR [r8]
$LN1050@Load:

; 64   : 	void				_set		(shared_str const &rhs)			{	str_value* v = rhs.p_; if (0!=v) v->dwReference++; _dec(); p_ = v;							}

	mov	QWORD PTR [rax+8], rdx
; File C:\Program Files\Microsoft Visual Studio\2022\Community\VC\Tools\MSVC\14.35.32215\include\xutility

; 4645 :     while (_First != _Last) {

	cmp	r9, r15
	jne	SHORT $LL1229@Load
$LN1021@Load:
; File C:\Program Files\Microsoft Visual Studio\2022\Community\VC\Tools\MSVC\14.35.32215\include\vector

; 1056 :                 *_Whereptr = _STD move(_Obj._Get_value());

	lea	rdx, QWORD PTR _Obj$8[rsp+8]
	mov	rcx, r15
	call	??4Item@CInifile@@QEAAAEAU01@$$QEAU01@@Z
	lea	rcx, QWORD PTR _Obj$8[rsp+8]
	call	??1Item@CInifile@@QEAA@XZ

; 1057 :             }
; 1058 : 
; 1059 :             return _Make_iterator(_Whereptr);

	jmp	$LN1362@Load
$LN933@Load:

; 1062 :         return _Make_iterator(_Emplace_reallocate(_Whereptr, _STD forward<_Valty>(_Val)...));

	mov	rcx, r12
; File C:\Users\Mahito\Desktop\Night outing\Night-outing\src\xrCore\Xr_ini.cpp

; 362  : 				} else 

	jmp	$LN1364@Load
$LN61@Load:
; File C:\Users\Mahito\Desktop\Night outing\Night-outing\src\xrCore\xrstring.h

; 80   : 	str_c				operator*	() const						{	return p_?p_->value:0;							}

	test	r11, r11
	je	SHORT $LN1304@Load
	lea	rax, QWORD PTR [r11+20]
; File C:\Users\Mahito\Desktop\Night outing\Night-outing\src\xrCore\Xr_ini.cpp

; 367  : 							|| *I.comment

	test	rax, rax
	jne	SHORT $LN65@Load
$LN1304@Load:
; File C:\Users\Mahito\Desktop\Night outing\Night-outing\src\xrCore\xrstring.h

; 80   : 	str_c				operator*	() const						{	return p_?p_->value:0;							}

	mov	r10, QWORD PTR I$7[rsp+8]
	test	r10, r10
	je	SHORT $LN1305@Load
	lea	rax, QWORD PTR [r10+20]
; File C:\Users\Mahito\Desktop\Night outing\Night-outing\src\xrCore\Xr_ini.cpp

; 367  : 							|| *I.comment

	test	rax, rax
	jne	SHORT $LN65@Load
$LN1305@Load:
; File C:\Users\Mahito\Desktop\Night outing\Night-outing\src\xrCore\xrstring.h

; 80   : 	str_c				operator*	() const						{	return p_?p_->value:0;							}

	test	rdi, rdi
	je	$LN357@Load
	lea	rax, QWORD PTR [rdi+20]
; File C:\Users\Mahito\Desktop\Night outing\Night-outing\src\xrCore\Xr_ini.cpp

; 367  : 							|| *I.comment

	test	rax, rax
	je	$LN561@Load
$LN65@Load:
; File C:\Users\Mahito\Desktop\Night outing\Night-outing\src\xrCore\xrstring.h

; 80   : 	str_c				operator*	() const						{	return p_?p_->value:0;							}

	mov	r11, QWORD PTR I$7[rsp]
	lea	r14, QWORD PTR [r11+20]
	test	r11, r11
	jne	SHORT $LN522@Load
	mov	r14, r15
$LN522@Load:
; File C:\Program Files\Microsoft Visual Studio\2022\Community\VC\Tools\MSVC\14.35.32215\include\vector

; 1859 :         return iterator(_My_data._Myfirst, _STD addressof(_My_data));

	mov	r13, QWORD PTR Current$1$[rsp]
; File C:\Program Files\Microsoft Visual Studio\2022\Community\VC\Tools\MSVC\14.35.32215\include\xutility

; 1207 :         return _Last - _First; // assume the iterator will do debug checking

	mov	rax, -6148914691236517205		; aaaaaaaaaaaaaaabH

; 6713 :     auto _UFirst                = _Get_unwrapped(_First);

	mov	r15, QWORD PTR [r13+8]

; 1207 :         return _Last - _First; // assume the iterator will do debug checking

	mov	rbx, QWORD PTR [r13+16]
	sub	rbx, r15
	sar	rbx, 3
	imul	rbx, rax

; 6716 :     while (0 < _Count) { // divide and conquer, find half that contains answer

	test	rbx, rbx
	jle	SHORT $LN537@Load
	npad	3
$LL536@Load:

; 6717 :         const _Iter_diff_t<_FwdIt> _Count2 = _Count / 2;

	mov	rdi, rbx

; 6718 :         const auto _UMid                   = _STD next(_UFirst, _Count2);

	mov	rdx, r14
	shr	rdi, 1

; 1179 :         _Where += _Off;

	lea	rax, QWORD PTR [rdi+rdi*2]
	lea	rsi, QWORD PTR [r15+rax*8]

; 6718 :         const auto _UMid                   = _STD next(_UFirst, _Count2);

	mov	rcx, rsi

; 6719 :         if (_Pred(*_UMid, _Val)) { // try top half

	call	?item_pred@@YA_NAEBUItem@CInifile@@PEBD@Z ; item_pred
	test	al, al
	je	SHORT $LN538@Load

; 6720 :             _UFirst = _Next_iter(_UMid);
; 6721 :             _Count -= _Count2 + 1;

	mov	rax, -1
	lea	r15, QWORD PTR [rsi+24]
	sub	rax, rdi
	add	rbx, rax

; 6722 :         } else {

	jmp	SHORT $LN539@Load
$LN538@Load:

; 6723 :             _Count = _Count2;

	mov	rbx, rdi
$LN539@Load:

; 6714 :     _Iter_diff_t<_FwdIt> _Count = _STD distance(_UFirst, _Get_unwrapped(_Last));
; 6715 : 
; 6716 :     while (0 < _Count) { // divide and conquer, find half that contains answer

	test	rbx, rbx
	jg	SHORT $LL536@Load
$LN537@Load:
; File C:\Program Files\Microsoft Visual Studio\2022\Community\VC\Tools\MSVC\14.35.32215\include\vector

; 156  :         return _Ptr == _Right._Ptr;

	cmp	r15, QWORD PTR [r13+16]
; File C:\Users\Mahito\Desktop\Night outing\Night-outing\src\xrCore\Xr_ini.cpp

; 170  : 	if (sect_it!=tgt->Data.end() && sect_it->first.equal(I.first))

	je	SHORT $LN516@Load
; File C:\Users\Mahito\Desktop\Night outing\Night-outing\src\xrCore\xrstring.h

; 89   : 	bool				equal		(const shared_str & rhs) const	{	return (p_ == rhs.p_);							}

	mov	rax, QWORD PTR I$7[rsp]
	cmp	QWORD PTR [r15], rax
; File C:\Users\Mahito\Desktop\Night outing\Night-outing\src\xrCore\Xr_ini.cpp

; 170  : 	if (sect_it!=tgt->Data.end() && sect_it->first.equal(I.first))

	je	$LN1371@Load
$LN516@Load:
; File C:\Program Files\Microsoft Visual Studio\2022\Community\VC\Tools\MSVC\14.35.32215\include\vector

; 1036 :         const pointer _Oldlast  = _My_data._Mylast;

	mov	rdx, QWORD PTR [r13+16]

; 1037 : #if _ITERATOR_DEBUG_LEVEL == 2
; 1038 :         _STL_VERIFY(
; 1039 :             _Where._Getcont() == _STD addressof(_My_data) && _Whereptr >= _My_data._Myfirst && _Oldlast >= _Whereptr,
; 1040 :             "vector emplace iterator outside range");
; 1041 : #endif // _ITERATOR_DEBUG_LEVEL == 2
; 1042 : 
; 1043 :         if (_Oldlast != _My_data._Myend) {

	cmp	rdx, QWORD PTR [r13+24]
	je	$LN562@Load

; 1044 :             if (_Whereptr == _Oldlast) { // at back, provide strong guarantee

	cmp	r15, rdx
	jne	SHORT $LN563@Load
; File C:\Users\Mahito\Desktop\Night outing\Night-outing\src\xrCore\xrstring.h

; 74   : 						shared_str	(shared_str const &rhs)			{	p_ = 0;	_set(rhs);								}

	xor	r15d, r15d
	mov	QWORD PTR [rdx], r15

; 64   : 	void				_set		(shared_str const &rhs)			{	str_value* v = rhs.p_; if (0!=v) v->dwReference++; _dec(); p_ = v;							}

	mov	rax, QWORD PTR I$7[rsp]
	test	rax, rax
	je	SHORT $LN589@Load
	inc	DWORD PTR [rax]
$LN589@Load:

; 61   : 	void				_dec		()								{	if (0==p_) return;	p_->dwReference--; 	if (0==p_->dwReference)	p_=0;						}

	mov	rcx, QWORD PTR [rdx]
	test	rcx, rcx
	je	SHORT $LN593@Load
	dec	DWORD PTR [rcx]
$LN593@Load:

; 64   : 	void				_set		(shared_str const &rhs)			{	str_value* v = rhs.p_; if (0!=v) v->dwReference++; _dec(); p_ = v;							}

	mov	QWORD PTR [rdx], rax

; 74   : 						shared_str	(shared_str const &rhs)			{	p_ = 0;	_set(rhs);								}

	mov	QWORD PTR [rdx+8], r15

; 64   : 	void				_set		(shared_str const &rhs)			{	str_value* v = rhs.p_; if (0!=v) v->dwReference++; _dec(); p_ = v;							}

	mov	rax, QWORD PTR I$7[rsp+8]
	test	rax, rax
	je	SHORT $LN598@Load
	inc	DWORD PTR [rax]
$LN598@Load:

; 61   : 	void				_dec		()								{	if (0==p_) return;	p_->dwReference--; 	if (0==p_->dwReference)	p_=0;						}

	mov	rcx, QWORD PTR [rdx+8]
	test	rcx, rcx
	je	SHORT $LN602@Load
	dec	DWORD PTR [rcx]
$LN602@Load:

; 64   : 	void				_set		(shared_str const &rhs)			{	str_value* v = rhs.p_; if (0!=v) v->dwReference++; _dec(); p_ = v;							}

	mov	QWORD PTR [rdx+8], rax

; 74   : 						shared_str	(shared_str const &rhs)			{	p_ = 0;	_set(rhs);								}

	mov	QWORD PTR [rdx+16], r15

; 64   : 	void				_set		(shared_str const &rhs)			{	str_value* v = rhs.p_; if (0!=v) v->dwReference++; _dec(); p_ = v;							}

	mov	rax, QWORD PTR I$7[rsp+16]
	test	rax, rax
	je	SHORT $LN607@Load
	inc	DWORD PTR [rax]
$LN607@Load:

; 61   : 	void				_dec		()								{	if (0==p_) return;	p_->dwReference--; 	if (0==p_->dwReference)	p_=0;						}

	mov	rcx, QWORD PTR [rdx+16]
	test	rcx, rcx
	je	SHORT $LN611@Load
	dec	DWORD PTR [rcx]
$LN611@Load:

; 64   : 	void				_set		(shared_str const &rhs)			{	str_value* v = rhs.p_; if (0!=v) v->dwReference++; _dec(); p_ = v;							}

	mov	QWORD PTR [rdx+16], rax
; File C:\Program Files\Microsoft Visual Studio\2022\Community\VC\Tools\MSVC\14.35.32215\include\vector

; 869  :         ++_Mylast;

	add	QWORD PTR [r13+16], 24

; 1046 :             } else {

	jmp	$LN1363@Load
$LN563@Load:
; File C:\Users\Mahito\Desktop\Night outing\Night-outing\src\xrCore\xrstring.h

; 64   : 	void				_set		(shared_str const &rhs)			{	str_value* v = rhs.p_; if (0!=v) v->dwReference++; _dec(); p_ = v;							}

	mov	r11, QWORD PTR I$7[rsp]

; 74   : 						shared_str	(shared_str const &rhs)			{	p_ = 0;	_set(rhs);								}

	xor	eax, eax
	mov	QWORD PTR _Obj$9[rsp+8], rax

; 64   : 	void				_set		(shared_str const &rhs)			{	str_value* v = rhs.p_; if (0!=v) v->dwReference++; _dec(); p_ = v;							}

	test	r11, r11
	je	SHORT $LN628@Load
	inc	DWORD PTR [r11]
$LN628@Load:
	mov	r10, QWORD PTR I$7[rsp+8]

; 74   : 						shared_str	(shared_str const &rhs)			{	p_ = 0;	_set(rhs);								}

	mov	QWORD PTR _Obj$9[rbp-240], rax

; 64   : 	void				_set		(shared_str const &rhs)			{	str_value* v = rhs.p_; if (0!=v) v->dwReference++; _dec(); p_ = v;							}

	test	r10, r10
	je	SHORT $LN637@Load
	inc	DWORD PTR [r10]
$LN637@Load:
	mov	rbx, QWORD PTR I$7[rsp+16]

; 74   : 						shared_str	(shared_str const &rhs)			{	p_ = 0;	_set(rhs);								}

	mov	QWORD PTR _Obj$9[rbp-232], rax

; 64   : 	void				_set		(shared_str const &rhs)			{	str_value* v = rhs.p_; if (0!=v) v->dwReference++; _dec(); p_ = v;							}

	test	rbx, rbx
	je	SHORT $LN646@Load
	inc	DWORD PTR [rbx]
$LN646@Load:
; File C:\Program Files\Microsoft Visual Studio\2022\Community\VC\Tools\MSVC\14.35.32215\include\vector

; 1052 :                 _Alty_traits::construct(_Al, _Unfancy(_Oldlast), _STD move(_Oldlast[-1]));

	lea	r8, QWORD PTR [rdx-24]
; File C:\Users\Mahito\Desktop\Night outing\Night-outing\src\xrCore\xrstring.h

; 64   : 	void				_set		(shared_str const &rhs)			{	str_value* v = rhs.p_; if (0!=v) v->dwReference++; _dec(); p_ = v;							}

	mov	QWORD PTR _Obj$9[rbp-232], rbx
; File C:\Program Files\Microsoft Visual Studio\2022\Community\VC\Tools\MSVC\14.35.32215\include\vector

; 1052 :                 _Alty_traits::construct(_Al, _Unfancy(_Oldlast), _STD move(_Oldlast[-1]));

	call	??$construct@UItem@CInifile@@U12@@?$_Normal_allocator_traits@V?$xalloc@UItem@CInifile@@@@@std@@SAXAEAV?$xalloc@UItem@CInifile@@@@PEAUItem@CInifile@@$$QEAU34@@Z ; std::_Normal_allocator_traits<xalloc<CInifile::Item> >::construct<CInifile::Item,CInifile::Item>

; 1054 :                 ++_My_data._Mylast;

	add	QWORD PTR [r13+16], 24
; File C:\Program Files\Microsoft Visual Studio\2022\Community\VC\Tools\MSVC\14.35.32215\include\xutility

; 4645 :     while (_First != _Last) {

	cmp	r8, r15
	je	SHORT $LN650@Load
; File C:\Users\Mahito\Desktop\Night outing\Night-outing\src\xrCore\xrstring.h

; 64   : 	void				_set		(shared_str const &rhs)			{	str_value* v = rhs.p_; if (0!=v) v->dwReference++; _dec(); p_ = v;							}

	lea	rax, QWORD PTR [rdx+8]
	npad	10
$LL1230@Load:
; File C:\Program Files\Microsoft Visual Studio\2022\Community\VC\Tools\MSVC\14.35.32215\include\xutility

; 4646 :         *--_Dest = _STD move(*--_Last);

	lea	rax, QWORD PTR [rax-24]
; File C:\Users\Mahito\Desktop\Night outing\Night-outing\src\xrCore\xrstring.h

; 64   : 	void				_set		(shared_str const &rhs)			{	str_value* v = rhs.p_; if (0!=v) v->dwReference++; _dec(); p_ = v;							}

	mov	rcx, QWORD PTR [rax-32]
	lea	r8, QWORD PTR [rax-32]
	test	rcx, rcx
	je	SHORT $LN657@Load
	inc	DWORD PTR [rcx]
$LN657@Load:

; 61   : 	void				_dec		()								{	if (0==p_) return;	p_->dwReference--; 	if (0==p_->dwReference)	p_=0;						}

	mov	rdx, QWORD PTR [rax-8]
	test	rdx, rdx
	je	SHORT $LN661@Load
	dec	DWORD PTR [rdx]
$LN661@Load:

; 64   : 	void				_set		(shared_str const &rhs)			{	str_value* v = rhs.p_; if (0!=v) v->dwReference++; _dec(); p_ = v;							}

	mov	QWORD PTR [rax-8], rcx
	mov	rcx, QWORD PTR [rax-24]
	test	rcx, rcx
	je	SHORT $LN666@Load
	inc	DWORD PTR [rcx]
$LN666@Load:

; 61   : 	void				_dec		()								{	if (0==p_) return;	p_->dwReference--; 	if (0==p_->dwReference)	p_=0;						}

	mov	rdx, QWORD PTR [rax]
	test	rdx, rdx
	je	SHORT $LN670@Load
	dec	DWORD PTR [rdx]
$LN670@Load:

; 64   : 	void				_set		(shared_str const &rhs)			{	str_value* v = rhs.p_; if (0!=v) v->dwReference++; _dec(); p_ = v;							}

	mov	QWORD PTR [rax], rcx
	mov	rcx, QWORD PTR [rax-16]
	test	rcx, rcx
	je	SHORT $LN675@Load
	inc	DWORD PTR [rcx]
$LN675@Load:

; 61   : 	void				_dec		()								{	if (0==p_) return;	p_->dwReference--; 	if (0==p_->dwReference)	p_=0;						}

	mov	rdx, QWORD PTR [rax+8]
	test	rdx, rdx
	je	SHORT $LN679@Load
	dec	DWORD PTR [rdx]
$LN679@Load:

; 64   : 	void				_set		(shared_str const &rhs)			{	str_value* v = rhs.p_; if (0!=v) v->dwReference++; _dec(); p_ = v;							}

	mov	QWORD PTR [rax+8], rcx
; File C:\Program Files\Microsoft Visual Studio\2022\Community\VC\Tools\MSVC\14.35.32215\include\xutility

; 4645 :     while (_First != _Last) {

	cmp	r8, r15
	jne	SHORT $LL1230@Load
$LN650@Load:
; File C:\Users\Mahito\Desktop\Night outing\Night-outing\src\xrCore\xrstring.h

; 64   : 	void				_set		(shared_str const &rhs)			{	str_value* v = rhs.p_; if (0!=v) v->dwReference++; _dec(); p_ = v;							}

	test	r11, r11
	je	SHORT $LN686@Load
	inc	DWORD PTR [r11]
$LN686@Load:

; 61   : 	void				_dec		()								{	if (0==p_) return;	p_->dwReference--; 	if (0==p_->dwReference)	p_=0;						}

	mov	rax, QWORD PTR [r15]
	test	rax, rax
	je	SHORT $LN690@Load
	dec	DWORD PTR [rax]
$LN690@Load:

; 64   : 	void				_set		(shared_str const &rhs)			{	str_value* v = rhs.p_; if (0!=v) v->dwReference++; _dec(); p_ = v;							}

	mov	QWORD PTR [r15], r11
	test	r10, r10
	je	SHORT $LN695@Load
	inc	DWORD PTR [r10]
$LN695@Load:

; 61   : 	void				_dec		()								{	if (0==p_) return;	p_->dwReference--; 	if (0==p_->dwReference)	p_=0;						}

	mov	rax, QWORD PTR [r15+8]
	test	rax, rax
	je	SHORT $LN699@Load
	dec	DWORD PTR [rax]
$LN699@Load:

; 64   : 	void				_set		(shared_str const &rhs)			{	str_value* v = rhs.p_; if (0!=v) v->dwReference++; _dec(); p_ = v;							}

	mov	QWORD PTR [r15+8], r10
	test	rbx, rbx
	je	SHORT $LN704@Load
	inc	DWORD PTR [rbx]
$LN704@Load:

; 61   : 	void				_dec		()								{	if (0==p_) return;	p_->dwReference--; 	if (0==p_->dwReference)	p_=0;						}

	mov	rax, QWORD PTR [r15+16]
	test	rax, rax
	je	SHORT $LN708@Load
	dec	DWORD PTR [rax]
$LN708@Load:

; 64   : 	void				_set		(shared_str const &rhs)			{	str_value* v = rhs.p_; if (0!=v) v->dwReference++; _dec(); p_ = v;							}

	mov	QWORD PTR [r15+16], rbx
	test	rbx, rbx

; 61   : 	void				_dec		()								{	if (0==p_) return;	p_->dwReference--; 	if (0==p_->dwReference)	p_=0;						}

	je	SHORT $LN725@Load
	dec	DWORD PTR [rbx]
$LN725@Load:
	test	r10, r10
	je	SHORT $LN731@Load
	dec	DWORD PTR [r10]
$LN731@Load:
	mov	r13, QWORD PTR this$[rbp-256]
	test	r11, r11
	je	SHORT $LN1343@Load
	dec	DWORD PTR [r11]
$LN1343@Load:
	xor	r15d, r15d
	jmp	SHORT $LN561@Load
$LN562@Load:
; File C:\Program Files\Microsoft Visual Studio\2022\Community\VC\Tools\MSVC\14.35.32215\include\vector

; 1062 :         return _Make_iterator(_Emplace_reallocate(_Whereptr, _STD forward<_Valty>(_Val)...));

	lea	rcx, QWORD PTR [r13+8]
$LN1364@Load:
; File C:\Users\Mahito\Desktop\Night outing\Night-outing\src\xrCore\xrstring.h

; 61   : 	void				_dec		()								{	if (0==p_) return;	p_->dwReference--; 	if (0==p_->dwReference)	p_=0;						}

	lea	r8, QWORD PTR I$7[rsp]
	mov	rdx, r15
	call	??$_Emplace_reallocate@AEBUItem@CInifile@@@?$vector@UItem@CInifile@@V?$xalloc@UItem@CInifile@@@@@std@@AEAAPEAUItem@CInifile@@QEAU23@AEBU23@@Z ; std::vector<CInifile::Item,xalloc<CInifile::Item> >::_Emplace_reallocate<CInifile::Item const &>
$LN1362@Load:
	xor	r15d, r15d
$LN1363@Load:
	mov	r13, QWORD PTR this$[rbp-256]
$LN561@Load:
	mov	rbx, QWORD PTR I$7[rsp+16]
	test	rbx, rbx
	je	SHORT $LN357@Load
	add	DWORD PTR [rbx], -1			; ffffffffH
	mov	rax, QWORD PTR I$7[rsp+16]
	cmove	rax, r15
	mov	QWORD PTR I$7[rsp+16], rax
$LN357@Load:
	mov	r10, QWORD PTR I$7[rsp+8]
	test	r10, r10
	je	SHORT $LN363@Load
	add	DWORD PTR [r10], -1			; ffffffffH
	mov	rax, QWORD PTR I$7[rsp+8]
	cmove	rax, r15
	mov	QWORD PTR I$7[rsp+8], rax
$LN363@Load:
	mov	r11, QWORD PTR I$7[rsp]
	mov	r12, QWORD PTR Current$1$[rsp]
	mov	r14, QWORD PTR F$[rbp-256]
	mov	rsi, QWORD PTR path$[rbp-256]
	mov	r15, QWORD PTR allow_include_func$[rbp-256]
	test	r11, r11
	je	$LN1351@Load
	dec	DWORD PTR [r11]
	xor	edi, edi
	jmp	SHORT $LN369@Load
$LN1353@Load:
; File C:\Users\Mahito\Desktop\Night outing\Night-outing\src\xrCore\FS.h

; 291  : 	IC int			elapsed		()	const		{	return Size-Pos;		};

	mov	r13, QWORD PTR this$[rbp-256]
$LN369@Load:
	mov	eax, DWORD PTR [r14+28]
	sub	eax, DWORD PTR [r14+24]

; 181  : 	IC BOOL			eof			()	const		{return impl().elapsed()<=0;	};

	test	eax, eax
; File C:\Users\Mahito\Desktop\Night outing\Night-outing\src\xrCore\Xr_ini.cpp

; 204  : 	while (!F->eof())

	jg	$LL5@Load

; 368  : 						)
; 369  : 						insert_item	(Current,I);
; 370  : 				}
; 371  : 			}
; 372  : 		}
; 373  : 	}
; 374  : 	if (Current)

	test	r12, r12
	je	$LN1360@Load
; File C:\Users\Mahito\Desktop\Night outing\Night-outing\src\xrCore\xrstring.h

; 80   : 	str_c				operator*	() const						{	return p_?p_->value:0;							}

	mov	rsi, QWORD PTR [r12]
; File C:\Program Files\Microsoft Visual Studio\2022\Community\VC\Tools\MSVC\14.35.32215\include\xutility

; 1207 :         return _Last - _First; // assume the iterator will do debug checking

	mov	r14, QWORD PTR [r13+544]
; File C:\Program Files\Microsoft Visual Studio\2022\Community\VC\Tools\MSVC\14.35.32215\include\vector

; 1859 :         return iterator(_My_data._Myfirst, _STD addressof(_My_data));

	test	rsi, rsi
; File C:\Program Files\Microsoft Visual Studio\2022\Community\VC\Tools\MSVC\14.35.32215\include\xutility

; 1207 :         return _Last - _First; // assume the iterator will do debug checking

	mov	r8, r14
; File C:\Program Files\Microsoft Visual Studio\2022\Community\VC\Tools\MSVC\14.35.32215\include\vector

; 1859 :         return iterator(_My_data._Myfirst, _STD addressof(_My_data));

	lea	r11, QWORD PTR [rsi+20]
	cmove	r11, rdi
	lea	rdi, QWORD PTR [r13+536]
; File C:\Program Files\Microsoft Visual Studio\2022\Community\VC\Tools\MSVC\14.35.32215\include\xutility

; 6713 :     auto _UFirst                = _Get_unwrapped(_First);

	mov	rbx, QWORD PTR [rdi]

; 1207 :         return _Last - _First; // assume the iterator will do debug checking

	sub	r8, rbx
	sar	r8, 3

; 6716 :     while (0 < _Count) { // divide and conquer, find half that contains answer

	test	r8, r8
	jle	SHORT $LN284@Load

; 6719 :         if (_Pred(*_UMid, _Val)) { // try top half

	xor	r15d, r15d
$LL283@Load:

; 6717 :         const _Iter_diff_t<_FwdIt> _Count2 = _Count / 2;

	mov	r9, r8
; File C:\Users\Mahito\Desktop\Night outing\Night-outing\src\xrCore\_std_extensions.h

; 195  : {	return (int)strcmp(S1,S2);  }

	mov	rdx, r11
; File C:\Program Files\Microsoft Visual Studio\2022\Community\VC\Tools\MSVC\14.35.32215\include\xutility

; 6717 :         const _Iter_diff_t<_FwdIt> _Count2 = _Count / 2;

	shr	r9, 1

; 6719 :         if (_Pred(*_UMid, _Val)) { // try top half

	mov	rax, QWORD PTR [rbx+r9*8]

; 1179 :         _Where += _Off;

	lea	r10, QWORD PTR [rbx+r9*8]
; File C:\Users\Mahito\Desktop\Night outing\Night-outing\src\xrCore\xrstring.h

; 80   : 	str_c				operator*	() const						{	return p_?p_->value:0;							}

	mov	rcx, QWORD PTR [rax]
; File C:\Users\Mahito\Desktop\Night outing\Night-outing\src\xrCore\_std_extensions.h

; 195  : {	return (int)strcmp(S1,S2);  }

	test	rcx, rcx
	lea	rax, QWORD PTR [rcx+20]
	cmove	rax, r15
	sub	rdx, rax
$LL1317@Load:
	movzx	ecx, BYTE PTR [rax]
	cmp	cl, BYTE PTR [rax+rdx]
	jne	SHORT $LN1319@Load
	inc	rax
	test	cl, cl
	jne	SHORT $LL1317@Load
	mov	eax, r15d
	jmp	SHORT $LN1318@Load
$LN161@Load:
; File C:\Program Files\Microsoft Visual Studio\2022\Community\VC\Tools\MSVC\14.35.32215\include\xmemory

; 164  :     _STL_VERIFY(_Back_shift >= _Min_back_shift && _Back_shift <= _Non_user_size, "invalid argument");

	call	QWORD PTR __imp__invalid_parameter_noinfo_noreturn
	int	3
$LN1319@Load:
; File C:\Users\Mahito\Desktop\Night outing\Night-outing\src\xrCore\_std_extensions.h

; 195  : {	return (int)strcmp(S1,S2);  }

	sbb	eax, eax
	or	eax, 1
$LN1318@Load:
; File C:\Users\Mahito\Desktop\Night outing\Night-outing\src\xrCore\Xr_ini.cpp

; 18   : 	return xr_strcmp(*x->Name,val)<0;

	shr	eax, 31
; File C:\Program Files\Microsoft Visual Studio\2022\Community\VC\Tools\MSVC\14.35.32215\include\xutility

; 6719 :         if (_Pred(*_UMid, _Val)) { // try top half

	test	al, al
	je	SHORT $LN285@Load

; 6720 :             _UFirst = _Next_iter(_UMid);
; 6721 :             _Count -= _Count2 + 1;

	mov	rax, -1
	lea	rbx, QWORD PTR [r10+8]
	sub	rax, r9
	add	r8, rax

; 6722 :         } else {

	jmp	SHORT $LN286@Load
$LN285@Load:

; 6723 :             _Count = _Count2;

	mov	r8, r9
$LN286@Load:

; 6714 :     _Iter_diff_t<_FwdIt> _Count = _STD distance(_UFirst, _Get_unwrapped(_Last));
; 6715 : 
; 6716 :     while (0 < _Count) { // divide and conquer, find half that contains answer

	test	r8, r8
	jg	SHORT $LL283@Load
$LN284@Load:
; File C:\Program Files\Microsoft Visual Studio\2022\Community\VC\Tools\MSVC\14.35.32215\include\vector

; 156  :         return _Ptr == _Right._Ptr;

	cmp	rbx, r14
; File C:\Users\Mahito\Desktop\Night outing\Night-outing\src\xrCore\Xr_ini.cpp

; 377  : 		if ((I!=DATA.end())&&((*I)->Name==Current->Name))

	je	SHORT $LN67@Load
	mov	rax, QWORD PTR [rbx]
; File C:\Users\Mahito\Desktop\Night outing\Night-outing\src\xrCore\xrstring.h

; 109  : IC bool operator	==	(shared_str const & a, shared_str const & b)		{ return a._get() == b._get();					}

	cmp	QWORD PTR [rax], rsi
; File C:\Users\Mahito\Desktop\Night outing\Night-outing\src\xrCore\Xr_ini.cpp

; 377  : 		if ((I!=DATA.end())&&((*I)->Name==Current->Name))

	jne	SHORT $LN67@Load

; 378  : 			Debug.fatal(DEBUG_INFO,"Duplicate section '%s' found.",*Current->Name);

	lea	rax, OFFSET FLAT:??_C@_0BO@PADAFPII@Duplicate?5section?5?8?$CFs?8?5found?4@
	mov	QWORD PTR [rsp+40], r11
	lea	r9, OFFSET FLAT:??_C@_0P@PFFEEJAK@CInifile?3?3Load@
	mov	QWORD PTR [rsp+32], rax
	mov	r8d, 378				; 0000017aH
	lea	rdx, OFFSET FLAT:??_C@_0EI@OLNNDBE@C?3?2Users?2Mahito?2Desktop?2Night?5o@
	lea	rcx, OFFSET FLAT:?Debug@@3VxrDebug@@A	; Debug
	call	?fatal@xrDebug@@QEAAXPEBDH00ZZ		; xrDebug::fatal
$LN67@Load:
; File C:\Program Files\Microsoft Visual Studio\2022\Community\VC\Tools\MSVC\14.35.32215\include\vector

; 1036 :         const pointer _Oldlast  = _My_data._Mylast;

	mov	rcx, QWORD PTR [rdi+8]

; 1037 : #if _ITERATOR_DEBUG_LEVEL == 2
; 1038 :         _STL_VERIFY(
; 1039 :             _Where._Getcont() == _STD addressof(_My_data) && _Whereptr >= _My_data._Myfirst && _Oldlast >= _Whereptr,
; 1040 :             "vector emplace iterator outside range");
; 1041 : #endif // _ITERATOR_DEBUG_LEVEL == 2
; 1042 : 
; 1043 :         if (_Oldlast != _My_data._Myend) {

	cmp	rcx, QWORD PTR [rdi+16]
	je	SHORT $LN240@Load

; 1044 :             if (_Whereptr == _Oldlast) { // at back, provide strong guarantee

	cmp	rbx, rcx
	jne	SHORT $LN241@Load

; 863  :             _Alty_traits::construct(_Getal(), _Unfancy(_Mylast), _STD forward<_Valty>(_Val)...);

	mov	QWORD PTR [rcx], r12

; 869  :         ++_Mylast;

	add	QWORD PTR [rdi+8], 8

; 1046 :             } else {

	jmp	SHORT $LN1360@Load
$LN241@Load:

; 1052 :                 _Alty_traits::construct(_Al, _Unfancy(_Oldlast), _STD move(_Oldlast[-1]));

	mov	rax, QWORD PTR [rcx-8]
; File C:\Program Files\Microsoft Visual Studio\2022\Community\VC\Tools\MSVC\14.35.32215\include\xutility

; 4546 :     const auto _Count           = static_cast<size_t>(_Last_ch - _First_ch);

	mov	r8, rcx
; File C:\Program Files\Microsoft Visual Studio\2022\Community\VC\Tools\MSVC\14.35.32215\include\vector

; 1052 :                 _Alty_traits::construct(_Al, _Unfancy(_Oldlast), _STD move(_Oldlast[-1]));

	mov	QWORD PTR [rcx], rax
; File C:\Program Files\Microsoft Visual Studio\2022\Community\VC\Tools\MSVC\14.35.32215\include\xutility

; 4546 :     const auto _Count           = static_cast<size_t>(_Last_ch - _First_ch);

	sub	r8, rbx
; File C:\Program Files\Microsoft Visual Studio\2022\Community\VC\Tools\MSVC\14.35.32215\include\vector

; 1054 :                 ++_My_data._Mylast;

	add	QWORD PTR [rdi+8], 8
; File C:\Program Files\Microsoft Visual Studio\2022\Community\VC\Tools\MSVC\14.35.32215\include\xutility

; 4546 :     const auto _Count           = static_cast<size_t>(_Last_ch - _First_ch);

	sub	r8, 8

; 4547 :     auto _Result                = _CSTD memmove(_Dest_ch - _Count, _First_ch, _Count);

	sub	rcx, r8
	mov	rdx, rbx
	call	memmove
; File C:\Program Files\Microsoft Visual Studio\2022\Community\VC\Tools\MSVC\14.35.32215\include\vector

; 1056 :                 *_Whereptr = _STD move(_Obj._Get_value());

	mov	QWORD PTR [rbx], r12

; 1057 :             }
; 1058 : 
; 1059 :             return _Make_iterator(_Whereptr);

	jmp	SHORT $LN1360@Load
$LN240@Load:

; 1062 :         return _Make_iterator(_Emplace_reallocate(_Whereptr, _STD forward<_Valty>(_Val)...));

	lea	r8, QWORD PTR Current$[rbp-256]
	mov	rdx, rbx
	mov	rcx, rdi
	call	??$_Emplace_reallocate@AEBQEAUSect@CInifile@@@?$vector@PEAUSect@CInifile@@V?$xalloc@PEAUSect@CInifile@@@@@std@@AEAAPEAPEAUSect@CInifile@@QEAPEAU23@AEBQEAU23@@Z ; std::vector<CInifile::Sect *,xalloc<CInifile::Sect *> >::_Emplace_reallocate<CInifile::Sect * const &>
$LN1360@Load:
	mov	rbx, QWORD PTR [rsp+18160]
	mov	r13, QWORD PTR [rsp+18152]
$LN239@Load:
; File C:\Users\Mahito\Desktop\Night outing\Night-outing\src\xrCore\Xr_ini.cpp

; 381  : }

	add	rsp, 18168				; 000046f8H
	pop	r15
	pop	r14
	pop	r12
	pop	rdi
	pop	rsi
	pop	rbp
	ret	0
$LN1361@Load:
?Load@CInifile@@AEAAXPEAVIReader@@PEBDV?$FastDelegate1@PEBD_N@fastdelegate@@@Z ENDP ; CInifile::Load
_TEXT	ENDS
; Function compile flags: /Ogtpy
; File C:\Users\Mahito\Desktop\Night outing\Night-outing\src\xrCore\xrstring.h
;	COMDAT ??1Item@CInifile@@QEAA@XZ
_TEXT	SEGMENT
this$ = 8
??1Item@CInifile@@QEAA@XZ PROC				; CInifile::Item::~Item, COMDAT

; 61   : 	void				_dec		()								{	if (0==p_) return;	p_->dwReference--; 	if (0==p_->dwReference)	p_=0;						}

	mov	rax, QWORD PTR [rcx+16]
	xor	edx, edx
	test	rax, rax
	je	SHORT $LN7@Item
	dec	DWORD PTR [rax]
	mov	rax, QWORD PTR [rcx+16]
	cmp	DWORD PTR [rax], edx
	jne	SHORT $LN7@Item
	mov	QWORD PTR [rcx+16], rdx
$LN7@Item:
	mov	rax, QWORD PTR [rcx+8]
	test	rax, rax
	je	SHORT $LN13@Item
	dec	DWORD PTR [rax]
	mov	rax, QWORD PTR [rcx+8]
	cmp	DWORD PTR [rax], edx
	jne	SHORT $LN13@Item
	mov	QWORD PTR [rcx+8], rdx
$LN13@Item:
	mov	rax, QWORD PTR [rcx]
	test	rax, rax
	je	SHORT $LN19@Item
	dec	DWORD PTR [rax]
	mov	rax, QWORD PTR [rcx]
	cmp	DWORD PTR [rax], edx
	jne	SHORT $LN19@Item
	mov	QWORD PTR [rcx], rdx
$LN19@Item:
	ret	0
??1Item@CInifile@@QEAA@XZ ENDP				; CInifile::Item::~Item
_TEXT	ENDS
; Function compile flags: /Ogtpy
; File C:\Users\Mahito\Desktop\Night outing\Night-outing\src\xrCore\Xr_ini.cpp
; File C:\Program Files\Microsoft Visual Studio\2022\Community\VC\Tools\MSVC\14.35.32215\include\vector
; File C:\Users\Mahito\Desktop\Night outing\Night-outing\src\xrCore\Xr_ini.cpp
; File C:\Program Files\Microsoft Visual Studio\2022\Community\VC\Tools\MSVC\14.35.32215\include\vector
; File C:\Users\Mahito\Desktop\Night outing\Night-outing\src\xrCore\Xr_ini.cpp
; File C:\Users\Mahito\Desktop\Night outing\Night-outing\src\xrCore\xrstring.h
; File C:\Users\Mahito\Desktop\Night outing\Night-outing\src\xrCore\Xr_ini.cpp
; File C:\Users\Mahito\Desktop\Night outing\Night-outing\src\xrCore\FS.h
; File C:\Users\Mahito\Desktop\Night outing\Night-outing\src\xrCore\_std_extensions.h
; File C:\Users\Mahito\Desktop\Night outing\Night-outing\src\xrCore\FS.h
; File C:\Program Files\Microsoft Visual Studio\2022\Community\VC\Tools\MSVC\14.35.32215\include\vector
; File C:\Users\Mahito\Desktop\Night outing\Night-outing\src\xrCore\Xr_ini.cpp
; File C:\Program Files\Microsoft Visual Studio\2022\Community\VC\Tools\MSVC\14.35.32215\include\vector
; File C:\Users\Mahito\Desktop\Night outing\Night-outing\src\xrCore\Xr_ini.cpp
; File C:\Users\Mahito\Desktop\Night outing\Night-outing\src\xrCore\xrstring.h
; File C:\Users\Mahito\Desktop\Night outing\Night-outing\src\xrCore\Xr_ini.cpp
; File C:\Users\Mahito\Desktop\Night outing\Night-outing\src\xrCore\xrstring.h
; File C:\Users\Mahito\Desktop\Night outing\Night-outing\src\xrCore\Xr_ini.cpp
; File C:\Users\Mahito\Desktop\Night outing\Night-outing\src\xrCore\xrstring.h
; File C:\Users\Mahito\Desktop\Night outing\Night-outing\src\xrCore\Xr_ini.cpp
; File C:\Users\Mahito\Desktop\Night outing\Night-outing\src\xrCore\xrstring.h
; File C:\Users\Mahito\Desktop\Night outing\Night-outing\src\xrCore\Xr_ini.cpp
; File C:\Users\Mahito\Desktop\Night outing\Night-outing\src\xrCore\xrstring.h
; File C:\Users\Mahito\Desktop\Night outing\Night-outing\src\xrCore\Xr_ini.cpp
; File C:\Users\Mahito\Desktop\Night outing\Night-outing\src\xrCore\xrstring.h
; File C:\Users\Mahito\Desktop\Night outing\Night-outing\src\xrCore\Xr_ini.cpp
; File C:\Users\Mahito\Desktop\Night outing\Night-outing\src\xrCore\xrstring.h
; File C:\Users\Mahito\Desktop\Night outing\Night-outing\src\xrCore\Xr_ini.cpp
; File C:\Users\Mahito\Desktop\Night outing\Night-outing\src\xrCore\xrstring.h
; File C:\Users\Mahito\Desktop\Night outing\Night-outing\src\xrCore\Xr_ini.cpp
; File C:\Users\Mahito\Desktop\Night outing\Night-outing\src\xrCore\xrstring.h
; File C:\Users\Mahito\Desktop\Night outing\Night-outing\src\xrCore\Xr_ini.cpp
; File C:\Users\Mahito\Desktop\Night outing\Night-outing\src\xrCore\xrstring.h
; File C:\Users\Mahito\Desktop\Night outing\Night-outing\src\xrCore\Xr_ini.cpp
; File C:\Users\Mahito\Desktop\Night outing\Night-outing\src\xrCore\_std_extensions.h
; File C:\Users\Mahito\Desktop\Night outing\Night-outing\src\xrCore\xr_trims.cpp
; File C:\Users\Mahito\Desktop\Night outing\Night-outing\src\xrCore\Xr_ini.cpp
; File C:\Users\Mahito\Desktop\Night outing\Night-outing\src\xrCore\FS.h
; File C:\Users\Mahito\Desktop\Night outing\Night-outing\src\xrCore\_std_extensions.h
; File C:\Users\Mahito\Desktop\Night outing\Night-outing\src\xrCore\FS.h
; File C:\Program Files\Microsoft Visual Studio\2022\Community\VC\Tools\MSVC\14.35.32215\include\vector
; File C:\Users\Mahito\Desktop\Night outing\Night-outing\src\xrCore\Xr_ini.cpp
; File C:\Users\Mahito\Desktop\Night outing\Night-outing\src\xrCore\FS.h
; File C:\Program Files\Microsoft Visual Studio\2022\Community\VC\Tools\MSVC\14.35.32215\include\vector
; File C:\Users\Mahito\Desktop\Night outing\Night-outing\src\xrCore\Xr_ini.cpp
_TEXT	SEGMENT
temp$ = 64
val$ = 4160
$T1 = 8304
this$ = 8304
writer$ = 8312
bcheck$dead$ = 8320
d$ = 8320
d$ = 8320
d$ = 8320
d$ = 8320
d$ = 8320
d$ = 8320
?save_as@CInifile@@QEBAXAEAVIWriter@@_N@Z PROC		; CInifile::save_as

; 384  : {

$LN163:
	mov	BYTE PTR [rsp+24], r8b
	push	rbp
	push	rsi
	push	rdi
	push	r14
	lea	rbp, QWORD PTR [rsp-8008]
	mov	eax, 8264				; 00002048H
	call	__chkstk
	sub	rsp, rax
; File C:\Program Files\Microsoft Visual Studio\2022\Community\VC\Tools\MSVC\14.35.32215\include\vector

; 41   :     _CONSTEXPR20 _Vector_const_iterator(_Tptr _Parg, const _Container_base* _Pvector) noexcept : _Ptr(_Parg) {

	mov	rdi, QWORD PTR [rcx+536]
; File C:\Users\Mahito\Desktop\Night outing\Night-outing\src\xrCore\Xr_ini.cpp

; 384  : {

	mov	rsi, rdx
	mov	r14, rcx
; File C:\Program Files\Microsoft Visual Studio\2022\Community\VC\Tools\MSVC\14.35.32215\include\vector

; 156  :         return _Ptr == _Right._Ptr;

	cmp	rdi, QWORD PTR [rcx+544]
; File C:\Users\Mahito\Desktop\Night outing\Night-outing\src\xrCore\Xr_ini.cpp

; 386  :     for (RootCIt r_it=DATA.begin(); r_it!=DATA.end(); ++r_it)

	je	$LN3@save_as
	mov	QWORD PTR [rsp+8312], rbx
	mov	QWORD PTR [rsp+8256], r15
	xor	r15d, r15d
	npad	4
$LL4@save_as:

; 388  :         xr_sprintf		(temp, sizeof(temp), "[%s]", (*r_it)->Name.c_str());

	mov	rax, QWORD PTR [rdi]
	lea	r8, OFFSET FLAT:??_C@_04LIFAFMCE@?$FL?$CFs?$FN@
	mov	edx, 4096				; 00001000H
; File C:\Users\Mahito\Desktop\Night outing\Night-outing\src\xrCore\xrstring.h

; 83   : 	str_c				c_str		() const						{	return p_?p_->value:0;							}

	mov	rcx, QWORD PTR [rax]
; File C:\Users\Mahito\Desktop\Night outing\Night-outing\src\xrCore\Xr_ini.cpp

; 388  :         xr_sprintf		(temp, sizeof(temp), "[%s]", (*r_it)->Name.c_str());

	test	rcx, rcx
	lea	r9, QWORD PTR [rcx+20]
	cmove	r9, r15
	lea	rcx, QWORD PTR temp$[rsp]
	call	?xr_sprintf@@YAHPEAD_KPEBDZZ		; xr_sprintf
; File C:\Users\Mahito\Desktop\Night outing\Night-outing\src\xrCore\FS.h

; 57   : 	IC void			w_string(const char *p)			{	w(p,(u32)xr_strlen(p));w_u8(13);w_u8(10);	}

	mov	rax, QWORD PTR [rsi]
; File C:\Users\Mahito\Desktop\Night outing\Night-outing\src\xrCore\_std_extensions.h

; 186  : {	return (u32)strlen(S);			}

	lea	rcx, QWORD PTR temp$[rsp]
	mov	r8, -1
$LL158@save_as:
	inc	r8
	cmp	BYTE PTR [rcx+r8], r15b
	jne	SHORT $LL158@save_as
; File C:\Users\Mahito\Desktop\Night outing\Night-outing\src\xrCore\FS.h

; 57   : 	IC void			w_string(const char *p)			{	w(p,(u32)xr_strlen(p));w_u8(13);w_u8(10);	}

	lea	rdx, QWORD PTR temp$[rsp]
	mov	rcx, rsi
	call	QWORD PTR [rax+24]

; 51   : 	IC void			w_u8	(u8 d)					{	w(&d,sizeof(u8));	}

	mov	rax, QWORD PTR [rsi]
	lea	rdx, QWORD PTR d$[rbp-256]
	mov	r8d, 1

; 57   : 	IC void			w_string(const char *p)			{	w(p,(u32)xr_strlen(p));w_u8(13);w_u8(10);	}

	mov	BYTE PTR d$[rbp-256], 13

; 51   : 	IC void			w_u8	(u8 d)					{	w(&d,sizeof(u8));	}

	mov	rcx, rsi
	call	QWORD PTR [rax+24]
	mov	rax, QWORD PTR [rsi]
	lea	rdx, QWORD PTR d$[rbp-256]
	mov	r8d, 1

; 57   : 	IC void			w_string(const char *p)			{	w(p,(u32)xr_strlen(p));w_u8(13);w_u8(10);	}

	mov	BYTE PTR d$[rbp-256], 10

; 51   : 	IC void			w_u8	(u8 d)					{	w(&d,sizeof(u8));	}

	mov	rcx, rsi
	call	QWORD PTR [rax+24]
; File C:\Program Files\Microsoft Visual Studio\2022\Community\VC\Tools\MSVC\14.35.32215\include\vector

; 1859 :         return iterator(_My_data._Myfirst, _STD addressof(_My_data));

	mov	rax, QWORD PTR [rdi]
; File C:\Users\Mahito\Desktop\Night outing\Night-outing\src\xrCore\Xr_ini.cpp

; 398  :         for (SectCIt s_it=(*r_it)->Data.begin(); s_it!=(*r_it)->Data.end(); ++s_it)

	mov	rbx, QWORD PTR [rax+8]
; File C:\Program Files\Microsoft Visual Studio\2022\Community\VC\Tools\MSVC\14.35.32215\include\vector

; 156  :         return _Ptr == _Right._Ptr;

	cmp	rbx, QWORD PTR [rax+16]
; File C:\Users\Mahito\Desktop\Night outing\Night-outing\src\xrCore\Xr_ini.cpp

; 398  :         for (SectCIt s_it=(*r_it)->Data.begin(); s_it!=(*r_it)->Data.end(); ++s_it)

	je	$LN6@save_as
	npad	11
$LL7@save_as:
; File C:\Users\Mahito\Desktop\Night outing\Night-outing\src\xrCore\xrstring.h

; 80   : 	str_c				operator*	() const						{	return p_?p_->value:0;							}

	mov	rcx, QWORD PTR [rbx]
; File C:\Users\Mahito\Desktop\Night outing\Night-outing\src\xrCore\Xr_ini.cpp

; 401  :             if (*I.first) 

	test	rcx, rcx
	lea	rdx, QWORD PTR [rcx+20]
	mov	rax, rdx
	cmove	rax, r15
	test	rax, rax
	je	$LN9@save_as
; File C:\Users\Mahito\Desktop\Night outing\Night-outing\src\xrCore\xrstring.h

; 80   : 	str_c				operator*	() const						{	return p_?p_->value:0;							}

	mov	rax, QWORD PTR [rbx+8]
	test	rax, rax
	je	$LN11@save_as
; File C:\Users\Mahito\Desktop\Night outing\Night-outing\src\xrCore\Xr_ini.cpp

; 403  :                 if (*I.second) 

	lea	r9, QWORD PTR [rax+20]
	add	rax, 20
	je	$LN11@save_as

; 65   : 		while (*src) 

	movzx	edx, BYTE PTR [r9]

; 404  : 				{
; 405  :                     _decorate	(val, *I.second);

	lea	rax, QWORD PTR val$[rbp-256]

; 64   : 		BOOL bInsideSTR = false;

	mov	r8d, r15d

; 65   : 		while (*src) 

	test	dl, dl
	je	SHORT $LN75@save_as
$LL74@save_as:

; 66   : 		{
; 67   : 			if (*src == ',') 

	mov	rcx, rax
	cmp	dl, 44					; 0000002cH
	jne	SHORT $LN77@save_as

; 68   : 			{
; 69   : 				if (bInsideSTR) { *dest++ = *src++; }

	inc	rax
	mov	BYTE PTR [rcx], dl
	test	r8d, r8d
	jne	SHORT $LN144@save_as

; 70   : 				else			{ *dest++ = *src++; *dest++ = ' '; }

	mov	BYTE PTR [rax], 32			; 00000020H

; 71   : 				continue;

	jmp	SHORT $LN160@save_as
$LN77@save_as:

; 72   : 			} else if (*src=='"')

	cmp	dl, 34					; 00000022H
	jne	SHORT $LN81@save_as

; 73   : 			{
; 74   : 				bInsideSTR = !bInsideSTR;

	test	r8d, r8d
	mov	ecx, r15d
	sete	cl
	mov	r8d, ecx
$LN81@save_as:

; 75   : 			}
; 76   : 			*dest++ = *src++;

	mov	BYTE PTR [rax], dl
$LN160@save_as:

; 65   : 		while (*src) 

	inc	rax
$LN144@save_as:
	movzx	edx, BYTE PTR [r9+1]
	inc	r9
	test	dl, dl
	jne	SHORT $LL74@save_as
$LN75@save_as:
; File C:\Users\Mahito\Desktop\Night outing\Night-outing\src\xrCore\xrstring.h

; 73   : 						shared_str	(str_c rhs) 					{	p_ = 0;	_set(rhs);								}

	xor	edx, edx
; File C:\Users\Mahito\Desktop\Night outing\Night-outing\src\xrCore\Xr_ini.cpp

; 79   : 	*dest = 0;

	mov	BYTE PTR [rax], r15b
; File C:\Users\Mahito\Desktop\Night outing\Night-outing\src\xrCore\xrstring.h

; 73   : 						shared_str	(str_c rhs) 					{	p_ = 0;	_set(rhs);								}

	lea	rcx, QWORD PTR $T1[rbp-256]
	mov	QWORD PTR $T1[rbp-256], r15
	call	?_set@shared_str@@QEAAXPEBD@Z		; shared_str::_set

; 110  : IC bool operator	!=	(shared_str const & a, shared_str const & b)		{ return a._get() != b._get();					}

	mov	rax, QWORD PTR $T1[rbp-256]
	cmp	QWORD PTR [rbx+16], rax
	setne	cl

; 61   : 	void				_dec		()								{	if (0==p_) return;	p_->dwReference--; 	if (0==p_->dwReference)	p_=0;						}

	test	rax, rax
	je	SHORT $LN91@save_as
	dec	DWORD PTR [rax]
$LN91@save_as:
; File C:\Users\Mahito\Desktop\Night outing\Night-outing\src\xrCore\Xr_ini.cpp

; 407  : 					if (I.comment != NULL)

	lea	r9, OFFSET FLAT:??_C@_01CLKCMJKC@?5@
	test	cl, cl
	je	SHORT $LN13@save_as
; File C:\Users\Mahito\Desktop\Night outing\Night-outing\src\xrCore\xrstring.h

; 83   : 	str_c				c_str		() const						{	return p_?p_->value:0;							}

	mov	rax, QWORD PTR [rbx+16]
; File C:\Users\Mahito\Desktop\Night outing\Night-outing\src\xrCore\Xr_ini.cpp

; 408  : 						xr_sprintf(temp, sizeof(temp), "%8s%-32s = %-32s ;%s", " ", I.first.c_str(), val, I.comment.c_str());

	lea	r8, OFFSET FLAT:??_C@_0BF@LHOOJCMC@?$CF8s?$CF?932s?5?$DN?5?$CF?932s?5?$DL?$CFs@
; File C:\Users\Mahito\Desktop\Night outing\Night-outing\src\xrCore\xrstring.h

; 83   : 	str_c				c_str		() const						{	return p_?p_->value:0;							}

	mov	rdx, QWORD PTR [rbx]
; File C:\Users\Mahito\Desktop\Night outing\Night-outing\src\xrCore\Xr_ini.cpp

; 408  : 						xr_sprintf(temp, sizeof(temp), "%8s%-32s = %-32s ;%s", " ", I.first.c_str(), val, I.comment.c_str());

	test	rax, rax
	lea	rcx, QWORD PTR [rax+20]
	cmove	rcx, r15
	lea	rax, QWORD PTR [rdx+20]
	mov	QWORD PTR [rsp+48], rcx
	test	rdx, rdx
	lea	rcx, QWORD PTR val$[rbp-256]
	mov	edx, 4096				; 00001000H
	mov	QWORD PTR [rsp+40], rcx
	cmove	rax, r15
	lea	rcx, QWORD PTR temp$[rsp]
	mov	QWORD PTR [rsp+32], rax
	call	?xr_sprintf@@YAHPEAD_KPEBDZZ		; xr_sprintf
	jmp	SHORT $LN10@save_as
$LN13@save_as:
; File C:\Users\Mahito\Desktop\Night outing\Night-outing\src\xrCore\xrstring.h

; 83   : 	str_c				c_str		() const						{	return p_?p_->value:0;							}

	mov	rax, QWORD PTR [rbx]
; File C:\Users\Mahito\Desktop\Night outing\Night-outing\src\xrCore\Xr_ini.cpp

; 410  : 						xr_sprintf(temp, sizeof(temp), "%8s%-32s = %-32s", " ", I.first.c_str(), val);

	lea	r8, OFFSET FLAT:??_C@_0BB@DGLKGBOG@?$CF8s?$CF?932s?5?$DN?5?$CF?932s@
	test	rax, rax
	mov	edx, 4096				; 00001000H
	lea	rcx, QWORD PTR [rax+20]
	cmove	rcx, r15
	lea	rax, QWORD PTR val$[rbp-256]
	mov	QWORD PTR [rsp+40], rax
	mov	QWORD PTR [rsp+32], rcx
	lea	rcx, QWORD PTR temp$[rsp]
	call	?xr_sprintf@@YAHPEAD_KPEBDZZ		; xr_sprintf

; 411  :                 }else 

	jmp	SHORT $LN10@save_as
$LN11@save_as:
; File C:\Users\Mahito\Desktop\Night outing\Night-outing\src\xrCore\xrstring.h

; 83   : 	str_c				c_str		() const						{	return p_?p_->value:0;							}

	test	rcx, rcx
; File C:\Users\Mahito\Desktop\Night outing\Night-outing\src\xrCore\Xr_ini.cpp

; 414  :                     xr_sprintf(temp, sizeof(temp), "%8s%-32s = "," ",I.first.c_str());

	lea	r9, OFFSET FLAT:??_C@_01CLKCMJKC@?5@
; File C:\Users\Mahito\Desktop\Night outing\Night-outing\src\xrCore\xrstring.h

; 83   : 	str_c				c_str		() const						{	return p_?p_->value:0;							}

	mov	rax, r15
; File C:\Users\Mahito\Desktop\Night outing\Night-outing\src\xrCore\Xr_ini.cpp

; 414  :                     xr_sprintf(temp, sizeof(temp), "%8s%-32s = "," ",I.first.c_str());

	lea	r8, OFFSET FLAT:??_C@_0M@FGDEMPPI@?$CF8s?$CF?932s?5?$DN?5@
; File C:\Users\Mahito\Desktop\Night outing\Night-outing\src\xrCore\xrstring.h

; 83   : 	str_c				c_str		() const						{	return p_?p_->value:0;							}

	cmovne	rax, rdx
; File C:\Users\Mahito\Desktop\Night outing\Night-outing\src\xrCore\Xr_ini.cpp

; 414  :                     xr_sprintf(temp, sizeof(temp), "%8s%-32s = "," ",I.first.c_str());

	lea	rcx, QWORD PTR temp$[rsp]
	mov	edx, 4096				; 00001000H
	mov	QWORD PTR [rsp+32], rax
	call	?xr_sprintf@@YAHPEAD_KPEBDZZ		; xr_sprintf

; 415  :                 }
; 416  :             }else 

	jmp	SHORT $LN10@save_as
$LN9@save_as:

; 417  : 			{
; 418  :                 // no name, so no value
; 419  : 				temp[0]		= 0;

	mov	BYTE PTR temp$[rsp], r15b
$LN10@save_as:
; File C:\Users\Mahito\Desktop\Night outing\Night-outing\src\xrCore\_std_extensions.h

; 186  : {	return (u32)strlen(S);			}

	lea	rcx, QWORD PTR temp$[rsp]
	mov	rax, -1
	npad	7
$LL157@save_as:
	inc	rax
	cmp	BYTE PTR [rcx+rax], r15b
	jne	SHORT $LL157@save_as
; File C:\Users\Mahito\Desktop\Night outing\Night-outing\src\xrCore\xr_trims.cpp

; 17   : 	LPSTR p 	= str+xr_strlen(str);

	mov	eax, eax
	lea	rcx, QWORD PTR temp$[rsp]
	add	rcx, rax

; 18   : 	while( (p!=str) && (u8(*p)<=u8(' ')) ) p--;

	test	rax, rax
	je	SHORT $LN159@save_as
$LL52@save_as:
	cmp	BYTE PTR [rcx], 32			; 00000020H
	ja	SHORT $LN159@save_as
	dec	rcx
	lea	rax, QWORD PTR temp$[rsp]
	cmp	rcx, rax
	jne	SHORT $LL52@save_as
$LN159@save_as:

; 19   :     *(++p) 		= 0;

	mov	BYTE PTR [rcx+1], r15b
; File C:\Users\Mahito\Desktop\Night outing\Night-outing\src\xrCore\Xr_ini.cpp

; 422  :             if (temp[0])		writer.w_string	(temp);

	cmp	BYTE PTR temp$[rsp], r15b
	je	SHORT $LN5@save_as
; File C:\Users\Mahito\Desktop\Night outing\Night-outing\src\xrCore\FS.h

; 57   : 	IC void			w_string(const char *p)			{	w(p,(u32)xr_strlen(p));w_u8(13);w_u8(10);	}

	mov	rax, QWORD PTR [rsi]
; File C:\Users\Mahito\Desktop\Night outing\Night-outing\src\xrCore\_std_extensions.h

; 186  : {	return (u32)strlen(S);			}

	lea	rcx, QWORD PTR temp$[rsp]
	mov	r8, -1
$LL156@save_as:
	inc	r8
	cmp	BYTE PTR [rcx+r8], r15b
	jne	SHORT $LL156@save_as
; File C:\Users\Mahito\Desktop\Night outing\Night-outing\src\xrCore\FS.h

; 57   : 	IC void			w_string(const char *p)			{	w(p,(u32)xr_strlen(p));w_u8(13);w_u8(10);	}

	lea	rdx, QWORD PTR temp$[rsp]
	mov	rcx, rsi
	call	QWORD PTR [rax+24]

; 51   : 	IC void			w_u8	(u8 d)					{	w(&d,sizeof(u8));	}

	mov	rax, QWORD PTR [rsi]
	lea	rdx, QWORD PTR d$[rbp-256]
	mov	r8d, 1

; 57   : 	IC void			w_string(const char *p)			{	w(p,(u32)xr_strlen(p));w_u8(13);w_u8(10);	}

	mov	BYTE PTR d$[rbp-256], 13

; 51   : 	IC void			w_u8	(u8 d)					{	w(&d,sizeof(u8));	}

	mov	rcx, rsi
	call	QWORD PTR [rax+24]
	mov	rax, QWORD PTR [rsi]
	lea	rdx, QWORD PTR d$[rbp-256]
	mov	r8d, 1

; 57   : 	IC void			w_string(const char *p)			{	w(p,(u32)xr_strlen(p));w_u8(13);w_u8(10);	}

	mov	BYTE PTR d$[rbp-256], 10

; 51   : 	IC void			w_u8	(u8 d)					{	w(&d,sizeof(u8));	}

	mov	rcx, rsi
	call	QWORD PTR [rax+24]
$LN5@save_as:
; File C:\Program Files\Microsoft Visual Studio\2022\Community\VC\Tools\MSVC\14.35.32215\include\vector

; 156  :         return _Ptr == _Right._Ptr;

	mov	rax, QWORD PTR [rdi]

; 74   :         ++_Ptr;

	add	rbx, 24

; 156  :         return _Ptr == _Right._Ptr;

	cmp	rbx, QWORD PTR [rax+16]
; File C:\Users\Mahito\Desktop\Night outing\Night-outing\src\xrCore\Xr_ini.cpp

; 398  :         for (SectCIt s_it=(*r_it)->Data.begin(); s_it!=(*r_it)->Data.end(); ++s_it)

	jne	$LL7@save_as
$LN6@save_as:
; File C:\Users\Mahito\Desktop\Night outing\Night-outing\src\xrCore\FS.h

; 57   : 	IC void			w_string(const char *p)			{	w(p,(u32)xr_strlen(p));w_u8(13);w_u8(10);	}

	mov	rax, QWORD PTR [rsi]
	lea	rdx, OFFSET FLAT:??_C@_01CLKCMJKC@?5@
	mov	r8d, 1
	mov	rcx, rsi
	call	QWORD PTR [rax+24]

; 51   : 	IC void			w_u8	(u8 d)					{	w(&d,sizeof(u8));	}

	mov	rax, QWORD PTR [rsi]
	lea	rdx, QWORD PTR d$[rbp-256]
	mov	r8d, 1

; 57   : 	IC void			w_string(const char *p)			{	w(p,(u32)xr_strlen(p));w_u8(13);w_u8(10);	}

	mov	BYTE PTR d$[rbp-256], 13

; 51   : 	IC void			w_u8	(u8 d)					{	w(&d,sizeof(u8));	}

	mov	rcx, rsi
	call	QWORD PTR [rax+24]
	mov	rax, QWORD PTR [rsi]
	lea	rdx, QWORD PTR d$[rbp-256]
	mov	r8d, 1

; 57   : 	IC void			w_string(const char *p)			{	w(p,(u32)xr_strlen(p));w_u8(13);w_u8(10);	}

	mov	BYTE PTR d$[rbp-256], 10

; 51   : 	IC void			w_u8	(u8 d)					{	w(&d,sizeof(u8));	}

	mov	rcx, rsi
	call	QWORD PTR [rax+24]
; File C:\Program Files\Microsoft Visual Studio\2022\Community\VC\Tools\MSVC\14.35.32215\include\vector

; 74   :         ++_Ptr;

	add	rdi, 8

; 156  :         return _Ptr == _Right._Ptr;

	cmp	rdi, QWORD PTR [r14+544]
; File C:\Users\Mahito\Desktop\Night outing\Night-outing\src\xrCore\Xr_ini.cpp

; 386  :     for (RootCIt r_it=DATA.begin(); r_it!=DATA.end(); ++r_it)

	jne	$LL4@save_as
	mov	r15, QWORD PTR [rsp+8256]
	mov	rbx, QWORD PTR [rsp+8312]
$LN3@save_as:

; 423  :         }
; 424  :         writer.w_string			(" ");
; 425  :     }
; 426  : }

	add	rsp, 8264				; 00002048H
	pop	r14
	pop	rdi
	pop	rsi
	pop	rbp
	ret	0
?save_as@CInifile@@QEBAXAEAVIWriter@@_N@Z ENDP		; CInifile::save_as
_TEXT	ENDS
; Function compile flags: /Ogtpy
; File C:\Users\Mahito\Desktop\Night outing\Night-outing\src\xrCore\Xr_ini.cpp
; File C:\Users\Mahito\Desktop\Night outing\Night-outing\src\xrCore\xrDebugNew.cpp
; File C:\Users\Mahito\Desktop\Night outing\Night-outing\src\xrCore\LocatorAPI.h
; File C:\Users\Mahito\Desktop\Night outing\Night-outing\src\xrCore\Xr_ini.cpp
_TEXT	SEGMENT
this$ = 96
new_fname$dead$ = 104
F$ = 104
?save_as@CInifile@@QEAA_NPEBD@Z PROC			; CInifile::save_as

; 429  : {

$LN17:
	mov	QWORD PTR [rsp+8], rbx
	mov	QWORD PTR [rsp+16], rdx
	push	rdi
	sub	rsp, 80					; 00000050H

; 430  : 	// save if needed
; 431  :     if (new_fname && new_fname[0])
; 432  : 		xr_strcpy		(m_file_name, sizeof(m_file_name), new_fname);
; 433  : 
; 434  :     R_ASSERT			(m_file_name&&m_file_name[0]);

	lea	rbx, QWORD PTR [rcx+9]
	mov	rdi, rcx
	test	rbx, rbx
	je	SHORT $LN7@save_as
	cmp	BYTE PTR [rbx], 0
	jne	SHORT $LN2@save_as
$LN7@save_as:
; File C:\Users\Mahito\Desktop\Night outing\Night-outing\src\xrCore\xrDebugNew.cpp

; 388  :     backend(e1, "assertion failed", 0, 0, file, line, function, ignore_always);

	lea	rax, OFFSET FLAT:??_C@_0BC@LBCCFBEL@CInifile?3?3save_as@
	xor	r9d, r9d
	mov	QWORD PTR [rsp+56], rax
	lea	r8, OFFSET FLAT:??_C@_0BB@DBHFCHNO@assertion?5failed@
	lea	rax, OFFSET FLAT:??_C@_0EI@OLNNDBE@C?3?2Users?2Mahito?2Desktop?2Night?5o@
	mov	DWORD PTR [rsp+48], 434			; 000001b2H
	lea	rdx, OFFSET FLAT:??_C@_0BM@DCJLNCCH@m_file_name?$CG?$CGm_file_name?$FL0?$FN@
	mov	QWORD PTR [rsp+40], rax
	lea	rcx, OFFSET FLAT:?Debug@@3VxrDebug@@A	; Debug
	call	?backend@xrDebug@@QEAAXPEBD0000H0AEA_N@Z ; xrDebug::backend
$LN2@save_as:
; File C:\Users\Mahito\Desktop\Night outing\Night-outing\src\xrCore\LocatorAPI.h

; 140  : 	IC IWriter*					w_open_ex			(LPCSTR N){return w_open_ex(0,N);}

	mov	r8, rbx
	call	?w_open_ex@CLocatorAPI@@QEAAPEAVIWriter@@PEBD0@Z ; CLocatorAPI::w_open_ex
	mov	QWORD PTR F$[rsp], rax
; File C:\Users\Mahito\Desktop\Night outing\Night-outing\src\xrCore\Xr_ini.cpp

; 436  :     if (!F)

	test	rax, rax
	jne	SHORT $LN8@save_as

; 441  :     return				(true);
; 442  : }

	mov	rbx, QWORD PTR [rsp+96]
	add	rsp, 80					; 00000050H
	pop	rdi
	ret	0
$LN8@save_as:

; 437  : 		return			(false);
; 438  : 
; 439  : 	save_as				(*F);

	mov	rdx, rax
	mov	rcx, rdi
	call	?save_as@CInifile@@QEBAXAEAVIWriter@@_N@Z ; CInifile::save_as

; 440  :     FS.w_close			(F);

	lea	rdx, QWORD PTR F$[rsp]
	call	?w_close@CLocatorAPI@@QEAAXAEAPEAVIWriter@@@Z ; CLocatorAPI::w_close

; 441  :     return				(true);
; 442  : }

	mov	rbx, QWORD PTR [rsp+96]
	mov	al, 1
	add	rsp, 80					; 00000050H
	pop	rdi
	ret	0
?save_as@CInifile@@QEAA_NPEBD@Z ENDP			; CInifile::save_as
_TEXT	ENDS
; Function compile flags: /Ogtpy
; File C:\Users\Mahito\Desktop\Night outing\Night-outing\src\xrCore\Xr_ini.cpp
; File C:\Users\Mahito\Desktop\Night outing\Night-outing\src\xrCore\_std_extensions.h
; File C:\Users\Mahito\Desktop\Night outing\Night-outing\src\xrCore\Xr_ini.cpp
; File C:\Users\Mahito\Desktop\Night outing\Night-outing\src\xrCore\_std_extensions.h
; File C:\Users\Mahito\Desktop\Night outing\Night-outing\src\xrCore\Xr_ini.cpp
; File C:\Program Files\Microsoft Visual Studio\2022\Community\VC\Tools\MSVC\14.35.32215\include\xutility
; File C:\Users\Mahito\Desktop\Night outing\Night-outing\src\xrCore\_std_extensions.h
; File C:\Program Files\Microsoft Visual Studio\2022\Community\VC\Tools\MSVC\14.35.32215\include\xutility
; File C:\Users\Mahito\Desktop\Night outing\Night-outing\src\xrCore\xrstring.h
; File C:\Users\Mahito\Desktop\Night outing\Night-outing\src\xrCore\_std_extensions.h
; File C:\Users\Mahito\Desktop\Night outing\Night-outing\src\xrCore\Xr_ini.cpp
; File C:\Program Files\Microsoft Visual Studio\2022\Community\VC\Tools\MSVC\14.35.32215\include\xutility
; File C:\Program Files\Microsoft Visual Studio\2022\Community\VC\Tools\MSVC\14.35.32215\include\vector
; File C:\Users\Mahito\Desktop\Night outing\Night-outing\src\xrCore\Xr_ini.cpp
; File C:\Users\Mahito\Desktop\Night outing\Night-outing\src\xrCore\_std_extensions.h
; File C:\Users\Mahito\Desktop\Night outing\Night-outing\src\xrCore\xrstring.h
; File C:\Users\Mahito\Desktop\Night outing\Night-outing\src\xrCore\_std_extensions.h
; File C:\Users\Mahito\Desktop\Night outing\Night-outing\src\xrCore\Xr_ini.cpp
_TEXT	SEGMENT
section$ = 48
this$ = 320
S$ = 328
?r_section@CInifile@@QEBAAEAUSect@1@PEBD@Z PROC		; CInifile::r_section

; 483  : {

$LN63:
	mov	QWORD PTR [rsp+8], rbx
	mov	QWORD PTR [rsp+16], rsi
	push	rdi
	sub	rsp, 304				; 00000130H
; File C:\Users\Mahito\Desktop\Night outing\Night-outing\src\xrCore\_std_extensions.h

; 229  : 	return						strncpy_s( destination, destination_size, source, destination_size );

	mov	r9d, 256				; 00000100H
; File C:\Users\Mahito\Desktop\Night outing\Night-outing\src\xrCore\Xr_ini.cpp

; 483  : {

	mov	rsi, rdx
	mov	rbx, rcx
; File C:\Users\Mahito\Desktop\Night outing\Night-outing\src\xrCore\_std_extensions.h

; 229  : 	return						strncpy_s( destination, destination_size, source, destination_size );

	mov	r8, rdx
	mov	edx, r9d
	lea	rcx, QWORD PTR section$[rsp]
	call	QWORD PTR __imp_strncpy_s
; File C:\Users\Mahito\Desktop\Night outing\Night-outing\src\xrCore\Xr_ini.cpp

; 484  : 	char	section[256]; xr_strcpy(section,sizeof(section),S); strlwr(section);

	lea	rcx, QWORD PTR section$[rsp]
	call	QWORD PTR __imp_strlwr
; File C:\Program Files\Microsoft Visual Studio\2022\Community\VC\Tools\MSVC\14.35.32215\include\xutility

; 1207 :         return _Last - _First; // assume the iterator will do debug checking

	mov	r11, QWORD PTR [rbx+544]

; 6713 :     auto _UFirst                = _Get_unwrapped(_First);

	mov	rdi, QWORD PTR [rbx+536]

; 1207 :         return _Last - _First; // assume the iterator will do debug checking

	mov	r8, r11
	sub	r8, rdi

; 6716 :     while (0 < _Count) { // divide and conquer, find half that contains answer

	xor	ebx, ebx

; 1207 :         return _Last - _First; // assume the iterator will do debug checking

	sar	r8, 3

; 6716 :     while (0 < _Count) { // divide and conquer, find half that contains answer

	test	r8, r8
	jle	SHORT $LN17@r_section
	npad	7
$LL16@r_section:

; 6717 :         const _Iter_diff_t<_FwdIt> _Count2 = _Count / 2;

	mov	r9, r8
; File C:\Users\Mahito\Desktop\Night outing\Night-outing\src\xrCore\_std_extensions.h

; 195  : {	return (int)strcmp(S1,S2);  }

	lea	rdx, QWORD PTR section$[rsp]
; File C:\Program Files\Microsoft Visual Studio\2022\Community\VC\Tools\MSVC\14.35.32215\include\xutility

; 6717 :         const _Iter_diff_t<_FwdIt> _Count2 = _Count / 2;

	shr	r9, 1

; 6719 :         if (_Pred(*_UMid, _Val)) { // try top half

	mov	rax, QWORD PTR [rdi+r9*8]

; 1179 :         _Where += _Off;

	lea	r10, QWORD PTR [rdi+r9*8]
; File C:\Users\Mahito\Desktop\Night outing\Night-outing\src\xrCore\xrstring.h

; 80   : 	str_c				operator*	() const						{	return p_?p_->value:0;							}

	mov	rcx, QWORD PTR [rax]
; File C:\Users\Mahito\Desktop\Night outing\Night-outing\src\xrCore\_std_extensions.h

; 195  : {	return (int)strcmp(S1,S2);  }

	test	rcx, rcx
	lea	rax, QWORD PTR [rcx+20]
	cmove	rax, rbx
	sub	rdx, rax
$LL58@r_section:
	movzx	ecx, BYTE PTR [rax]
	cmp	cl, BYTE PTR [rax+rdx]
	jne	SHORT $LN60@r_section
	inc	rax
	test	cl, cl
	jne	SHORT $LL58@r_section
	mov	eax, ebx
	jmp	SHORT $LN59@r_section
$LN60@r_section:
	sbb	eax, eax
	or	eax, 1
$LN59@r_section:
; File C:\Users\Mahito\Desktop\Night outing\Night-outing\src\xrCore\Xr_ini.cpp

; 18   : 	return xr_strcmp(*x->Name,val)<0;

	shr	eax, 31
; File C:\Program Files\Microsoft Visual Studio\2022\Community\VC\Tools\MSVC\14.35.32215\include\xutility

; 6719 :         if (_Pred(*_UMid, _Val)) { // try top half

	test	al, al
	je	SHORT $LN18@r_section

; 6720 :             _UFirst = _Next_iter(_UMid);
; 6721 :             _Count -= _Count2 + 1;

	mov	rax, -1
	lea	rdi, QWORD PTR [r10+8]
	sub	rax, r9
	add	r8, rax

; 6722 :         } else {

	jmp	SHORT $LN19@r_section
$LN18@r_section:

; 6723 :             _Count = _Count2;

	mov	r8, r9
$LN19@r_section:

; 6714 :     _Iter_diff_t<_FwdIt> _Count = _STD distance(_UFirst, _Get_unwrapped(_Last));
; 6715 : 
; 6716 :     while (0 < _Count) { // divide and conquer, find half that contains answer

	test	r8, r8
	jg	SHORT $LL16@r_section
$LN17@r_section:
; File C:\Program Files\Microsoft Visual Studio\2022\Community\VC\Tools\MSVC\14.35.32215\include\vector

; 156  :         return _Ptr == _Right._Ptr;

	cmp	rdi, r11
; File C:\Users\Mahito\Desktop\Night outing\Night-outing\src\xrCore\Xr_ini.cpp

; 486  : 	if (!(I!=DATA.end() && xr_strcmp(*(*I)->Name,section)==0))

	je	SHORT $LN55@r_section
	mov	rax, QWORD PTR [rdi]
; File C:\Users\Mahito\Desktop\Night outing\Night-outing\src\xrCore\_std_extensions.h

; 195  : {	return (int)strcmp(S1,S2);  }

	lea	r9, QWORD PTR section$[rsp]
; File C:\Users\Mahito\Desktop\Night outing\Night-outing\src\xrCore\xrstring.h

; 80   : 	str_c				operator*	() const						{	return p_?p_->value:0;							}

	mov	rcx, QWORD PTR [rax]
; File C:\Users\Mahito\Desktop\Night outing\Night-outing\src\xrCore\_std_extensions.h

; 195  : {	return (int)strcmp(S1,S2);  }

	test	rcx, rcx
	lea	rdx, QWORD PTR [rcx+20]
	cmove	rdx, rbx
	sub	r9, rdx
	npad	4
$LL56@r_section:
	movzx	r8d, BYTE PTR [rdx]
	movzx	ecx, BYTE PTR [rdx+r9]
	sub	r8d, ecx
	jne	SHORT $LN57@r_section
	inc	rdx
	test	ecx, ecx
	jne	SHORT $LL56@r_section
$LN57@r_section:
; File C:\Users\Mahito\Desktop\Night outing\Night-outing\src\xrCore\Xr_ini.cpp

; 486  : 	if (!(I!=DATA.end() && xr_strcmp(*(*I)->Name,section)==0))

	test	r8d, r8d
	je	SHORT $LN2@r_section
$LN55@r_section:

; 487  : 	{
; 488  : 
; 489  : 		//g_pStringContainer->verify();
; 490  : 
; 491  : 		//string_path			ini_dump_fn, path;
; 492  : 		//strconcat			(sizeof(ini_dump_fn), ini_dump_fn, Core.ApplicationName, "_", Core.UserName, ".ini_log");
; 493  : 		//
; 494  : 		//FS.update_path		(path, "$logs$", ini_dump_fn);
; 495  : 		//IWriter* F			= FS.w_open_ex(path);
; 496  : 		//save_as				(*F);
; 497  : 		//F->w_string			("shared strings:");
; 498  : 		//g_pStringContainer->dump(F);
; 499  : 		//FS.w_close			(F);
; 500  : 
; 501  : 		Debug.fatal			(DEBUG_INFO,"Can't open section '%s'. Please attach [*.ini_log] file to your bug report",S);

	lea	rax, OFFSET FLAT:??_C@_0EL@KHMLHMDB@Can?8t?5open?5section?5?8?$CFs?8?4?5Please@
	mov	QWORD PTR [rsp+40], rsi
	lea	r9, OFFSET FLAT:??_C@_0BE@BCNJJKHP@CInifile?3?3r_section@
	mov	QWORD PTR [rsp+32], rax
	mov	r8d, 501				; 000001f5H
	lea	rdx, OFFSET FLAT:??_C@_0EI@OLNNDBE@C?3?2Users?2Mahito?2Desktop?2Night?5o@
	lea	rcx, OFFSET FLAT:?Debug@@3VxrDebug@@A	; Debug
	call	?fatal@xrDebug@@QEAAXPEBDH00ZZ		; xrDebug::fatal

; 502  : 	}
; 503  : 	return	**I;

	mov	rax, QWORD PTR [rdi]
$LN2@r_section:

; 504  : }

	lea	r11, QWORD PTR [rsp+304]
	mov	rbx, QWORD PTR [r11+16]
	mov	rsi, QWORD PTR [r11+24]
	mov	rsp, r11
	pop	rdi
	ret	0
?r_section@CInifile@@QEBAAEAUSect@1@PEBD@Z ENDP		; CInifile::r_section
_TEXT	ENDS
; Function compile flags: /Ogtpy
; File C:\Program Files\Microsoft Visual Studio\2022\Community\VC\Tools\MSVC\14.35.32215\include\vector
;	COMDAT ??E?$_Vector_iterator@V?$_Vector_val@U?$_Simple_types@PEAUSect@CInifile@@@std@@@std@@@std@@QEAAAEAV01@XZ
_TEXT	SEGMENT
this$ = 8
??E?$_Vector_iterator@V?$_Vector_val@U?$_Simple_types@PEAUSect@CInifile@@@std@@@std@@@std@@QEAAAEAV01@XZ PROC ; std::_Vector_iterator<std::_Vector_val<std::_Simple_types<CInifile::Sect *> > >::operator++, COMDAT

; 74   :         ++_Ptr;

	add	QWORD PTR [rcx], 8

; 276  :         _Mybase::operator++();
; 277  :         return *this;

	mov	rax, rcx

; 278  :     }

	ret	0
??E?$_Vector_iterator@V?$_Vector_val@U?$_Simple_types@PEAUSect@CInifile@@@std@@@std@@@std@@QEAAAEAV01@XZ ENDP ; std::_Vector_iterator<std::_Vector_val<std::_Simple_types<CInifile::Sect *> > >::operator++
_TEXT	ENDS
; Function compile flags: /Ogtpy
; File C:\Program Files\Microsoft Visual Studio\2022\Community\VC\Tools\MSVC\14.35.32215\include\vector
;	COMDAT ??D?$_Vector_iterator@V?$_Vector_val@U?$_Simple_types@PEAUSect@CInifile@@@std@@@std@@@std@@QEBAAEAPEAUSect@CInifile@@XZ
_TEXT	SEGMENT
this$ = 8
??D?$_Vector_iterator@V?$_Vector_val@U?$_Simple_types@PEAUSect@CInifile@@@std@@@std@@@std@@QEBAAEAPEAUSect@CInifile@@XZ PROC ; std::_Vector_iterator<std::_Vector_val<std::_Simple_types<CInifile::Sect *> > >::operator*, COMDAT

; 261  :         return const_cast<reference>(_Mybase::operator*());

	mov	rax, QWORD PTR [rcx]

; 262  :     }

	ret	0
??D?$_Vector_iterator@V?$_Vector_val@U?$_Simple_types@PEAUSect@CInifile@@@std@@@std@@@std@@QEBAAEAPEAUSect@CInifile@@XZ ENDP ; std::_Vector_iterator<std::_Vector_val<std::_Simple_types<CInifile::Sect *> > >::operator*
_TEXT	ENDS
; Function compile flags: /Ogtpy
; File C:\Program Files\Microsoft Visual Studio\2022\Community\VC\Tools\MSVC\14.35.32215\include\vector
;	COMDAT ??9?$_Vector_const_iterator@V?$_Vector_val@U?$_Simple_types@PEAUSect@CInifile@@@std@@@std@@@std@@QEBA_NAEBV01@@Z
_TEXT	SEGMENT
this$ = 8
_Right$ = 16
??9?$_Vector_const_iterator@V?$_Vector_val@U?$_Simple_types@PEAUSect@CInifile@@@std@@@std@@@std@@QEBA_NAEBV01@@Z PROC ; std::_Vector_const_iterator<std::_Vector_val<std::_Simple_types<CInifile::Sect *> > >::operator!=, COMDAT

; 166  :         return !(*this == _Right);

	mov	rax, QWORD PTR [rdx]
	cmp	QWORD PTR [rcx], rax
	setne	al

; 167  :     }

	ret	0
??9?$_Vector_const_iterator@V?$_Vector_val@U?$_Simple_types@PEAUSect@CInifile@@@std@@@std@@@std@@QEBA_NAEBV01@@Z ENDP ; std::_Vector_const_iterator<std::_Vector_val<std::_Simple_types<CInifile::Sect *> > >::operator!=
_TEXT	ENDS
; Function compile flags: /Ogtpy
; File C:\Program Files\Microsoft Visual Studio\2022\Community\VC\Tools\MSVC\14.35.32215\include\vector
;	COMDAT ??E?$_Vector_const_iterator@V?$_Vector_val@U?$_Simple_types@PEAUSect@CInifile@@@std@@@std@@@std@@QEAAAEAV01@XZ
_TEXT	SEGMENT
this$ = 8
??E?$_Vector_const_iterator@V?$_Vector_val@U?$_Simple_types@PEAUSect@CInifile@@@std@@@std@@@std@@QEAAAEAV01@XZ PROC ; std::_Vector_const_iterator<std::_Vector_val<std::_Simple_types<CInifile::Sect *> > >::operator++, COMDAT

; 68   : #if _ITERATOR_DEBUG_LEVEL != 0
; 69   :         const auto _Mycont = static_cast<const _Myvec*>(this->_Getcont());
; 70   :         _STL_VERIFY(_Ptr, "can't increment value-initialized vector iterator");
; 71   :         _STL_VERIFY(_Ptr < _Mycont->_Mylast, "can't increment vector iterator past end");
; 72   : #endif // _ITERATOR_DEBUG_LEVEL != 0
; 73   : 
; 74   :         ++_Ptr;

	add	QWORD PTR [rcx], 8

; 75   :         return *this;

	mov	rax, rcx

; 76   :     }

	ret	0
??E?$_Vector_const_iterator@V?$_Vector_val@U?$_Simple_types@PEAUSect@CInifile@@@std@@@std@@@std@@QEAAAEAV01@XZ ENDP ; std::_Vector_const_iterator<std::_Vector_val<std::_Simple_types<CInifile::Sect *> > >::operator++
_TEXT	ENDS
; Function compile flags: /Ogtpy
; File C:\Program Files\Microsoft Visual Studio\2022\Community\VC\Tools\MSVC\14.35.32215\include\vector
;	COMDAT ??D?$_Vector_const_iterator@V?$_Vector_val@U?$_Simple_types@PEAUSect@CInifile@@@std@@@std@@@std@@QEBAAEBQEAUSect@CInifile@@XZ
_TEXT	SEGMENT
this$ = 8
??D?$_Vector_const_iterator@V?$_Vector_val@U?$_Simple_types@PEAUSect@CInifile@@@std@@@std@@@std@@QEBAAEBQEAUSect@CInifile@@XZ PROC ; std::_Vector_const_iterator<std::_Vector_val<std::_Simple_types<CInifile::Sect *> > >::operator*, COMDAT

; 46   : #if _ITERATOR_DEBUG_LEVEL != 0
; 47   :         const auto _Mycont = static_cast<const _Myvec*>(this->_Getcont());
; 48   :         _STL_VERIFY(_Ptr, "can't dereference value-initialized vector iterator");
; 49   :         _STL_VERIFY(
; 50   :             _Mycont->_Myfirst <= _Ptr && _Ptr < _Mycont->_Mylast, "can't dereference out of range vector iterator");
; 51   : #endif // _ITERATOR_DEBUG_LEVEL != 0
; 52   : 
; 53   :         return *_Ptr;

	mov	rax, QWORD PTR [rcx]

; 54   :     }

	ret	0
??D?$_Vector_const_iterator@V?$_Vector_val@U?$_Simple_types@PEAUSect@CInifile@@@std@@@std@@@std@@QEBAAEBQEAUSect@CInifile@@XZ ENDP ; std::_Vector_const_iterator<std::_Vector_val<std::_Simple_types<CInifile::Sect *> > >::operator*
_TEXT	ENDS
; Function compile flags: /Ogtpy
; File C:\Program Files\Microsoft Visual Studio\2022\Community\VC\Tools\MSVC\14.35.32215\include\vector
;	COMDAT ??E?$_Vector_iterator@V?$_Vector_val@U?$_Simple_types@UItem@CInifile@@@std@@@std@@@std@@QEAA?AV01@H@Z
_TEXT	SEGMENT
this$ = 8
__$ReturnUdt$ = 16
__formal$dead$ = 24
??E?$_Vector_iterator@V?$_Vector_val@U?$_Simple_types@UItem@CInifile@@@std@@@std@@@std@@QEAA?AV01@H@Z PROC ; std::_Vector_iterator<std::_Vector_val<std::_Simple_types<CInifile::Item> > >::operator++, COMDAT

; 281  :         _Vector_iterator _Tmp = *this;

	mov	rax, QWORD PTR [rcx]
	mov	QWORD PTR [rdx], rax

; 74   :         ++_Ptr;

	add	rax, 24
	mov	QWORD PTR [rcx], rax

; 282  :         _Mybase::operator++();
; 283  :         return _Tmp;

	mov	rax, rdx

; 284  :     }

	ret	0
??E?$_Vector_iterator@V?$_Vector_val@U?$_Simple_types@UItem@CInifile@@@std@@@std@@@std@@QEAA?AV01@H@Z ENDP ; std::_Vector_iterator<std::_Vector_val<std::_Simple_types<CInifile::Item> > >::operator++
_TEXT	ENDS
; Function compile flags: /Ogtpy
; File C:\Program Files\Microsoft Visual Studio\2022\Community\VC\Tools\MSVC\14.35.32215\include\vector
;	COMDAT ??C?$_Vector_iterator@V?$_Vector_val@U?$_Simple_types@UItem@CInifile@@@std@@@std@@@std@@QEBAPEAUItem@CInifile@@XZ
_TEXT	SEGMENT
this$ = 8
??C?$_Vector_iterator@V?$_Vector_val@U?$_Simple_types@UItem@CInifile@@@std@@@std@@@std@@QEBAPEAUItem@CInifile@@XZ PROC ; std::_Vector_iterator<std::_Vector_val<std::_Simple_types<CInifile::Item> > >::operator->, COMDAT

; 265  : #if _ITERATOR_DEBUG_LEVEL != 0
; 266  :         const auto _Mycont = static_cast<const _Myvec*>(this->_Getcont());
; 267  :         _STL_VERIFY(this->_Ptr, "can't dereference value-initialized vector iterator");
; 268  :         _STL_VERIFY(_Mycont->_Myfirst <= this->_Ptr && this->_Ptr < _Mycont->_Mylast,
; 269  :             "can't dereference out of range vector iterator");
; 270  : #endif // _ITERATOR_DEBUG_LEVEL != 0
; 271  : 
; 272  :         return this->_Ptr;

	mov	rax, QWORD PTR [rcx]

; 273  :     }

	ret	0
??C?$_Vector_iterator@V?$_Vector_val@U?$_Simple_types@UItem@CInifile@@@std@@@std@@@std@@QEBAPEAUItem@CInifile@@XZ ENDP ; std::_Vector_iterator<std::_Vector_val<std::_Simple_types<CInifile::Item> > >::operator->
_TEXT	ENDS
; Function compile flags: /Ogtpy
; File C:\Program Files\Microsoft Visual Studio\2022\Community\VC\Tools\MSVC\14.35.32215\include\vector
;	COMDAT ??D?$_Vector_iterator@V?$_Vector_val@U?$_Simple_types@UItem@CInifile@@@std@@@std@@@std@@QEBAAEAUItem@CInifile@@XZ
_TEXT	SEGMENT
this$ = 8
??D?$_Vector_iterator@V?$_Vector_val@U?$_Simple_types@UItem@CInifile@@@std@@@std@@@std@@QEBAAEAUItem@CInifile@@XZ PROC ; std::_Vector_iterator<std::_Vector_val<std::_Simple_types<CInifile::Item> > >::operator*, COMDAT

; 261  :         return const_cast<reference>(_Mybase::operator*());

	mov	rax, QWORD PTR [rcx]

; 262  :     }

	ret	0
??D?$_Vector_iterator@V?$_Vector_val@U?$_Simple_types@UItem@CInifile@@@std@@@std@@@std@@QEBAAEAUItem@CInifile@@XZ ENDP ; std::_Vector_iterator<std::_Vector_val<std::_Simple_types<CInifile::Item> > >::operator*
_TEXT	ENDS
; Function compile flags: /Ogtpy
; File C:\Program Files\Microsoft Visual Studio\2022\Community\VC\Tools\MSVC\14.35.32215\include\vector
;	COMDAT ??9?$_Vector_const_iterator@V?$_Vector_val@U?$_Simple_types@UItem@CInifile@@@std@@@std@@@std@@QEBA_NAEBV01@@Z
_TEXT	SEGMENT
this$ = 8
_Right$ = 16
??9?$_Vector_const_iterator@V?$_Vector_val@U?$_Simple_types@UItem@CInifile@@@std@@@std@@@std@@QEBA_NAEBV01@@Z PROC ; std::_Vector_const_iterator<std::_Vector_val<std::_Simple_types<CInifile::Item> > >::operator!=, COMDAT

; 166  :         return !(*this == _Right);

	mov	rax, QWORD PTR [rdx]
	cmp	QWORD PTR [rcx], rax
	setne	al

; 167  :     }

	ret	0
??9?$_Vector_const_iterator@V?$_Vector_val@U?$_Simple_types@UItem@CInifile@@@std@@@std@@@std@@QEBA_NAEBV01@@Z ENDP ; std::_Vector_const_iterator<std::_Vector_val<std::_Simple_types<CInifile::Item> > >::operator!=
_TEXT	ENDS
; Function compile flags: /Ogtpy
; File C:\Program Files\Microsoft Visual Studio\2022\Community\VC\Tools\MSVC\14.35.32215\include\vector
;	COMDAT ??E?$_Vector_const_iterator@V?$_Vector_val@U?$_Simple_types@UItem@CInifile@@@std@@@std@@@std@@QEAAAEAV01@XZ
_TEXT	SEGMENT
this$ = 8
??E?$_Vector_const_iterator@V?$_Vector_val@U?$_Simple_types@UItem@CInifile@@@std@@@std@@@std@@QEAAAEAV01@XZ PROC ; std::_Vector_const_iterator<std::_Vector_val<std::_Simple_types<CInifile::Item> > >::operator++, COMDAT

; 68   : #if _ITERATOR_DEBUG_LEVEL != 0
; 69   :         const auto _Mycont = static_cast<const _Myvec*>(this->_Getcont());
; 70   :         _STL_VERIFY(_Ptr, "can't increment value-initialized vector iterator");
; 71   :         _STL_VERIFY(_Ptr < _Mycont->_Mylast, "can't increment vector iterator past end");
; 72   : #endif // _ITERATOR_DEBUG_LEVEL != 0
; 73   : 
; 74   :         ++_Ptr;

	add	QWORD PTR [rcx], 24

; 75   :         return *this;

	mov	rax, rcx

; 76   :     }

	ret	0
??E?$_Vector_const_iterator@V?$_Vector_val@U?$_Simple_types@UItem@CInifile@@@std@@@std@@@std@@QEAAAEAV01@XZ ENDP ; std::_Vector_const_iterator<std::_Vector_val<std::_Simple_types<CInifile::Item> > >::operator++
_TEXT	ENDS
; Function compile flags: /Ogtpy
; File C:\Program Files\Microsoft Visual Studio\2022\Community\VC\Tools\MSVC\14.35.32215\include\vector
;	COMDAT ??C?$_Vector_const_iterator@V?$_Vector_val@U?$_Simple_types@UItem@CInifile@@@std@@@std@@@std@@QEBAPEBUItem@CInifile@@XZ
_TEXT	SEGMENT
this$ = 8
??C?$_Vector_const_iterator@V?$_Vector_val@U?$_Simple_types@UItem@CInifile@@@std@@@std@@@std@@QEBAPEBUItem@CInifile@@XZ PROC ; std::_Vector_const_iterator<std::_Vector_val<std::_Simple_types<CInifile::Item> > >::operator->, COMDAT

; 57   : #if _ITERATOR_DEBUG_LEVEL != 0
; 58   :         const auto _Mycont = static_cast<const _Myvec*>(this->_Getcont());
; 59   :         _STL_VERIFY(_Ptr, "can't dereference value-initialized vector iterator");
; 60   :         _STL_VERIFY(
; 61   :             _Mycont->_Myfirst <= _Ptr && _Ptr < _Mycont->_Mylast, "can't dereference out of range vector iterator");
; 62   : #endif // _ITERATOR_DEBUG_LEVEL != 0
; 63   : 
; 64   :         return _Ptr;

	mov	rax, QWORD PTR [rcx]

; 65   :     }

	ret	0
??C?$_Vector_const_iterator@V?$_Vector_val@U?$_Simple_types@UItem@CInifile@@@std@@@std@@@std@@QEBAPEBUItem@CInifile@@XZ ENDP ; std::_Vector_const_iterator<std::_Vector_val<std::_Simple_types<CInifile::Item> > >::operator->
_TEXT	ENDS
; Function compile flags: /Ogtpy
; File C:\Program Files\Microsoft Visual Studio\2022\Community\VC\Tools\MSVC\14.35.32215\include\vector
;	COMDAT ??D?$_Vector_const_iterator@V?$_Vector_val@U?$_Simple_types@UItem@CInifile@@@std@@@std@@@std@@QEBAAEBUItem@CInifile@@XZ
_TEXT	SEGMENT
this$ = 8
??D?$_Vector_const_iterator@V?$_Vector_val@U?$_Simple_types@UItem@CInifile@@@std@@@std@@@std@@QEBAAEBUItem@CInifile@@XZ PROC ; std::_Vector_const_iterator<std::_Vector_val<std::_Simple_types<CInifile::Item> > >::operator*, COMDAT

; 46   : #if _ITERATOR_DEBUG_LEVEL != 0
; 47   :         const auto _Mycont = static_cast<const _Myvec*>(this->_Getcont());
; 48   :         _STL_VERIFY(_Ptr, "can't dereference value-initialized vector iterator");
; 49   :         _STL_VERIFY(
; 50   :             _Mycont->_Myfirst <= _Ptr && _Ptr < _Mycont->_Mylast, "can't dereference out of range vector iterator");
; 51   : #endif // _ITERATOR_DEBUG_LEVEL != 0
; 52   : 
; 53   :         return *_Ptr;

	mov	rax, QWORD PTR [rcx]

; 54   :     }

	ret	0
??D?$_Vector_const_iterator@V?$_Vector_val@U?$_Simple_types@UItem@CInifile@@@std@@@std@@@std@@QEBAAEBUItem@CInifile@@XZ ENDP ; std::_Vector_const_iterator<std::_Vector_val<std::_Simple_types<CInifile::Item> > >::operator*
_TEXT	ENDS
; Function compile flags: /Ogtpy
; File C:\Users\Mahito\Desktop\Night outing\Night-outing\src\xrCore\fastdelegate.h
;	COMDAT ??7?$FastDelegate1@PEBD_N@fastdelegate@@QEBA_NXZ
_TEXT	SEGMENT
this$ = 8
??7?$FastDelegate1@PEBD_N@fastdelegate@@QEBA_NXZ PROC	; fastdelegate::FastDelegate1<char const *,bool>::operator!, COMDAT

; 624  : 	{ return m_pthis==0 && m_pFunction==0; }

	cmp	QWORD PTR [rcx], 0
	jne	SHORT $LN5@operator
	cmp	QWORD PTR [rcx+8], 0
	jne	SHORT $LN5@operator

; 1018 : 		return !m_Closure; }

	mov	al, 1
	ret	0
$LN5@operator:
	xor	al, al
	ret	0
??7?$FastDelegate1@PEBD_N@fastdelegate@@QEBA_NXZ ENDP	; fastdelegate::FastDelegate1<char const *,bool>::operator!
_TEXT	ENDS
; Function compile flags: /Ogtpy
; File C:\Users\Mahito\Desktop\Night outing\Night-outing\src\xrCore\fastdelegate.h
;	COMDAT ??R?$FastDelegate1@PEBD_N@fastdelegate@@QEBA_NPEBD@Z
_TEXT	SEGMENT
this$ = 8
p1$ = 16
??R?$FastDelegate1@PEBD_N@fastdelegate@@QEBA_NPEBD@Z PROC ; fastdelegate::FastDelegate1<char const *,bool>::operator(), COMDAT

; 1000 : 						return (m_Closure.GetClosureThis()->*(m_Closure.GetClosureMemPtr()))(p1); }

	mov	rax, QWORD PTR [rcx+8]
	mov	rcx, QWORD PTR [rcx]
	rex_jmp	rax
??R?$FastDelegate1@PEBD_N@fastdelegate@@QEBA_NPEBD@Z ENDP ; fastdelegate::FastDelegate1<char const *,bool>::operator()
_TEXT	ENDS
; Function compile flags: /Ogtpy
; File C:\Users\Mahito\Desktop\Night outing\Night-outing\src\xrCore\fastdelegate.h
;	COMDAT ??0?$FastDelegate1@PEBD_N@fastdelegate@@QEAA@AEBV01@@Z
_TEXT	SEGMENT
this$ = 8
x$ = 16
??0?$FastDelegate1@PEBD_N@fastdelegate@@QEAA@AEBV01@@Z PROC ; fastdelegate::FastDelegate1<char const *,bool>::FastDelegate1<char const *,bool>, COMDAT

; 588  : 	DelegateMemento() : m_pthis(0), m_pFunction(0) {};

	xor	eax, eax
	mov	QWORD PTR [rcx], rax
	mov	QWORD PTR [rcx+8], rax

; 646  : 		m_pFunction = right.m_pFunction;

	mov	rax, QWORD PTR [rdx+8]
	mov	QWORD PTR [rcx+8], rax

; 647  : 		m_pthis = right.m_pthis;

	mov	rax, QWORD PTR [rdx]
	mov	QWORD PTR [rcx], rax

; 963  : 		m_Closure.CopyFrom(this, x.m_Closure); }

	mov	rax, rcx
	ret	0
??0?$FastDelegate1@PEBD_N@fastdelegate@@QEAA@AEBV01@@Z ENDP ; fastdelegate::FastDelegate1<char const *,bool>::FastDelegate1<char const *,bool>
_TEXT	ENDS
; Function compile flags: /Ogtpy
; File C:\Users\Mahito\Desktop\Night outing\Night-outing\src\xrCore\_stl_extensions.h
; File C:\Program Files\Microsoft Visual Studio\2022\Community\VC\Tools\MSVC\14.35.32215\include\vector
; File C:\Users\Mahito\Desktop\Night outing\Night-outing\src\xrCore\_stl_extensions.h
;	COMDAT ??0?$xr_vector@PEAUSect@CInifile@@V?$xalloc@PEAUSect@CInifile@@@@@@QEAA@XZ
_TEXT	SEGMENT
this$ = 8
??0?$xr_vector@PEAUSect@CInifile@@V?$xalloc@PEAUSect@CInifile@@@@@@QEAA@XZ PROC ; xr_vector<CInifile::Sect *,xalloc<CInifile::Sect *> >::xr_vector<CInifile::Sect *,xalloc<CInifile::Sect *> >, COMDAT
; File C:\Program Files\Microsoft Visual Studio\2022\Community\VC\Tools\MSVC\14.35.32215\include\vector

; 390  :     _CONSTEXPR20 _Vector_val() noexcept : _Myfirst(), _Mylast(), _Myend() {}

	xor	eax, eax
	mov	QWORD PTR [rcx], rax
	mov	QWORD PTR [rcx+8], rax
	mov	QWORD PTR [rcx+16], rax
; File C:\Users\Mahito\Desktop\Night outing\Night-outing\src\xrCore\_stl_extensions.h

; 123  : 			xr_vector			()									: inherited	()					{}

	mov	rax, rcx
	ret	0
??0?$xr_vector@PEAUSect@CInifile@@V?$xalloc@PEAUSect@CInifile@@@@@@QEAA@XZ ENDP ; xr_vector<CInifile::Sect *,xalloc<CInifile::Sect *> >::xr_vector<CInifile::Sect *,xalloc<CInifile::Sect *> >
_TEXT	ENDS
; Function compile flags: /Ogtpy
; File C:\Program Files\Microsoft Visual Studio\2022\Community\VC\Tools\MSVC\14.35.32215\include\vector
;	COMDAT ?end@?$vector@PEAUSect@CInifile@@V?$xalloc@PEAUSect@CInifile@@@@@std@@QEBA?AV?$_Vector_const_iterator@V?$_Vector_val@U?$_Simple_types@PEAUSect@CInifile@@@std@@@std@@@2@XZ
_TEXT	SEGMENT
this$ = 8
__$ReturnUdt$ = 16
?end@?$vector@PEAUSect@CInifile@@V?$xalloc@PEAUSect@CInifile@@@@@std@@QEBA?AV?$_Vector_const_iterator@V?$_Vector_val@U?$_Simple_types@PEAUSect@CInifile@@@std@@@std@@@2@XZ PROC ; std::vector<CInifile::Sect *,xalloc<CInifile::Sect *> >::end, COMDAT

; 41   :     _CONSTEXPR20 _Vector_const_iterator(_Tptr _Parg, const _Container_base* _Pvector) noexcept : _Ptr(_Parg) {

	mov	rax, QWORD PTR [rcx+8]
	mov	QWORD PTR [rdx], rax

; 1873 :         auto& _My_data = _Mypair._Myval2;
; 1874 :         return const_iterator(_My_data._Mylast, _STD addressof(_My_data));

	mov	rax, rdx

; 1875 :     }

	ret	0
?end@?$vector@PEAUSect@CInifile@@V?$xalloc@PEAUSect@CInifile@@@@@std@@QEBA?AV?$_Vector_const_iterator@V?$_Vector_val@U?$_Simple_types@PEAUSect@CInifile@@@std@@@std@@@2@XZ ENDP ; std::vector<CInifile::Sect *,xalloc<CInifile::Sect *> >::end
_TEXT	ENDS
; Function compile flags: /Ogtpy
; File C:\Program Files\Microsoft Visual Studio\2022\Community\VC\Tools\MSVC\14.35.32215\include\vector
;	COMDAT ?end@?$vector@PEAUSect@CInifile@@V?$xalloc@PEAUSect@CInifile@@@@@std@@QEAA?AV?$_Vector_iterator@V?$_Vector_val@U?$_Simple_types@PEAUSect@CInifile@@@std@@@std@@@2@XZ
_TEXT	SEGMENT
this$ = 8
__$ReturnUdt$ = 16
?end@?$vector@PEAUSect@CInifile@@V?$xalloc@PEAUSect@CInifile@@@@@std@@QEAA?AV?$_Vector_iterator@V?$_Vector_val@U?$_Simple_types@PEAUSect@CInifile@@@std@@@std@@@2@XZ PROC ; std::vector<CInifile::Sect *,xalloc<CInifile::Sect *> >::end, COMDAT

; 41   :     _CONSTEXPR20 _Vector_const_iterator(_Tptr _Parg, const _Container_base* _Pvector) noexcept : _Ptr(_Parg) {

	mov	rax, QWORD PTR [rcx+8]
	mov	QWORD PTR [rdx], rax

; 1868 :         auto& _My_data = _Mypair._Myval2;
; 1869 :         return iterator(_My_data._Mylast, _STD addressof(_My_data));

	mov	rax, rdx

; 1870 :     }

	ret	0
?end@?$vector@PEAUSect@CInifile@@V?$xalloc@PEAUSect@CInifile@@@@@std@@QEAA?AV?$_Vector_iterator@V?$_Vector_val@U?$_Simple_types@PEAUSect@CInifile@@@std@@@std@@@2@XZ ENDP ; std::vector<CInifile::Sect *,xalloc<CInifile::Sect *> >::end
_TEXT	ENDS
; Function compile flags: /Ogtpy
; File C:\Program Files\Microsoft Visual Studio\2022\Community\VC\Tools\MSVC\14.35.32215\include\vector
;	COMDAT ?begin@?$vector@PEAUSect@CInifile@@V?$xalloc@PEAUSect@CInifile@@@@@std@@QEBA?AV?$_Vector_const_iterator@V?$_Vector_val@U?$_Simple_types@PEAUSect@CInifile@@@std@@@std@@@2@XZ
_TEXT	SEGMENT
this$ = 8
__$ReturnUdt$ = 16
?begin@?$vector@PEAUSect@CInifile@@V?$xalloc@PEAUSect@CInifile@@@@@std@@QEBA?AV?$_Vector_const_iterator@V?$_Vector_val@U?$_Simple_types@PEAUSect@CInifile@@@std@@@std@@@2@XZ PROC ; std::vector<CInifile::Sect *,xalloc<CInifile::Sect *> >::begin, COMDAT

; 41   :     _CONSTEXPR20 _Vector_const_iterator(_Tptr _Parg, const _Container_base* _Pvector) noexcept : _Ptr(_Parg) {

	mov	rax, QWORD PTR [rcx]
	mov	QWORD PTR [rdx], rax

; 1863 :         auto& _My_data = _Mypair._Myval2;
; 1864 :         return const_iterator(_My_data._Myfirst, _STD addressof(_My_data));

	mov	rax, rdx

; 1865 :     }

	ret	0
?begin@?$vector@PEAUSect@CInifile@@V?$xalloc@PEAUSect@CInifile@@@@@std@@QEBA?AV?$_Vector_const_iterator@V?$_Vector_val@U?$_Simple_types@PEAUSect@CInifile@@@std@@@std@@@2@XZ ENDP ; std::vector<CInifile::Sect *,xalloc<CInifile::Sect *> >::begin
_TEXT	ENDS
; Function compile flags: /Ogtpy
; File C:\Program Files\Microsoft Visual Studio\2022\Community\VC\Tools\MSVC\14.35.32215\include\vector
;	COMDAT ?begin@?$vector@PEAUSect@CInifile@@V?$xalloc@PEAUSect@CInifile@@@@@std@@QEAA?AV?$_Vector_iterator@V?$_Vector_val@U?$_Simple_types@PEAUSect@CInifile@@@std@@@std@@@2@XZ
_TEXT	SEGMENT
this$ = 8
__$ReturnUdt$ = 16
?begin@?$vector@PEAUSect@CInifile@@V?$xalloc@PEAUSect@CInifile@@@@@std@@QEAA?AV?$_Vector_iterator@V?$_Vector_val@U?$_Simple_types@PEAUSect@CInifile@@@std@@@std@@@2@XZ PROC ; std::vector<CInifile::Sect *,xalloc<CInifile::Sect *> >::begin, COMDAT

; 41   :     _CONSTEXPR20 _Vector_const_iterator(_Tptr _Parg, const _Container_base* _Pvector) noexcept : _Ptr(_Parg) {

	mov	rax, QWORD PTR [rcx]
	mov	QWORD PTR [rdx], rax

; 1858 :         auto& _My_data = _Mypair._Myval2;
; 1859 :         return iterator(_My_data._Myfirst, _STD addressof(_My_data));

	mov	rax, rdx

; 1860 :     }

	ret	0
?begin@?$vector@PEAUSect@CInifile@@V?$xalloc@PEAUSect@CInifile@@@@@std@@QEAA?AV?$_Vector_iterator@V?$_Vector_val@U?$_Simple_types@PEAUSect@CInifile@@@std@@@std@@@2@XZ ENDP ; std::vector<CInifile::Sect *,xalloc<CInifile::Sect *> >::begin
_TEXT	ENDS
; Function compile flags: /Ogtpy
; File C:\Program Files\Microsoft Visual Studio\2022\Community\VC\Tools\MSVC\14.35.32215\include\vector
; File C:\Program Files\Microsoft Visual Studio\2022\Community\VC\Tools\MSVC\14.35.32215\include\xutility
; File C:\Program Files\Microsoft Visual Studio\2022\Community\VC\Tools\MSVC\14.35.32215\include\vector
; File C:\Program Files\Microsoft Visual Studio\2022\Community\VC\Tools\MSVC\14.35.32215\include\xutility
; File C:\Program Files\Microsoft Visual Studio\2022\Community\VC\Tools\MSVC\14.35.32215\include\vector
; File C:\Program Files\Microsoft Visual Studio\2022\Community\VC\Tools\MSVC\14.35.32215\include\xutility
; File C:\Program Files\Microsoft Visual Studio\2022\Community\VC\Tools\MSVC\14.35.32215\include\vector
;	COMDAT ?insert@?$vector@PEAUSect@CInifile@@V?$xalloc@PEAUSect@CInifile@@@@@std@@QEAA?AV?$_Vector_iterator@V?$_Vector_val@U?$_Simple_types@PEAUSect@CInifile@@@std@@@std@@@2@V?$_Vector_const_iterator@V?$_Vector_val@U?$_Simple_types@PEAUSect@CInifile@@@std@@@std@@@2@AEBQEAUSect@CInifile@@@Z
_TEXT	SEGMENT
this$ = 48
__$ReturnUdt$ = 56
_Where$ = 64
_Val$ = 72
?insert@?$vector@PEAUSect@CInifile@@V?$xalloc@PEAUSect@CInifile@@@@@std@@QEAA?AV?$_Vector_iterator@V?$_Vector_val@U?$_Simple_types@PEAUSect@CInifile@@@std@@@std@@@2@V?$_Vector_const_iterator@V?$_Vector_val@U?$_Simple_types@PEAUSect@CInifile@@@std@@@std@@@2@AEBQEAUSect@CInifile@@@Z PROC ; std::vector<CInifile::Sect *,xalloc<CInifile::Sect *> >::insert, COMDAT

; 1065 :     _CONSTEXPR20 iterator insert(const_iterator _Where, const _Ty& _Val) { // insert _Val at _Where

$LN33:
	mov	QWORD PTR [rsp+16], rbx
	push	rdi
	sub	rsp, 32					; 00000020H
	mov	r10, rcx
	mov	rbx, r8

; 1036 :         const pointer _Oldlast  = _My_data._Mylast;

	mov	rcx, QWORD PTR [rcx+8]

; 1065 :     _CONSTEXPR20 iterator insert(const_iterator _Where, const _Ty& _Val) { // insert _Val at _Where

	mov	rdi, rdx

; 1043 :         if (_Oldlast != _My_data._Myend) {

	cmp	rcx, QWORD PTR [r10+16]
	je	SHORT $LN4@insert

; 1044 :             if (_Whereptr == _Oldlast) { // at back, provide strong guarantee

	mov	QWORD PTR [rsp+48], rsi
	mov	rsi, QWORD PTR [r9]
	cmp	rbx, rcx
	jne	SHORT $LN5@insert

; 863  :             _Alty_traits::construct(_Getal(), _Unfancy(_Mylast), _STD forward<_Valty>(_Val)...);

	mov	QWORD PTR [rcx], rsi

; 1067 :     }

	mov	rax, rdx

; 869  :         ++_Mylast;

	add	QWORD PTR [r10+8], 8

; 1066 :         return emplace(_Where, _Val);

	mov	QWORD PTR [rdx], rbx
	mov	rsi, QWORD PTR [rsp+48]

; 1067 :     }

	mov	rbx, QWORD PTR [rsp+56]
	add	rsp, 32					; 00000020H
	pop	rdi
	ret	0
$LN5@insert:

; 1052 :                 _Alty_traits::construct(_Al, _Unfancy(_Oldlast), _STD move(_Oldlast[-1]));

	mov	rax, QWORD PTR [rcx-8]
; File C:\Program Files\Microsoft Visual Studio\2022\Community\VC\Tools\MSVC\14.35.32215\include\xutility

; 4546 :     const auto _Count           = static_cast<size_t>(_Last_ch - _First_ch);

	mov	r8, rcx
; File C:\Program Files\Microsoft Visual Studio\2022\Community\VC\Tools\MSVC\14.35.32215\include\vector

; 1052 :                 _Alty_traits::construct(_Al, _Unfancy(_Oldlast), _STD move(_Oldlast[-1]));

	mov	QWORD PTR [rcx], rax
; File C:\Program Files\Microsoft Visual Studio\2022\Community\VC\Tools\MSVC\14.35.32215\include\xutility

; 4546 :     const auto _Count           = static_cast<size_t>(_Last_ch - _First_ch);

	sub	r8, rbx
; File C:\Program Files\Microsoft Visual Studio\2022\Community\VC\Tools\MSVC\14.35.32215\include\vector

; 1054 :                 ++_My_data._Mylast;

	add	QWORD PTR [r10+8], 8
; File C:\Program Files\Microsoft Visual Studio\2022\Community\VC\Tools\MSVC\14.35.32215\include\xutility

; 4546 :     const auto _Count           = static_cast<size_t>(_Last_ch - _First_ch);

	sub	r8, 8

; 4547 :     auto _Result                = _CSTD memmove(_Dest_ch - _Count, _First_ch, _Count);

	sub	rcx, r8
	mov	rdx, rbx
	call	memmove
; File C:\Program Files\Microsoft Visual Studio\2022\Community\VC\Tools\MSVC\14.35.32215\include\vector

; 1056 :                 *_Whereptr = _STD move(_Obj._Get_value());

	mov	QWORD PTR [rbx], rsi

; 1067 :     }

	mov	rax, rdi
	mov	QWORD PTR [rdi], rbx
	mov	rsi, QWORD PTR [rsp+48]
	mov	rbx, QWORD PTR [rsp+56]
	add	rsp, 32					; 00000020H
	pop	rdi
	ret	0
$LN4@insert:

; 1062 :         return _Make_iterator(_Emplace_reallocate(_Whereptr, _STD forward<_Valty>(_Val)...));

	mov	r8, r9
	mov	rdx, rbx
	mov	rcx, r10
	call	??$_Emplace_reallocate@AEBQEAUSect@CInifile@@@?$vector@PEAUSect@CInifile@@V?$xalloc@PEAUSect@CInifile@@@@@std@@AEAAPEAPEAUSect@CInifile@@QEAPEAU23@AEBQEAU23@@Z ; std::vector<CInifile::Sect *,xalloc<CInifile::Sect *> >::_Emplace_reallocate<CInifile::Sect * const &>

; 1066 :         return emplace(_Where, _Val);

	mov	QWORD PTR [rdi], rax

; 1067 :     }

	mov	rax, rdi
	mov	rbx, QWORD PTR [rsp+56]
	add	rsp, 32					; 00000020H
	pop	rdi
	ret	0
?insert@?$vector@PEAUSect@CInifile@@V?$xalloc@PEAUSect@CInifile@@@@@std@@QEAA?AV?$_Vector_iterator@V?$_Vector_val@U?$_Simple_types@PEAUSect@CInifile@@@std@@@std@@@2@V?$_Vector_const_iterator@V?$_Vector_val@U?$_Simple_types@PEAUSect@CInifile@@@std@@@std@@@2@AEBQEAUSect@CInifile@@@Z ENDP ; std::vector<CInifile::Sect *,xalloc<CInifile::Sect *> >::insert
_TEXT	ENDS
; Function compile flags: /Ogtpy
; File C:\Program Files\Microsoft Visual Studio\2022\Community\VC\Tools\MSVC\14.35.32215\include\vector
; File C:\Users\Mahito\Desktop\Night outing\Night-outing\src\xrCore\xrMemory_subst_msvc.cpp
; File C:\Program Files\Microsoft Visual Studio\2022\Community\VC\Tools\MSVC\14.35.32215\include\vector
;	COMDAT ??1?$vector@PEAUSect@CInifile@@V?$xalloc@PEAUSect@CInifile@@@@@std@@QEAA@XZ
_TEXT	SEGMENT
this$ = 48
??1?$vector@PEAUSect@CInifile@@V?$xalloc@PEAUSect@CInifile@@@@@std@@QEAA@XZ PROC ; std::vector<CInifile::Sect *,xalloc<CInifile::Sect *> >::~vector<CInifile::Sect *,xalloc<CInifile::Sect *> >, COMDAT

; 829  :     _CONSTEXPR20 ~vector() noexcept {

$LN31:
	push	rbx
	sub	rsp, 32					; 00000020H
	mov	rbx, rcx

; 2107 :         if (_Myfirst) { // destroy and deallocate old array

	mov	rcx, QWORD PTR [rcx]
	test	rcx, rcx
	je	SHORT $LN4@vector
; File C:\Users\Mahito\Desktop\Night outing\Night-outing\src\xrCore\xrMemory_subst_msvc.cpp

; 99   : 	stat_calls++;

	inc	DWORD PTR ?Memory@@3VxrMemory@@A

; 100  : 
; 101  : #ifdef PURE_ALLOC
; 102  : 	if (g_use_pure_alloc)
; 103  : 	{
; 104  : 		//free(P);
; 105  : 		_aligned_free(P);

	call	QWORD PTR __imp__aligned_free
; File C:\Program Files\Microsoft Visual Studio\2022\Community\VC\Tools\MSVC\14.35.32215\include\vector

; 2112 :             _Myfirst = nullptr;

	xor	eax, eax
	mov	QWORD PTR [rbx], rax

; 2113 :             _Mylast  = nullptr;

	mov	QWORD PTR [rbx+8], rax

; 2114 :             _Myend   = nullptr;

	mov	QWORD PTR [rbx+16], rax
$LN4@vector:

; 830  :         _Tidy();
; 831  : #if _ITERATOR_DEBUG_LEVEL != 0
; 832  :         auto&& _Alproxy = _GET_PROXY_ALLOCATOR(_Alty, _Getal());
; 833  :         _Delete_plain_internal(_Alproxy, _STD exchange(_Mypair._Myval2._Myproxy, nullptr));
; 834  : #endif // _ITERATOR_DEBUG_LEVEL != 0
; 835  :     }

	add	rsp, 32					; 00000020H
	pop	rbx
	ret	0
??1?$vector@PEAUSect@CInifile@@V?$xalloc@PEAUSect@CInifile@@@@@std@@QEAA@XZ ENDP ; std::vector<CInifile::Sect *,xalloc<CInifile::Sect *> >::~vector<CInifile::Sect *,xalloc<CInifile::Sect *> >
_TEXT	ENDS
; Function compile flags: /Ogtpy
; File C:\Users\Mahito\Desktop\Night outing\Night-outing\src\xrCore\_stl_extensions.h
; File C:\Program Files\Microsoft Visual Studio\2022\Community\VC\Tools\MSVC\14.35.32215\include\vector
; File C:\Users\Mahito\Desktop\Night outing\Night-outing\src\xrCore\_stl_extensions.h
;	COMDAT ?size@?$xr_vector@UItem@CInifile@@V?$xalloc@UItem@CInifile@@@@@@QEBAIXZ
_TEXT	SEGMENT
this$ = 8
?size@?$xr_vector@UItem@CInifile@@V?$xalloc@UItem@CInifile@@@@@@QEBAIXZ PROC ; xr_vector<CInifile::Item,xalloc<CInifile::Item> >::size, COMDAT
; File C:\Program Files\Microsoft Visual Studio\2022\Community\VC\Tools\MSVC\14.35.32215\include\vector

; 1932 :         return static_cast<size_type>(_My_data._Mylast - _My_data._Myfirst);

	mov	rax, QWORD PTR [rcx+8]
	sub	rax, QWORD PTR [rcx]
	mov	rcx, -6148914691236517205		; aaaaaaaaaaaaaaabH
	sar	rax, 3
	imul	rax, rcx
; File C:\Users\Mahito\Desktop\Night outing\Night-outing\src\xrCore\_stl_extensions.h

; 126  : 	u32		size				() const							{ return (u32)inherited::size();} 

	ret	0
?size@?$xr_vector@UItem@CInifile@@V?$xalloc@UItem@CInifile@@@@@@QEBAIXZ ENDP ; xr_vector<CInifile::Item,xalloc<CInifile::Item> >::size
_TEXT	ENDS
; Function compile flags: /Ogtpy
; File C:\Program Files\Microsoft Visual Studio\2022\Community\VC\Tools\MSVC\14.35.32215\include\vector
;	COMDAT ?end@?$vector@UItem@CInifile@@V?$xalloc@UItem@CInifile@@@@@std@@QEBA?AV?$_Vector_const_iterator@V?$_Vector_val@U?$_Simple_types@UItem@CInifile@@@std@@@std@@@2@XZ
_TEXT	SEGMENT
this$ = 8
__$ReturnUdt$ = 16
?end@?$vector@UItem@CInifile@@V?$xalloc@UItem@CInifile@@@@@std@@QEBA?AV?$_Vector_const_iterator@V?$_Vector_val@U?$_Simple_types@UItem@CInifile@@@std@@@std@@@2@XZ PROC ; std::vector<CInifile::Item,xalloc<CInifile::Item> >::end, COMDAT

; 41   :     _CONSTEXPR20 _Vector_const_iterator(_Tptr _Parg, const _Container_base* _Pvector) noexcept : _Ptr(_Parg) {

	mov	rax, QWORD PTR [rcx+8]
	mov	QWORD PTR [rdx], rax

; 1873 :         auto& _My_data = _Mypair._Myval2;
; 1874 :         return const_iterator(_My_data._Mylast, _STD addressof(_My_data));

	mov	rax, rdx

; 1875 :     }

	ret	0
?end@?$vector@UItem@CInifile@@V?$xalloc@UItem@CInifile@@@@@std@@QEBA?AV?$_Vector_const_iterator@V?$_Vector_val@U?$_Simple_types@UItem@CInifile@@@std@@@std@@@2@XZ ENDP ; std::vector<CInifile::Item,xalloc<CInifile::Item> >::end
_TEXT	ENDS
; Function compile flags: /Ogtpy
; File C:\Program Files\Microsoft Visual Studio\2022\Community\VC\Tools\MSVC\14.35.32215\include\vector
;	COMDAT ?end@?$vector@UItem@CInifile@@V?$xalloc@UItem@CInifile@@@@@std@@QEAA?AV?$_Vector_iterator@V?$_Vector_val@U?$_Simple_types@UItem@CInifile@@@std@@@std@@@2@XZ
_TEXT	SEGMENT
this$ = 8
__$ReturnUdt$ = 16
?end@?$vector@UItem@CInifile@@V?$xalloc@UItem@CInifile@@@@@std@@QEAA?AV?$_Vector_iterator@V?$_Vector_val@U?$_Simple_types@UItem@CInifile@@@std@@@std@@@2@XZ PROC ; std::vector<CInifile::Item,xalloc<CInifile::Item> >::end, COMDAT

; 41   :     _CONSTEXPR20 _Vector_const_iterator(_Tptr _Parg, const _Container_base* _Pvector) noexcept : _Ptr(_Parg) {

	mov	rax, QWORD PTR [rcx+8]
	mov	QWORD PTR [rdx], rax

; 1868 :         auto& _My_data = _Mypair._Myval2;
; 1869 :         return iterator(_My_data._Mylast, _STD addressof(_My_data));

	mov	rax, rdx

; 1870 :     }

	ret	0
?end@?$vector@UItem@CInifile@@V?$xalloc@UItem@CInifile@@@@@std@@QEAA?AV?$_Vector_iterator@V?$_Vector_val@U?$_Simple_types@UItem@CInifile@@@std@@@std@@@2@XZ ENDP ; std::vector<CInifile::Item,xalloc<CInifile::Item> >::end
_TEXT	ENDS
; Function compile flags: /Ogtpy
; File C:\Program Files\Microsoft Visual Studio\2022\Community\VC\Tools\MSVC\14.35.32215\include\vector
;	COMDAT ?begin@?$vector@UItem@CInifile@@V?$xalloc@UItem@CInifile@@@@@std@@QEBA?AV?$_Vector_const_iterator@V?$_Vector_val@U?$_Simple_types@UItem@CInifile@@@std@@@std@@@2@XZ
_TEXT	SEGMENT
this$ = 8
__$ReturnUdt$ = 16
?begin@?$vector@UItem@CInifile@@V?$xalloc@UItem@CInifile@@@@@std@@QEBA?AV?$_Vector_const_iterator@V?$_Vector_val@U?$_Simple_types@UItem@CInifile@@@std@@@std@@@2@XZ PROC ; std::vector<CInifile::Item,xalloc<CInifile::Item> >::begin, COMDAT

; 41   :     _CONSTEXPR20 _Vector_const_iterator(_Tptr _Parg, const _Container_base* _Pvector) noexcept : _Ptr(_Parg) {

	mov	rax, QWORD PTR [rcx]
	mov	QWORD PTR [rdx], rax

; 1863 :         auto& _My_data = _Mypair._Myval2;
; 1864 :         return const_iterator(_My_data._Myfirst, _STD addressof(_My_data));

	mov	rax, rdx

; 1865 :     }

	ret	0
?begin@?$vector@UItem@CInifile@@V?$xalloc@UItem@CInifile@@@@@std@@QEBA?AV?$_Vector_const_iterator@V?$_Vector_val@U?$_Simple_types@UItem@CInifile@@@std@@@std@@@2@XZ ENDP ; std::vector<CInifile::Item,xalloc<CInifile::Item> >::begin
_TEXT	ENDS
; Function compile flags: /Ogtpy
; File C:\Program Files\Microsoft Visual Studio\2022\Community\VC\Tools\MSVC\14.35.32215\include\vector
;	COMDAT ?begin@?$vector@UItem@CInifile@@V?$xalloc@UItem@CInifile@@@@@std@@QEAA?AV?$_Vector_iterator@V?$_Vector_val@U?$_Simple_types@UItem@CInifile@@@std@@@std@@@2@XZ
_TEXT	SEGMENT
this$ = 8
__$ReturnUdt$ = 16
?begin@?$vector@UItem@CInifile@@V?$xalloc@UItem@CInifile@@@@@std@@QEAA?AV?$_Vector_iterator@V?$_Vector_val@U?$_Simple_types@UItem@CInifile@@@std@@@std@@@2@XZ PROC ; std::vector<CInifile::Item,xalloc<CInifile::Item> >::begin, COMDAT

; 41   :     _CONSTEXPR20 _Vector_const_iterator(_Tptr _Parg, const _Container_base* _Pvector) noexcept : _Ptr(_Parg) {

	mov	rax, QWORD PTR [rcx]
	mov	QWORD PTR [rdx], rax

; 1858 :         auto& _My_data = _Mypair._Myval2;
; 1859 :         return iterator(_My_data._Myfirst, _STD addressof(_My_data));

	mov	rax, rdx

; 1860 :     }

	ret	0
?begin@?$vector@UItem@CInifile@@V?$xalloc@UItem@CInifile@@@@@std@@QEAA?AV?$_Vector_iterator@V?$_Vector_val@U?$_Simple_types@UItem@CInifile@@@std@@@std@@@2@XZ ENDP ; std::vector<CInifile::Item,xalloc<CInifile::Item> >::begin
_TEXT	ENDS
; Function compile flags: /Ogtpy
; File C:\Program Files\Microsoft Visual Studio\2022\Community\VC\Tools\MSVC\14.35.32215\include\vector
;	COMDAT ?reserve@?$vector@UItem@CInifile@@V?$xalloc@UItem@CInifile@@@@@std@@QEAAX_K@Z
_TEXT	SEGMENT
this$ = 48
_Newcapacity$ = 56
?reserve@?$vector@UItem@CInifile@@V?$xalloc@UItem@CInifile@@@@@std@@QEAAX_K@Z PROC ; std::vector<CInifile::Item,xalloc<CInifile::Item> >::reserve, COMDAT

; 1741 :     _CONSTEXPR20 void reserve(_CRT_GUARDOVERFLOW const size_type _Newcapacity) {

$LN10:
	sub	rsp, 40					; 00000028H

; 1942 :         return static_cast<size_type>(_My_data._Myend - _My_data._Myfirst);

	mov	rax, QWORD PTR [rcx+16]
	mov	r8, -6148914691236517205		; aaaaaaaaaaaaaaabH
	sub	rax, QWORD PTR [rcx]
	sar	rax, 3
	imul	rax, r8

; 1742 :         // increase capacity to _Newcapacity (without geometric growth), provide strong guarantee
; 1743 :         if (_Newcapacity > capacity()) { // something to do (reserve() never shrinks)

	cmp	rdx, rax
	jbe	SHORT $LN2@reserve

; 1744 :             if (_Newcapacity > max_size()) {

	mov	rax, 768614336404564650			; 0aaaaaaaaaaaaaaaH
	cmp	rdx, rax
	ja	SHORT $LN9@reserve

; 1749 :         }
; 1750 :     }

	add	rsp, 40					; 00000028H

; 1746 :             }
; 1747 : 
; 1748 :             _Reallocate_exactly(_Newcapacity);

	jmp	?_Reallocate_exactly@?$vector@UItem@CInifile@@V?$xalloc@UItem@CInifile@@@@@std@@AEAAX_K@Z ; std::vector<CInifile::Item,xalloc<CInifile::Item> >::_Reallocate_exactly
$LN2@reserve:

; 1749 :         }
; 1750 :     }

	add	rsp, 40					; 00000028H
	ret	0
$LN9@reserve:

; 1745 :                 _Xlength();

	call	?_Xlength@?$vector@UItem@CInifile@@V?$xalloc@UItem@CInifile@@@@@std@@CAXXZ ; std::vector<CInifile::Item,xalloc<CInifile::Item> >::_Xlength
	int	3
$LN7@reserve:
?reserve@?$vector@UItem@CInifile@@V?$xalloc@UItem@CInifile@@@@@std@@QEAAX_K@Z ENDP ; std::vector<CInifile::Item,xalloc<CInifile::Item> >::reserve
_TEXT	ENDS
; Function compile flags: /Ogtpy
; File C:\Program Files\Microsoft Visual Studio\2022\Community\VC\Tools\MSVC\14.35.32215\include\vector
;	COMDAT ?insert@?$vector@UItem@CInifile@@V?$xalloc@UItem@CInifile@@@@@std@@QEAA?AV?$_Vector_iterator@V?$_Vector_val@U?$_Simple_types@UItem@CInifile@@@std@@@std@@@2@V?$_Vector_const_iterator@V?$_Vector_val@U?$_Simple_types@UItem@CInifile@@@std@@@std@@@2@AEBUItem@CInifile@@@Z
_TEXT	SEGMENT
this$ = 48
__$ReturnUdt$ = 56
_Where$ = 64
_Val$ = 72
?insert@?$vector@UItem@CInifile@@V?$xalloc@UItem@CInifile@@@@@std@@QEAA?AV?$_Vector_iterator@V?$_Vector_val@U?$_Simple_types@UItem@CInifile@@@std@@@std@@@2@V?$_Vector_const_iterator@V?$_Vector_val@U?$_Simple_types@UItem@CInifile@@@std@@@std@@@2@AEBUItem@CInifile@@@Z PROC ; std::vector<CInifile::Item,xalloc<CInifile::Item> >::insert, COMDAT

; 1065 :     _CONSTEXPR20 iterator insert(const_iterator _Where, const _Ty& _Val) { // insert _Val at _Where

$LN4:
	push	rbx
	sub	rsp, 32					; 00000020H
	mov	rbx, rdx

; 1066 :         return emplace(_Where, _Val);

	call	??$emplace@AEBUItem@CInifile@@@?$vector@UItem@CInifile@@V?$xalloc@UItem@CInifile@@@@@std@@QEAA?AV?$_Vector_iterator@V?$_Vector_val@U?$_Simple_types@UItem@CInifile@@@std@@@std@@@1@V?$_Vector_const_iterator@V?$_Vector_val@U?$_Simple_types@UItem@CInifile@@@std@@@std@@@1@AEBUItem@CInifile@@@Z ; std::vector<CInifile::Item,xalloc<CInifile::Item> >::emplace<CInifile::Item const &>
	mov	rax, rbx

; 1067 :     }

	add	rsp, 32					; 00000020H
	pop	rbx
	ret	0
?insert@?$vector@UItem@CInifile@@V?$xalloc@UItem@CInifile@@@@@std@@QEAA?AV?$_Vector_iterator@V?$_Vector_val@U?$_Simple_types@UItem@CInifile@@@std@@@std@@@2@V?$_Vector_const_iterator@V?$_Vector_val@U?$_Simple_types@UItem@CInifile@@@std@@@std@@@2@AEBUItem@CInifile@@@Z ENDP ; std::vector<CInifile::Item,xalloc<CInifile::Item> >::insert
_TEXT	ENDS
; Function compile flags: /Ogtpy
; File C:\Users\Mahito\Desktop\Night outing\Night-outing\src\xrCore\_flags.h
;	COMDAT ?test@?$_flags@E@@QEBAHE@Z
_TEXT	SEGMENT
this$ = 8
mask$ = 16
?test@?$_flags@E@@QEBAHE@Z PROC				; _flags<unsigned char>::test, COMDAT

; 25   : 	IC 	BOOL	test	(const T mask)						const	{ return BOOL(!!(flags&mask));			}

	test	BYTE PTR [rcx], dl
	mov	eax, 0
	setne	al
	ret	0
?test@?$_flags@E@@QEBAHE@Z ENDP				; _flags<unsigned char>::test
_TEXT	ENDS
; Function compile flags: /Ogtpy
; File C:\Program Files\Microsoft Visual Studio\2022\Community\VC\Tools\MSVC\14.35.32215\include\vector
;	COMDAT ??0?$_Vector_iterator@V?$_Vector_val@U?$_Simple_types@PEAUSect@CInifile@@@std@@@std@@@std@@QEAA@PEAPEAUSect@CInifile@@PEBU_Container_base0@1@@Z
_TEXT	SEGMENT
this$ = 8
__param0$ = 16
__param1$dead$ = 24
??0?$_Vector_iterator@V?$_Vector_val@U?$_Simple_types@PEAUSect@CInifile@@@std@@@std@@@std@@QEAA@PEAPEAUSect@CInifile@@PEBU_Container_base0@1@@Z PROC ; std::_Vector_iterator<std::_Vector_val<std::_Simple_types<CInifile::Sect *> > >::_Vector_iterator<std::_Vector_val<std::_Simple_types<CInifile::Sect *> > >, COMDAT

; 41   :     _CONSTEXPR20 _Vector_const_iterator(_Tptr _Parg, const _Container_base* _Pvector) noexcept : _Ptr(_Parg) {

	mov	QWORD PTR [rcx], rdx
	mov	rax, rcx
	ret	0
??0?$_Vector_iterator@V?$_Vector_val@U?$_Simple_types@PEAUSect@CInifile@@@std@@@std@@@std@@QEAA@PEAPEAUSect@CInifile@@PEBU_Container_base0@1@@Z ENDP ; std::_Vector_iterator<std::_Vector_val<std::_Simple_types<CInifile::Sect *> > >::_Vector_iterator<std::_Vector_val<std::_Simple_types<CInifile::Sect *> > >
_TEXT	ENDS
; Function compile flags: /Ogtpy
; File C:\Program Files\Microsoft Visual Studio\2022\Community\VC\Tools\MSVC\14.35.32215\include\vector
;	COMDAT ??0?$_Vector_iterator@V?$_Vector_val@U?$_Simple_types@UItem@CInifile@@@std@@@std@@@std@@QEAA@PEAUItem@CInifile@@PEBU_Container_base0@1@@Z
_TEXT	SEGMENT
this$ = 8
__param0$ = 16
__param1$dead$ = 24
??0?$_Vector_iterator@V?$_Vector_val@U?$_Simple_types@UItem@CInifile@@@std@@@std@@@std@@QEAA@PEAUItem@CInifile@@PEBU_Container_base0@1@@Z PROC ; std::_Vector_iterator<std::_Vector_val<std::_Simple_types<CInifile::Item> > >::_Vector_iterator<std::_Vector_val<std::_Simple_types<CInifile::Item> > >, COMDAT

; 41   :     _CONSTEXPR20 _Vector_const_iterator(_Tptr _Parg, const _Container_base* _Pvector) noexcept : _Ptr(_Parg) {

	mov	QWORD PTR [rcx], rdx
	mov	rax, rcx
	ret	0
??0?$_Vector_iterator@V?$_Vector_val@U?$_Simple_types@UItem@CInifile@@@std@@@std@@@std@@QEAA@PEAUItem@CInifile@@PEBU_Container_base0@1@@Z ENDP ; std::_Vector_iterator<std::_Vector_val<std::_Simple_types<CInifile::Item> > >::_Vector_iterator<std::_Vector_val<std::_Simple_types<CInifile::Item> > >
_TEXT	ENDS
; Function compile flags: /Ogtpy
; File C:\Program Files\Microsoft Visual Studio\2022\Community\VC\Tools\MSVC\14.35.32215\include\vector
;	COMDAT ??8?$_Vector_const_iterator@V?$_Vector_val@U?$_Simple_types@PEAUSect@CInifile@@@std@@@std@@@std@@QEBA_NAEBV01@@Z
_TEXT	SEGMENT
this$ = 8
_Right$ = 16
??8?$_Vector_const_iterator@V?$_Vector_val@U?$_Simple_types@PEAUSect@CInifile@@@std@@@std@@@std@@QEBA_NAEBV01@@Z PROC ; std::_Vector_const_iterator<std::_Vector_val<std::_Simple_types<CInifile::Sect *> > >::operator==, COMDAT

; 155  :         _Compat(_Right);
; 156  :         return _Ptr == _Right._Ptr;

	mov	rax, QWORD PTR [rdx]
	cmp	QWORD PTR [rcx], rax
	sete	al

; 157  :     }

	ret	0
??8?$_Vector_const_iterator@V?$_Vector_val@U?$_Simple_types@PEAUSect@CInifile@@@std@@@std@@@std@@QEBA_NAEBV01@@Z ENDP ; std::_Vector_const_iterator<std::_Vector_val<std::_Simple_types<CInifile::Sect *> > >::operator==
_TEXT	ENDS
; Function compile flags: /Ogtpy
; File C:\Program Files\Microsoft Visual Studio\2022\Community\VC\Tools\MSVC\14.35.32215\include\vector
;	COMDAT ??0?$_Vector_const_iterator@V?$_Vector_val@U?$_Simple_types@PEAUSect@CInifile@@@std@@@std@@@std@@QEAA@PEAPEAUSect@CInifile@@PEBU_Container_base0@1@@Z
_TEXT	SEGMENT
this$ = 8
_Parg$ = 16
_Pvector$dead$ = 24
??0?$_Vector_const_iterator@V?$_Vector_val@U?$_Simple_types@PEAUSect@CInifile@@@std@@@std@@@std@@QEAA@PEAPEAUSect@CInifile@@PEBU_Container_base0@1@@Z PROC ; std::_Vector_const_iterator<std::_Vector_val<std::_Simple_types<CInifile::Sect *> > >::_Vector_const_iterator<std::_Vector_val<std::_Simple_types<CInifile::Sect *> > >, COMDAT

; 41   :     _CONSTEXPR20 _Vector_const_iterator(_Tptr _Parg, const _Container_base* _Pvector) noexcept : _Ptr(_Parg) {

	mov	QWORD PTR [rcx], rdx

; 42   :         this->_Adopt(_Pvector);
; 43   :     }

	mov	rax, rcx
	ret	0
??0?$_Vector_const_iterator@V?$_Vector_val@U?$_Simple_types@PEAUSect@CInifile@@@std@@@std@@@std@@QEAA@PEAPEAUSect@CInifile@@PEBU_Container_base0@1@@Z ENDP ; std::_Vector_const_iterator<std::_Vector_val<std::_Simple_types<CInifile::Sect *> > >::_Vector_const_iterator<std::_Vector_val<std::_Simple_types<CInifile::Sect *> > >
_TEXT	ENDS
; Function compile flags: /Ogtpy
; File C:\Program Files\Microsoft Visual Studio\2022\Community\VC\Tools\MSVC\14.35.32215\include\vector
;	COMDAT ??8?$_Vector_const_iterator@V?$_Vector_val@U?$_Simple_types@UItem@CInifile@@@std@@@std@@@std@@QEBA_NAEBV01@@Z
_TEXT	SEGMENT
this$ = 8
_Right$ = 16
??8?$_Vector_const_iterator@V?$_Vector_val@U?$_Simple_types@UItem@CInifile@@@std@@@std@@@std@@QEBA_NAEBV01@@Z PROC ; std::_Vector_const_iterator<std::_Vector_val<std::_Simple_types<CInifile::Item> > >::operator==, COMDAT

; 155  :         _Compat(_Right);
; 156  :         return _Ptr == _Right._Ptr;

	mov	rax, QWORD PTR [rdx]
	cmp	QWORD PTR [rcx], rax
	sete	al

; 157  :     }

	ret	0
??8?$_Vector_const_iterator@V?$_Vector_val@U?$_Simple_types@UItem@CInifile@@@std@@@std@@@std@@QEBA_NAEBV01@@Z ENDP ; std::_Vector_const_iterator<std::_Vector_val<std::_Simple_types<CInifile::Item> > >::operator==
_TEXT	ENDS
; Function compile flags: /Ogtpy
; File C:\Program Files\Microsoft Visual Studio\2022\Community\VC\Tools\MSVC\14.35.32215\include\vector
;	COMDAT ??0?$_Vector_const_iterator@V?$_Vector_val@U?$_Simple_types@UItem@CInifile@@@std@@@std@@@std@@QEAA@PEAUItem@CInifile@@PEBU_Container_base0@1@@Z
_TEXT	SEGMENT
this$ = 8
_Parg$ = 16
_Pvector$dead$ = 24
??0?$_Vector_const_iterator@V?$_Vector_val@U?$_Simple_types@UItem@CInifile@@@std@@@std@@@std@@QEAA@PEAUItem@CInifile@@PEBU_Container_base0@1@@Z PROC ; std::_Vector_const_iterator<std::_Vector_val<std::_Simple_types<CInifile::Item> > >::_Vector_const_iterator<std::_Vector_val<std::_Simple_types<CInifile::Item> > >, COMDAT

; 41   :     _CONSTEXPR20 _Vector_const_iterator(_Tptr _Parg, const _Container_base* _Pvector) noexcept : _Ptr(_Parg) {

	mov	QWORD PTR [rcx], rdx

; 42   :         this->_Adopt(_Pvector);
; 43   :     }

	mov	rax, rcx
	ret	0
??0?$_Vector_const_iterator@V?$_Vector_val@U?$_Simple_types@UItem@CInifile@@@std@@@std@@@std@@QEAA@PEAUItem@CInifile@@PEBU_Container_base0@1@@Z ENDP ; std::_Vector_const_iterator<std::_Vector_val<std::_Simple_types<CInifile::Item> > >::_Vector_const_iterator<std::_Vector_val<std::_Simple_types<CInifile::Item> > >
_TEXT	ENDS
; Function compile flags: /Ogtpy
; File C:\Users\Mahito\Desktop\Night outing\Night-outing\src\xrCore\fastdelegate.h
;	COMDAT ?GetClosureMemPtr@?$ClosurePtr@P8GenericClass@detail@fastdelegate@@EAA_NPEBD@ZP6A_N0@ZP6A_N0@Z@detail@fastdelegate@@QEBAP8GenericClass@23@EAA_NPEBD@ZXZ
_TEXT	SEGMENT
this$ = 8
?GetClosureMemPtr@?$ClosurePtr@P8GenericClass@detail@fastdelegate@@EAA_NPEBD@ZP6A_N0@ZP6A_N0@Z@detail@fastdelegate@@QEBAP8GenericClass@23@EAA_NPEBD@ZXZ PROC ; fastdelegate::detail::ClosurePtr<bool (__cdecl fastdelegate::detail::GenericClass::*)(char const *),bool (__cdecl*)(char const *),bool (__cdecl*)(char const *)>::GetClosureMemPtr, COMDAT

; 711  : 	inline GenericMemFunc GetClosureMemPtr() const { return reinterpret_cast<GenericMemFunc>(m_pFunction); }

	mov	rax, QWORD PTR [rcx+8]
	ret	0
?GetClosureMemPtr@?$ClosurePtr@P8GenericClass@detail@fastdelegate@@EAA_NPEBD@ZP6A_N0@ZP6A_N0@Z@detail@fastdelegate@@QEBAP8GenericClass@23@EAA_NPEBD@ZXZ ENDP ; fastdelegate::detail::ClosurePtr<bool (__cdecl fastdelegate::detail::GenericClass::*)(char const *),bool (__cdecl*)(char const *),bool (__cdecl*)(char const *)>::GetClosureMemPtr
_TEXT	ENDS
; Function compile flags: /Ogtpy
; File C:\Users\Mahito\Desktop\Night outing\Night-outing\src\xrCore\fastdelegate.h
;	COMDAT ?GetClosureThis@?$ClosurePtr@P8GenericClass@detail@fastdelegate@@EAA_NPEBD@ZP6A_N0@ZP6A_N0@Z@detail@fastdelegate@@QEBAPEAVGenericClass@23@XZ
_TEXT	SEGMENT
this$ = 8
?GetClosureThis@?$ClosurePtr@P8GenericClass@detail@fastdelegate@@EAA_NPEBD@ZP6A_N0@ZP6A_N0@Z@detail@fastdelegate@@QEBAPEAVGenericClass@23@XZ PROC ; fastdelegate::detail::ClosurePtr<bool (__cdecl fastdelegate::detail::GenericClass::*)(char const *),bool (__cdecl*)(char const *),bool (__cdecl*)(char const *)>::GetClosureThis, COMDAT

; 710  : 	inline GenericClass *GetClosureThis() const { return m_pthis; }

	mov	rax, QWORD PTR [rcx]
	ret	0
?GetClosureThis@?$ClosurePtr@P8GenericClass@detail@fastdelegate@@EAA_NPEBD@ZP6A_N0@ZP6A_N0@Z@detail@fastdelegate@@QEBAPEAVGenericClass@23@XZ ENDP ; fastdelegate::detail::ClosurePtr<bool (__cdecl fastdelegate::detail::GenericClass::*)(char const *),bool (__cdecl*)(char const *),bool (__cdecl*)(char const *)>::GetClosureThis
_TEXT	ENDS
; Function compile flags: /Ogtpy
; File C:\Program Files\Microsoft Visual Studio\2022\Community\VC\Tools\MSVC\14.35.32215\include\vector
;	COMDAT ?_Xlength@?$vector@PEAUSect@CInifile@@V?$xalloc@PEAUSect@CInifile@@@@@std@@CAXXZ
_TEXT	SEGMENT
?_Xlength@?$vector@PEAUSect@CInifile@@V?$xalloc@PEAUSect@CInifile@@@@@std@@CAXXZ PROC ; std::vector<CInifile::Sect *,xalloc<CInifile::Sect *> >::_Xlength, COMDAT

; 2200 :     [[noreturn]] static void _Xlength() {

$LN4:
	sub	rsp, 40					; 00000028H

; 2201 :         _Xlength_error("vector too long");

	lea	rcx, OFFSET FLAT:??_C@_0BA@FOIKENOD@vector?5too?5long@
	call	QWORD PTR __imp_?_Xlength_error@std@@YAXPEBD@Z
	int	3
$LN3@Xlength:
?_Xlength@?$vector@PEAUSect@CInifile@@V?$xalloc@PEAUSect@CInifile@@@@@std@@CAXXZ ENDP ; std::vector<CInifile::Sect *,xalloc<CInifile::Sect *> >::_Xlength
_TEXT	ENDS
; Function compile flags: /Ogtpy
; File C:\Program Files\Microsoft Visual Studio\2022\Community\VC\Tools\MSVC\14.35.32215\include\vector
; File C:\Users\Mahito\Desktop\Night outing\Night-outing\src\xrCore\xrMemory_subst_msvc.cpp
; File C:\Program Files\Microsoft Visual Studio\2022\Community\VC\Tools\MSVC\14.35.32215\include\vector
;	COMDAT ?_Tidy@?$vector@PEAUSect@CInifile@@V?$xalloc@PEAUSect@CInifile@@@@@std@@AEAAXXZ
_TEXT	SEGMENT
this$ = 48
?_Tidy@?$vector@PEAUSect@CInifile@@V?$xalloc@PEAUSect@CInifile@@@@@std@@AEAAXXZ PROC ; std::vector<CInifile::Sect *,xalloc<CInifile::Sect *> >::_Tidy, COMDAT

; 2098 :     _CONSTEXPR20 void _Tidy() noexcept { // free all storage

$LN29:
	push	rbx
	sub	rsp, 32					; 00000020H
	mov	rbx, rcx

; 2099 :         auto& _Al         = _Getal();
; 2100 :         auto& _My_data    = _Mypair._Myval2;
; 2101 :         pointer& _Myfirst = _My_data._Myfirst;
; 2102 :         pointer& _Mylast  = _My_data._Mylast;
; 2103 :         pointer& _Myend   = _My_data._Myend;
; 2104 : 
; 2105 :         _My_data._Orphan_all();
; 2106 : 
; 2107 :         if (_Myfirst) { // destroy and deallocate old array

	mov	rcx, QWORD PTR [rcx]
	test	rcx, rcx
	je	SHORT $LN2@Tidy
; File C:\Users\Mahito\Desktop\Night outing\Night-outing\src\xrCore\xrMemory_subst_msvc.cpp

; 99   : 	stat_calls++;

	inc	DWORD PTR ?Memory@@3VxrMemory@@A

; 100  : 
; 101  : #ifdef PURE_ALLOC
; 102  : 	if (g_use_pure_alloc)
; 103  : 	{
; 104  : 		//free(P);
; 105  : 		_aligned_free(P);

	call	QWORD PTR __imp__aligned_free
; File C:\Program Files\Microsoft Visual Studio\2022\Community\VC\Tools\MSVC\14.35.32215\include\vector

; 2112 :             _Myfirst = nullptr;

	xor	eax, eax
	mov	QWORD PTR [rbx], rax

; 2113 :             _Mylast  = nullptr;

	mov	QWORD PTR [rbx+8], rax

; 2114 :             _Myend   = nullptr;

	mov	QWORD PTR [rbx+16], rax
$LN2@Tidy:

; 2115 :         }
; 2116 :     }

	add	rsp, 32					; 00000020H
	pop	rbx
	ret	0
?_Tidy@?$vector@PEAUSect@CInifile@@V?$xalloc@PEAUSect@CInifile@@@@@std@@AEAAXXZ ENDP ; std::vector<CInifile::Sect *,xalloc<CInifile::Sect *> >::_Tidy
_TEXT	ENDS
; Function compile flags: /Ogtpy
; File C:\Program Files\Microsoft Visual Studio\2022\Community\VC\Tools\MSVC\14.35.32215\include\vector
;	COMDAT ?capacity@?$vector@PEAUSect@CInifile@@V?$xalloc@PEAUSect@CInifile@@@@@std@@QEBA_KXZ
_TEXT	SEGMENT
this$ = 8
?capacity@?$vector@PEAUSect@CInifile@@V?$xalloc@PEAUSect@CInifile@@@@@std@@QEBA_KXZ PROC ; std::vector<CInifile::Sect *,xalloc<CInifile::Sect *> >::capacity, COMDAT

; 1941 :         auto& _My_data = _Mypair._Myval2;
; 1942 :         return static_cast<size_type>(_My_data._Myend - _My_data._Myfirst);

	mov	rax, QWORD PTR [rcx+16]
	sub	rax, QWORD PTR [rcx]
	sar	rax, 3

; 1943 :     }

	ret	0
?capacity@?$vector@PEAUSect@CInifile@@V?$xalloc@PEAUSect@CInifile@@@@@std@@QEBA_KXZ ENDP ; std::vector<CInifile::Sect *,xalloc<CInifile::Sect *> >::capacity
_TEXT	ENDS
; Function compile flags: /Ogtpy
; File C:\Program Files\Microsoft Visual Studio\2022\Community\VC\Tools\MSVC\14.35.32215\include\vector
;	COMDAT ?max_size@?$vector@PEAUSect@CInifile@@V?$xalloc@PEAUSect@CInifile@@@@@std@@QEBA_KXZ
_TEXT	SEGMENT
this$dead$ = 8
?max_size@?$vector@PEAUSect@CInifile@@V?$xalloc@PEAUSect@CInifile@@@@@std@@QEBA_KXZ PROC ; std::vector<CInifile::Sect *,xalloc<CInifile::Sect *> >::max_size, COMDAT

; 1936 :         return (_STD min)(

	mov	rax, 2305843009213693951		; 1fffffffffffffffH

; 1937 :             static_cast<size_type>((numeric_limits<difference_type>::max)()), _Alty_traits::max_size(_Getal()));
; 1938 :     }

	ret	0
?max_size@?$vector@PEAUSect@CInifile@@V?$xalloc@PEAUSect@CInifile@@@@@std@@QEBA_KXZ ENDP ; std::vector<CInifile::Sect *,xalloc<CInifile::Sect *> >::max_size
_TEXT	ENDS
; Function compile flags: /Ogtpy
; File C:\Program Files\Microsoft Visual Studio\2022\Community\VC\Tools\MSVC\14.35.32215\include\vector
;	COMDAT ??0?$vector@PEAUSect@CInifile@@V?$xalloc@PEAUSect@CInifile@@@@@std@@QEAA@XZ
_TEXT	SEGMENT
this$ = 8
??0?$vector@PEAUSect@CInifile@@V?$xalloc@PEAUSect@CInifile@@@@@std@@QEAA@XZ PROC ; std::vector<CInifile::Sect *,xalloc<CInifile::Sect *> >::vector<CInifile::Sect *,xalloc<CInifile::Sect *> >, COMDAT

; 390  :     _CONSTEXPR20 _Vector_val() noexcept : _Myfirst(), _Mylast(), _Myend() {}

	xor	eax, eax
	mov	QWORD PTR [rcx], rax
	mov	QWORD PTR [rcx+8], rax
	mov	QWORD PTR [rcx+16], rax

; 674  :         _Mypair._Myval2._Alloc_proxy(_GET_PROXY_ALLOCATOR(_Alty, _Getal()));
; 675  :     }

	mov	rax, rcx
	ret	0
??0?$vector@PEAUSect@CInifile@@V?$xalloc@PEAUSect@CInifile@@@@@std@@QEAA@XZ ENDP ; std::vector<CInifile::Sect *,xalloc<CInifile::Sect *> >::vector<CInifile::Sect *,xalloc<CInifile::Sect *> >
_TEXT	ENDS
; Function compile flags: /Ogtpy
; File C:\Program Files\Microsoft Visual Studio\2022\Community\VC\Tools\MSVC\14.35.32215\include\vector
;	COMDAT ?_Getal@?$vector@UItem@CInifile@@V?$xalloc@UItem@CInifile@@@@@std@@AEAAAEAV?$xalloc@UItem@CInifile@@@@XZ
_TEXT	SEGMENT
this$ = 8
?_Getal@?$vector@UItem@CInifile@@V?$xalloc@UItem@CInifile@@@@@std@@AEAAAEAV?$xalloc@UItem@CInifile@@@@XZ PROC ; std::vector<CInifile::Item,xalloc<CInifile::Item> >::_Getal, COMDAT

; 2244 :         return _Mypair._Get_first();

	mov	rax, rcx

; 2245 :     }

	ret	0
?_Getal@?$vector@UItem@CInifile@@V?$xalloc@UItem@CInifile@@@@@std@@AEAAAEAV?$xalloc@UItem@CInifile@@@@XZ ENDP ; std::vector<CInifile::Item,xalloc<CInifile::Item> >::_Getal
_TEXT	ENDS
; Function compile flags: /Ogtpy
; File C:\Program Files\Microsoft Visual Studio\2022\Community\VC\Tools\MSVC\14.35.32215\include\vector
;	COMDAT ?_Orphan_range@?$vector@UItem@CInifile@@V?$xalloc@UItem@CInifile@@@@@std@@AEBAXPEAUItem@CInifile@@0@Z
_TEXT	SEGMENT
this$dead$ = 8
__formal$dead$ = 16
__formal$dead$ = 24
?_Orphan_range@?$vector@UItem@CInifile@@V?$xalloc@UItem@CInifile@@@@@std@@AEBAXPEAUItem@CInifile@@0@Z PROC ; std::vector<CInifile::Item,xalloc<CInifile::Item> >::_Orphan_range, COMDAT

; 2240 :     _CONSTEXPR20 void _Orphan_range(pointer, pointer) const {}

	ret	0
?_Orphan_range@?$vector@UItem@CInifile@@V?$xalloc@UItem@CInifile@@@@@std@@AEBAXPEAUItem@CInifile@@0@Z ENDP ; std::vector<CInifile::Item,xalloc<CInifile::Item> >::_Orphan_range
_TEXT	ENDS
; Function compile flags: /Ogtpy
; File C:\Program Files\Microsoft Visual Studio\2022\Community\VC\Tools\MSVC\14.35.32215\include\vector
;	COMDAT ?_Xlength@?$vector@UItem@CInifile@@V?$xalloc@UItem@CInifile@@@@@std@@CAXXZ
_TEXT	SEGMENT
?_Xlength@?$vector@UItem@CInifile@@V?$xalloc@UItem@CInifile@@@@@std@@CAXXZ PROC ; std::vector<CInifile::Item,xalloc<CInifile::Item> >::_Xlength, COMDAT

; 2200 :     [[noreturn]] static void _Xlength() {

$LN4:
	sub	rsp, 40					; 00000028H

; 2201 :         _Xlength_error("vector too long");

	lea	rcx, OFFSET FLAT:??_C@_0BA@FOIKENOD@vector?5too?5long@
	call	QWORD PTR __imp_?_Xlength_error@std@@YAXPEBD@Z
	int	3
$LN3@Xlength:
?_Xlength@?$vector@UItem@CInifile@@V?$xalloc@UItem@CInifile@@@@@std@@CAXXZ ENDP ; std::vector<CInifile::Item,xalloc<CInifile::Item> >::_Xlength
_TEXT	ENDS
; Function compile flags: /Ogtpy
; File C:\Program Files\Microsoft Visual Studio\2022\Community\VC\Tools\MSVC\14.35.32215\include\vector
;	COMDAT ?capacity@?$vector@UItem@CInifile@@V?$xalloc@UItem@CInifile@@@@@std@@QEBA_KXZ
_TEXT	SEGMENT
this$ = 8
?capacity@?$vector@UItem@CInifile@@V?$xalloc@UItem@CInifile@@@@@std@@QEBA_KXZ PROC ; std::vector<CInifile::Item,xalloc<CInifile::Item> >::capacity, COMDAT

; 1941 :         auto& _My_data = _Mypair._Myval2;
; 1942 :         return static_cast<size_type>(_My_data._Myend - _My_data._Myfirst);

	mov	rax, QWORD PTR [rcx+16]
	sub	rax, QWORD PTR [rcx]
	mov	rcx, -6148914691236517205		; aaaaaaaaaaaaaaabH
	sar	rax, 3
	imul	rax, rcx

; 1943 :     }

	ret	0
?capacity@?$vector@UItem@CInifile@@V?$xalloc@UItem@CInifile@@@@@std@@QEBA_KXZ ENDP ; std::vector<CInifile::Item,xalloc<CInifile::Item> >::capacity
_TEXT	ENDS
; Function compile flags: /Ogtpy
; File C:\Program Files\Microsoft Visual Studio\2022\Community\VC\Tools\MSVC\14.35.32215\include\vector
;	COMDAT ?max_size@?$vector@UItem@CInifile@@V?$xalloc@UItem@CInifile@@@@@std@@QEBA_KXZ
_TEXT	SEGMENT
this$dead$ = 8
?max_size@?$vector@UItem@CInifile@@V?$xalloc@UItem@CInifile@@@@@std@@QEBA_KXZ PROC ; std::vector<CInifile::Item,xalloc<CInifile::Item> >::max_size, COMDAT

; 1936 :         return (_STD min)(

	mov	rax, 768614336404564650			; 0aaaaaaaaaaaaaaaH

; 1937 :             static_cast<size_type>((numeric_limits<difference_type>::max)()), _Alty_traits::max_size(_Getal()));
; 1938 :     }

	ret	0
?max_size@?$vector@UItem@CInifile@@V?$xalloc@UItem@CInifile@@@@@std@@QEBA_KXZ ENDP ; std::vector<CInifile::Item,xalloc<CInifile::Item> >::max_size
_TEXT	ENDS
; Function compile flags: /Ogtpy
; File C:\Program Files\Microsoft Visual Studio\2022\Community\VC\Tools\MSVC\14.35.32215\include\vector
;	COMDAT ?size@?$vector@UItem@CInifile@@V?$xalloc@UItem@CInifile@@@@@std@@QEBA_KXZ
_TEXT	SEGMENT
this$ = 8
?size@?$vector@UItem@CInifile@@V?$xalloc@UItem@CInifile@@@@@std@@QEBA_KXZ PROC ; std::vector<CInifile::Item,xalloc<CInifile::Item> >::size, COMDAT

; 1931 :         auto& _My_data = _Mypair._Myval2;
; 1932 :         return static_cast<size_type>(_My_data._Mylast - _My_data._Myfirst);

	mov	rax, QWORD PTR [rcx+8]
	sub	rax, QWORD PTR [rcx]
	mov	rcx, -6148914691236517205		; aaaaaaaaaaaaaaabH
	sar	rax, 3
	imul	rax, rcx

; 1933 :     }

	ret	0
?size@?$vector@UItem@CInifile@@V?$xalloc@UItem@CInifile@@@@@std@@QEBA_KXZ ENDP ; std::vector<CInifile::Item,xalloc<CInifile::Item> >::size
_TEXT	ENDS
; Function compile flags: /Ogtpy
; File C:\Program Files\Microsoft Visual Studio\2022\Community\VC\Tools\MSVC\14.35.32215\include\vector
; File C:\Users\Mahito\Desktop\Night outing\Night-outing\src\xrCore\xrMemory.h
; File C:\Users\Mahito\Desktop\Night outing\Night-outing\src\xrCore\xrMemory_subst_msvc.cpp
; File C:\Program Files\Microsoft Visual Studio\2022\Community\VC\Tools\MSVC\14.35.32215\include\vector
; File C:\Program Files\Microsoft Visual Studio\2022\Community\VC\Tools\MSVC\14.35.32215\include\xmemory
; File C:\Users\Mahito\Desktop\Night outing\Night-outing\src\xrCore\xrstring.h
; File C:\Program Files\Microsoft Visual Studio\2022\Community\VC\Tools\MSVC\14.35.32215\include\xmemory
; File C:\Users\Mahito\Desktop\Night outing\Night-outing\src\xrCore\xrstring.h
; File C:\Program Files\Microsoft Visual Studio\2022\Community\VC\Tools\MSVC\14.35.32215\include\xmemory
; File C:\Program Files\Microsoft Visual Studio\2022\Community\VC\Tools\MSVC\14.35.32215\include\vector
;	COMDAT ?_Reallocate_exactly@?$vector@UItem@CInifile@@V?$xalloc@UItem@CInifile@@@@@std@@AEAAX_K@Z
_TEXT	SEGMENT
_UFirst$1 = 32
_First$ = 40
_Backout$2 = 48
_Newvec$ = 112
this$ = 112
_Newcapacity$ = 120
?_Reallocate_exactly@?$vector@UItem@CInifile@@V?$xalloc@UItem@CInifile@@@@@std@@AEAAX_K@Z PROC ; std::vector<CInifile::Item,xalloc<CInifile::Item> >::_Reallocate_exactly, COMDAT

; 1664 :     _CONSTEXPR20 void _Reallocate_exactly(const size_type _Newcapacity) {

$LN128:
	mov	QWORD PTR [rsp+16], rbx
	mov	QWORD PTR [rsp+24], rsi
	push	rdi
	push	r14
	push	r15
	sub	rsp, 80					; 00000050H
	mov	r15, rdx
	mov	rsi, rcx

; 1665 :         // set capacity to _Newcapacity (without geometric growth), provide strong guarantee
; 1666 :         auto& _Al         = _Getal();
; 1667 :         auto& _My_data    = _Mypair._Myval2;
; 1668 :         pointer& _Myfirst = _My_data._Myfirst;
; 1669 :         pointer& _Mylast  = _My_data._Mylast;
; 1670 : 
; 1671 :         const auto _Size = static_cast<size_type>(_Mylast - _Myfirst);

	mov	r14, QWORD PTR [rcx+8]
	sub	r14, QWORD PTR [rcx]
	sar	r14, 3
	mov	rax, -6148914691236517205		; aaaaaaaaaaaaaaabH
	imul	r14, rax
; File C:\Users\Mahito\Desktop\Night outing\Night-outing\src\xrCore\xrMemory.h

; 64   : IC T* xr_alloc(u32 count) { return (T*)Memory.mem_alloc(count * sizeof(T)); }

	mov	eax, edx
	lea	rbx, QWORD PTR [rax+rax*2]
	shl	rbx, 3
; File C:\Users\Mahito\Desktop\Night outing\Night-outing\src\xrCore\xrMemory_subst_msvc.cpp

; 39   : 	stat_calls++;

	inc	DWORD PTR ?Memory@@3VxrMemory@@A

; 40   : 
; 41   : #ifdef PURE_ALLOC
; 42   : 	if (g_use_pure_alloc)
; 43   : 	{
; 44   : 		//void* result = malloc(size);
; 45   : 		void* result = _aligned_malloc(size, PURE_MEMORY_ALIGNMENT);

	mov	edx, 16
	mov	rcx, rbx
	call	QWORD PTR __imp__aligned_malloc
	mov	rdi, rax

; 46   : #ifdef PURE_MEMORY_FILL_ZERO
; 47   : 		if (result)

	test	rax, rax
	je	SHORT $LN14@Reallocate

; 48   : 			memset(result, 0, size);

	mov	r8, rbx
	xor	edx, edx
	mov	rcx, rax
	call	memset
$LN14@Reallocate:
; File C:\Program Files\Microsoft Visual Studio\2022\Community\VC\Tools\MSVC\14.35.32215\include\vector

; 1673 :         const pointer _Newvec = _Al.allocate(_Newcapacity);

	mov	QWORD PTR _Newvec$[rsp], rdi

; 1674 : 
; 1675 :         _TRY_BEGIN
; 1676 :         if constexpr (is_nothrow_move_constructible_v<_Ty> || !is_copy_constructible_v<_Ty>) {
; 1677 :             _Uninitialized_move(_Myfirst, _Mylast, _Newvec, _Al);
; 1678 :         } else {
; 1679 :             _Uninitialized_copy(_Myfirst, _Mylast, _Newvec, _Al);

	mov	r11, QWORD PTR [rsi+8]
	mov	r8, QWORD PTR [rsi]
; File C:\Program Files\Microsoft Visual Studio\2022\Community\VC\Tools\MSVC\14.35.32215\include\xmemory

; 1688 :     auto _UFirst = _Get_unwrapped(_STD move(_First));

	mov	QWORD PTR _UFirst$1[rsp], r8

; 1649 :     _CONSTEXPR20 _Uninitialized_backout_al(pointer _Dest, _Alloc& _Al_) : _First(_Dest), _Last(_Dest), _Al(_Al_) {}

	mov	QWORD PTR _Backout$2[rsp], rdi
	mov	rcx, rdi
	mov	QWORD PTR _Backout$2[rsp+8], rcx
	mov	QWORD PTR _Backout$2[rsp+16], rsi

; 1713 :     for (; _UFirst != _ULast; ++_UFirst) {

	mov	rdx, rdi
	mov	r9, rdi
	xor	ebx, ebx
$LL44@Reallocate:
	cmp	r8, r11
	je	$LN43@Reallocate
; File C:\Users\Mahito\Desktop\Night outing\Night-outing\src\xrCore\xrstring.h

; 74   : 						shared_str	(shared_str const &rhs)			{	p_ = 0;	_set(rhs);								}

	mov	QWORD PTR [rdx], rbx

; 64   : 	void				_set		(shared_str const &rhs)			{	str_value* v = rhs.p_; if (0!=v) v->dwReference++; _dec(); p_ = v;							}

	mov	r9, QWORD PTR [r8]
	test	r9, r9
	je	SHORT $LN57@Reallocate
	inc	DWORD PTR [r9]
$LN57@Reallocate:

; 61   : 	void				_dec		()								{	if (0==p_) return;	p_->dwReference--; 	if (0==p_->dwReference)	p_=0;						}

	mov	r10, QWORD PTR [rdx]
	test	r10, r10
	je	SHORT $LN61@Reallocate
	mov	eax, DWORD PTR [r10]
	dec	eax
	mov	DWORD PTR [r10], eax
	mov	rax, QWORD PTR [rdx]
	cmp	DWORD PTR [rax], ebx
	jne	SHORT $LN61@Reallocate
	mov	QWORD PTR [rdx], rbx
$LN61@Reallocate:

; 64   : 	void				_set		(shared_str const &rhs)			{	str_value* v = rhs.p_; if (0!=v) v->dwReference++; _dec(); p_ = v;							}

	mov	QWORD PTR [rdx], r9

; 74   : 						shared_str	(shared_str const &rhs)			{	p_ = 0;	_set(rhs);								}

	mov	QWORD PTR [rdx+8], rbx

; 64   : 	void				_set		(shared_str const &rhs)			{	str_value* v = rhs.p_; if (0!=v) v->dwReference++; _dec(); p_ = v;							}

	mov	r9, QWORD PTR [r8+8]
	test	r9, r9
	je	SHORT $LN66@Reallocate
	inc	DWORD PTR [r9]
$LN66@Reallocate:

; 61   : 	void				_dec		()								{	if (0==p_) return;	p_->dwReference--; 	if (0==p_->dwReference)	p_=0;						}

	mov	rax, QWORD PTR [rdx+8]
	test	rax, rax
	je	SHORT $LN70@Reallocate
	dec	DWORD PTR [rax]
	mov	rax, QWORD PTR [rdx+8]
	cmp	DWORD PTR [rax], ebx
	jne	SHORT $LN70@Reallocate
	mov	QWORD PTR [rdx+8], rbx
$LN70@Reallocate:

; 64   : 	void				_set		(shared_str const &rhs)			{	str_value* v = rhs.p_; if (0!=v) v->dwReference++; _dec(); p_ = v;							}

	mov	QWORD PTR [rdx+8], r9

; 74   : 						shared_str	(shared_str const &rhs)			{	p_ = 0;	_set(rhs);								}

	mov	QWORD PTR [rdx+16], rbx

; 64   : 	void				_set		(shared_str const &rhs)			{	str_value* v = rhs.p_; if (0!=v) v->dwReference++; _dec(); p_ = v;							}

	mov	r9, QWORD PTR [r8+16]
	test	r9, r9
	je	SHORT $LN75@Reallocate
	inc	DWORD PTR [r9]
$LN75@Reallocate:

; 61   : 	void				_dec		()								{	if (0==p_) return;	p_->dwReference--; 	if (0==p_->dwReference)	p_=0;						}

	mov	rax, QWORD PTR [rdx+16]
	test	rax, rax
	je	SHORT $LN79@Reallocate
	dec	DWORD PTR [rax]
	mov	rax, QWORD PTR [rdx+16]
	cmp	DWORD PTR [rax], ebx
	jne	SHORT $LN79@Reallocate
	mov	QWORD PTR [rdx+16], rbx
$LN79@Reallocate:

; 64   : 	void				_set		(shared_str const &rhs)			{	str_value* v = rhs.p_; if (0!=v) v->dwReference++; _dec(); p_ = v;							}

	mov	QWORD PTR [rdx+16], r9
; File C:\Program Files\Microsoft Visual Studio\2022\Community\VC\Tools\MSVC\14.35.32215\include\xmemory

; 1661 :         ++_Last;

	add	rcx, 24
	mov	rdx, rcx
	mov	QWORD PTR _Backout$2[rsp+8], rcx

; 1713 :     for (; _UFirst != _ULast; ++_UFirst) {

	add	r8, 24
	mov	QWORD PTR _UFirst$1[rsp], r8
	mov	r9, rcx
	jmp	$LL44@Reallocate
$LN43@Reallocate:

; 1665 :         _First = _Last;

	mov	QWORD PTR _Backout$2[rsp], rcx
$LN126@Reallocate:

; 946  :         for (; _First != _Last; ++_First) {

	mov	QWORD PTR _First$[rsp], rcx
	cmp	rcx, r9
	je	SHORT $LN87@Reallocate
; File C:\Users\Mahito\Desktop\Night outing\Night-outing\src\xrCore\xrstring.h

; 61   : 	void				_dec		()								{	if (0==p_) return;	p_->dwReference--; 	if (0==p_->dwReference)	p_=0;						}

	mov	rax, QWORD PTR [rcx+16]
	test	rax, rax
	je	SHORT $LN103@Reallocate
	dec	DWORD PTR [rax]
	mov	rax, QWORD PTR [rcx+16]
	cmp	DWORD PTR [rax], ebx
	jne	SHORT $LN103@Reallocate
	mov	QWORD PTR [rcx+16], rbx
$LN103@Reallocate:
	mov	rax, QWORD PTR [rcx+8]
	test	rax, rax
	je	SHORT $LN109@Reallocate
	dec	DWORD PTR [rax]
	mov	rax, QWORD PTR [rcx+8]
	cmp	DWORD PTR [rax], ebx
	jne	SHORT $LN109@Reallocate
	mov	QWORD PTR [rcx+8], rbx
$LN109@Reallocate:
	mov	rax, QWORD PTR [rcx]
	test	rax, rax
	je	SHORT $LN115@Reallocate
	dec	DWORD PTR [rax]
	mov	rax, QWORD PTR [rcx]
	cmp	DWORD PTR [rax], ebx
	jne	SHORT $LN115@Reallocate
	mov	QWORD PTR [rcx], rbx
$LN115@Reallocate:
; File C:\Program Files\Microsoft Visual Studio\2022\Community\VC\Tools\MSVC\14.35.32215\include\xmemory

; 946  :         for (; _First != _Last; ++_First) {

	add	rcx, 24
	jmp	SHORT $LN126@Reallocate
$LN87@Reallocate:
; File C:\Program Files\Microsoft Visual Studio\2022\Community\VC\Tools\MSVC\14.35.32215\include\vector

; 1686 :         _Change_array(_Newvec, _Size, _Newcapacity);

	mov	r9, r15
	mov	r8, r14
	mov	rdx, rdi
	mov	rcx, rsi
	call	?_Change_array@?$vector@UItem@CInifile@@V?$xalloc@UItem@CInifile@@@@@std@@AEAAXQEAUItem@CInifile@@_K1@Z ; std::vector<CInifile::Item,xalloc<CInifile::Item> >::_Change_array

; 1687 :     }

	mov	rbx, QWORD PTR [rsp+120]
	mov	rsi, QWORD PTR [rsp+128]
	add	rsp, 80					; 00000050H
	pop	r15
	pop	r14
	pop	rdi
	ret	0
$LN125@Reallocate:
?_Reallocate_exactly@?$vector@UItem@CInifile@@V?$xalloc@UItem@CInifile@@@@@std@@AEAAX_K@Z ENDP ; std::vector<CInifile::Item,xalloc<CInifile::Item> >::_Reallocate_exactly
_TEXT	ENDS
; Function compile flags: /Ogtpy
;	COMDAT text$x
text$x	SEGMENT
_UFirst$1 = 32
_First$ = 40
_Backout$2 = 48
_Newvec$ = 112
this$ = 112
_Newcapacity$ = 120
?catch$0@?0??_Reallocate_exactly@?$vector@UItem@CInifile@@V?$xalloc@UItem@CInifile@@@@@std@@AEAAX_K@Z@4HA PROC ; `std::vector<CInifile::Item,xalloc<CInifile::Item> >::_Reallocate_exactly'::`1'::catch$0

; 1681 :         _CATCH_ALL

	mov	QWORD PTR [rsp+16], rdx
	push	rbp
	sub	rsp, 32					; 00000020H
	mov	rbp, rdx
__catch$?_Reallocate_exactly@?$vector@UItem@CInifile@@V?$xalloc@UItem@CInifile@@@@@std@@AEAAX_K@Z$0:

; 1682 :         _Al.deallocate(_Newvec, _Newcapacity);

	mov	rdx, QWORD PTR _Newvec$[rbp]
	call	?deallocate@?$xalloc@UItem@CInifile@@@@QEBAXPEAUItem@CInifile@@_K@Z ; xalloc<CInifile::Item>::deallocate

; 1683 :         _RERAISE;

	xor	edx, edx
	xor	ecx, ecx
	call	_CxxThrowException
	npad	1
?catch$0@?0??_Reallocate_exactly@?$vector@UItem@CInifile@@V?$xalloc@UItem@CInifile@@@@@std@@AEAAX_K@Z@4HA ENDP ; `std::vector<CInifile::Item,xalloc<CInifile::Item> >::_Reallocate_exactly'::`1'::catch$0
text$x	ENDS
; Function compile flags: /Ogtpy
; File C:\Program Files\Microsoft Visual Studio\2022\Community\VC\Tools\MSVC\14.35.32215\include\vector
;	COMDAT ?_Compat@?$_Vector_const_iterator@V?$_Vector_val@U?$_Simple_types@PEAUSect@CInifile@@@std@@@std@@@std@@QEBAXAEBV12@@Z
_TEXT	SEGMENT
this$dead$ = 8
_Right$dead$ = 16
?_Compat@?$_Vector_const_iterator@V?$_Vector_val@U?$_Simple_types@PEAUSect@CInifile@@@std@@@std@@@std@@QEBAXAEBV12@@Z PROC ; std::_Vector_const_iterator<std::_Vector_val<std::_Simple_types<CInifile::Sect *> > >::_Compat, COMDAT

; 188  :         // test for compatible iterator pair
; 189  : #if _ITERATOR_DEBUG_LEVEL == 0
; 190  :         (void) _Right;
; 191  : #else // ^^^ _ITERATOR_DEBUG_LEVEL == 0 ^^^ // vvv _ITERATOR_DEBUG_LEVEL != 0 vvv
; 192  :         _STL_VERIFY(this->_Getcont() == _Right._Getcont(), "vector iterators incompatible");
; 193  : #endif // _ITERATOR_DEBUG_LEVEL == 0
; 194  :     }

	ret	0
?_Compat@?$_Vector_const_iterator@V?$_Vector_val@U?$_Simple_types@PEAUSect@CInifile@@@std@@@std@@@std@@QEBAXAEBV12@@Z ENDP ; std::_Vector_const_iterator<std::_Vector_val<std::_Simple_types<CInifile::Sect *> > >::_Compat
_TEXT	ENDS
; Function compile flags: /Ogtpy
; File C:\Program Files\Microsoft Visual Studio\2022\Community\VC\Tools\MSVC\14.35.32215\include\vector
;	COMDAT ?_Compat@?$_Vector_const_iterator@V?$_Vector_val@U?$_Simple_types@UItem@CInifile@@@std@@@std@@@std@@QEBAXAEBV12@@Z
_TEXT	SEGMENT
this$dead$ = 8
_Right$dead$ = 16
?_Compat@?$_Vector_const_iterator@V?$_Vector_val@U?$_Simple_types@UItem@CInifile@@@std@@@std@@@std@@QEBAXAEBV12@@Z PROC ; std::_Vector_const_iterator<std::_Vector_val<std::_Simple_types<CInifile::Item> > >::_Compat, COMDAT

; 188  :         // test for compatible iterator pair
; 189  : #if _ITERATOR_DEBUG_LEVEL == 0
; 190  :         (void) _Right;
; 191  : #else // ^^^ _ITERATOR_DEBUG_LEVEL == 0 ^^^ // vvv _ITERATOR_DEBUG_LEVEL != 0 vvv
; 192  :         _STL_VERIFY(this->_Getcont() == _Right._Getcont(), "vector iterators incompatible");
; 193  : #endif // _ITERATOR_DEBUG_LEVEL == 0
; 194  :     }

	ret	0
?_Compat@?$_Vector_const_iterator@V?$_Vector_val@U?$_Simple_types@UItem@CInifile@@@std@@@std@@@std@@QEBAXAEBV12@@Z ENDP ; std::_Vector_const_iterator<std::_Vector_val<std::_Simple_types<CInifile::Item> > >::_Compat
_TEXT	ENDS
; Function compile flags: /Ogtpy
; File C:\Program Files\Microsoft Visual Studio\2022\Community\VC\Tools\MSVC\14.35.32215\include\vector
;	COMDAT ?_Getal@?$vector@PEAUSect@CInifile@@V?$xalloc@PEAUSect@CInifile@@@@@std@@AEBAAEBV?$xalloc@PEAUSect@CInifile@@@@XZ
_TEXT	SEGMENT
this$ = 8
?_Getal@?$vector@PEAUSect@CInifile@@V?$xalloc@PEAUSect@CInifile@@@@@std@@AEBAAEBV?$xalloc@PEAUSect@CInifile@@@@XZ PROC ; std::vector<CInifile::Sect *,xalloc<CInifile::Sect *> >::_Getal, COMDAT

; 2248 :         return _Mypair._Get_first();

	mov	rax, rcx

; 2249 :     }

	ret	0
?_Getal@?$vector@PEAUSect@CInifile@@V?$xalloc@PEAUSect@CInifile@@@@@std@@AEBAAEBV?$xalloc@PEAUSect@CInifile@@@@XZ ENDP ; std::vector<CInifile::Sect *,xalloc<CInifile::Sect *> >::_Getal
_TEXT	ENDS
; Function compile flags: /Ogtpy
; File C:\Program Files\Microsoft Visual Studio\2022\Community\VC\Tools\MSVC\14.35.32215\include\vector
;	COMDAT ?_Getal@?$vector@PEAUSect@CInifile@@V?$xalloc@PEAUSect@CInifile@@@@@std@@AEAAAEAV?$xalloc@PEAUSect@CInifile@@@@XZ
_TEXT	SEGMENT
this$ = 8
?_Getal@?$vector@PEAUSect@CInifile@@V?$xalloc@PEAUSect@CInifile@@@@@std@@AEAAAEAV?$xalloc@PEAUSect@CInifile@@@@XZ PROC ; std::vector<CInifile::Sect *,xalloc<CInifile::Sect *> >::_Getal, COMDAT

; 2244 :         return _Mypair._Get_first();

	mov	rax, rcx

; 2245 :     }

	ret	0
?_Getal@?$vector@PEAUSect@CInifile@@V?$xalloc@PEAUSect@CInifile@@@@@std@@AEAAAEAV?$xalloc@PEAUSect@CInifile@@@@XZ ENDP ; std::vector<CInifile::Sect *,xalloc<CInifile::Sect *> >::_Getal
_TEXT	ENDS
; Function compile flags: /Ogtpy
; File C:\Program Files\Microsoft Visual Studio\2022\Community\VC\Tools\MSVC\14.35.32215\include\vector
; File C:\Users\Mahito\Desktop\Night outing\Night-outing\src\xrCore\xrMemory_subst_msvc.cpp
; File C:\Program Files\Microsoft Visual Studio\2022\Community\VC\Tools\MSVC\14.35.32215\include\vector
;	COMDAT ?_Change_array@?$vector@PEAUSect@CInifile@@V?$xalloc@PEAUSect@CInifile@@@@@std@@AEAAXQEAPEAUSect@CInifile@@_K1@Z
_TEXT	SEGMENT
this$ = 48
_Newvec$ = 56
_Newsize$ = 64
_Newcapacity$ = 72
?_Change_array@?$vector@PEAUSect@CInifile@@V?$xalloc@PEAUSect@CInifile@@@@@std@@AEAAXQEAPEAUSect@CInifile@@_K1@Z PROC ; std::vector<CInifile::Sect *,xalloc<CInifile::Sect *> >::_Change_array, COMDAT

; 2076 :     _CONSTEXPR20 void _Change_array(const pointer _Newvec, const size_type _Newsize, const size_type _Newcapacity) {

$LN29:
	mov	QWORD PTR [rsp+8], rbx
	mov	QWORD PTR [rsp+16], rbp
	mov	QWORD PTR [rsp+24], rsi
	push	rdi
	sub	rsp, 32					; 00000020H
	mov	rbx, rcx
	mov	rsi, r9

; 2077 :         // orphan all iterators, discard old array, acquire new array
; 2078 :         auto& _Al         = _Getal();
; 2079 :         auto& _My_data    = _Mypair._Myval2;
; 2080 :         pointer& _Myfirst = _My_data._Myfirst;
; 2081 :         pointer& _Mylast  = _My_data._Mylast;
; 2082 :         pointer& _Myend   = _My_data._Myend;
; 2083 : 
; 2084 :         _My_data._Orphan_all();
; 2085 : 
; 2086 :         if (_Myfirst) { // destroy and deallocate old array

	mov	rcx, QWORD PTR [rcx]
	mov	rbp, r8
	mov	rdi, rdx
	test	rcx, rcx
	je	SHORT $LN7@Change_arr
; File C:\Users\Mahito\Desktop\Night outing\Night-outing\src\xrCore\xrMemory_subst_msvc.cpp

; 99   : 	stat_calls++;

	inc	DWORD PTR ?Memory@@3VxrMemory@@A

; 100  : 
; 101  : #ifdef PURE_ALLOC
; 102  : 	if (g_use_pure_alloc)
; 103  : 	{
; 104  : 		//free(P);
; 105  : 		_aligned_free(P);

	call	QWORD PTR __imp__aligned_free
$LN7@Change_arr:
; File C:\Program Files\Microsoft Visual Studio\2022\Community\VC\Tools\MSVC\14.35.32215\include\vector

; 2093 :         _Mylast  = _Newvec + _Newsize;

	lea	rax, QWORD PTR [rdi+rbp*8]
	mov	QWORD PTR [rbx], rdi

; 2094 :         _Myend   = _Newvec + _Newcapacity;
; 2095 :         _ASAN_VECTOR_CREATE;
; 2096 :     }

	mov	rbp, QWORD PTR [rsp+56]
	mov	QWORD PTR [rbx+8], rax
	lea	rax, QWORD PTR [rdi+rsi*8]
	mov	rsi, QWORD PTR [rsp+64]
	mov	QWORD PTR [rbx+16], rax
	mov	rbx, QWORD PTR [rsp+48]
	add	rsp, 32					; 00000020H
	pop	rdi
	ret	0
?_Change_array@?$vector@PEAUSect@CInifile@@V?$xalloc@PEAUSect@CInifile@@@@@std@@AEAAXQEAPEAUSect@CInifile@@_K1@Z ENDP ; std::vector<CInifile::Sect *,xalloc<CInifile::Sect *> >::_Change_array
_TEXT	ENDS
; Function compile flags: /Ogtpy
; File C:\Program Files\Microsoft Visual Studio\2022\Community\VC\Tools\MSVC\14.35.32215\include\xmemory
;	COMDAT ?max_size@?$_Normal_allocator_traits@V?$xalloc@PEAUSect@CInifile@@@@@std@@SA_KAEBV?$xalloc@PEAUSect@CInifile@@@@@Z
_TEXT	SEGMENT
_Al$dead$ = 8
?max_size@?$_Normal_allocator_traits@V?$xalloc@PEAUSect@CInifile@@@@@std@@SA_KAEBV?$xalloc@PEAUSect@CInifile@@@@@Z PROC ; std::_Normal_allocator_traits<xalloc<CInifile::Sect *> >::max_size, COMDAT

; 590  :         if constexpr (_Has_max_size<_Alloc>::value) {
; 591  :             return _Al.max_size();

	mov	rax, 2305843009213693951		; 1fffffffffffffffH

; 592  :         } else {
; 593  :             return (numeric_limits<size_type>::max)() / sizeof(value_type);
; 594  :         }
; 595  :     }

	ret	0
?max_size@?$_Normal_allocator_traits@V?$xalloc@PEAUSect@CInifile@@@@@std@@SA_KAEBV?$xalloc@PEAUSect@CInifile@@@@@Z ENDP ; std::_Normal_allocator_traits<xalloc<CInifile::Sect *> >::max_size
_TEXT	ENDS
; Function compile flags: /Ogtpy
; File C:\Users\Mahito\Desktop\Night outing\Night-outing\src\xrCore\_stl_extensions.h
; File C:\Users\Mahito\Desktop\Night outing\Night-outing\src\xrCore\xrMemory.h
; File C:\Users\Mahito\Desktop\Night outing\Night-outing\src\xrCore\xrMemory_subst_msvc.cpp
; File C:\Users\Mahito\Desktop\Night outing\Night-outing\src\xrCore\_stl_extensions.h
;	COMDAT ?deallocate@?$xalloc@PEAUSect@CInifile@@@@QEBAXPEAPEAUSect@CInifile@@_K@Z
_TEXT	SEGMENT
this$dead$ = 8
p$ = 16
n$dead$ = 24
?deallocate@?$xalloc@PEAUSect@CInifile@@@@QEBAXPEAPEAUSect@CInifile@@_K@Z PROC ; xalloc<CInifile::Sect *>::deallocate, COMDAT
; File C:\Users\Mahito\Desktop\Night outing\Night-outing\src\xrCore\xrMemory.h

; 69   : 	if (P)

	test	rdx, rdx
	je	SHORT $LN4@deallocate
; File C:\Users\Mahito\Desktop\Night outing\Night-outing\src\xrCore\xrMemory_subst_msvc.cpp

; 99   : 	stat_calls++;

	inc	DWORD PTR ?Memory@@3VxrMemory@@A

; 100  : 
; 101  : #ifdef PURE_ALLOC
; 102  : 	if (g_use_pure_alloc)
; 103  : 	{
; 104  : 		//free(P);
; 105  : 		_aligned_free(P);

	mov	rcx, rdx
	rex_jmp	QWORD PTR __imp__aligned_free
$LN4@deallocate:
; File C:\Users\Mahito\Desktop\Night outing\Night-outing\src\xrCore\_stl_extensions.h

; 83   : 							void					deallocate		(pointer p, size_type n) const			{	xr_free	(p);				}

	ret	0
?deallocate@?$xalloc@PEAUSect@CInifile@@@@QEBAXPEAPEAUSect@CInifile@@_K@Z ENDP ; xalloc<CInifile::Sect *>::deallocate
_TEXT	ENDS
; Function compile flags: /Ogtpy
; File C:\Users\Mahito\Desktop\Night outing\Night-outing\src\xrCore\_stl_extensions.h
; File C:\Users\Mahito\Desktop\Night outing\Night-outing\src\xrCore\xrMemory_subst_msvc.cpp
; File C:\Users\Mahito\Desktop\Night outing\Night-outing\src\xrCore\xrMemory.h
; File C:\Users\Mahito\Desktop\Night outing\Night-outing\src\xrCore\xrMemory_subst_msvc.cpp
; File C:\Users\Mahito\Desktop\Night outing\Night-outing\src\xrCore\xrMemory.h
; File C:\Users\Mahito\Desktop\Night outing\Night-outing\src\xrCore\xrMemory_subst_msvc.cpp
; File C:\Users\Mahito\Desktop\Night outing\Night-outing\src\xrCore\_stl_extensions.h
;	COMDAT ?allocate@?$xalloc@PEAUSect@CInifile@@@@QEBAPEAPEAUSect@CInifile@@_KPEBX@Z
_TEXT	SEGMENT
this$dead$ = 48
n$ = 56
p$dead$ = 64
?allocate@?$xalloc@PEAUSect@CInifile@@@@QEBAPEAPEAUSect@CInifile@@_KPEBX@Z PROC ; xalloc<CInifile::Sect *>::allocate, COMDAT

; 81   : 							pointer					allocate		(size_type n, const void* p=0) const	{	return xr_alloc<T>((u32)n);	}

$LN36:
	mov	QWORD PTR [rsp+8], rbx
	push	rdi
	sub	rsp, 32					; 00000020H
; File C:\Users\Mahito\Desktop\Night outing\Night-outing\src\xrCore\xrMemory_subst_msvc.cpp

; 39   : 	stat_calls++;

	inc	DWORD PTR ?Memory@@3VxrMemory@@A
; File C:\Users\Mahito\Desktop\Night outing\Night-outing\src\xrCore\xrMemory.h

; 64   : IC T* xr_alloc(u32 count) { return (T*)Memory.mem_alloc(count * sizeof(T)); }

	mov	edi, edx
; File C:\Users\Mahito\Desktop\Night outing\Night-outing\src\xrCore\xrMemory_subst_msvc.cpp

; 45   : 		void* result = _aligned_malloc(size, PURE_MEMORY_ALIGNMENT);

	mov	edx, 16
; File C:\Users\Mahito\Desktop\Night outing\Night-outing\src\xrCore\xrMemory.h

; 64   : IC T* xr_alloc(u32 count) { return (T*)Memory.mem_alloc(count * sizeof(T)); }

	shl	rdi, 3
; File C:\Users\Mahito\Desktop\Night outing\Night-outing\src\xrCore\xrMemory_subst_msvc.cpp

; 45   : 		void* result = _aligned_malloc(size, PURE_MEMORY_ALIGNMENT);

	mov	rcx, rdi
	call	QWORD PTR __imp__aligned_malloc
	mov	rbx, rax

; 46   : #ifdef PURE_MEMORY_FILL_ZERO
; 47   : 		if (result)

	test	rax, rax
	je	SHORT $LN7@allocate

; 48   : 			memset(result, 0, size);

	mov	r8, rdi
	xor	edx, edx
	mov	rcx, rax
	call	memset
; File C:\Users\Mahito\Desktop\Night outing\Night-outing\src\xrCore\_stl_extensions.h

; 81   : 							pointer					allocate		(size_type n, const void* p=0) const	{	return xr_alloc<T>((u32)n);	}

	mov	rax, rbx
$LN7@allocate:
	mov	rbx, QWORD PTR [rsp+48]
	add	rsp, 32					; 00000020H
	pop	rdi
	ret	0
?allocate@?$xalloc@PEAUSect@CInifile@@@@QEBAPEAPEAUSect@CInifile@@_KPEBX@Z ENDP ; xalloc<CInifile::Sect *>::allocate
_TEXT	ENDS
; Function compile flags: /Ogtpy
; File C:\Program Files\Microsoft Visual Studio\2022\Community\VC\Tools\MSVC\14.35.32215\include\xmemory
;	COMDAT ?_Get_first@?$_Compressed_pair@V?$xalloc@UItem@CInifile@@@@V?$_Vector_val@U?$_Simple_types@UItem@CInifile@@@std@@@std@@$00@std@@QEAAAEAV?$xalloc@UItem@CInifile@@@@XZ
_TEXT	SEGMENT
this$ = 8
?_Get_first@?$_Compressed_pair@V?$xalloc@UItem@CInifile@@@@V?$_Vector_val@U?$_Simple_types@UItem@CInifile@@@std@@@std@@$00@std@@QEAAAEAV?$xalloc@UItem@CInifile@@@@XZ PROC ; std::_Compressed_pair<xalloc<CInifile::Item>,std::_Vector_val<std::_Simple_types<CInifile::Item> >,1>::_Get_first, COMDAT

; 1383 :         return *this;

	mov	rax, rcx

; 1384 :     }

	ret	0
?_Get_first@?$_Compressed_pair@V?$xalloc@UItem@CInifile@@@@V?$_Vector_val@U?$_Simple_types@UItem@CInifile@@@std@@@std@@$00@std@@QEAAAEAV?$xalloc@UItem@CInifile@@@@XZ ENDP ; std::_Compressed_pair<xalloc<CInifile::Item>,std::_Vector_val<std::_Simple_types<CInifile::Item> >,1>::_Get_first
_TEXT	ENDS
; Function compile flags: /Ogtpy
; File C:\Program Files\Microsoft Visual Studio\2022\Community\VC\Tools\MSVC\14.35.32215\include\vector
;	COMDAT ?_Getal@?$vector@UItem@CInifile@@V?$xalloc@UItem@CInifile@@@@@std@@AEBAAEBV?$xalloc@UItem@CInifile@@@@XZ
_TEXT	SEGMENT
this$ = 8
?_Getal@?$vector@UItem@CInifile@@V?$xalloc@UItem@CInifile@@@@@std@@AEBAAEBV?$xalloc@UItem@CInifile@@@@XZ PROC ; std::vector<CInifile::Item,xalloc<CInifile::Item> >::_Getal, COMDAT

; 2248 :         return _Mypair._Get_first();

	mov	rax, rcx

; 2249 :     }

	ret	0
?_Getal@?$vector@UItem@CInifile@@V?$xalloc@UItem@CInifile@@@@@std@@AEBAAEBV?$xalloc@UItem@CInifile@@@@XZ ENDP ; std::vector<CInifile::Item,xalloc<CInifile::Item> >::_Getal
_TEXT	ENDS
; Function compile flags: /Ogtpy
; File C:\Program Files\Microsoft Visual Studio\2022\Community\VC\Tools\MSVC\14.35.32215\include\vector
; File C:\Users\Mahito\Desktop\Night outing\Night-outing\src\xrCore\xrMemory.h
; File C:\Users\Mahito\Desktop\Night outing\Night-outing\src\xrCore\xrMemory_subst_msvc.cpp
; File C:\Program Files\Microsoft Visual Studio\2022\Community\VC\Tools\MSVC\14.35.32215\include\vector
;	COMDAT ?_Change_array@?$vector@UItem@CInifile@@V?$xalloc@UItem@CInifile@@@@@std@@AEAAXQEAUItem@CInifile@@_K1@Z
_TEXT	SEGMENT
this$ = 48
_Newvec$ = 56
_Newsize$ = 64
_Newcapacity$ = 72
?_Change_array@?$vector@UItem@CInifile@@V?$xalloc@UItem@CInifile@@@@@std@@AEAAXQEAUItem@CInifile@@_K1@Z PROC ; std::vector<CInifile::Item,xalloc<CInifile::Item> >::_Change_array, COMDAT

; 2076 :     _CONSTEXPR20 void _Change_array(const pointer _Newvec, const size_type _Newsize, const size_type _Newcapacity) {

$LN29:
	mov	QWORD PTR [rsp+8], rbx
	mov	QWORD PTR [rsp+16], rsi
	mov	QWORD PTR [rsp+24], rdi
	push	r14
	sub	rsp, 32					; 00000020H
	mov	rbx, rcx
	mov	rsi, r9

; 2077 :         // orphan all iterators, discard old array, acquire new array
; 2078 :         auto& _Al         = _Getal();
; 2079 :         auto& _My_data    = _Mypair._Myval2;
; 2080 :         pointer& _Myfirst = _My_data._Myfirst;
; 2081 :         pointer& _Mylast  = _My_data._Mylast;
; 2082 :         pointer& _Myend   = _My_data._Myend;
; 2083 : 
; 2084 :         _My_data._Orphan_all();
; 2085 : 
; 2086 :         if (_Myfirst) { // destroy and deallocate old array

	mov	rcx, QWORD PTR [rcx]
	mov	r14, r8
	mov	rdi, rdx
	test	rcx, rcx
	je	SHORT $LN7@Change_arr

; 2087 :             _Destroy_range(_Myfirst, _Mylast, _Al);

	mov	rdx, QWORD PTR [rbx+8]
	call	??$_Destroy_range@V?$xalloc@UItem@CInifile@@@@@std@@YAXPEAUItem@CInifile@@QEAU12@AEAV?$xalloc@UItem@CInifile@@@@@Z ; std::_Destroy_range<xalloc<CInifile::Item> >

; 2088 :             _ASAN_VECTOR_REMOVE;
; 2089 :             _Al.deallocate(_Myfirst, static_cast<size_type>(_Myend - _Myfirst));

	mov	rcx, QWORD PTR [rbx]
; File C:\Users\Mahito\Desktop\Night outing\Night-outing\src\xrCore\xrMemory.h

; 69   : 	if (P)

	test	rcx, rcx
	je	SHORT $LN7@Change_arr
; File C:\Users\Mahito\Desktop\Night outing\Night-outing\src\xrCore\xrMemory_subst_msvc.cpp

; 99   : 	stat_calls++;

	inc	DWORD PTR ?Memory@@3VxrMemory@@A

; 100  : 
; 101  : #ifdef PURE_ALLOC
; 102  : 	if (g_use_pure_alloc)
; 103  : 	{
; 104  : 		//free(P);
; 105  : 		_aligned_free(P);

	call	QWORD PTR __imp__aligned_free
$LN7@Change_arr:
; File C:\Program Files\Microsoft Visual Studio\2022\Community\VC\Tools\MSVC\14.35.32215\include\vector

; 2092 :         _Myfirst = _Newvec;

	mov	QWORD PTR [rbx], rdi

; 2093 :         _Mylast  = _Newvec + _Newsize;

	lea	rax, QWORD PTR [r14+r14*2]
	lea	rcx, QWORD PTR [rdi+rax*8]
	mov	QWORD PTR [rbx+8], rcx

; 2094 :         _Myend   = _Newvec + _Newcapacity;

	lea	rax, QWORD PTR [rsi+rsi*2]

; 2095 :         _ASAN_VECTOR_CREATE;
; 2096 :     }

	mov	rsi, QWORD PTR [rsp+56]
	lea	rcx, QWORD PTR [rdi+rax*8]
	mov	rdi, QWORD PTR [rsp+64]
	mov	QWORD PTR [rbx+16], rcx
	mov	rbx, QWORD PTR [rsp+48]
	add	rsp, 32					; 00000020H
	pop	r14
	ret	0
?_Change_array@?$vector@UItem@CInifile@@V?$xalloc@UItem@CInifile@@@@@std@@AEAAXQEAUItem@CInifile@@_K1@Z ENDP ; std::vector<CInifile::Item,xalloc<CInifile::Item> >::_Change_array
_TEXT	ENDS
; Function compile flags: /Ogtpy
; File C:\Program Files\Microsoft Visual Studio\2022\Community\VC\Tools\MSVC\14.35.32215\include\xmemory
;	COMDAT ?max_size@?$_Normal_allocator_traits@V?$xalloc@UItem@CInifile@@@@@std@@SA_KAEBV?$xalloc@UItem@CInifile@@@@@Z
_TEXT	SEGMENT
_Al$dead$ = 8
?max_size@?$_Normal_allocator_traits@V?$xalloc@UItem@CInifile@@@@@std@@SA_KAEBV?$xalloc@UItem@CInifile@@@@@Z PROC ; std::_Normal_allocator_traits<xalloc<CInifile::Item> >::max_size, COMDAT

; 590  :         if constexpr (_Has_max_size<_Alloc>::value) {
; 591  :             return _Al.max_size();

	mov	rax, 768614336404564650			; 0aaaaaaaaaaaaaaaH

; 592  :         } else {
; 593  :             return (numeric_limits<size_type>::max)() / sizeof(value_type);
; 594  :         }
; 595  :     }

	ret	0
?max_size@?$_Normal_allocator_traits@V?$xalloc@UItem@CInifile@@@@@std@@SA_KAEBV?$xalloc@UItem@CInifile@@@@@Z ENDP ; std::_Normal_allocator_traits<xalloc<CInifile::Item> >::max_size
_TEXT	ENDS
; Function compile flags: /Ogtpy
; File C:\Users\Mahito\Desktop\Night outing\Night-outing\src\xrCore\_stl_extensions.h
; File C:\Users\Mahito\Desktop\Night outing\Night-outing\src\xrCore\xrMemory.h
; File C:\Users\Mahito\Desktop\Night outing\Night-outing\src\xrCore\xrMemory_subst_msvc.cpp
; File C:\Users\Mahito\Desktop\Night outing\Night-outing\src\xrCore\_stl_extensions.h
;	COMDAT ?deallocate@?$xalloc@UItem@CInifile@@@@QEBAXPEAUItem@CInifile@@_K@Z
_TEXT	SEGMENT
this$dead$ = 8
p$ = 16
n$dead$ = 24
?deallocate@?$xalloc@UItem@CInifile@@@@QEBAXPEAUItem@CInifile@@_K@Z PROC ; xalloc<CInifile::Item>::deallocate, COMDAT
; File C:\Users\Mahito\Desktop\Night outing\Night-outing\src\xrCore\xrMemory.h

; 69   : 	if (P)

	test	rdx, rdx
	je	SHORT $LN4@deallocate
; File C:\Users\Mahito\Desktop\Night outing\Night-outing\src\xrCore\xrMemory_subst_msvc.cpp

; 99   : 	stat_calls++;

	inc	DWORD PTR ?Memory@@3VxrMemory@@A

; 100  : 
; 101  : #ifdef PURE_ALLOC
; 102  : 	if (g_use_pure_alloc)
; 103  : 	{
; 104  : 		//free(P);
; 105  : 		_aligned_free(P);

	mov	rcx, rdx
	rex_jmp	QWORD PTR __imp__aligned_free
$LN4@deallocate:
; File C:\Users\Mahito\Desktop\Night outing\Night-outing\src\xrCore\_stl_extensions.h

; 83   : 							void					deallocate		(pointer p, size_type n) const			{	xr_free	(p);				}

	ret	0
?deallocate@?$xalloc@UItem@CInifile@@@@QEBAXPEAUItem@CInifile@@_K@Z ENDP ; xalloc<CInifile::Item>::deallocate
_TEXT	ENDS
; Function compile flags: /Ogtpy
; File C:\Users\Mahito\Desktop\Night outing\Night-outing\src\xrCore\_stl_extensions.h
; File C:\Users\Mahito\Desktop\Night outing\Night-outing\src\xrCore\xrMemory_subst_msvc.cpp
; File C:\Users\Mahito\Desktop\Night outing\Night-outing\src\xrCore\xrMemory.h
; File C:\Users\Mahito\Desktop\Night outing\Night-outing\src\xrCore\xrMemory_subst_msvc.cpp
; File C:\Users\Mahito\Desktop\Night outing\Night-outing\src\xrCore\xrMemory.h
; File C:\Users\Mahito\Desktop\Night outing\Night-outing\src\xrCore\xrMemory_subst_msvc.cpp
; File C:\Users\Mahito\Desktop\Night outing\Night-outing\src\xrCore\_stl_extensions.h
;	COMDAT ?allocate@?$xalloc@UItem@CInifile@@@@QEBAPEAUItem@CInifile@@_KPEBX@Z
_TEXT	SEGMENT
this$dead$ = 48
n$ = 56
p$dead$ = 64
?allocate@?$xalloc@UItem@CInifile@@@@QEBAPEAUItem@CInifile@@_KPEBX@Z PROC ; xalloc<CInifile::Item>::allocate, COMDAT

; 81   : 							pointer					allocate		(size_type n, const void* p=0) const	{	return xr_alloc<T>((u32)n);	}

$LN36:
	mov	QWORD PTR [rsp+8], rbx
	push	rdi
	sub	rsp, 32					; 00000020H
; File C:\Users\Mahito\Desktop\Night outing\Night-outing\src\xrCore\xrMemory_subst_msvc.cpp

; 39   : 	stat_calls++;

	inc	DWORD PTR ?Memory@@3VxrMemory@@A
; File C:\Users\Mahito\Desktop\Night outing\Night-outing\src\xrCore\xrMemory.h

; 64   : IC T* xr_alloc(u32 count) { return (T*)Memory.mem_alloc(count * sizeof(T)); }

	mov	eax, edx
; File C:\Users\Mahito\Desktop\Night outing\Night-outing\src\xrCore\xrMemory_subst_msvc.cpp

; 45   : 		void* result = _aligned_malloc(size, PURE_MEMORY_ALIGNMENT);

	mov	edx, 16
; File C:\Users\Mahito\Desktop\Night outing\Night-outing\src\xrCore\xrMemory.h

; 64   : IC T* xr_alloc(u32 count) { return (T*)Memory.mem_alloc(count * sizeof(T)); }

	lea	rdi, QWORD PTR [rax+rax*2]
	shl	rdi, 3
; File C:\Users\Mahito\Desktop\Night outing\Night-outing\src\xrCore\xrMemory_subst_msvc.cpp

; 45   : 		void* result = _aligned_malloc(size, PURE_MEMORY_ALIGNMENT);

	mov	rcx, rdi
	call	QWORD PTR __imp__aligned_malloc
	mov	rbx, rax

; 46   : #ifdef PURE_MEMORY_FILL_ZERO
; 47   : 		if (result)

	test	rax, rax
	je	SHORT $LN7@allocate

; 48   : 			memset(result, 0, size);

	mov	r8, rdi
	xor	edx, edx
	mov	rcx, rax
	call	memset
; File C:\Users\Mahito\Desktop\Night outing\Night-outing\src\xrCore\_stl_extensions.h

; 81   : 							pointer					allocate		(size_type n, const void* p=0) const	{	return xr_alloc<T>((u32)n);	}

	mov	rax, rbx
$LN7@allocate:
	mov	rbx, QWORD PTR [rsp+48]
	add	rsp, 32					; 00000020H
	pop	rdi
	ret	0
?allocate@?$xalloc@UItem@CInifile@@@@QEBAPEAUItem@CInifile@@_KPEBX@Z ENDP ; xalloc<CInifile::Item>::allocate
_TEXT	ENDS
; Function compile flags: /Ogtpy
; File C:\Program Files\Microsoft Visual Studio\2022\Community\VC\Tools\MSVC\14.35.32215\include\xmemory
;	COMDAT ?_Get_first@?$_Compressed_pair@V?$xalloc@PEAUSect@CInifile@@@@V?$_Vector_val@U?$_Simple_types@PEAUSect@CInifile@@@std@@@std@@$00@std@@QEBAAEBV?$xalloc@PEAUSect@CInifile@@@@XZ
_TEXT	SEGMENT
this$ = 8
?_Get_first@?$_Compressed_pair@V?$xalloc@PEAUSect@CInifile@@@@V?$_Vector_val@U?$_Simple_types@PEAUSect@CInifile@@@std@@@std@@$00@std@@QEBAAEBV?$xalloc@PEAUSect@CInifile@@@@XZ PROC ; std::_Compressed_pair<xalloc<CInifile::Sect *>,std::_Vector_val<std::_Simple_types<CInifile::Sect *> >,1>::_Get_first, COMDAT

; 1387 :         return *this;

	mov	rax, rcx

; 1388 :     }

	ret	0
?_Get_first@?$_Compressed_pair@V?$xalloc@PEAUSect@CInifile@@@@V?$_Vector_val@U?$_Simple_types@PEAUSect@CInifile@@@std@@@std@@$00@std@@QEBAAEBV?$xalloc@PEAUSect@CInifile@@@@XZ ENDP ; std::_Compressed_pair<xalloc<CInifile::Sect *>,std::_Vector_val<std::_Simple_types<CInifile::Sect *> >,1>::_Get_first
_TEXT	ENDS
; Function compile flags: /Ogtpy
; File C:\Program Files\Microsoft Visual Studio\2022\Community\VC\Tools\MSVC\14.35.32215\include\xmemory
;	COMDAT ?_Get_first@?$_Compressed_pair@V?$xalloc@PEAUSect@CInifile@@@@V?$_Vector_val@U?$_Simple_types@PEAUSect@CInifile@@@std@@@std@@$00@std@@QEAAAEAV?$xalloc@PEAUSect@CInifile@@@@XZ
_TEXT	SEGMENT
this$ = 8
?_Get_first@?$_Compressed_pair@V?$xalloc@PEAUSect@CInifile@@@@V?$_Vector_val@U?$_Simple_types@PEAUSect@CInifile@@@std@@@std@@$00@std@@QEAAAEAV?$xalloc@PEAUSect@CInifile@@@@XZ PROC ; std::_Compressed_pair<xalloc<CInifile::Sect *>,std::_Vector_val<std::_Simple_types<CInifile::Sect *> >,1>::_Get_first, COMDAT

; 1383 :         return *this;

	mov	rax, rcx

; 1384 :     }

	ret	0
?_Get_first@?$_Compressed_pair@V?$xalloc@PEAUSect@CInifile@@@@V?$_Vector_val@U?$_Simple_types@PEAUSect@CInifile@@@std@@@std@@$00@std@@QEAAAEAV?$xalloc@PEAUSect@CInifile@@@@XZ ENDP ; std::_Compressed_pair<xalloc<CInifile::Sect *>,std::_Vector_val<std::_Simple_types<CInifile::Sect *> >,1>::_Get_first
_TEXT	ENDS
; Function compile flags: /Ogtpy
; File C:\Users\Mahito\Desktop\Night outing\Night-outing\src\xrCore\_stl_extensions.h
;	COMDAT ?max_size@?$xalloc@PEAUSect@CInifile@@@@QEBA_KXZ
_TEXT	SEGMENT
this$dead$ = 8
?max_size@?$xalloc@PEAUSect@CInifile@@@@QEBA_KXZ PROC	; xalloc<CInifile::Sect *>::max_size, COMDAT

; 87   : 							size_type				max_size		() const								{	size_type _Count = (size_type)(-1) / sizeof (T);	return (0 < _Count ? _Count : 1);	}

	mov	rax, 2305843009213693951		; 1fffffffffffffffH
	ret	0
?max_size@?$xalloc@PEAUSect@CInifile@@@@QEBA_KXZ ENDP	; xalloc<CInifile::Sect *>::max_size
_TEXT	ENDS
; Function compile flags: /Ogtpy
; File C:\Program Files\Microsoft Visual Studio\2022\Community\VC\Tools\MSVC\14.35.32215\include\xmemory
;	COMDAT ?_Get_first@?$_Compressed_pair@V?$xalloc@UItem@CInifile@@@@V?$_Vector_val@U?$_Simple_types@UItem@CInifile@@@std@@@std@@$00@std@@QEBAAEBV?$xalloc@UItem@CInifile@@@@XZ
_TEXT	SEGMENT
this$ = 8
?_Get_first@?$_Compressed_pair@V?$xalloc@UItem@CInifile@@@@V?$_Vector_val@U?$_Simple_types@UItem@CInifile@@@std@@@std@@$00@std@@QEBAAEBV?$xalloc@UItem@CInifile@@@@XZ PROC ; std::_Compressed_pair<xalloc<CInifile::Item>,std::_Vector_val<std::_Simple_types<CInifile::Item> >,1>::_Get_first, COMDAT

; 1387 :         return *this;

	mov	rax, rcx

; 1388 :     }

	ret	0
?_Get_first@?$_Compressed_pair@V?$xalloc@UItem@CInifile@@@@V?$_Vector_val@U?$_Simple_types@UItem@CInifile@@@std@@@std@@$00@std@@QEBAAEBV?$xalloc@UItem@CInifile@@@@XZ ENDP ; std::_Compressed_pair<xalloc<CInifile::Item>,std::_Vector_val<std::_Simple_types<CInifile::Item> >,1>::_Get_first
_TEXT	ENDS
; Function compile flags: /Ogtpy
; File C:\Users\Mahito\Desktop\Night outing\Night-outing\src\xrCore\_stl_extensions.h
;	COMDAT ?max_size@?$xalloc@UItem@CInifile@@@@QEBA_KXZ
_TEXT	SEGMENT
this$dead$ = 8
?max_size@?$xalloc@UItem@CInifile@@@@QEBA_KXZ PROC	; xalloc<CInifile::Item>::max_size, COMDAT

; 87   : 							size_type				max_size		() const								{	size_type _Count = (size_type)(-1) / sizeof (T);	return (0 < _Count ? _Count : 1);	}

	mov	rax, 768614336404564650			; 0aaaaaaaaaaaaaaaH
	ret	0
?max_size@?$xalloc@UItem@CInifile@@@@QEBA_KXZ ENDP	; xalloc<CInifile::Item>::max_size
_TEXT	ENDS
; Function compile flags: /Ogtpy
; File C:\Program Files\Microsoft Visual Studio\2022\Community\VC\Tools\MSVC\14.35.32215\include\xutility
;	COMDAT ??$lower_bound@V?$_Vector_iterator@V?$_Vector_val@U?$_Simple_types@UItem@CInifile@@@std@@@std@@@std@@PEBDP6A_NAEBUItem@CInifile@@PEBD@Z@std@@YA?AV?$_Vector_iterator@V?$_Vector_val@U?$_Simple_types@UItem@CInifile@@@std@@@std@@@0@V10@V10@AEBQEBDP6A_NAEBUItem@CInifile@@PEBD@Z@Z
_TEXT	SEGMENT
__$ReturnUdt$ = 64
_First$ = 72
_Last$ = 80
_Val$ = 88
_Pred$dead$ = 96
??$lower_bound@V?$_Vector_iterator@V?$_Vector_val@U?$_Simple_types@UItem@CInifile@@@std@@@std@@@std@@PEBDP6A_NAEBUItem@CInifile@@PEBD@Z@std@@YA?AV?$_Vector_iterator@V?$_Vector_val@U?$_Simple_types@UItem@CInifile@@@std@@@std@@@0@V10@V10@AEBQEBDP6A_NAEBUItem@CInifile@@PEBD@Z@Z PROC ; std::lower_bound<std::_Vector_iterator<std::_Vector_val<std::_Simple_types<CInifile::Item> > >,char const *,bool (__cdecl*)(CInifile::Item const &,char const *)>, COMDAT

; 6710 : _NODISCARD _CONSTEXPR20 _FwdIt lower_bound(_FwdIt _First, const _FwdIt _Last, const _Ty& _Val, _Pr _Pred) {

$LN19:
	mov	QWORD PTR [rsp+24], rbx
	push	rsi
	push	r14
	push	r15
	sub	rsp, 32					; 00000020H
	mov	rbx, r8

; 1207 :         return _Last - _First; // assume the iterator will do debug checking

	mov	rax, -6148914691236517205		; aaaaaaaaaaaaaaabH
	sub	rbx, rdx

; 6710 : _NODISCARD _CONSTEXPR20 _FwdIt lower_bound(_FwdIt _First, const _FwdIt _Last, const _Ty& _Val, _Pr _Pred) {

	mov	r15, r9

; 1207 :         return _Last - _First; // assume the iterator will do debug checking

	sar	rbx, 3

; 6710 : _NODISCARD _CONSTEXPR20 _FwdIt lower_bound(_FwdIt _First, const _FwdIt _Last, const _Ty& _Val, _Pr _Pred) {

	mov	rsi, rdx

; 1207 :         return _Last - _First; // assume the iterator will do debug checking

	imul	rbx, rax

; 6710 : _NODISCARD _CONSTEXPR20 _FwdIt lower_bound(_FwdIt _First, const _FwdIt _Last, const _Ty& _Val, _Pr _Pred) {

	mov	r14, rcx

; 6711 :     // find first element not before _Val
; 6712 :     _Adl_verify_range(_First, _Last);
; 6713 :     auto _UFirst                = _Get_unwrapped(_First);
; 6714 :     _Iter_diff_t<_FwdIt> _Count = _STD distance(_UFirst, _Get_unwrapped(_Last));
; 6715 : 
; 6716 :     while (0 < _Count) { // divide and conquer, find half that contains answer

	test	rbx, rbx
	jle	SHORT $LN16@lower_boun
	mov	QWORD PTR [rsp+64], rbp
	mov	QWORD PTR [rsp+72], rdi
	npad	2
$LL2@lower_boun:

; 6717 :         const _Iter_diff_t<_FwdIt> _Count2 = _Count / 2;
; 6718 :         const auto _UMid                   = _STD next(_UFirst, _Count2);
; 6719 :         if (_Pred(*_UMid, _Val)) { // try top half

	mov	rdx, QWORD PTR [r15]
	mov	rdi, rbx
	shr	rdi, 1

; 1179 :         _Where += _Off;

	lea	rax, QWORD PTR [rdi+rdi*2]
	lea	rbp, QWORD PTR [rsi+rax*8]

; 6717 :         const _Iter_diff_t<_FwdIt> _Count2 = _Count / 2;
; 6718 :         const auto _UMid                   = _STD next(_UFirst, _Count2);
; 6719 :         if (_Pred(*_UMid, _Val)) { // try top half

	mov	rcx, rbp
	call	?item_pred@@YA_NAEBUItem@CInifile@@PEBD@Z ; item_pred
	test	al, al
	je	SHORT $LN4@lower_boun

; 6720 :             _UFirst = _Next_iter(_UMid);
; 6721 :             _Count -= _Count2 + 1;

	mov	rax, -1
	lea	rsi, QWORD PTR [rbp+24]
	sub	rax, rdi
	add	rbx, rax

; 6722 :         } else {

	jmp	SHORT $LN5@lower_boun
$LN4@lower_boun:

; 6723 :             _Count = _Count2;

	mov	rbx, rdi
$LN5@lower_boun:

; 6711 :     // find first element not before _Val
; 6712 :     _Adl_verify_range(_First, _Last);
; 6713 :     auto _UFirst                = _Get_unwrapped(_First);
; 6714 :     _Iter_diff_t<_FwdIt> _Count = _STD distance(_UFirst, _Get_unwrapped(_Last));
; 6715 : 
; 6716 :     while (0 < _Count) { // divide and conquer, find half that contains answer

	test	rbx, rbx
	jg	SHORT $LL2@lower_boun

; 6724 :         }
; 6725 :     }
; 6726 : 
; 6727 :     _Seek_wrapped(_First, _UFirst);
; 6728 :     return _First;

	mov	rdi, QWORD PTR [rsp+72]

; 6729 : }

	mov	rax, r14
	mov	rbp, QWORD PTR [rsp+64]
	mov	QWORD PTR [r14], rsi
	mov	rbx, QWORD PTR [rsp+80]
	add	rsp, 32					; 00000020H
	pop	r15
	pop	r14
	pop	rsi
	ret	0
$LN16@lower_boun:
	mov	rbx, QWORD PTR [rsp+80]
	mov	rax, r14
	mov	QWORD PTR [rcx], rdx
	add	rsp, 32					; 00000020H
	pop	r15
	pop	r14
	pop	rsi
	ret	0
??$lower_bound@V?$_Vector_iterator@V?$_Vector_val@U?$_Simple_types@UItem@CInifile@@@std@@@std@@@std@@PEBDP6A_NAEBUItem@CInifile@@PEBD@Z@std@@YA?AV?$_Vector_iterator@V?$_Vector_val@U?$_Simple_types@UItem@CInifile@@@std@@@std@@@0@V10@V10@AEBQEBDP6A_NAEBUItem@CInifile@@PEBD@Z@Z ENDP ; std::lower_bound<std::_Vector_iterator<std::_Vector_val<std::_Simple_types<CInifile::Item> > >,char const *,bool (__cdecl*)(CInifile::Item const &,char const *)>
_TEXT	ENDS
; Function compile flags: /Ogtpy
; File C:\Program Files\Microsoft Visual Studio\2022\Community\VC\Tools\MSVC\14.35.32215\include\xutility
;	COMDAT ??$_Get_unwrapped@AEAV?$_Vector_iterator@V?$_Vector_val@U?$_Simple_types@UItem@CInifile@@@std@@@std@@@std@@@std@@YA?A_TAEAV?$_Vector_iterator@V?$_Vector_val@U?$_Simple_types@UItem@CInifile@@@std@@@std@@@0@@Z
_TEXT	SEGMENT
_It$ = 8
??$_Get_unwrapped@AEAV?$_Vector_iterator@V?$_Vector_val@U?$_Simple_types@UItem@CInifile@@@std@@@std@@@std@@@std@@YA?A_TAEAV?$_Vector_iterator@V?$_Vector_val@U?$_Simple_types@UItem@CInifile@@@std@@@std@@@0@@Z PROC ; std::_Get_unwrapped<std::_Vector_iterator<std::_Vector_val<std::_Simple_types<CInifile::Item> > > &>, COMDAT

; 957  :     // unwrap an iterator previously subjected to _Adl_verify_range or otherwise validated
; 958  :     if constexpr (is_pointer_v<decay_t<_Iter>>) { // special-case pointers and arrays
; 959  :         return _It + 0;
; 960  :     } else if constexpr (_Unwrappable_v<_Iter>) {
; 961  :         return static_cast<_Iter&&>(_It)._Unwrapped();

	mov	rax, QWORD PTR [rcx]

; 962  :     } else {
; 963  :         return static_cast<_Iter&&>(_It);
; 964  :     }
; 965  : }

	ret	0
??$_Get_unwrapped@AEAV?$_Vector_iterator@V?$_Vector_val@U?$_Simple_types@UItem@CInifile@@@std@@@std@@@std@@@std@@YA?A_TAEAV?$_Vector_iterator@V?$_Vector_val@U?$_Simple_types@UItem@CInifile@@@std@@@std@@@0@@Z ENDP ; std::_Get_unwrapped<std::_Vector_iterator<std::_Vector_val<std::_Simple_types<CInifile::Item> > > &>
_TEXT	ENDS
; Function compile flags: /Ogtpy
; File C:\Program Files\Microsoft Visual Studio\2022\Community\VC\Tools\MSVC\14.35.32215\include\xutility
;	COMDAT ??$_Get_unwrapped@AEBV?$_Vector_iterator@V?$_Vector_val@U?$_Simple_types@UItem@CInifile@@@std@@@std@@@std@@@std@@YA?A_TAEBV?$_Vector_iterator@V?$_Vector_val@U?$_Simple_types@UItem@CInifile@@@std@@@std@@@0@@Z
_TEXT	SEGMENT
_It$ = 8
??$_Get_unwrapped@AEBV?$_Vector_iterator@V?$_Vector_val@U?$_Simple_types@UItem@CInifile@@@std@@@std@@@std@@@std@@YA?A_TAEBV?$_Vector_iterator@V?$_Vector_val@U?$_Simple_types@UItem@CInifile@@@std@@@std@@@0@@Z PROC ; std::_Get_unwrapped<std::_Vector_iterator<std::_Vector_val<std::_Simple_types<CInifile::Item> > > const &>, COMDAT

; 957  :     // unwrap an iterator previously subjected to _Adl_verify_range or otherwise validated
; 958  :     if constexpr (is_pointer_v<decay_t<_Iter>>) { // special-case pointers and arrays
; 959  :         return _It + 0;
; 960  :     } else if constexpr (_Unwrappable_v<_Iter>) {
; 961  :         return static_cast<_Iter&&>(_It)._Unwrapped();

	mov	rax, QWORD PTR [rcx]

; 962  :     } else {
; 963  :         return static_cast<_Iter&&>(_It);
; 964  :     }
; 965  : }

	ret	0
??$_Get_unwrapped@AEBV?$_Vector_iterator@V?$_Vector_val@U?$_Simple_types@UItem@CInifile@@@std@@@std@@@std@@@std@@YA?A_TAEBV?$_Vector_iterator@V?$_Vector_val@U?$_Simple_types@UItem@CInifile@@@std@@@std@@@0@@Z ENDP ; std::_Get_unwrapped<std::_Vector_iterator<std::_Vector_val<std::_Simple_types<CInifile::Item> > > const &>
_TEXT	ENDS
; Function compile flags: /Ogtpy
; File C:\Users\Mahito\Desktop\Night outing\Night-outing\src\xrCore\xrMemory_subst_msvc.h
; File C:\Program Files\Microsoft Visual Studio\2022\Community\VC\Tools\MSVC\14.35.32215\include\vector
; File C:\Users\Mahito\Desktop\Night outing\Night-outing\src\xrCore\xrMemory.h
; File C:\Users\Mahito\Desktop\Night outing\Night-outing\src\xrCore\xrMemory_subst_msvc.cpp
; File C:\Program Files\Microsoft Visual Studio\2022\Community\VC\Tools\MSVC\14.35.32215\include\vector
; File C:\Users\Mahito\Desktop\Night outing\Night-outing\src\xrCore\xrstring.h
; File C:\Users\Mahito\Desktop\Night outing\Night-outing\src\xrCore\xrMemory_subst_msvc.h
; File C:\Users\Mahito\Desktop\Night outing\Night-outing\src\xrCore\xrMemory_subst_msvc.cpp
; File C:\Users\Mahito\Desktop\Night outing\Night-outing\src\xrCore\xrMemory_subst_msvc.h
;	COMDAT ??$xr_delete@USect@CInifile@@@@YAXAEAPEAUSect@CInifile@@@Z
_TEXT	SEGMENT
ptr$ = 48
??$xr_delete@USect@CInifile@@@@YAXAEAPEAUSect@CInifile@@@Z PROC ; xr_delete<CInifile::Sect>, COMDAT

; 38   : {

$LN69:
	mov	QWORD PTR [rsp+16], rbx
	push	rdi
	sub	rsp, 32					; 00000020H

; 39   : 	if (ptr)

	mov	rbx, QWORD PTR [rcx]
	mov	rdi, rcx
	test	rbx, rbx
	je	SHORT $LN2@xr_delete
; File C:\Program Files\Microsoft Visual Studio\2022\Community\VC\Tools\MSVC\14.35.32215\include\vector

; 2107 :         if (_Myfirst) { // destroy and deallocate old array

	mov	rcx, QWORD PTR [rbx+8]
	mov	QWORD PTR [rsp+48], rsi
	xor	esi, esi
	test	rcx, rcx
	je	SHORT $LN16@xr_delete

; 2108 :             _Destroy_range(_Myfirst, _Mylast, _Al);

	mov	rdx, QWORD PTR [rbx+16]
	call	??$_Destroy_range@V?$xalloc@UItem@CInifile@@@@@std@@YAXPEAUItem@CInifile@@QEAU12@AEAV?$xalloc@UItem@CInifile@@@@@Z ; std::_Destroy_range<xalloc<CInifile::Item> >

; 2109 :             _ASAN_VECTOR_REMOVE;
; 2110 :             _Al.deallocate(_Myfirst, static_cast<size_type>(_Myend - _Myfirst));

	mov	rcx, QWORD PTR [rbx+8]
; File C:\Users\Mahito\Desktop\Night outing\Night-outing\src\xrCore\xrMemory.h

; 69   : 	if (P)

	test	rcx, rcx
	je	SHORT $LN21@xr_delete
; File C:\Users\Mahito\Desktop\Night outing\Night-outing\src\xrCore\xrMemory_subst_msvc.cpp

; 99   : 	stat_calls++;

	inc	DWORD PTR ?Memory@@3VxrMemory@@A

; 100  : 
; 101  : #ifdef PURE_ALLOC
; 102  : 	if (g_use_pure_alloc)
; 103  : 	{
; 104  : 		//free(P);
; 105  : 		_aligned_free(P);

	call	QWORD PTR __imp__aligned_free
$LN21@xr_delete:
; File C:\Program Files\Microsoft Visual Studio\2022\Community\VC\Tools\MSVC\14.35.32215\include\vector

; 2112 :             _Myfirst = nullptr;

	mov	QWORD PTR [rbx+8], rsi

; 2113 :             _Mylast  = nullptr;

	mov	QWORD PTR [rbx+16], rsi

; 2114 :             _Myend   = nullptr;

	mov	QWORD PTR [rbx+24], rsi
$LN16@xr_delete:
; File C:\Users\Mahito\Desktop\Night outing\Night-outing\src\xrCore\xrstring.h

; 61   : 	void				_dec		()								{	if (0==p_) return;	p_->dwReference--; 	if (0==p_->dwReference)	p_=0;						}

	mov	rax, QWORD PTR [rbx]
	test	rax, rax
	je	SHORT $LN46@xr_delete
	dec	DWORD PTR [rax]
	mov	rax, QWORD PTR [rbx]
	cmp	DWORD PTR [rax], esi
	jne	SHORT $LN46@xr_delete
	mov	QWORD PTR [rbx], rsi
$LN46@xr_delete:
; File C:\Users\Mahito\Desktop\Night outing\Night-outing\src\xrCore\xrMemory_subst_msvc.h

; 32   : 		Memory.mem_free(ptr);

	mov	rcx, QWORD PTR [rdi]
; File C:\Users\Mahito\Desktop\Night outing\Night-outing\src\xrCore\xrMemory_subst_msvc.cpp

; 99   : 	stat_calls++;

	inc	DWORD PTR ?Memory@@3VxrMemory@@A

; 100  : 
; 101  : #ifdef PURE_ALLOC
; 102  : 	if (g_use_pure_alloc)
; 103  : 	{
; 104  : 		//free(P);
; 105  : 		_aligned_free(P);

	call	QWORD PTR __imp__aligned_free
; File C:\Users\Mahito\Desktop\Night outing\Night-outing\src\xrCore\xrMemory_subst_msvc.h

; 42   : 		ptr = NULL;

	mov	QWORD PTR [rdi], rsi
	mov	rsi, QWORD PTR [rsp+48]
$LN2@xr_delete:

; 43   : 	}
; 44   : }

	mov	rbx, QWORD PTR [rsp+56]
	add	rsp, 32					; 00000020H
	pop	rdi
	ret	0
??$xr_delete@USect@CInifile@@@@YAXAEAPEAUSect@CInifile@@@Z ENDP ; xr_delete<CInifile::Sect>
_TEXT	ENDS
; Function compile flags: /Ogtpy
; File C:\Program Files\Microsoft Visual Studio\2022\Community\VC\Tools\MSVC\14.35.32215\include\xutility
;	COMDAT ??$lower_bound@V?$_Vector_iterator@V?$_Vector_val@U?$_Simple_types@PEAUSect@CInifile@@@std@@@std@@@std@@PEBDP6A_NPEBUSect@CInifile@@PEBD@Z@std@@YA?AV?$_Vector_iterator@V?$_Vector_val@U?$_Simple_types@PEAUSect@CInifile@@@std@@@std@@@0@V10@V10@AEBQEBDP6A_NPEBUSect@CInifile@@PEBD@Z@Z
_TEXT	SEGMENT
__$ReturnUdt$ = 64
_First$ = 72
_Last$ = 80
_Val$ = 88
_Pred$dead$ = 96
??$lower_bound@V?$_Vector_iterator@V?$_Vector_val@U?$_Simple_types@PEAUSect@CInifile@@@std@@@std@@@std@@PEBDP6A_NPEBUSect@CInifile@@PEBD@Z@std@@YA?AV?$_Vector_iterator@V?$_Vector_val@U?$_Simple_types@PEAUSect@CInifile@@@std@@@std@@@0@V10@V10@AEBQEBDP6A_NPEBUSect@CInifile@@PEBD@Z@Z PROC ; std::lower_bound<std::_Vector_iterator<std::_Vector_val<std::_Simple_types<CInifile::Sect *> > >,char const *,bool (__cdecl*)(CInifile::Sect const *,char const *)>, COMDAT

; 6710 : _NODISCARD _CONSTEXPR20 _FwdIt lower_bound(_FwdIt _First, const _FwdIt _Last, const _Ty& _Val, _Pr _Pred) {

$LN19:
	mov	QWORD PTR [rsp+24], rbx
	push	rbp
	push	rsi
	push	r15
	sub	rsp, 32					; 00000020H
	mov	rbx, r8
	mov	rbp, r9

; 1207 :         return _Last - _First; // assume the iterator will do debug checking

	sub	rbx, rdx

; 6710 : _NODISCARD _CONSTEXPR20 _FwdIt lower_bound(_FwdIt _First, const _FwdIt _Last, const _Ty& _Val, _Pr _Pred) {

	mov	rsi, rdx

; 1207 :         return _Last - _First; // assume the iterator will do debug checking

	sar	rbx, 3

; 6710 : _NODISCARD _CONSTEXPR20 _FwdIt lower_bound(_FwdIt _First, const _FwdIt _Last, const _Ty& _Val, _Pr _Pred) {

	mov	r15, rcx

; 6711 :     // find first element not before _Val
; 6712 :     _Adl_verify_range(_First, _Last);
; 6713 :     auto _UFirst                = _Get_unwrapped(_First);
; 6714 :     _Iter_diff_t<_FwdIt> _Count = _STD distance(_UFirst, _Get_unwrapped(_Last));
; 6715 : 
; 6716 :     while (0 < _Count) { // divide and conquer, find half that contains answer

	test	rbx, rbx
	jle	SHORT $LN16@lower_boun
	mov	QWORD PTR [rsp+64], rdi
	mov	QWORD PTR [rsp+72], r14
	npad	1
$LL2@lower_boun:

; 6717 :         const _Iter_diff_t<_FwdIt> _Count2 = _Count / 2;
; 6718 :         const auto _UMid                   = _STD next(_UFirst, _Count2);
; 6719 :         if (_Pred(*_UMid, _Val)) { // try top half

	mov	rdx, QWORD PTR [rbp]
	mov	rdi, rbx
	shr	rdi, 1
	mov	rcx, QWORD PTR [rsi+rdi*8]

; 1179 :         _Where += _Off;

	lea	r14, QWORD PTR [rsi+rdi*8]

; 6717 :         const _Iter_diff_t<_FwdIt> _Count2 = _Count / 2;
; 6718 :         const auto _UMid                   = _STD next(_UFirst, _Count2);
; 6719 :         if (_Pred(*_UMid, _Val)) { // try top half

	call	?sect_pred@@YA_NPEBUSect@CInifile@@PEBD@Z ; sect_pred
	test	al, al
	je	SHORT $LN4@lower_boun

; 6720 :             _UFirst = _Next_iter(_UMid);
; 6721 :             _Count -= _Count2 + 1;

	mov	rax, -1
	lea	rsi, QWORD PTR [r14+8]
	sub	rax, rdi
	add	rbx, rax

; 6722 :         } else {

	jmp	SHORT $LN5@lower_boun
$LN4@lower_boun:

; 6723 :             _Count = _Count2;

	mov	rbx, rdi
$LN5@lower_boun:

; 6711 :     // find first element not before _Val
; 6712 :     _Adl_verify_range(_First, _Last);
; 6713 :     auto _UFirst                = _Get_unwrapped(_First);
; 6714 :     _Iter_diff_t<_FwdIt> _Count = _STD distance(_UFirst, _Get_unwrapped(_Last));
; 6715 : 
; 6716 :     while (0 < _Count) { // divide and conquer, find half that contains answer

	test	rbx, rbx
	jg	SHORT $LL2@lower_boun

; 6724 :         }
; 6725 :     }
; 6726 : 
; 6727 :     _Seek_wrapped(_First, _UFirst);
; 6728 :     return _First;

	mov	r14, QWORD PTR [rsp+72]

; 6729 : }

	mov	rax, r15
	mov	rdi, QWORD PTR [rsp+64]
	mov	QWORD PTR [r15], rsi
	mov	rbx, QWORD PTR [rsp+80]
	add	rsp, 32					; 00000020H
	pop	r15
	pop	rsi
	pop	rbp
	ret	0
$LN16@lower_boun:
	mov	rbx, QWORD PTR [rsp+80]
	mov	rax, r15
	mov	QWORD PTR [rcx], rdx
	add	rsp, 32					; 00000020H
	pop	r15
	pop	rsi
	pop	rbp
	ret	0
??$lower_bound@V?$_Vector_iterator@V?$_Vector_val@U?$_Simple_types@PEAUSect@CInifile@@@std@@@std@@@std@@PEBDP6A_NPEBUSect@CInifile@@PEBD@Z@std@@YA?AV?$_Vector_iterator@V?$_Vector_val@U?$_Simple_types@PEAUSect@CInifile@@@std@@@std@@@0@V10@V10@AEBQEBDP6A_NPEBUSect@CInifile@@PEBD@Z@Z ENDP ; std::lower_bound<std::_Vector_iterator<std::_Vector_val<std::_Simple_types<CInifile::Sect *> > >,char const *,bool (__cdecl*)(CInifile::Sect const *,char const *)>
_TEXT	ENDS
; Function compile flags: /Ogtpy
; File C:\Program Files\Microsoft Visual Studio\2022\Community\VC\Tools\MSVC\14.35.32215\include\xutility
;	COMDAT ??$_Get_unwrapped@AEAV?$_Vector_iterator@V?$_Vector_val@U?$_Simple_types@PEAUSect@CInifile@@@std@@@std@@@std@@@std@@YA?A_TAEAV?$_Vector_iterator@V?$_Vector_val@U?$_Simple_types@PEAUSect@CInifile@@@std@@@std@@@0@@Z
_TEXT	SEGMENT
_It$ = 8
??$_Get_unwrapped@AEAV?$_Vector_iterator@V?$_Vector_val@U?$_Simple_types@PEAUSect@CInifile@@@std@@@std@@@std@@@std@@YA?A_TAEAV?$_Vector_iterator@V?$_Vector_val@U?$_Simple_types@PEAUSect@CInifile@@@std@@@std@@@0@@Z PROC ; std::_Get_unwrapped<std::_Vector_iterator<std::_Vector_val<std::_Simple_types<CInifile::Sect *> > > &>, COMDAT

; 957  :     // unwrap an iterator previously subjected to _Adl_verify_range or otherwise validated
; 958  :     if constexpr (is_pointer_v<decay_t<_Iter>>) { // special-case pointers and arrays
; 959  :         return _It + 0;
; 960  :     } else if constexpr (_Unwrappable_v<_Iter>) {
; 961  :         return static_cast<_Iter&&>(_It)._Unwrapped();

	mov	rax, QWORD PTR [rcx]

; 962  :     } else {
; 963  :         return static_cast<_Iter&&>(_It);
; 964  :     }
; 965  : }

	ret	0
??$_Get_unwrapped@AEAV?$_Vector_iterator@V?$_Vector_val@U?$_Simple_types@PEAUSect@CInifile@@@std@@@std@@@std@@@std@@YA?A_TAEAV?$_Vector_iterator@V?$_Vector_val@U?$_Simple_types@PEAUSect@CInifile@@@std@@@std@@@0@@Z ENDP ; std::_Get_unwrapped<std::_Vector_iterator<std::_Vector_val<std::_Simple_types<CInifile::Sect *> > > &>
_TEXT	ENDS
; Function compile flags: /Ogtpy
; File C:\Program Files\Microsoft Visual Studio\2022\Community\VC\Tools\MSVC\14.35.32215\include\xutility
;	COMDAT ??$_Get_unwrapped@AEBV?$_Vector_iterator@V?$_Vector_val@U?$_Simple_types@PEAUSect@CInifile@@@std@@@std@@@std@@@std@@YA?A_TAEBV?$_Vector_iterator@V?$_Vector_val@U?$_Simple_types@PEAUSect@CInifile@@@std@@@std@@@0@@Z
_TEXT	SEGMENT
_It$ = 8
??$_Get_unwrapped@AEBV?$_Vector_iterator@V?$_Vector_val@U?$_Simple_types@PEAUSect@CInifile@@@std@@@std@@@std@@@std@@YA?A_TAEBV?$_Vector_iterator@V?$_Vector_val@U?$_Simple_types@PEAUSect@CInifile@@@std@@@std@@@0@@Z PROC ; std::_Get_unwrapped<std::_Vector_iterator<std::_Vector_val<std::_Simple_types<CInifile::Sect *> > > const &>, COMDAT

; 957  :     // unwrap an iterator previously subjected to _Adl_verify_range or otherwise validated
; 958  :     if constexpr (is_pointer_v<decay_t<_Iter>>) { // special-case pointers and arrays
; 959  :         return _It + 0;
; 960  :     } else if constexpr (_Unwrappable_v<_Iter>) {
; 961  :         return static_cast<_Iter&&>(_It)._Unwrapped();

	mov	rax, QWORD PTR [rcx]

; 962  :     } else {
; 963  :         return static_cast<_Iter&&>(_It);
; 964  :     }
; 965  : }

	ret	0
??$_Get_unwrapped@AEBV?$_Vector_iterator@V?$_Vector_val@U?$_Simple_types@PEAUSect@CInifile@@@std@@@std@@@std@@@std@@YA?A_TAEBV?$_Vector_iterator@V?$_Vector_val@U?$_Simple_types@PEAUSect@CInifile@@@std@@@std@@@0@@Z ENDP ; std::_Get_unwrapped<std::_Vector_iterator<std::_Vector_val<std::_Simple_types<CInifile::Sect *> > > const &>
_TEXT	ENDS
; Function compile flags: /Ogtpy
; File C:\Users\Mahito\Desktop\Night outing\Night-outing\src\xrCore\xrMemory_subst_msvc.h
; File C:\Users\Mahito\Desktop\Night outing\Night-outing\src\xrCore\xrMemory_subst_msvc.cpp
; File C:\Users\Mahito\Desktop\Night outing\Night-outing\src\xrCore\xrMemory_subst_msvc.h
; File C:\Users\Mahito\Desktop\Night outing\Night-outing\src\xrCore\xrstring.h
; File C:\Program Files\Microsoft Visual Studio\2022\Community\VC\Tools\MSVC\14.35.32215\include\vector
; File C:\Users\Mahito\Desktop\Night outing\Night-outing\src\xrCore\xrMemory_subst_msvc.h
;	COMDAT ??$xr_new@USect@CInifile@@@@YAPEAUSect@CInifile@@XZ
_TEXT	SEGMENT
??$xr_new@USect@CInifile@@@@YAPEAUSect@CInifile@@XZ PROC ; xr_new<CInifile::Sect>, COMDAT

; 3    : IC T* xr_new() {

$LN46:
	sub	rsp, 40					; 00000028H
; File C:\Users\Mahito\Desktop\Night outing\Night-outing\src\xrCore\xrMemory_subst_msvc.cpp

; 39   : 	stat_calls++;

	inc	DWORD PTR ?Memory@@3VxrMemory@@A

; 40   : 
; 41   : #ifdef PURE_ALLOC
; 42   : 	if (g_use_pure_alloc)
; 43   : 	{
; 44   : 		//void* result = malloc(size);
; 45   : 		void* result = _aligned_malloc(size, PURE_MEMORY_ALIGNMENT);

	mov	edx, 16
	lea	ecx, QWORD PTR [rdx+16]
	call	QWORD PTR __imp__aligned_malloc
; File C:\Users\Mahito\Desktop\Night outing\Night-outing\src\xrCore\xrMemory_subst_msvc.h

; 5    : 	return new (ptr) T();

	xor	ecx, ecx
; File C:\Users\Mahito\Desktop\Night outing\Night-outing\src\xrCore\xrstring.h

; 72   : 						shared_str	()								{	p_ = 0;											}

	mov	QWORD PTR [rax], rcx
; File C:\Program Files\Microsoft Visual Studio\2022\Community\VC\Tools\MSVC\14.35.32215\include\vector

; 390  :     _CONSTEXPR20 _Vector_val() noexcept : _Myfirst(), _Mylast(), _Myend() {}

	mov	QWORD PTR [rax+8], rcx
	mov	QWORD PTR [rax+16], rcx
	mov	QWORD PTR [rax+24], rcx
; File C:\Users\Mahito\Desktop\Night outing\Night-outing\src\xrCore\xrMemory_subst_msvc.h

; 6    : }

	add	rsp, 40					; 00000028H
	ret	0
??$xr_new@USect@CInifile@@@@YAPEAUSect@CInifile@@XZ ENDP ; xr_new<CInifile::Sect>
_TEXT	ENDS
; Function compile flags: /Ogtpy
; File C:\Users\Mahito\Desktop\Night outing\Night-outing\src\xrCore\xr_trims.h
;	COMDAT ??$_GetItem@$0CAA@@@YAPEADPEBDHAEAY0CAA@DD0_N@Z
_TEXT	SEGMENT
src$ = 80
index$ = 88
dst$ = 96
separator$dead$ = 104
def$dead$ = 112
trim$dead$ = 120
??$_GetItem@$0CAA@@@YAPEADPEBDHAEAY0CAA@DD0_N@Z PROC	; _GetItem<512>, COMDAT

; 26   : {

$LN4:
	sub	rsp, 72					; 00000048H

; 27   : 	return					_GetItem(src,index,dst,count,separator,def,trim);

	mov	r9d, 512				; 00000200H
	mov	BYTE PTR [rsp+32], 44			; 0000002cH
	call	?_GetItem@@YAPEADPEBDHPEADID0_N@Z	; _GetItem

; 28   : }

	add	rsp, 72					; 00000048H
	ret	0
??$_GetItem@$0CAA@@@YAPEADPEBDHAEAY0CAA@DD0_N@Z ENDP	; _GetItem<512>
_TEXT	ENDS
; Function compile flags: /Ogtpy
; File C:\Program Files\Microsoft Visual Studio\2022\Community\VC\Tools\MSVC\14.35.32215\include\xutility
;	COMDAT ??$_Get_unwrapped@AEAV?$_Vector_const_iterator@V?$_Vector_val@U?$_Simple_types@PEAUSect@CInifile@@@std@@@std@@@std@@@std@@YA?A_TAEAV?$_Vector_const_iterator@V?$_Vector_val@U?$_Simple_types@PEAUSect@CInifile@@@std@@@std@@@0@@Z
_TEXT	SEGMENT
_It$ = 8
??$_Get_unwrapped@AEAV?$_Vector_const_iterator@V?$_Vector_val@U?$_Simple_types@PEAUSect@CInifile@@@std@@@std@@@std@@@std@@YA?A_TAEAV?$_Vector_const_iterator@V?$_Vector_val@U?$_Simple_types@PEAUSect@CInifile@@@std@@@std@@@0@@Z PROC ; std::_Get_unwrapped<std::_Vector_const_iterator<std::_Vector_val<std::_Simple_types<CInifile::Sect *> > > &>, COMDAT

; 957  :     // unwrap an iterator previously subjected to _Adl_verify_range or otherwise validated
; 958  :     if constexpr (is_pointer_v<decay_t<_Iter>>) { // special-case pointers and arrays
; 959  :         return _It + 0;
; 960  :     } else if constexpr (_Unwrappable_v<_Iter>) {
; 961  :         return static_cast<_Iter&&>(_It)._Unwrapped();

	mov	rax, QWORD PTR [rcx]

; 962  :     } else {
; 963  :         return static_cast<_Iter&&>(_It);
; 964  :     }
; 965  : }

	ret	0
??$_Get_unwrapped@AEAV?$_Vector_const_iterator@V?$_Vector_val@U?$_Simple_types@PEAUSect@CInifile@@@std@@@std@@@std@@@std@@YA?A_TAEAV?$_Vector_const_iterator@V?$_Vector_val@U?$_Simple_types@PEAUSect@CInifile@@@std@@@std@@@0@@Z ENDP ; std::_Get_unwrapped<std::_Vector_const_iterator<std::_Vector_val<std::_Simple_types<CInifile::Sect *> > > &>
_TEXT	ENDS
; Function compile flags: /Ogtpy
; File C:\Program Files\Microsoft Visual Studio\2022\Community\VC\Tools\MSVC\14.35.32215\include\xutility
;	COMDAT ??$_Get_unwrapped@AEBV?$_Vector_const_iterator@V?$_Vector_val@U?$_Simple_types@PEAUSect@CInifile@@@std@@@std@@@std@@@std@@YA?A_TAEBV?$_Vector_const_iterator@V?$_Vector_val@U?$_Simple_types@PEAUSect@CInifile@@@std@@@std@@@0@@Z
_TEXT	SEGMENT
_It$ = 8
??$_Get_unwrapped@AEBV?$_Vector_const_iterator@V?$_Vector_val@U?$_Simple_types@PEAUSect@CInifile@@@std@@@std@@@std@@@std@@YA?A_TAEBV?$_Vector_const_iterator@V?$_Vector_val@U?$_Simple_types@PEAUSect@CInifile@@@std@@@std@@@0@@Z PROC ; std::_Get_unwrapped<std::_Vector_const_iterator<std::_Vector_val<std::_Simple_types<CInifile::Sect *> > > const &>, COMDAT

; 957  :     // unwrap an iterator previously subjected to _Adl_verify_range or otherwise validated
; 958  :     if constexpr (is_pointer_v<decay_t<_Iter>>) { // special-case pointers and arrays
; 959  :         return _It + 0;
; 960  :     } else if constexpr (_Unwrappable_v<_Iter>) {
; 961  :         return static_cast<_Iter&&>(_It)._Unwrapped();

	mov	rax, QWORD PTR [rcx]

; 962  :     } else {
; 963  :         return static_cast<_Iter&&>(_It);
; 964  :     }
; 965  : }

	ret	0
??$_Get_unwrapped@AEBV?$_Vector_const_iterator@V?$_Vector_val@U?$_Simple_types@PEAUSect@CInifile@@@std@@@std@@@std@@@std@@YA?A_TAEBV?$_Vector_const_iterator@V?$_Vector_val@U?$_Simple_types@PEAUSect@CInifile@@@std@@@std@@@0@@Z ENDP ; std::_Get_unwrapped<std::_Vector_const_iterator<std::_Vector_val<std::_Simple_types<CInifile::Sect *> > > const &>
_TEXT	ENDS
; Function compile flags: /Ogtpy
; File C:\Program Files\Microsoft Visual Studio\2022\Community\VC\Tools\MSVC\14.35.32215\include\xutility
;	COMDAT ??$lower_bound@V?$_Vector_const_iterator@V?$_Vector_val@U?$_Simple_types@PEAUSect@CInifile@@@std@@@std@@@std@@$$BY0BAA@DP6A_NPEBUSect@CInifile@@PEBD@Z@std@@YA?AV?$_Vector_const_iterator@V?$_Vector_val@U?$_Simple_types@PEAUSect@CInifile@@@std@@@std@@@0@V10@V10@AEAY0BAA@$$CBDP6A_NPEBUSect@CInifile@@PEBD@Z@Z
_TEXT	SEGMENT
__$ReturnUdt$ = 64
_First$ = 72
_Last$ = 80
_Val$ = 88
_Pred$dead$ = 96
??$lower_bound@V?$_Vector_const_iterator@V?$_Vector_val@U?$_Simple_types@PEAUSect@CInifile@@@std@@@std@@@std@@$$BY0BAA@DP6A_NPEBUSect@CInifile@@PEBD@Z@std@@YA?AV?$_Vector_const_iterator@V?$_Vector_val@U?$_Simple_types@PEAUSect@CInifile@@@std@@@std@@@0@V10@V10@AEAY0BAA@$$CBDP6A_NPEBUSect@CInifile@@PEBD@Z@Z PROC ; std::lower_bound<std::_Vector_const_iterator<std::_Vector_val<std::_Simple_types<CInifile::Sect *> > >,char [256],bool (__cdecl*)(CInifile::Sect const *,char const *)>, COMDAT

; 6710 : _NODISCARD _CONSTEXPR20 _FwdIt lower_bound(_FwdIt _First, const _FwdIt _Last, const _Ty& _Val, _Pr _Pred) {

$LN19:
	mov	QWORD PTR [rsp+24], rbx
	push	rbp
	push	rsi
	push	r15
	sub	rsp, 32					; 00000020H
	mov	rbx, r8
	mov	rbp, r9

; 1207 :         return _Last - _First; // assume the iterator will do debug checking

	sub	rbx, rdx

; 6710 : _NODISCARD _CONSTEXPR20 _FwdIt lower_bound(_FwdIt _First, const _FwdIt _Last, const _Ty& _Val, _Pr _Pred) {

	mov	rsi, rdx

; 1207 :         return _Last - _First; // assume the iterator will do debug checking

	sar	rbx, 3

; 6710 : _NODISCARD _CONSTEXPR20 _FwdIt lower_bound(_FwdIt _First, const _FwdIt _Last, const _Ty& _Val, _Pr _Pred) {

	mov	r15, rcx

; 6711 :     // find first element not before _Val
; 6712 :     _Adl_verify_range(_First, _Last);
; 6713 :     auto _UFirst                = _Get_unwrapped(_First);
; 6714 :     _Iter_diff_t<_FwdIt> _Count = _STD distance(_UFirst, _Get_unwrapped(_Last));
; 6715 : 
; 6716 :     while (0 < _Count) { // divide and conquer, find half that contains answer

	test	rbx, rbx
	jle	SHORT $LN16@lower_boun
	mov	QWORD PTR [rsp+64], rdi
	mov	QWORD PTR [rsp+72], r14
	npad	1
$LL2@lower_boun:

; 6717 :         const _Iter_diff_t<_FwdIt> _Count2 = _Count / 2;

	mov	rdi, rbx

; 6718 :         const auto _UMid                   = _STD next(_UFirst, _Count2);
; 6719 :         if (_Pred(*_UMid, _Val)) { // try top half

	mov	rdx, rbp
	shr	rdi, 1
	mov	rcx, QWORD PTR [rsi+rdi*8]

; 1179 :         _Where += _Off;

	lea	r14, QWORD PTR [rsi+rdi*8]

; 6718 :         const auto _UMid                   = _STD next(_UFirst, _Count2);
; 6719 :         if (_Pred(*_UMid, _Val)) { // try top half

	call	?sect_pred@@YA_NPEBUSect@CInifile@@PEBD@Z ; sect_pred
	test	al, al
	je	SHORT $LN4@lower_boun

; 6720 :             _UFirst = _Next_iter(_UMid);
; 6721 :             _Count -= _Count2 + 1;

	mov	rax, -1
	lea	rsi, QWORD PTR [r14+8]
	sub	rax, rdi
	add	rbx, rax

; 6722 :         } else {

	jmp	SHORT $LN5@lower_boun
$LN4@lower_boun:

; 6723 :             _Count = _Count2;

	mov	rbx, rdi
$LN5@lower_boun:

; 6711 :     // find first element not before _Val
; 6712 :     _Adl_verify_range(_First, _Last);
; 6713 :     auto _UFirst                = _Get_unwrapped(_First);
; 6714 :     _Iter_diff_t<_FwdIt> _Count = _STD distance(_UFirst, _Get_unwrapped(_Last));
; 6715 : 
; 6716 :     while (0 < _Count) { // divide and conquer, find half that contains answer

	test	rbx, rbx
	jg	SHORT $LL2@lower_boun

; 6724 :         }
; 6725 :     }
; 6726 : 
; 6727 :     _Seek_wrapped(_First, _UFirst);
; 6728 :     return _First;

	mov	r14, QWORD PTR [rsp+72]

; 6729 : }

	mov	rax, r15
	mov	rdi, QWORD PTR [rsp+64]
	mov	QWORD PTR [r15], rsi
	mov	rbx, QWORD PTR [rsp+80]
	add	rsp, 32					; 00000020H
	pop	r15
	pop	rsi
	pop	rbp
	ret	0
$LN16@lower_boun:
	mov	rbx, QWORD PTR [rsp+80]
	mov	rax, r15
	mov	QWORD PTR [rcx], rdx
	add	rsp, 32					; 00000020H
	pop	r15
	pop	rsi
	pop	rbp
	ret	0
??$lower_bound@V?$_Vector_const_iterator@V?$_Vector_val@U?$_Simple_types@PEAUSect@CInifile@@@std@@@std@@@std@@$$BY0BAA@DP6A_NPEBUSect@CInifile@@PEBD@Z@std@@YA?AV?$_Vector_const_iterator@V?$_Vector_val@U?$_Simple_types@PEAUSect@CInifile@@@std@@@std@@@0@V10@V10@AEAY0BAA@$$CBDP6A_NPEBUSect@CInifile@@PEBD@Z@Z ENDP ; std::lower_bound<std::_Vector_const_iterator<std::_Vector_val<std::_Simple_types<CInifile::Sect *> > >,char [256],bool (__cdecl*)(CInifile::Sect const *,char const *)>
_TEXT	ENDS
; Function compile flags: /Ogtpy
; File C:\Program Files\Microsoft Visual Studio\2022\Community\VC\Tools\MSVC\14.35.32215\include\xutility
;	COMDAT ??$lower_bound@V?$_Vector_const_iterator@V?$_Vector_val@U?$_Simple_types@UItem@CInifile@@@std@@@std@@@std@@PEBDP6A_NAEBUItem@CInifile@@PEBD@Z@std@@YA?AV?$_Vector_const_iterator@V?$_Vector_val@U?$_Simple_types@UItem@CInifile@@@std@@@std@@@0@V10@V10@AEBQEBDP6A_NAEBUItem@CInifile@@PEBD@Z@Z
_TEXT	SEGMENT
__$ReturnUdt$ = 64
_First$ = 72
_Last$ = 80
_Val$ = 88
_Pred$dead$ = 96
??$lower_bound@V?$_Vector_const_iterator@V?$_Vector_val@U?$_Simple_types@UItem@CInifile@@@std@@@std@@@std@@PEBDP6A_NAEBUItem@CInifile@@PEBD@Z@std@@YA?AV?$_Vector_const_iterator@V?$_Vector_val@U?$_Simple_types@UItem@CInifile@@@std@@@std@@@0@V10@V10@AEBQEBDP6A_NAEBUItem@CInifile@@PEBD@Z@Z PROC ; std::lower_bound<std::_Vector_const_iterator<std::_Vector_val<std::_Simple_types<CInifile::Item> > >,char const *,bool (__cdecl*)(CInifile::Item const &,char const *)>, COMDAT

; 6710 : _NODISCARD _CONSTEXPR20 _FwdIt lower_bound(_FwdIt _First, const _FwdIt _Last, const _Ty& _Val, _Pr _Pred) {

$LN19:
	mov	QWORD PTR [rsp+24], rbx
	push	rsi
	push	r14
	push	r15
	sub	rsp, 32					; 00000020H
	mov	rbx, r8

; 1207 :         return _Last - _First; // assume the iterator will do debug checking

	mov	rax, -6148914691236517205		; aaaaaaaaaaaaaaabH
	sub	rbx, rdx

; 6710 : _NODISCARD _CONSTEXPR20 _FwdIt lower_bound(_FwdIt _First, const _FwdIt _Last, const _Ty& _Val, _Pr _Pred) {

	mov	r15, r9

; 1207 :         return _Last - _First; // assume the iterator will do debug checking

	sar	rbx, 3

; 6710 : _NODISCARD _CONSTEXPR20 _FwdIt lower_bound(_FwdIt _First, const _FwdIt _Last, const _Ty& _Val, _Pr _Pred) {

	mov	rsi, rdx

; 1207 :         return _Last - _First; // assume the iterator will do debug checking

	imul	rbx, rax

; 6710 : _NODISCARD _CONSTEXPR20 _FwdIt lower_bound(_FwdIt _First, const _FwdIt _Last, const _Ty& _Val, _Pr _Pred) {

	mov	r14, rcx

; 6711 :     // find first element not before _Val
; 6712 :     _Adl_verify_range(_First, _Last);
; 6713 :     auto _UFirst                = _Get_unwrapped(_First);
; 6714 :     _Iter_diff_t<_FwdIt> _Count = _STD distance(_UFirst, _Get_unwrapped(_Last));
; 6715 : 
; 6716 :     while (0 < _Count) { // divide and conquer, find half that contains answer

	test	rbx, rbx
	jle	SHORT $LN16@lower_boun
	mov	QWORD PTR [rsp+64], rbp
	mov	QWORD PTR [rsp+72], rdi
	npad	2
$LL2@lower_boun:

; 6717 :         const _Iter_diff_t<_FwdIt> _Count2 = _Count / 2;
; 6718 :         const auto _UMid                   = _STD next(_UFirst, _Count2);
; 6719 :         if (_Pred(*_UMid, _Val)) { // try top half

	mov	rdx, QWORD PTR [r15]
	mov	rdi, rbx
	shr	rdi, 1

; 1179 :         _Where += _Off;

	lea	rax, QWORD PTR [rdi+rdi*2]
	lea	rbp, QWORD PTR [rsi+rax*8]

; 6717 :         const _Iter_diff_t<_FwdIt> _Count2 = _Count / 2;
; 6718 :         const auto _UMid                   = _STD next(_UFirst, _Count2);
; 6719 :         if (_Pred(*_UMid, _Val)) { // try top half

	mov	rcx, rbp
	call	?item_pred@@YA_NAEBUItem@CInifile@@PEBD@Z ; item_pred
	test	al, al
	je	SHORT $LN4@lower_boun

; 6720 :             _UFirst = _Next_iter(_UMid);
; 6721 :             _Count -= _Count2 + 1;

	mov	rax, -1
	lea	rsi, QWORD PTR [rbp+24]
	sub	rax, rdi
	add	rbx, rax

; 6722 :         } else {

	jmp	SHORT $LN5@lower_boun
$LN4@lower_boun:

; 6723 :             _Count = _Count2;

	mov	rbx, rdi
$LN5@lower_boun:

; 6711 :     // find first element not before _Val
; 6712 :     _Adl_verify_range(_First, _Last);
; 6713 :     auto _UFirst                = _Get_unwrapped(_First);
; 6714 :     _Iter_diff_t<_FwdIt> _Count = _STD distance(_UFirst, _Get_unwrapped(_Last));
; 6715 : 
; 6716 :     while (0 < _Count) { // divide and conquer, find half that contains answer

	test	rbx, rbx
	jg	SHORT $LL2@lower_boun

; 6724 :         }
; 6725 :     }
; 6726 : 
; 6727 :     _Seek_wrapped(_First, _UFirst);
; 6728 :     return _First;

	mov	rdi, QWORD PTR [rsp+72]

; 6729 : }

	mov	rax, r14
	mov	rbp, QWORD PTR [rsp+64]
	mov	QWORD PTR [r14], rsi
	mov	rbx, QWORD PTR [rsp+80]
	add	rsp, 32					; 00000020H
	pop	r15
	pop	r14
	pop	rsi
	ret	0
$LN16@lower_boun:
	mov	rbx, QWORD PTR [rsp+80]
	mov	rax, r14
	mov	QWORD PTR [rcx], rdx
	add	rsp, 32					; 00000020H
	pop	r15
	pop	r14
	pop	rsi
	ret	0
??$lower_bound@V?$_Vector_const_iterator@V?$_Vector_val@U?$_Simple_types@UItem@CInifile@@@std@@@std@@@std@@PEBDP6A_NAEBUItem@CInifile@@PEBD@Z@std@@YA?AV?$_Vector_const_iterator@V?$_Vector_val@U?$_Simple_types@UItem@CInifile@@@std@@@std@@@0@V10@V10@AEBQEBDP6A_NAEBUItem@CInifile@@PEBD@Z@Z ENDP ; std::lower_bound<std::_Vector_const_iterator<std::_Vector_val<std::_Simple_types<CInifile::Item> > >,char const *,bool (__cdecl*)(CInifile::Item const &,char const *)>
_TEXT	ENDS
; Function compile flags: /Ogtpy
; File C:\Program Files\Microsoft Visual Studio\2022\Community\VC\Tools\MSVC\14.35.32215\include\xutility
;	COMDAT ??$_Get_unwrapped@AEAV?$_Vector_const_iterator@V?$_Vector_val@U?$_Simple_types@UItem@CInifile@@@std@@@std@@@std@@@std@@YA?A_TAEAV?$_Vector_const_iterator@V?$_Vector_val@U?$_Simple_types@UItem@CInifile@@@std@@@std@@@0@@Z
_TEXT	SEGMENT
_It$ = 8
??$_Get_unwrapped@AEAV?$_Vector_const_iterator@V?$_Vector_val@U?$_Simple_types@UItem@CInifile@@@std@@@std@@@std@@@std@@YA?A_TAEAV?$_Vector_const_iterator@V?$_Vector_val@U?$_Simple_types@UItem@CInifile@@@std@@@std@@@0@@Z PROC ; std::_Get_unwrapped<std::_Vector_const_iterator<std::_Vector_val<std::_Simple_types<CInifile::Item> > > &>, COMDAT

; 957  :     // unwrap an iterator previously subjected to _Adl_verify_range or otherwise validated
; 958  :     if constexpr (is_pointer_v<decay_t<_Iter>>) { // special-case pointers and arrays
; 959  :         return _It + 0;
; 960  :     } else if constexpr (_Unwrappable_v<_Iter>) {
; 961  :         return static_cast<_Iter&&>(_It)._Unwrapped();

	mov	rax, QWORD PTR [rcx]

; 962  :     } else {
; 963  :         return static_cast<_Iter&&>(_It);
; 964  :     }
; 965  : }

	ret	0
??$_Get_unwrapped@AEAV?$_Vector_const_iterator@V?$_Vector_val@U?$_Simple_types@UItem@CInifile@@@std@@@std@@@std@@@std@@YA?A_TAEAV?$_Vector_const_iterator@V?$_Vector_val@U?$_Simple_types@UItem@CInifile@@@std@@@std@@@0@@Z ENDP ; std::_Get_unwrapped<std::_Vector_const_iterator<std::_Vector_val<std::_Simple_types<CInifile::Item> > > &>
_TEXT	ENDS
; Function compile flags: /Ogtpy
; File C:\Program Files\Microsoft Visual Studio\2022\Community\VC\Tools\MSVC\14.35.32215\include\xutility
;	COMDAT ??$_Get_unwrapped@AEBV?$_Vector_const_iterator@V?$_Vector_val@U?$_Simple_types@UItem@CInifile@@@std@@@std@@@std@@@std@@YA?A_TAEBV?$_Vector_const_iterator@V?$_Vector_val@U?$_Simple_types@UItem@CInifile@@@std@@@std@@@0@@Z
_TEXT	SEGMENT
_It$ = 8
??$_Get_unwrapped@AEBV?$_Vector_const_iterator@V?$_Vector_val@U?$_Simple_types@UItem@CInifile@@@std@@@std@@@std@@@std@@YA?A_TAEBV?$_Vector_const_iterator@V?$_Vector_val@U?$_Simple_types@UItem@CInifile@@@std@@@std@@@0@@Z PROC ; std::_Get_unwrapped<std::_Vector_const_iterator<std::_Vector_val<std::_Simple_types<CInifile::Item> > > const &>, COMDAT

; 957  :     // unwrap an iterator previously subjected to _Adl_verify_range or otherwise validated
; 958  :     if constexpr (is_pointer_v<decay_t<_Iter>>) { // special-case pointers and arrays
; 959  :         return _It + 0;
; 960  :     } else if constexpr (_Unwrappable_v<_Iter>) {
; 961  :         return static_cast<_Iter&&>(_It)._Unwrapped();

	mov	rax, QWORD PTR [rcx]

; 962  :     } else {
; 963  :         return static_cast<_Iter&&>(_It);
; 964  :     }
; 965  : }

	ret	0
??$_Get_unwrapped@AEBV?$_Vector_const_iterator@V?$_Vector_val@U?$_Simple_types@UItem@CInifile@@@std@@@std@@@std@@@std@@YA?A_TAEBV?$_Vector_const_iterator@V?$_Vector_val@U?$_Simple_types@UItem@CInifile@@@std@@@std@@@0@@Z ENDP ; std::_Get_unwrapped<std::_Vector_const_iterator<std::_Vector_val<std::_Simple_types<CInifile::Item> > > const &>
_TEXT	ENDS
; Function compile flags: /Ogtpy
; File C:\Users\Mahito\Desktop\Night outing\Night-outing\src\xrCore\fastdelegate.h
;	COMDAT ??$CopyFrom@V?$FastDelegate1@PEBD_N@fastdelegate@@@?$ClosurePtr@P8GenericClass@detail@fastdelegate@@EAA_NPEBD@ZP6A_N0@ZP6A_N0@Z@detail@fastdelegate@@QEAAXPEAV?$FastDelegate1@PEBD_N@2@AEBVDelegateMemento@2@@Z
_TEXT	SEGMENT
this$ = 8
pParent$dead$ = 16
right$ = 24
??$CopyFrom@V?$FastDelegate1@PEBD_N@fastdelegate@@@?$ClosurePtr@P8GenericClass@detail@fastdelegate@@EAA_NPEBD@ZP6A_N0@ZP6A_N0@Z@detail@fastdelegate@@QEAAXPEAV?$FastDelegate1@PEBD_N@2@AEBVDelegateMemento@2@@Z PROC ; fastdelegate::detail::ClosurePtr<bool (__cdecl fastdelegate::detail::GenericClass::*)(char const *),bool (__cdecl*)(char const *),bool (__cdecl*)(char const *)>::CopyFrom<fastdelegate::FastDelegate1<char const *,bool> >, COMDAT

; 646  : 		m_pFunction = right.m_pFunction;

	mov	rax, QWORD PTR [r8+8]
	mov	QWORD PTR [rcx+8], rax

; 647  : 		m_pthis = right.m_pthis;

	mov	rax, QWORD PTR [r8]
	mov	QWORD PTR [rcx], rax

; 769  : 		SetMementoFrom(right);
; 770  : 	}

	ret	0
??$CopyFrom@V?$FastDelegate1@PEBD_N@fastdelegate@@@?$ClosurePtr@P8GenericClass@detail@fastdelegate@@EAA_NPEBD@ZP6A_N0@ZP6A_N0@Z@detail@fastdelegate@@QEAAXPEAV?$FastDelegate1@PEBD_N@2@AEBVDelegateMemento@2@@Z ENDP ; fastdelegate::detail::ClosurePtr<bool (__cdecl fastdelegate::detail::GenericClass::*)(char const *),bool (__cdecl*)(char const *),bool (__cdecl*)(char const *)>::CopyFrom<fastdelegate::FastDelegate1<char const *,bool> >
_TEXT	ENDS
; Function compile flags: /Ogtpy
; File C:\Program Files\Microsoft Visual Studio\2022\Community\VC\Tools\MSVC\14.35.32215\include\xstddef
;	COMDAT ??$addressof@$$CBV?$_Vector_val@U?$_Simple_types@PEAUSect@CInifile@@@std@@@std@@@std@@YAPEBV?$_Vector_val@U?$_Simple_types@PEAUSect@CInifile@@@std@@@0@AEBV10@@Z
_TEXT	SEGMENT
_Val$ = 8
??$addressof@$$CBV?$_Vector_val@U?$_Simple_types@PEAUSect@CInifile@@@std@@@std@@@std@@YAPEBV?$_Vector_val@U?$_Simple_types@PEAUSect@CInifile@@@std@@@0@AEBV10@@Z PROC ; std::addressof<std::_Vector_val<std::_Simple_types<CInifile::Sect *> > const >, COMDAT

; 281  :     return __builtin_addressof(_Val);

	mov	rax, rcx

; 282  : }

	ret	0
??$addressof@$$CBV?$_Vector_val@U?$_Simple_types@PEAUSect@CInifile@@@std@@@std@@@std@@YAPEBV?$_Vector_val@U?$_Simple_types@PEAUSect@CInifile@@@std@@@0@AEBV10@@Z ENDP ; std::addressof<std::_Vector_val<std::_Simple_types<CInifile::Sect *> > const >
_TEXT	ENDS
; Function compile flags: /Ogtpy
; File C:\Program Files\Microsoft Visual Studio\2022\Community\VC\Tools\MSVC\14.35.32215\include\xstddef
;	COMDAT ??$addressof@V?$_Vector_val@U?$_Simple_types@PEAUSect@CInifile@@@std@@@std@@@std@@YAPEAV?$_Vector_val@U?$_Simple_types@PEAUSect@CInifile@@@std@@@0@AEAV10@@Z
_TEXT	SEGMENT
_Val$ = 8
??$addressof@V?$_Vector_val@U?$_Simple_types@PEAUSect@CInifile@@@std@@@std@@@std@@YAPEAV?$_Vector_val@U?$_Simple_types@PEAUSect@CInifile@@@std@@@0@AEAV10@@Z PROC ; std::addressof<std::_Vector_val<std::_Simple_types<CInifile::Sect *> > >, COMDAT

; 281  :     return __builtin_addressof(_Val);

	mov	rax, rcx

; 282  : }

	ret	0
??$addressof@V?$_Vector_val@U?$_Simple_types@PEAUSect@CInifile@@@std@@@std@@@std@@YAPEAV?$_Vector_val@U?$_Simple_types@PEAUSect@CInifile@@@std@@@0@AEAV10@@Z ENDP ; std::addressof<std::_Vector_val<std::_Simple_types<CInifile::Sect *> > >
_TEXT	ENDS
; Function compile flags: /Ogtpy
; File C:\Program Files\Microsoft Visual Studio\2022\Community\VC\Tools\MSVC\14.35.32215\include\vector
; File C:\Program Files\Microsoft Visual Studio\2022\Community\VC\Tools\MSVC\14.35.32215\include\xutility
; File C:\Program Files\Microsoft Visual Studio\2022\Community\VC\Tools\MSVC\14.35.32215\include\vector
; File C:\Program Files\Microsoft Visual Studio\2022\Community\VC\Tools\MSVC\14.35.32215\include\xutility
; File C:\Program Files\Microsoft Visual Studio\2022\Community\VC\Tools\MSVC\14.35.32215\include\vector
; File C:\Program Files\Microsoft Visual Studio\2022\Community\VC\Tools\MSVC\14.35.32215\include\xutility
; File C:\Program Files\Microsoft Visual Studio\2022\Community\VC\Tools\MSVC\14.35.32215\include\vector
;	COMDAT ??$emplace@AEBQEAUSect@CInifile@@@?$vector@PEAUSect@CInifile@@V?$xalloc@PEAUSect@CInifile@@@@@std@@QEAA?AV?$_Vector_iterator@V?$_Vector_val@U?$_Simple_types@PEAUSect@CInifile@@@std@@@std@@@1@V?$_Vector_const_iterator@V?$_Vector_val@U?$_Simple_types@PEAUSect@CInifile@@@std@@@std@@@1@AEBQEAUSect@CInifile@@@Z
_TEXT	SEGMENT
this$ = 48
__$ReturnUdt$ = 56
_Where$ = 64
<_Val_0>$ = 72
??$emplace@AEBQEAUSect@CInifile@@@?$vector@PEAUSect@CInifile@@V?$xalloc@PEAUSect@CInifile@@@@@std@@QEAA?AV?$_Vector_iterator@V?$_Vector_val@U?$_Simple_types@PEAUSect@CInifile@@@std@@@std@@@1@V?$_Vector_const_iterator@V?$_Vector_val@U?$_Simple_types@PEAUSect@CInifile@@@std@@@std@@@1@AEBQEAUSect@CInifile@@@Z PROC ; std::vector<CInifile::Sect *,xalloc<CInifile::Sect *> >::emplace<CInifile::Sect * const &>, COMDAT

; 1032 :     _CONSTEXPR20 iterator emplace(const_iterator _Where, _Valty&&... _Val) {

$LN31:
	mov	QWORD PTR [rsp+16], rbx
	push	rdi
	sub	rsp, 32					; 00000020H
	mov	r10, rcx
	mov	rbx, r8

; 1033 :         // insert by perfectly forwarding _Val at _Where
; 1034 :         const pointer _Whereptr = _Where._Ptr;
; 1035 :         auto& _My_data          = _Mypair._Myval2;
; 1036 :         const pointer _Oldlast  = _My_data._Mylast;

	mov	rcx, QWORD PTR [rcx+8]
	mov	rdi, rdx

; 1037 : #if _ITERATOR_DEBUG_LEVEL == 2
; 1038 :         _STL_VERIFY(
; 1039 :             _Where._Getcont() == _STD addressof(_My_data) && _Whereptr >= _My_data._Myfirst && _Oldlast >= _Whereptr,
; 1040 :             "vector emplace iterator outside range");
; 1041 : #endif // _ITERATOR_DEBUG_LEVEL == 2
; 1042 : 
; 1043 :         if (_Oldlast != _My_data._Myend) {

	cmp	rcx, QWORD PTR [r10+16]
	je	SHORT $LN2@emplace

; 1044 :             if (_Whereptr == _Oldlast) { // at back, provide strong guarantee

	mov	QWORD PTR [rsp+48], rsi
	mov	rsi, QWORD PTR [r9]
	cmp	rbx, rcx
	jne	SHORT $LN3@emplace

; 863  :             _Alty_traits::construct(_Getal(), _Unfancy(_Mylast), _STD forward<_Valty>(_Val)...);

	mov	QWORD PTR [rcx], rsi

; 1063 :     }

	mov	rax, rdx

; 869  :         ++_Mylast;

	add	QWORD PTR [r10+8], 8

; 1057 :             }
; 1058 : 
; 1059 :             return _Make_iterator(_Whereptr);

	mov	rsi, QWORD PTR [rsp+48]

; 41   :     _CONSTEXPR20 _Vector_const_iterator(_Tptr _Parg, const _Container_base* _Pvector) noexcept : _Ptr(_Parg) {

	mov	QWORD PTR [rdx], rbx

; 1063 :     }

	mov	rbx, QWORD PTR [rsp+56]
	add	rsp, 32					; 00000020H
	pop	rdi
	ret	0
$LN3@emplace:

; 1052 :                 _Alty_traits::construct(_Al, _Unfancy(_Oldlast), _STD move(_Oldlast[-1]));

	mov	rax, QWORD PTR [rcx-8]
; File C:\Program Files\Microsoft Visual Studio\2022\Community\VC\Tools\MSVC\14.35.32215\include\xutility

; 4546 :     const auto _Count           = static_cast<size_t>(_Last_ch - _First_ch);

	mov	r8, rcx
; File C:\Program Files\Microsoft Visual Studio\2022\Community\VC\Tools\MSVC\14.35.32215\include\vector

; 1052 :                 _Alty_traits::construct(_Al, _Unfancy(_Oldlast), _STD move(_Oldlast[-1]));

	mov	QWORD PTR [rcx], rax
; File C:\Program Files\Microsoft Visual Studio\2022\Community\VC\Tools\MSVC\14.35.32215\include\xutility

; 4546 :     const auto _Count           = static_cast<size_t>(_Last_ch - _First_ch);

	sub	r8, rbx
; File C:\Program Files\Microsoft Visual Studio\2022\Community\VC\Tools\MSVC\14.35.32215\include\vector

; 1054 :                 ++_My_data._Mylast;

	add	QWORD PTR [r10+8], 8
; File C:\Program Files\Microsoft Visual Studio\2022\Community\VC\Tools\MSVC\14.35.32215\include\xutility

; 4546 :     const auto _Count           = static_cast<size_t>(_Last_ch - _First_ch);

	sub	r8, 8

; 4547 :     auto _Result                = _CSTD memmove(_Dest_ch - _Count, _First_ch, _Count);

	sub	rcx, r8
	mov	rdx, rbx
	call	memmove
; File C:\Program Files\Microsoft Visual Studio\2022\Community\VC\Tools\MSVC\14.35.32215\include\vector

; 1056 :                 *_Whereptr = _STD move(_Obj._Get_value());

	mov	QWORD PTR [rbx], rsi

; 1063 :     }

	mov	rax, rdi
	mov	rsi, QWORD PTR [rsp+48]

; 41   :     _CONSTEXPR20 _Vector_const_iterator(_Tptr _Parg, const _Container_base* _Pvector) noexcept : _Ptr(_Parg) {

	mov	QWORD PTR [rdi], rbx

; 1063 :     }

	mov	rbx, QWORD PTR [rsp+56]
	add	rsp, 32					; 00000020H
	pop	rdi
	ret	0
$LN2@emplace:

; 1060 :         }
; 1061 : 
; 1062 :         return _Make_iterator(_Emplace_reallocate(_Whereptr, _STD forward<_Valty>(_Val)...));

	mov	r8, r9
	mov	rdx, rbx
	mov	rcx, r10
	call	??$_Emplace_reallocate@AEBQEAUSect@CInifile@@@?$vector@PEAUSect@CInifile@@V?$xalloc@PEAUSect@CInifile@@@@@std@@AEAAPEAPEAUSect@CInifile@@QEAPEAU23@AEBQEAU23@@Z ; std::vector<CInifile::Sect *,xalloc<CInifile::Sect *> >::_Emplace_reallocate<CInifile::Sect * const &>

; 1063 :     }

	mov	rbx, QWORD PTR [rsp+56]

; 41   :     _CONSTEXPR20 _Vector_const_iterator(_Tptr _Parg, const _Container_base* _Pvector) noexcept : _Ptr(_Parg) {

	mov	QWORD PTR [rdi], rax

; 1063 :     }

	mov	rax, rdi
	add	rsp, 32					; 00000020H
	pop	rdi
	ret	0
??$emplace@AEBQEAUSect@CInifile@@@?$vector@PEAUSect@CInifile@@V?$xalloc@PEAUSect@CInifile@@@@@std@@QEAA?AV?$_Vector_iterator@V?$_Vector_val@U?$_Simple_types@PEAUSect@CInifile@@@std@@@std@@@1@V?$_Vector_const_iterator@V?$_Vector_val@U?$_Simple_types@PEAUSect@CInifile@@@std@@@std@@@1@AEBQEAUSect@CInifile@@@Z ENDP ; std::vector<CInifile::Sect *,xalloc<CInifile::Sect *> >::emplace<CInifile::Sect * const &>
_TEXT	ENDS
; Function compile flags: /Ogtpy
; File C:\Program Files\Microsoft Visual Studio\2022\Community\VC\Tools\MSVC\14.35.32215\include\xstddef
;	COMDAT ??$addressof@$$CBV?$_Vector_val@U?$_Simple_types@UItem@CInifile@@@std@@@std@@@std@@YAPEBV?$_Vector_val@U?$_Simple_types@UItem@CInifile@@@std@@@0@AEBV10@@Z
_TEXT	SEGMENT
_Val$ = 8
??$addressof@$$CBV?$_Vector_val@U?$_Simple_types@UItem@CInifile@@@std@@@std@@@std@@YAPEBV?$_Vector_val@U?$_Simple_types@UItem@CInifile@@@std@@@0@AEBV10@@Z PROC ; std::addressof<std::_Vector_val<std::_Simple_types<CInifile::Item> > const >, COMDAT

; 281  :     return __builtin_addressof(_Val);

	mov	rax, rcx

; 282  : }

	ret	0
??$addressof@$$CBV?$_Vector_val@U?$_Simple_types@UItem@CInifile@@@std@@@std@@@std@@YAPEBV?$_Vector_val@U?$_Simple_types@UItem@CInifile@@@std@@@0@AEBV10@@Z ENDP ; std::addressof<std::_Vector_val<std::_Simple_types<CInifile::Item> > const >
_TEXT	ENDS
; Function compile flags: /Ogtpy
; File C:\Program Files\Microsoft Visual Studio\2022\Community\VC\Tools\MSVC\14.35.32215\include\xstddef
;	COMDAT ??$addressof@V?$_Vector_val@U?$_Simple_types@UItem@CInifile@@@std@@@std@@@std@@YAPEAV?$_Vector_val@U?$_Simple_types@UItem@CInifile@@@std@@@0@AEAV10@@Z
_TEXT	SEGMENT
_Val$ = 8
??$addressof@V?$_Vector_val@U?$_Simple_types@UItem@CInifile@@@std@@@std@@@std@@YAPEAV?$_Vector_val@U?$_Simple_types@UItem@CInifile@@@std@@@0@AEAV10@@Z PROC ; std::addressof<std::_Vector_val<std::_Simple_types<CInifile::Item> > >, COMDAT

; 281  :     return __builtin_addressof(_Val);

	mov	rax, rcx

; 282  : }

	ret	0
??$addressof@V?$_Vector_val@U?$_Simple_types@UItem@CInifile@@@std@@@std@@@std@@YAPEAV?$_Vector_val@U?$_Simple_types@UItem@CInifile@@@std@@@0@AEAV10@@Z ENDP ; std::addressof<std::_Vector_val<std::_Simple_types<CInifile::Item> > >
_TEXT	ENDS
; Function compile flags: /Ogtpy
; File C:\Program Files\Microsoft Visual Studio\2022\Community\VC\Tools\MSVC\14.35.32215\include\xstddef
;	COMDAT ??$_Unfancy@UItem@CInifile@@@std@@YAPEAUItem@CInifile@@PEAU12@@Z
_TEXT	SEGMENT
_Ptr$ = 8
??$_Unfancy@UItem@CInifile@@@std@@YAPEAUItem@CInifile@@PEAU12@@Z PROC ; std::_Unfancy<CInifile::Item>, COMDAT

; 294  :     return _Ptr;

	mov	rax, rcx

; 295  : }

	ret	0
??$_Unfancy@UItem@CInifile@@@std@@YAPEAUItem@CInifile@@PEAU12@@Z ENDP ; std::_Unfancy<CInifile::Item>
_TEXT	ENDS
; Function compile flags: /Ogtpy
; File C:\Program Files\Microsoft Visual Studio\2022\Community\VC\Tools\MSVC\14.35.32215\include\xmemory
; File C:\Users\Mahito\Desktop\Night outing\Night-outing\src\xrCore\xrstring.h
; File C:\Program Files\Microsoft Visual Studio\2022\Community\VC\Tools\MSVC\14.35.32215\include\xmemory
;	COMDAT ??$destroy@UItem@CInifile@@@?$_Normal_allocator_traits@V?$xalloc@UItem@CInifile@@@@@std@@SAXAEAV?$xalloc@UItem@CInifile@@@@PEAUItem@CInifile@@@Z
_TEXT	SEGMENT
_Al$dead$ = 8
_Ptr$ = 16
??$destroy@UItem@CInifile@@@?$_Normal_allocator_traits@V?$xalloc@UItem@CInifile@@@@@std@@SAXAEAV?$xalloc@UItem@CInifile@@@@PEAUItem@CInifile@@@Z PROC ; std::_Normal_allocator_traits<xalloc<CInifile::Item> >::destroy<CInifile::Item>, COMDAT
; File C:\Users\Mahito\Desktop\Night outing\Night-outing\src\xrCore\xrstring.h

; 61   : 	void				_dec		()								{	if (0==p_) return;	p_->dwReference--; 	if (0==p_->dwReference)	p_=0;						}

	mov	rax, QWORD PTR [rdx+16]
	xor	ecx, ecx
	test	rax, rax
	je	SHORT $LN14@destroy
	dec	DWORD PTR [rax]
	mov	rax, QWORD PTR [rdx+16]
	cmp	DWORD PTR [rax], ecx
	jne	SHORT $LN14@destroy
	mov	QWORD PTR [rdx+16], rcx
$LN14@destroy:
	mov	rax, QWORD PTR [rdx+8]
	test	rax, rax
	je	SHORT $LN20@destroy
	dec	DWORD PTR [rax]
	mov	rax, QWORD PTR [rdx+8]
	cmp	DWORD PTR [rax], ecx
	jne	SHORT $LN20@destroy
	mov	QWORD PTR [rdx+8], rcx
$LN20@destroy:
	mov	rax, QWORD PTR [rdx]
	test	rax, rax
	je	SHORT $LN26@destroy
	dec	DWORD PTR [rax]
	mov	rax, QWORD PTR [rdx]
	cmp	DWORD PTR [rax], ecx
	jne	SHORT $LN26@destroy
	mov	QWORD PTR [rdx], rcx
$LN26@destroy:
; File C:\Program Files\Microsoft Visual Studio\2022\Community\VC\Tools\MSVC\14.35.32215\include\xmemory

; 587  :     }

	ret	0
??$destroy@UItem@CInifile@@@?$_Normal_allocator_traits@V?$xalloc@UItem@CInifile@@@@@std@@SAXAEAV?$xalloc@UItem@CInifile@@@@PEAUItem@CInifile@@@Z ENDP ; std::_Normal_allocator_traits<xalloc<CInifile::Item> >::destroy<CInifile::Item>
_TEXT	ENDS
; Function compile flags: /Ogtpy
; File C:\Program Files\Microsoft Visual Studio\2022\Community\VC\Tools\MSVC\14.35.32215\include\vector
; File C:\Users\Mahito\Desktop\Night outing\Night-outing\src\xrCore\xrstring.h
; File C:\Program Files\Microsoft Visual Studio\2022\Community\VC\Tools\MSVC\14.35.32215\include\vector
; File C:\Users\Mahito\Desktop\Night outing\Night-outing\src\xrCore\xrstring.h
; File C:\Program Files\Microsoft Visual Studio\2022\Community\VC\Tools\MSVC\14.35.32215\include\vector
; File C:\Program Files\Microsoft Visual Studio\2022\Community\VC\Tools\MSVC\14.35.32215\include\xutility
; File C:\Users\Mahito\Desktop\Night outing\Night-outing\src\xrCore\xrstring.h
; File C:\Program Files\Microsoft Visual Studio\2022\Community\VC\Tools\MSVC\14.35.32215\include\xutility
; File C:\Users\Mahito\Desktop\Night outing\Night-outing\src\xrCore\xrstring.h
; File C:\Program Files\Microsoft Visual Studio\2022\Community\VC\Tools\MSVC\14.35.32215\include\xutility
; File C:\Users\Mahito\Desktop\Night outing\Night-outing\src\xrCore\xrstring.h
; File C:\Program Files\Microsoft Visual Studio\2022\Community\VC\Tools\MSVC\14.35.32215\include\vector
;	COMDAT ??$emplace@AEBUItem@CInifile@@@?$vector@UItem@CInifile@@V?$xalloc@UItem@CInifile@@@@@std@@QEAA?AV?$_Vector_iterator@V?$_Vector_val@U?$_Simple_types@UItem@CInifile@@@std@@@std@@@1@V?$_Vector_const_iterator@V?$_Vector_val@U?$_Simple_types@UItem@CInifile@@@std@@@std@@@1@AEBUItem@CInifile@@@Z
_TEXT	SEGMENT
this$ = 80
__$ReturnUdt$ = 88
_Where$ = 96
<_Val_0>$ = 104
??$emplace@AEBUItem@CInifile@@@?$vector@UItem@CInifile@@V?$xalloc@UItem@CInifile@@@@@std@@QEAA?AV?$_Vector_iterator@V?$_Vector_val@U?$_Simple_types@UItem@CInifile@@@std@@@std@@@1@V?$_Vector_const_iterator@V?$_Vector_val@U?$_Simple_types@UItem@CInifile@@@std@@@std@@@1@AEBUItem@CInifile@@@Z PROC ; std::vector<CInifile::Item,xalloc<CInifile::Item> >::emplace<CInifile::Item const &>, COMDAT

; 1032 :     _CONSTEXPR20 iterator emplace(const_iterator _Where, _Valty&&... _Val) {

$LN190:
	push	r14
	sub	rsp, 64					; 00000040H
	mov	r14, rdx
	mov	r10, r8

; 1033 :         // insert by perfectly forwarding _Val at _Where
; 1034 :         const pointer _Whereptr = _Where._Ptr;
; 1035 :         auto& _My_data          = _Mypair._Myval2;
; 1036 :         const pointer _Oldlast  = _My_data._Mylast;

	mov	rdx, QWORD PTR [rcx+8]
	mov	r11, rcx

; 1037 : #if _ITERATOR_DEBUG_LEVEL == 2
; 1038 :         _STL_VERIFY(
; 1039 :             _Where._Getcont() == _STD addressof(_My_data) && _Whereptr >= _My_data._Myfirst && _Oldlast >= _Whereptr,
; 1040 :             "vector emplace iterator outside range");
; 1041 : #endif // _ITERATOR_DEBUG_LEVEL == 2
; 1042 : 
; 1043 :         if (_Oldlast != _My_data._Myend) {

	cmp	rdx, QWORD PTR [rcx+16]
	je	$LN2@emplace

; 1044 :             if (_Whereptr == _Oldlast) { // at back, provide strong guarantee

	cmp	r8, rdx
	jne	SHORT $LN3@emplace
; File C:\Users\Mahito\Desktop\Night outing\Night-outing\src\xrCore\xrstring.h

; 74   : 						shared_str	(shared_str const &rhs)			{	p_ = 0;	_set(rhs);								}

	xor	eax, eax
	mov	QWORD PTR [rdx], rax

; 64   : 	void				_set		(shared_str const &rhs)			{	str_value* v = rhs.p_; if (0!=v) v->dwReference++; _dec(); p_ = v;							}

	mov	rcx, QWORD PTR [r9]
	test	rcx, rcx
	je	SHORT $LN29@emplace
	inc	DWORD PTR [rcx]
$LN29@emplace:

; 61   : 	void				_dec		()								{	if (0==p_) return;	p_->dwReference--; 	if (0==p_->dwReference)	p_=0;						}

	mov	r8, QWORD PTR [rdx]
	test	r8, r8
	je	SHORT $LN33@emplace
	dec	DWORD PTR [r8]
$LN33@emplace:

; 64   : 	void				_set		(shared_str const &rhs)			{	str_value* v = rhs.p_; if (0!=v) v->dwReference++; _dec(); p_ = v;							}

	mov	QWORD PTR [rdx], rcx

; 74   : 						shared_str	(shared_str const &rhs)			{	p_ = 0;	_set(rhs);								}

	mov	QWORD PTR [rdx+8], rax

; 64   : 	void				_set		(shared_str const &rhs)			{	str_value* v = rhs.p_; if (0!=v) v->dwReference++; _dec(); p_ = v;							}

	mov	rcx, QWORD PTR [r9+8]
	test	rcx, rcx
	je	SHORT $LN38@emplace
	inc	DWORD PTR [rcx]
$LN38@emplace:

; 61   : 	void				_dec		()								{	if (0==p_) return;	p_->dwReference--; 	if (0==p_->dwReference)	p_=0;						}

	mov	r8, QWORD PTR [rdx+8]
	test	r8, r8
	je	SHORT $LN42@emplace
	dec	DWORD PTR [r8]
$LN42@emplace:

; 64   : 	void				_set		(shared_str const &rhs)			{	str_value* v = rhs.p_; if (0!=v) v->dwReference++; _dec(); p_ = v;							}

	mov	QWORD PTR [rdx+8], rcx

; 74   : 						shared_str	(shared_str const &rhs)			{	p_ = 0;	_set(rhs);								}

	mov	QWORD PTR [rdx+16], rax

; 64   : 	void				_set		(shared_str const &rhs)			{	str_value* v = rhs.p_; if (0!=v) v->dwReference++; _dec(); p_ = v;							}

	mov	rax, QWORD PTR [r9+16]
	test	rax, rax
	je	SHORT $LN47@emplace
	inc	DWORD PTR [rax]
$LN47@emplace:

; 61   : 	void				_dec		()								{	if (0==p_) return;	p_->dwReference--; 	if (0==p_->dwReference)	p_=0;						}

	mov	rcx, QWORD PTR [rdx+16]
	test	rcx, rcx
	je	SHORT $LN51@emplace
	dec	DWORD PTR [rcx]
$LN51@emplace:

; 64   : 	void				_set		(shared_str const &rhs)			{	str_value* v = rhs.p_; if (0!=v) v->dwReference++; _dec(); p_ = v;							}

	mov	QWORD PTR [rdx+16], rax
; File C:\Program Files\Microsoft Visual Studio\2022\Community\VC\Tools\MSVC\14.35.32215\include\vector

; 1063 :     }

	mov	rax, r14

; 869  :         ++_Mylast;

	add	QWORD PTR [r11+8], 24

; 41   :     _CONSTEXPR20 _Vector_const_iterator(_Tptr _Parg, const _Container_base* _Pvector) noexcept : _Ptr(_Parg) {

	mov	QWORD PTR [r14], r10

; 1063 :     }

	add	rsp, 64					; 00000040H
	pop	r14
	ret	0
$LN3@emplace:
	mov	QWORD PTR [rsp+80], rbx
; File C:\Users\Mahito\Desktop\Night outing\Night-outing\src\xrCore\xrstring.h

; 64   : 	void				_set		(shared_str const &rhs)			{	str_value* v = rhs.p_; if (0!=v) v->dwReference++; _dec(); p_ = v;							}

	mov	rbx, QWORD PTR [r9]
	mov	QWORD PTR [rsp+88], rsi
	mov	QWORD PTR [rsp+96], rdi
	test	rbx, rbx
	je	SHORT $LN68@emplace
	inc	DWORD PTR [rbx]
$LN68@emplace:
	mov	rsi, QWORD PTR [r9+8]
	test	rsi, rsi
	je	SHORT $LN77@emplace
	inc	DWORD PTR [rsi]
$LN77@emplace:
	mov	rdi, QWORD PTR [r9+16]
	test	rdi, rdi
	je	SHORT $LN86@emplace
	inc	DWORD PTR [rdi]
$LN86@emplace:
; File C:\Program Files\Microsoft Visual Studio\2022\Community\VC\Tools\MSVC\14.35.32215\include\vector

; 1052 :                 _Alty_traits::construct(_Al, _Unfancy(_Oldlast), _STD move(_Oldlast[-1]));

	lea	r8, QWORD PTR [rdx-24]
	call	??$construct@UItem@CInifile@@U12@@?$_Normal_allocator_traits@V?$xalloc@UItem@CInifile@@@@@std@@SAXAEAV?$xalloc@UItem@CInifile@@@@PEAUItem@CInifile@@$$QEAU34@@Z ; std::_Normal_allocator_traits<xalloc<CInifile::Item> >::construct<CInifile::Item,CInifile::Item>

; 1053 :                 _ASAN_VECTOR_RELEASE_GUARD;
; 1054 :                 ++_My_data._Mylast;

	add	QWORD PTR [r11+8], 24
; File C:\Program Files\Microsoft Visual Studio\2022\Community\VC\Tools\MSVC\14.35.32215\include\xutility

; 4645 :     while (_First != _Last) {

	cmp	r8, r10
	je	SHORT $LN90@emplace
; File C:\Users\Mahito\Desktop\Night outing\Night-outing\src\xrCore\xrstring.h

; 64   : 	void				_set		(shared_str const &rhs)			{	str_value* v = rhs.p_; if (0!=v) v->dwReference++; _dec(); p_ = v;							}

	lea	rax, QWORD PTR [rdx+8]
	npad	12
$LL181@emplace:
; File C:\Program Files\Microsoft Visual Studio\2022\Community\VC\Tools\MSVC\14.35.32215\include\xutility

; 4646 :         *--_Dest = _STD move(*--_Last);

	lea	rax, QWORD PTR [rax-24]
; File C:\Users\Mahito\Desktop\Night outing\Night-outing\src\xrCore\xrstring.h

; 64   : 	void				_set		(shared_str const &rhs)			{	str_value* v = rhs.p_; if (0!=v) v->dwReference++; _dec(); p_ = v;							}

	mov	rcx, QWORD PTR [rax-32]
	lea	r8, QWORD PTR [rax-32]
	test	rcx, rcx
	je	SHORT $LN97@emplace
	inc	DWORD PTR [rcx]
$LN97@emplace:

; 61   : 	void				_dec		()								{	if (0==p_) return;	p_->dwReference--; 	if (0==p_->dwReference)	p_=0;						}

	mov	rdx, QWORD PTR [rax-8]
	test	rdx, rdx
	je	SHORT $LN101@emplace
	dec	DWORD PTR [rdx]
$LN101@emplace:

; 64   : 	void				_set		(shared_str const &rhs)			{	str_value* v = rhs.p_; if (0!=v) v->dwReference++; _dec(); p_ = v;							}

	mov	QWORD PTR [rax-8], rcx
	mov	rcx, QWORD PTR [rax-24]
	test	rcx, rcx
	je	SHORT $LN106@emplace
	inc	DWORD PTR [rcx]
$LN106@emplace:

; 61   : 	void				_dec		()								{	if (0==p_) return;	p_->dwReference--; 	if (0==p_->dwReference)	p_=0;						}

	mov	rdx, QWORD PTR [rax]
	test	rdx, rdx
	je	SHORT $LN110@emplace
	dec	DWORD PTR [rdx]
$LN110@emplace:

; 64   : 	void				_set		(shared_str const &rhs)			{	str_value* v = rhs.p_; if (0!=v) v->dwReference++; _dec(); p_ = v;							}

	mov	QWORD PTR [rax], rcx
	mov	rcx, QWORD PTR [rax-16]
	test	rcx, rcx
	je	SHORT $LN115@emplace
	inc	DWORD PTR [rcx]
$LN115@emplace:

; 61   : 	void				_dec		()								{	if (0==p_) return;	p_->dwReference--; 	if (0==p_->dwReference)	p_=0;						}

	mov	rdx, QWORD PTR [rax+8]
	test	rdx, rdx
	je	SHORT $LN119@emplace
	dec	DWORD PTR [rdx]
$LN119@emplace:

; 64   : 	void				_set		(shared_str const &rhs)			{	str_value* v = rhs.p_; if (0!=v) v->dwReference++; _dec(); p_ = v;							}

	mov	QWORD PTR [rax+8], rcx
; File C:\Program Files\Microsoft Visual Studio\2022\Community\VC\Tools\MSVC\14.35.32215\include\xutility

; 4645 :     while (_First != _Last) {

	cmp	r8, r10
	jne	SHORT $LL181@emplace
$LN90@emplace:
; File C:\Users\Mahito\Desktop\Night outing\Night-outing\src\xrCore\xrstring.h

; 64   : 	void				_set		(shared_str const &rhs)			{	str_value* v = rhs.p_; if (0!=v) v->dwReference++; _dec(); p_ = v;							}

	test	rbx, rbx
	je	SHORT $LN126@emplace
	inc	DWORD PTR [rbx]
$LN126@emplace:

; 61   : 	void				_dec		()								{	if (0==p_) return;	p_->dwReference--; 	if (0==p_->dwReference)	p_=0;						}

	mov	rax, QWORD PTR [r10]
	test	rax, rax
	je	SHORT $LN130@emplace
	dec	DWORD PTR [rax]
$LN130@emplace:

; 64   : 	void				_set		(shared_str const &rhs)			{	str_value* v = rhs.p_; if (0!=v) v->dwReference++; _dec(); p_ = v;							}

	mov	QWORD PTR [r10], rbx
	test	rsi, rsi
	je	SHORT $LN135@emplace
	inc	DWORD PTR [rsi]
$LN135@emplace:

; 61   : 	void				_dec		()								{	if (0==p_) return;	p_->dwReference--; 	if (0==p_->dwReference)	p_=0;						}

	mov	rax, QWORD PTR [r10+8]
	test	rax, rax
	je	SHORT $LN139@emplace
	dec	DWORD PTR [rax]
$LN139@emplace:

; 64   : 	void				_set		(shared_str const &rhs)			{	str_value* v = rhs.p_; if (0!=v) v->dwReference++; _dec(); p_ = v;							}

	mov	QWORD PTR [r10+8], rsi
	test	rdi, rdi
	je	SHORT $LN144@emplace
	inc	DWORD PTR [rdi]
$LN144@emplace:

; 61   : 	void				_dec		()								{	if (0==p_) return;	p_->dwReference--; 	if (0==p_->dwReference)	p_=0;						}

	mov	rax, QWORD PTR [r10+16]
	test	rax, rax
	je	SHORT $LN148@emplace
	dec	DWORD PTR [rax]
$LN148@emplace:

; 64   : 	void				_set		(shared_str const &rhs)			{	str_value* v = rhs.p_; if (0!=v) v->dwReference++; _dec(); p_ = v;							}

	mov	QWORD PTR [r10+16], rdi
	test	rdi, rdi

; 61   : 	void				_dec		()								{	if (0==p_) return;	p_->dwReference--; 	if (0==p_->dwReference)	p_=0;						}

	je	SHORT $LN165@emplace
	dec	DWORD PTR [rdi]
$LN165@emplace:
	mov	rdi, QWORD PTR [rsp+96]
	test	rsi, rsi
	je	SHORT $LN171@emplace
	dec	DWORD PTR [rsi]
$LN171@emplace:
	mov	rsi, QWORD PTR [rsp+88]
	test	rbx, rbx
	je	SHORT $LN186@emplace
	dec	DWORD PTR [rbx]
$LN186@emplace:
	mov	rbx, QWORD PTR [rsp+80]
; File C:\Program Files\Microsoft Visual Studio\2022\Community\VC\Tools\MSVC\14.35.32215\include\vector

; 1063 :     }

	mov	rax, r14

; 41   :     _CONSTEXPR20 _Vector_const_iterator(_Tptr _Parg, const _Container_base* _Pvector) noexcept : _Ptr(_Parg) {

	mov	QWORD PTR [r14], r10

; 1063 :     }

	add	rsp, 64					; 00000040H
	pop	r14
	ret	0
$LN2@emplace:

; 1055 :                 _Move_backward_unchecked(_Whereptr, _Oldlast - 1, _Oldlast);
; 1056 :                 *_Whereptr = _STD move(_Obj._Get_value());
; 1057 :             }
; 1058 : 
; 1059 :             return _Make_iterator(_Whereptr);
; 1060 :         }
; 1061 : 
; 1062 :         return _Make_iterator(_Emplace_reallocate(_Whereptr, _STD forward<_Valty>(_Val)...));

	mov	r8, r9
	mov	rdx, r10
	call	??$_Emplace_reallocate@AEBUItem@CInifile@@@?$vector@UItem@CInifile@@V?$xalloc@UItem@CInifile@@@@@std@@AEAAPEAUItem@CInifile@@QEAU23@AEBU23@@Z ; std::vector<CInifile::Item,xalloc<CInifile::Item> >::_Emplace_reallocate<CInifile::Item const &>

; 41   :     _CONSTEXPR20 _Vector_const_iterator(_Tptr _Parg, const _Container_base* _Pvector) noexcept : _Ptr(_Parg) {

	mov	QWORD PTR [r14], rax

; 1063 :     }

	mov	rax, r14
	add	rsp, 64					; 00000040H
	pop	r14
	ret	0
??$emplace@AEBUItem@CInifile@@@?$vector@UItem@CInifile@@V?$xalloc@UItem@CInifile@@@@@std@@QEAA?AV?$_Vector_iterator@V?$_Vector_val@U?$_Simple_types@UItem@CInifile@@@std@@@std@@@1@V?$_Vector_const_iterator@V?$_Vector_val@U?$_Simple_types@UItem@CInifile@@@std@@@std@@@1@AEBUItem@CInifile@@@Z ENDP ; std::vector<CInifile::Item,xalloc<CInifile::Item> >::emplace<CInifile::Item const &>
_TEXT	ENDS
; Function compile flags: /Ogtpy
; File C:\Program Files\Microsoft Visual Studio\2022\Community\VC\Tools\MSVC\14.35.32215\include\xmemory
;	COMDAT ??$_Destroy_range@V?$xalloc@PEAUSect@CInifile@@@@@std@@YAXPEAPEAUSect@CInifile@@QEAPEAU12@AEAV?$xalloc@PEAUSect@CInifile@@@@@Z
_TEXT	SEGMENT
_First$dead$ = 8
_Last$dead$ = 16
_Al$dead$ = 24
??$_Destroy_range@V?$xalloc@PEAUSect@CInifile@@@@@std@@YAXPEAPEAUSect@CInifile@@QEAPEAU12@AEAV?$xalloc@PEAUSect@CInifile@@@@@Z PROC ; std::_Destroy_range<xalloc<CInifile::Sect *> >, COMDAT

; 943  :     // note that this is an optimization for debug mode codegen; in release mode the BE removes all of this
; 944  :     using _Ty = typename _Alloc::value_type;
; 945  :     if constexpr (!conjunction_v<is_trivially_destructible<_Ty>, _Uses_default_destroy<_Alloc, _Ty*>>) {
; 946  :         for (; _First != _Last; ++_First) {
; 947  :             allocator_traits<_Alloc>::destroy(_Al, _Unfancy(_First));
; 948  :         }
; 949  :     }
; 950  : }

	ret	0
??$_Destroy_range@V?$xalloc@PEAUSect@CInifile@@@@@std@@YAXPEAPEAUSect@CInifile@@QEAPEAU12@AEAV?$xalloc@PEAUSect@CInifile@@@@@Z ENDP ; std::_Destroy_range<xalloc<CInifile::Sect *> >
_TEXT	ENDS
; Function compile flags: /Ogtpy
; File C:\Program Files\Microsoft Visual Studio\2022\Community\VC\Tools\MSVC\14.35.32215\include\xmemory
;	COMDAT ??$_Uninitialized_move@PEAPEAUSect@CInifile@@V?$xalloc@PEAUSect@CInifile@@@@@std@@YAPEAPEAUSect@CInifile@@QEAPEAU12@0PEAPEAU12@AEAV?$xalloc@PEAUSect@CInifile@@@@@Z
_TEXT	SEGMENT
_First$ = 8
_Last$ = 16
_Dest$ = 24
_Al$dead$ = 32
??$_Uninitialized_move@PEAPEAUSect@CInifile@@V?$xalloc@PEAUSect@CInifile@@@@@std@@YAPEAPEAUSect@CInifile@@QEAPEAU12@0PEAPEAU12@AEAV?$xalloc@PEAUSect@CInifile@@@@@Z PROC ; std::_Uninitialized_move<CInifile::Sect * *,xalloc<CInifile::Sect *> >, COMDAT

; 1785 :     const _InIt _First, const _InIt _Last, _Alloc_ptr_t<_Alloc> _Dest, _Alloc& _Al) {

	mov	rax, r8

; 1786 :     // move [_First, _Last) to raw _Dest, using _Al
; 1787 :     // note: only called internally from elsewhere in the STL
; 1788 :     using _Ptrval     = typename _Alloc::value_type*;
; 1789 :     auto _UFirst      = _Get_unwrapped(_First);
; 1790 :     const auto _ULast = _Get_unwrapped(_Last);
; 1791 :     if constexpr (conjunction_v<bool_constant<_Iter_move_cat<decltype(_UFirst), _Ptrval>::_Bitcopy_constructible>,
; 1792 :                       _Uses_default_construct<_Alloc, _Ptrval, decltype(_STD move(*_UFirst))>>) {
; 1793 : #if _HAS_CXX20
; 1794 :         if (!_STD is_constant_evaluated())
; 1795 : #endif // _HAS_CXX20
; 1796 :         {
; 1797 :             _Copy_memmove(_UFirst, _ULast, _Unfancy(_Dest));
; 1798 :             return _Dest + (_ULast - _UFirst);
; 1799 :         }
; 1800 :     }
; 1801 : 
; 1802 :     _Uninitialized_backout_al<_Alloc> _Backout{_Dest, _Al};
; 1803 :     for (; _UFirst != _ULast; ++_UFirst) {

	cmp	rcx, rdx
	je	SHORT $LN16@Uninitiali
	npad	8
$LL4@Uninitiali:

; 1660 :         allocator_traits<_Alloc>::construct(_Al, _Unfancy(_Last), _STD forward<_Types>(_Vals)...);

	mov	r8, QWORD PTR [rcx]

; 1661 :         ++_Last;

	add	rcx, 8
	mov	QWORD PTR [rax], r8
	add	rax, 8

; 1786 :     // move [_First, _Last) to raw _Dest, using _Al
; 1787 :     // note: only called internally from elsewhere in the STL
; 1788 :     using _Ptrval     = typename _Alloc::value_type*;
; 1789 :     auto _UFirst      = _Get_unwrapped(_First);
; 1790 :     const auto _ULast = _Get_unwrapped(_Last);
; 1791 :     if constexpr (conjunction_v<bool_constant<_Iter_move_cat<decltype(_UFirst), _Ptrval>::_Bitcopy_constructible>,
; 1792 :                       _Uses_default_construct<_Alloc, _Ptrval, decltype(_STD move(*_UFirst))>>) {
; 1793 : #if _HAS_CXX20
; 1794 :         if (!_STD is_constant_evaluated())
; 1795 : #endif // _HAS_CXX20
; 1796 :         {
; 1797 :             _Copy_memmove(_UFirst, _ULast, _Unfancy(_Dest));
; 1798 :             return _Dest + (_ULast - _UFirst);
; 1799 :         }
; 1800 :     }
; 1801 : 
; 1802 :     _Uninitialized_backout_al<_Alloc> _Backout{_Dest, _Al};
; 1803 :     for (; _UFirst != _ULast; ++_UFirst) {

	cmp	rcx, rdx
	jne	SHORT $LL4@Uninitiali
$LN16@Uninitiali:

; 1804 :         _Backout._Emplace_back(_STD move(*_UFirst));
; 1805 :     }
; 1806 : 
; 1807 :     return _Backout._Release();
; 1808 : }

	ret	0
??$_Uninitialized_move@PEAPEAUSect@CInifile@@V?$xalloc@PEAUSect@CInifile@@@@@std@@YAPEAPEAUSect@CInifile@@QEAPEAU12@0PEAPEAU12@AEAV?$xalloc@PEAUSect@CInifile@@@@@Z ENDP ; std::_Uninitialized_move<CInifile::Sect * *,xalloc<CInifile::Sect *> >
_TEXT	ENDS
; Function compile flags: /Ogtpy
; File C:\Program Files\Microsoft Visual Studio\2022\Community\VC\Tools\MSVC\14.35.32215\include\xutility
;	COMDAT ??$_Get_unwrapped@AEBQEAPEAUSect@CInifile@@@std@@YA?A_TAEBQEAPEAUSect@CInifile@@@Z
_TEXT	SEGMENT
_It$ = 8
??$_Get_unwrapped@AEBQEAPEAUSect@CInifile@@@std@@YA?A_TAEBQEAPEAUSect@CInifile@@@Z PROC ; std::_Get_unwrapped<CInifile::Sect * * const &>, COMDAT

; 957  :     // unwrap an iterator previously subjected to _Adl_verify_range or otherwise validated
; 958  :     if constexpr (is_pointer_v<decay_t<_Iter>>) { // special-case pointers and arrays
; 959  :         return _It + 0;

	mov	rax, QWORD PTR [rcx]

; 960  :     } else if constexpr (_Unwrappable_v<_Iter>) {
; 961  :         return static_cast<_Iter&&>(_It)._Unwrapped();
; 962  :     } else {
; 963  :         return static_cast<_Iter&&>(_It);
; 964  :     }
; 965  : }

	ret	0
??$_Get_unwrapped@AEBQEAPEAUSect@CInifile@@@std@@YA?A_TAEBQEAPEAUSect@CInifile@@@Z ENDP ; std::_Get_unwrapped<CInifile::Sect * * const &>
_TEXT	ENDS
; Function compile flags: /Ogtpy
; File C:\Program Files\Microsoft Visual Studio\2022\Community\VC\Tools\MSVC\14.35.32215\include\xmemory
; File C:\Program Files\Microsoft Visual Studio\2022\Community\VC\Tools\MSVC\14.35.32215\include\vector
; File C:\Program Files\Microsoft Visual Studio\2022\Community\VC\Tools\MSVC\14.35.32215\include\xmemory
;	COMDAT ??$?0$$V@?$_Compressed_pair@V?$xalloc@PEAUSect@CInifile@@@@V?$_Vector_val@U?$_Simple_types@PEAUSect@CInifile@@@std@@@std@@$00@std@@QEAA@U_Zero_then_variadic_args_t@1@@Z
_TEXT	SEGMENT
this$ = 8
__formal$dead$ = 16
??$?0$$V@?$_Compressed_pair@V?$xalloc@PEAUSect@CInifile@@@@V?$_Vector_val@U?$_Simple_types@PEAUSect@CInifile@@@std@@@std@@$00@std@@QEAA@U_Zero_then_variadic_args_t@1@@Z PROC ; std::_Compressed_pair<xalloc<CInifile::Sect *>,std::_Vector_val<std::_Simple_types<CInifile::Sect *> >,1>::_Compressed_pair<xalloc<CInifile::Sect *>,std::_Vector_val<std::_Simple_types<CInifile::Sect *> >,1><>, COMDAT
; File C:\Program Files\Microsoft Visual Studio\2022\Community\VC\Tools\MSVC\14.35.32215\include\vector

; 390  :     _CONSTEXPR20 _Vector_val() noexcept : _Myfirst(), _Mylast(), _Myend() {}

	xor	eax, eax
	mov	QWORD PTR [rcx], rax
	mov	QWORD PTR [rcx+8], rax
	mov	QWORD PTR [rcx+16], rax
; File C:\Program Files\Microsoft Visual Studio\2022\Community\VC\Tools\MSVC\14.35.32215\include\xmemory

; 1375 :         : _Ty1(), _Myval2(_STD forward<_Other2>(_Val2)...) {}

	mov	rax, rcx
	ret	0
??$?0$$V@?$_Compressed_pair@V?$xalloc@PEAUSect@CInifile@@@@V?$_Vector_val@U?$_Simple_types@PEAUSect@CInifile@@@std@@@std@@$00@std@@QEAA@U_Zero_then_variadic_args_t@1@@Z ENDP ; std::_Compressed_pair<xalloc<CInifile::Sect *>,std::_Vector_val<std::_Simple_types<CInifile::Sect *> >,1>::_Compressed_pair<xalloc<CInifile::Sect *>,std::_Vector_val<std::_Simple_types<CInifile::Sect *> >,1><>
_TEXT	ENDS
; Function compile flags: /Ogtpy
; File C:\Program Files\Microsoft Visual Studio\2022\Community\VC\Tools\MSVC\14.35.32215\include\xmemory
; File C:\Users\Mahito\Desktop\Night outing\Night-outing\src\xrCore\xrstring.h
; File C:\Program Files\Microsoft Visual Studio\2022\Community\VC\Tools\MSVC\14.35.32215\include\xmemory
;	COMDAT ??$_Uninitialized_copy@PEAUItem@CInifile@@PEAU12@V?$xalloc@UItem@CInifile@@@@@std@@YAPEAUItem@CInifile@@PEAU12@00AEAV?$xalloc@UItem@CInifile@@@@@Z
_TEXT	SEGMENT
_First$ = 8
_Last$ = 16
_Dest$ = 24
_Al$dead$ = 32
??$_Uninitialized_copy@PEAUItem@CInifile@@PEAU12@V?$xalloc@UItem@CInifile@@@@@std@@YAPEAUItem@CInifile@@PEAU12@00AEAV?$xalloc@UItem@CInifile@@@@@Z PROC ; std::_Uninitialized_copy<CInifile::Item *,CInifile::Item *,xalloc<CInifile::Item> >, COMDAT

; 1677 :     _InIt _First, _Se _Last, _Alloc_ptr_t<_Alloc> _Dest, _Alloc& _Al) {

	mov	r9, rcx

; 1678 :     // copy [_First, _Last) to raw _Dest, using _Al
; 1679 :     // note: only called internally from elsewhere in the STL
; 1680 :     using _Ptrval = typename _Alloc::value_type*;
; 1681 : 
; 1682 : #ifdef __cpp_lib_concepts
; 1683 :     auto _UFirst = _RANGES _Unwrap_iter<_Se>(_STD move(_First));
; 1684 :     auto _ULast  = _RANGES _Unwrap_sent<_InIt>(_STD move(_Last));
; 1685 : #else // ^^^ __cpp_lib_concepts / !__cpp_lib_concepts vvv
; 1686 :     // In pre-concepts world, _Uninitialized_copy should only ever be called with an iterator
; 1687 :     // and sentinel of the same type, so `_Get_unwrapped` is fine to call.
; 1688 :     auto _UFirst = _Get_unwrapped(_STD move(_First));
; 1689 :     auto _ULast = _Get_unwrapped(_STD move(_Last));
; 1690 : #endif // ^^^ !__cpp_lib_concepts ^^^
; 1691 : 
; 1692 :     constexpr bool _Can_memmove = _Sent_copy_cat<decltype(_UFirst), decltype(_ULast), _Ptrval>::_Bitcopy_constructible
; 1693 :                                && _Uses_default_construct<_Alloc, _Ptrval, decltype(*_UFirst)>::value;
; 1694 : 
; 1695 :     if constexpr (_Can_memmove) {
; 1696 : #if _HAS_CXX20
; 1697 :         if (!_STD is_constant_evaluated())
; 1698 : #endif // _HAS_CXX20
; 1699 :         {
; 1700 :             if constexpr (is_same_v<decltype(_UFirst), decltype(_ULast)>) {
; 1701 :                 _Copy_memmove(_To_address(_UFirst), _To_address(_ULast), _Unfancy(_Dest));
; 1702 :                 _Dest += _ULast - _UFirst;
; 1703 :             } else {
; 1704 :                 const auto _Count = static_cast<size_t>(_ULast - _UFirst);
; 1705 :                 _Copy_memmove_n(_To_address(_UFirst), _Count, _Unfancy(_Dest));
; 1706 :                 _Dest += _Count;
; 1707 :             }
; 1708 :             return _Dest;
; 1709 :         }
; 1710 :     }
; 1711 : 
; 1712 :     _Uninitialized_backout_al<_Alloc> _Backout{_Dest, _Al};
; 1713 :     for (; _UFirst != _ULast; ++_UFirst) {

	cmp	rcx, rdx
	je	SHORT $LN87@Uninitiali

; 1649 :     _CONSTEXPR20 _Uninitialized_backout_al(pointer _Dest, _Alloc& _Al_) : _First(_Dest), _Last(_Dest), _Al(_Al_) {}

	sub	r9, r8
	xor	r10d, r10d
	npad	2
$LL4@Uninitiali:
; File C:\Users\Mahito\Desktop\Night outing\Night-outing\src\xrCore\xrstring.h

; 74   : 						shared_str	(shared_str const &rhs)			{	p_ = 0;	_set(rhs);								}

	mov	QWORD PTR [r8], r10

; 64   : 	void				_set		(shared_str const &rhs)			{	str_value* v = rhs.p_; if (0!=v) v->dwReference++; _dec(); p_ = v;							}

	mov	rax, QWORD PTR [r9+r8]
	test	rax, rax
	je	SHORT $LN17@Uninitiali
	inc	DWORD PTR [rax]
$LN17@Uninitiali:

; 61   : 	void				_dec		()								{	if (0==p_) return;	p_->dwReference--; 	if (0==p_->dwReference)	p_=0;						}

	mov	rcx, QWORD PTR [r8]
	test	rcx, rcx
	je	SHORT $LN21@Uninitiali
	dec	DWORD PTR [rcx]
$LN21@Uninitiali:

; 64   : 	void				_set		(shared_str const &rhs)			{	str_value* v = rhs.p_; if (0!=v) v->dwReference++; _dec(); p_ = v;							}

	mov	QWORD PTR [r8], rax

; 74   : 						shared_str	(shared_str const &rhs)			{	p_ = 0;	_set(rhs);								}

	mov	QWORD PTR [r8+8], r10

; 64   : 	void				_set		(shared_str const &rhs)			{	str_value* v = rhs.p_; if (0!=v) v->dwReference++; _dec(); p_ = v;							}

	mov	rcx, QWORD PTR [r9+r8+8]
	test	rcx, rcx
	je	SHORT $LN26@Uninitiali
	inc	DWORD PTR [rcx]
$LN26@Uninitiali:

; 61   : 	void				_dec		()								{	if (0==p_) return;	p_->dwReference--; 	if (0==p_->dwReference)	p_=0;						}

	mov	rax, QWORD PTR [r8+8]
	test	rax, rax
	je	SHORT $LN30@Uninitiali
	dec	DWORD PTR [rax]
$LN30@Uninitiali:

; 64   : 	void				_set		(shared_str const &rhs)			{	str_value* v = rhs.p_; if (0!=v) v->dwReference++; _dec(); p_ = v;							}

	mov	QWORD PTR [r8+8], rcx

; 74   : 						shared_str	(shared_str const &rhs)			{	p_ = 0;	_set(rhs);								}

	mov	QWORD PTR [r8+16], r10

; 64   : 	void				_set		(shared_str const &rhs)			{	str_value* v = rhs.p_; if (0!=v) v->dwReference++; _dec(); p_ = v;							}

	mov	rax, QWORD PTR [r9+r8+16]
	test	rax, rax
	je	SHORT $LN35@Uninitiali
	inc	DWORD PTR [rax]
$LN35@Uninitiali:

; 61   : 	void				_dec		()								{	if (0==p_) return;	p_->dwReference--; 	if (0==p_->dwReference)	p_=0;						}

	mov	rcx, QWORD PTR [r8+16]
	test	rcx, rcx
	je	SHORT $LN39@Uninitiali
	dec	DWORD PTR [rcx]
$LN39@Uninitiali:

; 64   : 	void				_set		(shared_str const &rhs)			{	str_value* v = rhs.p_; if (0!=v) v->dwReference++; _dec(); p_ = v;							}

	mov	QWORD PTR [r8+16], rax
; File C:\Program Files\Microsoft Visual Studio\2022\Community\VC\Tools\MSVC\14.35.32215\include\xmemory

; 1661 :         ++_Last;

	add	r8, 24

; 1678 :     // copy [_First, _Last) to raw _Dest, using _Al
; 1679 :     // note: only called internally from elsewhere in the STL
; 1680 :     using _Ptrval = typename _Alloc::value_type*;
; 1681 : 
; 1682 : #ifdef __cpp_lib_concepts
; 1683 :     auto _UFirst = _RANGES _Unwrap_iter<_Se>(_STD move(_First));
; 1684 :     auto _ULast  = _RANGES _Unwrap_sent<_InIt>(_STD move(_Last));
; 1685 : #else // ^^^ __cpp_lib_concepts / !__cpp_lib_concepts vvv
; 1686 :     // In pre-concepts world, _Uninitialized_copy should only ever be called with an iterator
; 1687 :     // and sentinel of the same type, so `_Get_unwrapped` is fine to call.
; 1688 :     auto _UFirst = _Get_unwrapped(_STD move(_First));
; 1689 :     auto _ULast = _Get_unwrapped(_STD move(_Last));
; 1690 : #endif // ^^^ !__cpp_lib_concepts ^^^
; 1691 : 
; 1692 :     constexpr bool _Can_memmove = _Sent_copy_cat<decltype(_UFirst), decltype(_ULast), _Ptrval>::_Bitcopy_constructible
; 1693 :                                && _Uses_default_construct<_Alloc, _Ptrval, decltype(*_UFirst)>::value;
; 1694 : 
; 1695 :     if constexpr (_Can_memmove) {
; 1696 : #if _HAS_CXX20
; 1697 :         if (!_STD is_constant_evaluated())
; 1698 : #endif // _HAS_CXX20
; 1699 :         {
; 1700 :             if constexpr (is_same_v<decltype(_UFirst), decltype(_ULast)>) {
; 1701 :                 _Copy_memmove(_To_address(_UFirst), _To_address(_ULast), _Unfancy(_Dest));
; 1702 :                 _Dest += _ULast - _UFirst;
; 1703 :             } else {
; 1704 :                 const auto _Count = static_cast<size_t>(_ULast - _UFirst);
; 1705 :                 _Copy_memmove_n(_To_address(_UFirst), _Count, _Unfancy(_Dest));
; 1706 :                 _Dest += _Count;
; 1707 :             }
; 1708 :             return _Dest;
; 1709 :         }
; 1710 :     }
; 1711 : 
; 1712 :     _Uninitialized_backout_al<_Alloc> _Backout{_Dest, _Al};
; 1713 :     for (; _UFirst != _ULast; ++_UFirst) {

	lea	rax, QWORD PTR [r9+r8]
	cmp	rax, rdx
	jne	SHORT $LL4@Uninitiali
$LN87@Uninitiali:

; 1714 :         _Backout._Emplace_back(*_UFirst);
; 1715 :     }
; 1716 : 
; 1717 :     return _Backout._Release();
; 1718 : }

	mov	rax, r8
	ret	0
??$_Uninitialized_copy@PEAUItem@CInifile@@PEAU12@V?$xalloc@UItem@CInifile@@@@@std@@YAPEAUItem@CInifile@@PEAU12@00AEAV?$xalloc@UItem@CInifile@@@@@Z ENDP ; std::_Uninitialized_copy<CInifile::Item *,CInifile::Item *,xalloc<CInifile::Item> >
_TEXT	ENDS
; Function compile flags: /Ogtpy
; File C:\Program Files\Microsoft Visual Studio\2022\Community\VC\Tools\MSVC\14.35.32215\include\xutility
;	COMDAT ??$_Get_unwrapped@PEAUItem@CInifile@@@std@@YA?A_T$$QEAPEAUItem@CInifile@@@Z
_TEXT	SEGMENT
_It$ = 8
??$_Get_unwrapped@PEAUItem@CInifile@@@std@@YA?A_T$$QEAPEAUItem@CInifile@@@Z PROC ; std::_Get_unwrapped<CInifile::Item *>, COMDAT

; 957  :     // unwrap an iterator previously subjected to _Adl_verify_range or otherwise validated
; 958  :     if constexpr (is_pointer_v<decay_t<_Iter>>) { // special-case pointers and arrays
; 959  :         return _It + 0;

	mov	rax, QWORD PTR [rcx]

; 960  :     } else if constexpr (_Unwrappable_v<_Iter>) {
; 961  :         return static_cast<_Iter&&>(_It)._Unwrapped();
; 962  :     } else {
; 963  :         return static_cast<_Iter&&>(_It);
; 964  :     }
; 965  : }

	ret	0
??$_Get_unwrapped@PEAUItem@CInifile@@@std@@YA?A_T$$QEAPEAUItem@CInifile@@@Z ENDP ; std::_Get_unwrapped<CInifile::Item *>
_TEXT	ENDS
; Function compile flags: /Ogtpy
; File C:\Users\Mahito\Desktop\Night outing\Night-outing\src\xrCore\xrMemory.h
; File C:\Users\Mahito\Desktop\Night outing\Night-outing\src\xrCore\xrMemory_subst_msvc.cpp
; File C:\Users\Mahito\Desktop\Night outing\Night-outing\src\xrCore\xrMemory.h
;	COMDAT ??$xr_free@PEAUSect@CInifile@@@@YAXAEAPEAPEAUSect@CInifile@@@Z
_TEXT	SEGMENT
P$ = 48
??$xr_free@PEAUSect@CInifile@@@@YAXAEAPEAPEAUSect@CInifile@@@Z PROC ; xr_free<CInifile::Sect *>, COMDAT

; 68   : {

$LN24:
	push	rbx
	sub	rsp, 32					; 00000020H
	mov	rbx, rcx

; 69   : 	if (P)

	mov	rcx, QWORD PTR [rcx]
	test	rcx, rcx
	je	SHORT $LN2@xr_free
; File C:\Users\Mahito\Desktop\Night outing\Night-outing\src\xrCore\xrMemory_subst_msvc.cpp

; 99   : 	stat_calls++;

	inc	DWORD PTR ?Memory@@3VxrMemory@@A

; 100  : 
; 101  : #ifdef PURE_ALLOC
; 102  : 	if (g_use_pure_alloc)
; 103  : 	{
; 104  : 		//free(P);
; 105  : 		_aligned_free(P);

	call	QWORD PTR __imp__aligned_free
; File C:\Users\Mahito\Desktop\Night outing\Night-outing\src\xrCore\xrMemory.h

; 72   : 		P = NULL;

	mov	QWORD PTR [rbx], 0
$LN2@xr_free:

; 73   : 	};
; 74   : }

	add	rsp, 32					; 00000020H
	pop	rbx
	ret	0
??$xr_free@PEAUSect@CInifile@@@@YAXAEAPEAPEAUSect@CInifile@@@Z ENDP ; xr_free<CInifile::Sect *>
_TEXT	ENDS
; Function compile flags: /Ogtpy
; File C:\Users\Mahito\Desktop\Night outing\Night-outing\src\xrCore\xrMemory.h
; File C:\Users\Mahito\Desktop\Night outing\Night-outing\src\xrCore\xrMemory_subst_msvc.cpp
; File C:\Users\Mahito\Desktop\Night outing\Night-outing\src\xrCore\xrMemory.h
; File C:\Users\Mahito\Desktop\Night outing\Night-outing\src\xrCore\xrMemory_subst_msvc.cpp
; File C:\Users\Mahito\Desktop\Night outing\Night-outing\src\xrCore\xrMemory.h
;	COMDAT ??$xr_alloc@PEAUSect@CInifile@@@@YAPEAPEAUSect@CInifile@@I@Z
_TEXT	SEGMENT
count$ = 48
??$xr_alloc@PEAUSect@CInifile@@@@YAPEAPEAUSect@CInifile@@I@Z PROC ; xr_alloc<CInifile::Sect *>, COMDAT

; 64   : IC T* xr_alloc(u32 count) { return (T*)Memory.mem_alloc(count * sizeof(T)); }

$LN34:
	mov	QWORD PTR [rsp+8], rbx
	push	rdi
	sub	rsp, 32					; 00000020H
; File C:\Users\Mahito\Desktop\Night outing\Night-outing\src\xrCore\xrMemory_subst_msvc.cpp

; 39   : 	stat_calls++;

	inc	DWORD PTR ?Memory@@3VxrMemory@@A

; 45   : 		void* result = _aligned_malloc(size, PURE_MEMORY_ALIGNMENT);

	mov	edx, 16
; File C:\Users\Mahito\Desktop\Night outing\Night-outing\src\xrCore\xrMemory.h

; 64   : IC T* xr_alloc(u32 count) { return (T*)Memory.mem_alloc(count * sizeof(T)); }

	mov	edi, ecx
	shl	rdi, 3
; File C:\Users\Mahito\Desktop\Night outing\Night-outing\src\xrCore\xrMemory_subst_msvc.cpp

; 45   : 		void* result = _aligned_malloc(size, PURE_MEMORY_ALIGNMENT);

	mov	rcx, rdi
	call	QWORD PTR __imp__aligned_malloc
	mov	rbx, rax

; 46   : #ifdef PURE_MEMORY_FILL_ZERO
; 47   : 		if (result)

	test	rax, rax
	je	SHORT $LN5@xr_alloc

; 48   : 			memset(result, 0, size);

	mov	r8, rdi
	xor	edx, edx
	mov	rcx, rax
	call	memset
; File C:\Users\Mahito\Desktop\Night outing\Night-outing\src\xrCore\xrMemory.h

; 64   : IC T* xr_alloc(u32 count) { return (T*)Memory.mem_alloc(count * sizeof(T)); }

	mov	rax, rbx
$LN5@xr_alloc:
	mov	rbx, QWORD PTR [rsp+48]
	add	rsp, 32					; 00000020H
	pop	rdi
	ret	0
??$xr_alloc@PEAUSect@CInifile@@@@YAPEAPEAUSect@CInifile@@I@Z ENDP ; xr_alloc<CInifile::Sect *>
_TEXT	ENDS
; Function compile flags: /Ogtpy
; File C:\Program Files\Microsoft Visual Studio\2022\Community\VC\Tools\MSVC\14.35.32215\include\xmemory
; File C:\Users\Mahito\Desktop\Night outing\Night-outing\src\xrCore\xrstring.h
; File C:\Program Files\Microsoft Visual Studio\2022\Community\VC\Tools\MSVC\14.35.32215\include\xmemory
;	COMDAT ??$_Destroy_range@V?$xalloc@UItem@CInifile@@@@@std@@YAXPEAUItem@CInifile@@QEAU12@AEAV?$xalloc@UItem@CInifile@@@@@Z
_TEXT	SEGMENT
_First$ = 8
_Last$ = 16
_Al$dead$ = 24
??$_Destroy_range@V?$xalloc@UItem@CInifile@@@@@std@@YAXPEAUItem@CInifile@@QEAU12@AEAV?$xalloc@UItem@CInifile@@@@@Z PROC ; std::_Destroy_range<xalloc<CInifile::Item> >, COMDAT

; 946  :         for (; _First != _Last; ++_First) {

	cmp	rcx, rdx
	je	SHORT $LN3@Destroy_ra
	lea	rax, QWORD PTR [rcx+8]
	xor	r8d, r8d
	npad	4
$LL4@Destroy_ra:
; File C:\Users\Mahito\Desktop\Night outing\Night-outing\src\xrCore\xrstring.h

; 61   : 	void				_dec		()								{	if (0==p_) return;	p_->dwReference--; 	if (0==p_->dwReference)	p_=0;						}

	mov	rcx, QWORD PTR [rax+8]
	test	rcx, rcx
	je	SHORT $LN19@Destroy_ra
	dec	DWORD PTR [rcx]
	mov	rcx, QWORD PTR [rax+8]
	cmp	DWORD PTR [rcx], r8d
	jne	SHORT $LN19@Destroy_ra
	mov	QWORD PTR [rax+8], r8
$LN19@Destroy_ra:
	mov	rcx, QWORD PTR [rax]
	test	rcx, rcx
	je	SHORT $LN25@Destroy_ra
	dec	DWORD PTR [rcx]
	mov	rcx, QWORD PTR [rax]
	cmp	DWORD PTR [rcx], r8d
	jne	SHORT $LN25@Destroy_ra
	mov	QWORD PTR [rax], r8
$LN25@Destroy_ra:
	mov	rcx, QWORD PTR [rax-8]
	test	rcx, rcx
	je	SHORT $LN31@Destroy_ra
	dec	DWORD PTR [rcx]
	mov	rcx, QWORD PTR [rax-8]
	cmp	DWORD PTR [rcx], r8d
	jne	SHORT $LN31@Destroy_ra
	mov	QWORD PTR [rax-8], r8
$LN31@Destroy_ra:
; File C:\Program Files\Microsoft Visual Studio\2022\Community\VC\Tools\MSVC\14.35.32215\include\xmemory

; 946  :         for (; _First != _Last; ++_First) {

	add	rax, 24
	lea	rcx, QWORD PTR [rax-8]
	cmp	rcx, rdx
	jne	SHORT $LL4@Destroy_ra
$LN3@Destroy_ra:

; 947  :             allocator_traits<_Alloc>::destroy(_Al, _Unfancy(_First));
; 948  :         }
; 949  :     }
; 950  : }

	ret	0
??$_Destroy_range@V?$xalloc@UItem@CInifile@@@@@std@@YAXPEAUItem@CInifile@@QEAU12@AEAV?$xalloc@UItem@CInifile@@@@@Z ENDP ; std::_Destroy_range<xalloc<CInifile::Item> >
_TEXT	ENDS
; Function compile flags: /Ogtpy
; File C:\Users\Mahito\Desktop\Night outing\Night-outing\src\xrCore\xrMemory.h
; File C:\Users\Mahito\Desktop\Night outing\Night-outing\src\xrCore\xrMemory_subst_msvc.cpp
; File C:\Users\Mahito\Desktop\Night outing\Night-outing\src\xrCore\xrMemory.h
;	COMDAT ??$xr_free@UItem@CInifile@@@@YAXAEAPEAUItem@CInifile@@@Z
_TEXT	SEGMENT
P$ = 48
??$xr_free@UItem@CInifile@@@@YAXAEAPEAUItem@CInifile@@@Z PROC ; xr_free<CInifile::Item>, COMDAT

; 68   : {

$LN24:
	push	rbx
	sub	rsp, 32					; 00000020H
	mov	rbx, rcx

; 69   : 	if (P)

	mov	rcx, QWORD PTR [rcx]
	test	rcx, rcx
	je	SHORT $LN2@xr_free
; File C:\Users\Mahito\Desktop\Night outing\Night-outing\src\xrCore\xrMemory_subst_msvc.cpp

; 99   : 	stat_calls++;

	inc	DWORD PTR ?Memory@@3VxrMemory@@A

; 100  : 
; 101  : #ifdef PURE_ALLOC
; 102  : 	if (g_use_pure_alloc)
; 103  : 	{
; 104  : 		//free(P);
; 105  : 		_aligned_free(P);

	call	QWORD PTR __imp__aligned_free
; File C:\Users\Mahito\Desktop\Night outing\Night-outing\src\xrCore\xrMemory.h

; 72   : 		P = NULL;

	mov	QWORD PTR [rbx], 0
$LN2@xr_free:

; 73   : 	};
; 74   : }

	add	rsp, 32					; 00000020H
	pop	rbx
	ret	0
??$xr_free@UItem@CInifile@@@@YAXAEAPEAUItem@CInifile@@@Z ENDP ; xr_free<CInifile::Item>
_TEXT	ENDS
; Function compile flags: /Ogtpy
; File C:\Users\Mahito\Desktop\Night outing\Night-outing\src\xrCore\xrMemory.h
; File C:\Users\Mahito\Desktop\Night outing\Night-outing\src\xrCore\xrMemory_subst_msvc.cpp
; File C:\Users\Mahito\Desktop\Night outing\Night-outing\src\xrCore\xrMemory.h
; File C:\Users\Mahito\Desktop\Night outing\Night-outing\src\xrCore\xrMemory_subst_msvc.cpp
; File C:\Users\Mahito\Desktop\Night outing\Night-outing\src\xrCore\xrMemory.h
;	COMDAT ??$xr_alloc@UItem@CInifile@@@@YAPEAUItem@CInifile@@I@Z
_TEXT	SEGMENT
count$ = 48
??$xr_alloc@UItem@CInifile@@@@YAPEAUItem@CInifile@@I@Z PROC ; xr_alloc<CInifile::Item>, COMDAT

; 64   : IC T* xr_alloc(u32 count) { return (T*)Memory.mem_alloc(count * sizeof(T)); }

$LN34:
	mov	QWORD PTR [rsp+8], rbx
	push	rdi
	sub	rsp, 32					; 00000020H
; File C:\Users\Mahito\Desktop\Night outing\Night-outing\src\xrCore\xrMemory_subst_msvc.cpp

; 39   : 	stat_calls++;

	inc	DWORD PTR ?Memory@@3VxrMemory@@A

; 45   : 		void* result = _aligned_malloc(size, PURE_MEMORY_ALIGNMENT);

	mov	edx, 16
; File C:\Users\Mahito\Desktop\Night outing\Night-outing\src\xrCore\xrMemory.h

; 64   : IC T* xr_alloc(u32 count) { return (T*)Memory.mem_alloc(count * sizeof(T)); }

	mov	eax, ecx
	lea	rdi, QWORD PTR [rax+rax*2]
	shl	rdi, 3
; File C:\Users\Mahito\Desktop\Night outing\Night-outing\src\xrCore\xrMemory_subst_msvc.cpp

; 45   : 		void* result = _aligned_malloc(size, PURE_MEMORY_ALIGNMENT);

	mov	rcx, rdi
	call	QWORD PTR __imp__aligned_malloc
	mov	rbx, rax

; 46   : #ifdef PURE_MEMORY_FILL_ZERO
; 47   : 		if (result)

	test	rax, rax
	je	SHORT $LN5@xr_alloc

; 48   : 			memset(result, 0, size);

	mov	r8, rdi
	xor	edx, edx
	mov	rcx, rax
	call	memset
; File C:\Users\Mahito\Desktop\Night outing\Night-outing\src\xrCore\xrMemory.h

; 64   : IC T* xr_alloc(u32 count) { return (T*)Memory.mem_alloc(count * sizeof(T)); }

	mov	rax, rbx
$LN5@xr_alloc:
	mov	rbx, QWORD PTR [rsp+48]
	add	rsp, 32					; 00000020H
	pop	rdi
	ret	0
??$xr_alloc@UItem@CInifile@@@@YAPEAUItem@CInifile@@I@Z ENDP ; xr_alloc<CInifile::Item>
_TEXT	ENDS
; Function compile flags: /Ogtpy
; File C:\Users\Mahito\Desktop\Night outing\Night-outing\src\xrCore\xrstring.h
; File C:\Program Files\Microsoft Visual Studio\2022\Community\VC\Tools\MSVC\14.35.32215\include\vector
;	COMDAT ??0Sect@CInifile@@QEAA@XZ
_TEXT	SEGMENT
this$ = 8
??0Sect@CInifile@@QEAA@XZ PROC				; CInifile::Sect::Sect, COMDAT
; File C:\Users\Mahito\Desktop\Night outing\Night-outing\src\xrCore\xrstring.h

; 72   : 						shared_str	()								{	p_ = 0;											}

	xor	eax, eax
	mov	QWORD PTR [rcx], rax
; File C:\Program Files\Microsoft Visual Studio\2022\Community\VC\Tools\MSVC\14.35.32215\include\vector

; 390  :     _CONSTEXPR20 _Vector_val() noexcept : _Myfirst(), _Mylast(), _Myend() {}

	mov	QWORD PTR [rcx+8], rax
	mov	QWORD PTR [rcx+16], rax
	mov	QWORD PTR [rcx+24], rax
	mov	rax, rcx
	ret	0
??0Sect@CInifile@@QEAA@XZ ENDP				; CInifile::Sect::Sect
_TEXT	ENDS
; Function compile flags: /Ogtpy
; File C:\Users\Mahito\Desktop\Night outing\Night-outing\src\xrCore\xrstring.h
;	COMDAT ??4Item@CInifile@@QEAAAEAU01@$$QEAU01@@Z
_TEXT	SEGMENT
this$ = 8
__that$ = 16
??4Item@CInifile@@QEAAAEAU01@$$QEAU01@@Z PROC		; CInifile::Item::operator=, COMDAT

; 64   : 	void				_set		(shared_str const &rhs)			{	str_value* v = rhs.p_; if (0!=v) v->dwReference++; _dec(); p_ = v;							}

	mov	rax, QWORD PTR [rdx]
	mov	r9, rdx
	test	rax, rax
	je	SHORT $LN6@operator
	inc	DWORD PTR [rax]
$LN6@operator:

; 61   : 	void				_dec		()								{	if (0==p_) return;	p_->dwReference--; 	if (0==p_->dwReference)	p_=0;						}

	mov	r8, QWORD PTR [rcx]
	test	r8, r8
	je	SHORT $LN10@operator
	dec	DWORD PTR [r8]
$LN10@operator:

; 64   : 	void				_set		(shared_str const &rhs)			{	str_value* v = rhs.p_; if (0!=v) v->dwReference++; _dec(); p_ = v;							}

	mov	QWORD PTR [rcx], rax
	mov	rax, QWORD PTR [rdx+8]
	test	rax, rax
	je	SHORT $LN15@operator
	inc	DWORD PTR [rax]
$LN15@operator:

; 61   : 	void				_dec		()								{	if (0==p_) return;	p_->dwReference--; 	if (0==p_->dwReference)	p_=0;						}

	mov	rdx, QWORD PTR [rcx+8]
	test	rdx, rdx
	je	SHORT $LN19@operator
	dec	DWORD PTR [rdx]
$LN19@operator:

; 64   : 	void				_set		(shared_str const &rhs)			{	str_value* v = rhs.p_; if (0!=v) v->dwReference++; _dec(); p_ = v;							}

	mov	QWORD PTR [rcx+8], rax
	mov	rax, QWORD PTR [r9+16]
	test	rax, rax
	je	SHORT $LN24@operator
	inc	DWORD PTR [rax]
$LN24@operator:

; 61   : 	void				_dec		()								{	if (0==p_) return;	p_->dwReference--; 	if (0==p_->dwReference)	p_=0;						}

	mov	rdx, QWORD PTR [rcx+16]
	test	rdx, rdx
	je	SHORT $LN30@operator
	dec	DWORD PTR [rdx]
$LN30@operator:

; 64   : 	void				_set		(shared_str const &rhs)			{	str_value* v = rhs.p_; if (0!=v) v->dwReference++; _dec(); p_ = v;							}

	mov	QWORD PTR [rcx+16], rax
	mov	rax, rcx
	ret	0
??4Item@CInifile@@QEAAAEAU01@$$QEAU01@@Z ENDP		; CInifile::Item::operator=
_TEXT	ENDS
; Function compile flags: /Ogtpy
; File C:\Program Files\Microsoft Visual Studio\2022\Community\VC\Tools\MSVC\14.35.32215\include\vector
; File C:\Users\Mahito\Desktop\Night outing\Night-outing\src\xrCore\xrMemory.h
; File C:\Users\Mahito\Desktop\Night outing\Night-outing\src\xrCore\xrMemory_subst_msvc.cpp
; File C:\Program Files\Microsoft Visual Studio\2022\Community\VC\Tools\MSVC\14.35.32215\include\vector
;	COMDAT ??1?$xr_vector@UItem@CInifile@@V?$xalloc@UItem@CInifile@@@@@@QEAA@XZ
_TEXT	SEGMENT
this$ = 48
??1?$xr_vector@UItem@CInifile@@V?$xalloc@UItem@CInifile@@@@@@QEAA@XZ PROC ; xr_vector<CInifile::Item,xalloc<CInifile::Item> >::~xr_vector<CInifile::Item,xalloc<CInifile::Item> >, COMDAT
$LN34:
	push	rbx
	sub	rsp, 32					; 00000020H
	mov	rbx, rcx

; 2107 :         if (_Myfirst) { // destroy and deallocate old array

	mov	rcx, QWORD PTR [rcx]
	test	rcx, rcx
	je	SHORT $LN6@xr_vector

; 2108 :             _Destroy_range(_Myfirst, _Mylast, _Al);

	mov	rdx, QWORD PTR [rbx+8]
	call	??$_Destroy_range@V?$xalloc@UItem@CInifile@@@@@std@@YAXPEAUItem@CInifile@@QEAU12@AEAV?$xalloc@UItem@CInifile@@@@@Z ; std::_Destroy_range<xalloc<CInifile::Item> >

; 2109 :             _ASAN_VECTOR_REMOVE;
; 2110 :             _Al.deallocate(_Myfirst, static_cast<size_type>(_Myend - _Myfirst));

	mov	rcx, QWORD PTR [rbx]
; File C:\Users\Mahito\Desktop\Night outing\Night-outing\src\xrCore\xrMemory.h

; 69   : 	if (P)

	test	rcx, rcx
	je	SHORT $LN11@xr_vector
; File C:\Users\Mahito\Desktop\Night outing\Night-outing\src\xrCore\xrMemory_subst_msvc.cpp

; 99   : 	stat_calls++;

	inc	DWORD PTR ?Memory@@3VxrMemory@@A

; 100  : 
; 101  : #ifdef PURE_ALLOC
; 102  : 	if (g_use_pure_alloc)
; 103  : 	{
; 104  : 		//free(P);
; 105  : 		_aligned_free(P);

	call	QWORD PTR __imp__aligned_free
$LN11@xr_vector:
; File C:\Program Files\Microsoft Visual Studio\2022\Community\VC\Tools\MSVC\14.35.32215\include\vector

; 2112 :             _Myfirst = nullptr;

	xor	eax, eax
	mov	QWORD PTR [rbx], rax

; 2113 :             _Mylast  = nullptr;

	mov	QWORD PTR [rbx+8], rax

; 2114 :             _Myend   = nullptr;

	mov	QWORD PTR [rbx+16], rax
$LN6@xr_vector:
	add	rsp, 32					; 00000020H
	pop	rbx
	ret	0
??1?$xr_vector@UItem@CInifile@@V?$xalloc@UItem@CInifile@@@@@@QEAA@XZ ENDP ; xr_vector<CInifile::Item,xalloc<CInifile::Item> >::~xr_vector<CInifile::Item,xalloc<CInifile::Item> >
_TEXT	ENDS
; Function compile flags: /Ogtpy
; File C:\Program Files\Microsoft Visual Studio\2022\Community\VC\Tools\MSVC\14.35.32215\include\xmemory
;	COMDAT ?_Release@?$_Uninitialized_backout_al@V?$xalloc@UItem@CInifile@@@@@std@@QEAAPEAUItem@CInifile@@XZ
_TEXT	SEGMENT
this$ = 8
?_Release@?$_Uninitialized_backout_al@V?$xalloc@UItem@CInifile@@@@@std@@QEAAPEAUItem@CInifile@@XZ PROC ; std::_Uninitialized_backout_al<xalloc<CInifile::Item> >::_Release, COMDAT

; 1665 :         _First = _Last;

	mov	rax, QWORD PTR [rcx+8]
	mov	QWORD PTR [rcx], rax

; 1666 :         return _Last;
; 1667 :     }

	ret	0
?_Release@?$_Uninitialized_backout_al@V?$xalloc@UItem@CInifile@@@@@std@@QEAAPEAUItem@CInifile@@XZ ENDP ; std::_Uninitialized_backout_al<xalloc<CInifile::Item> >::_Release
_TEXT	ENDS
; Function compile flags: /Ogtpy
; File C:\Program Files\Microsoft Visual Studio\2022\Community\VC\Tools\MSVC\14.35.32215\include\xmemory
; File C:\Users\Mahito\Desktop\Night outing\Night-outing\src\xrCore\xrstring.h
; File C:\Program Files\Microsoft Visual Studio\2022\Community\VC\Tools\MSVC\14.35.32215\include\xmemory
;	COMDAT ??1?$_Uninitialized_backout_al@V?$xalloc@UItem@CInifile@@@@@std@@QEAA@XZ
_TEXT	SEGMENT
this$ = 8
??1?$_Uninitialized_backout_al@V?$xalloc@UItem@CInifile@@@@@std@@QEAA@XZ PROC ; std::_Uninitialized_backout_al<xalloc<CInifile::Item> >::~_Uninitialized_backout_al<xalloc<CInifile::Item> >, COMDAT

; 1655 :         _Destroy_range(_First, _Last, _Al);

	mov	rdx, QWORD PTR [rcx+8]
	mov	rax, QWORD PTR [rcx]

; 946  :         for (; _First != _Last; ++_First) {

	cmp	rax, rdx
	je	SHORT $LN5@Uninitiali
	xor	r8d, r8d
	npad	1
$LL6@Uninitiali:
; File C:\Users\Mahito\Desktop\Night outing\Night-outing\src\xrCore\xrstring.h

; 61   : 	void				_dec		()								{	if (0==p_) return;	p_->dwReference--; 	if (0==p_->dwReference)	p_=0;						}

	mov	rcx, QWORD PTR [rax+16]
	test	rcx, rcx
	je	SHORT $LN21@Uninitiali
	dec	DWORD PTR [rcx]
	mov	rcx, QWORD PTR [rax+16]
	cmp	DWORD PTR [rcx], r8d
	jne	SHORT $LN21@Uninitiali
	mov	QWORD PTR [rax+16], r8
$LN21@Uninitiali:
	mov	rcx, QWORD PTR [rax+8]
	test	rcx, rcx
	je	SHORT $LN27@Uninitiali
	dec	DWORD PTR [rcx]
	mov	rcx, QWORD PTR [rax+8]
	cmp	DWORD PTR [rcx], r8d
	jne	SHORT $LN27@Uninitiali
	mov	QWORD PTR [rax+8], r8
$LN27@Uninitiali:
	mov	rcx, QWORD PTR [rax]
	test	rcx, rcx
	je	SHORT $LN33@Uninitiali
	dec	DWORD PTR [rcx]
	mov	rcx, QWORD PTR [rax]
	cmp	DWORD PTR [rcx], r8d
	jne	SHORT $LN33@Uninitiali
	mov	QWORD PTR [rax], r8
$LN33@Uninitiali:
; File C:\Program Files\Microsoft Visual Studio\2022\Community\VC\Tools\MSVC\14.35.32215\include\xmemory

; 946  :         for (; _First != _Last; ++_First) {

	add	rax, 24
	cmp	rax, rdx
	jne	SHORT $LL6@Uninitiali
$LN5@Uninitiali:

; 1656 :     }

	ret	0
??1?$_Uninitialized_backout_al@V?$xalloc@UItem@CInifile@@@@@std@@QEAA@XZ ENDP ; std::_Uninitialized_backout_al<xalloc<CInifile::Item> >::~_Uninitialized_backout_al<xalloc<CInifile::Item> >
_TEXT	ENDS
; Function compile flags: /Ogtpy
; File C:\Program Files\Microsoft Visual Studio\2022\Community\VC\Tools\MSVC\14.35.32215\include\xmemory
;	COMDAT ??0?$_Uninitialized_backout_al@V?$xalloc@UItem@CInifile@@@@@std@@QEAA@PEAUItem@CInifile@@AEAV?$xalloc@UItem@CInifile@@@@@Z
_TEXT	SEGMENT
this$ = 8
_Dest$ = 16
_Al_$ = 24
??0?$_Uninitialized_backout_al@V?$xalloc@UItem@CInifile@@@@@std@@QEAA@PEAUItem@CInifile@@AEAV?$xalloc@UItem@CInifile@@@@@Z PROC ; std::_Uninitialized_backout_al<xalloc<CInifile::Item> >::_Uninitialized_backout_al<xalloc<CInifile::Item> >, COMDAT

; 1649 :     _CONSTEXPR20 _Uninitialized_backout_al(pointer _Dest, _Alloc& _Al_) : _First(_Dest), _Last(_Dest), _Al(_Al_) {}

	mov	QWORD PTR [rcx], rdx
	mov	rax, rcx
	mov	QWORD PTR [rcx+8], rdx
	mov	QWORD PTR [rcx+16], r8
	ret	0
??0?$_Uninitialized_backout_al@V?$xalloc@UItem@CInifile@@@@@std@@QEAA@PEAUItem@CInifile@@AEAV?$xalloc@UItem@CInifile@@@@@Z ENDP ; std::_Uninitialized_backout_al<xalloc<CInifile::Item> >::_Uninitialized_backout_al<xalloc<CInifile::Item> >
_TEXT	ENDS
; Function compile flags: /Ogtpy
; File C:\Program Files\Microsoft Visual Studio\2022\Community\VC\Tools\MSVC\14.35.32215\include\xmemory
;	COMDAT ?_Release@?$_Uninitialized_backout_al@V?$xalloc@PEAUSect@CInifile@@@@@std@@QEAAPEAPEAUSect@CInifile@@XZ
_TEXT	SEGMENT
this$ = 8
?_Release@?$_Uninitialized_backout_al@V?$xalloc@PEAUSect@CInifile@@@@@std@@QEAAPEAPEAUSect@CInifile@@XZ PROC ; std::_Uninitialized_backout_al<xalloc<CInifile::Sect *> >::_Release, COMDAT

; 1665 :         _First = _Last;

	mov	rax, QWORD PTR [rcx+8]
	mov	QWORD PTR [rcx], rax

; 1666 :         return _Last;
; 1667 :     }

	ret	0
?_Release@?$_Uninitialized_backout_al@V?$xalloc@PEAUSect@CInifile@@@@@std@@QEAAPEAPEAUSect@CInifile@@XZ ENDP ; std::_Uninitialized_backout_al<xalloc<CInifile::Sect *> >::_Release
_TEXT	ENDS
; Function compile flags: /Ogtpy
; File C:\Program Files\Microsoft Visual Studio\2022\Community\VC\Tools\MSVC\14.35.32215\include\xmemory
;	COMDAT ??1?$_Uninitialized_backout_al@V?$xalloc@PEAUSect@CInifile@@@@@std@@QEAA@XZ
_TEXT	SEGMENT
this$ = 8
??1?$_Uninitialized_backout_al@V?$xalloc@PEAUSect@CInifile@@@@@std@@QEAA@XZ PROC ; std::_Uninitialized_backout_al<xalloc<CInifile::Sect *> >::~_Uninitialized_backout_al<xalloc<CInifile::Sect *> >, COMDAT

; 1655 :         _Destroy_range(_First, _Last, _Al);
; 1656 :     }

	ret	0
??1?$_Uninitialized_backout_al@V?$xalloc@PEAUSect@CInifile@@@@@std@@QEAA@XZ ENDP ; std::_Uninitialized_backout_al<xalloc<CInifile::Sect *> >::~_Uninitialized_backout_al<xalloc<CInifile::Sect *> >
_TEXT	ENDS
; Function compile flags: /Ogtpy
; File C:\Program Files\Microsoft Visual Studio\2022\Community\VC\Tools\MSVC\14.35.32215\include\xmemory
;	COMDAT ??0?$_Uninitialized_backout_al@V?$xalloc@PEAUSect@CInifile@@@@@std@@QEAA@PEAPEAUSect@CInifile@@AEAV?$xalloc@PEAUSect@CInifile@@@@@Z
_TEXT	SEGMENT
this$ = 8
_Dest$ = 16
_Al_$ = 24
??0?$_Uninitialized_backout_al@V?$xalloc@PEAUSect@CInifile@@@@@std@@QEAA@PEAPEAUSect@CInifile@@AEAV?$xalloc@PEAUSect@CInifile@@@@@Z PROC ; std::_Uninitialized_backout_al<xalloc<CInifile::Sect *> >::_Uninitialized_backout_al<xalloc<CInifile::Sect *> >, COMDAT

; 1649 :     _CONSTEXPR20 _Uninitialized_backout_al(pointer _Dest, _Alloc& _Al_) : _First(_Dest), _Last(_Dest), _Al(_Al_) {}

	mov	QWORD PTR [rcx], rdx
	mov	rax, rcx
	mov	QWORD PTR [rcx+8], rdx
	mov	QWORD PTR [rcx+16], r8
	ret	0
??0?$_Uninitialized_backout_al@V?$xalloc@PEAUSect@CInifile@@@@@std@@QEAA@PEAPEAUSect@CInifile@@AEAV?$xalloc@PEAUSect@CInifile@@@@@Z ENDP ; std::_Uninitialized_backout_al<xalloc<CInifile::Sect *> >::_Uninitialized_backout_al<xalloc<CInifile::Sect *> >
_TEXT	ENDS
; Function compile flags: /Ogtpy
; File C:\Program Files\Microsoft Visual Studio\2022\Community\VC\Tools\MSVC\14.35.32215\include\xmemory
; File C:\Users\Mahito\Desktop\Night outing\Night-outing\src\xrCore\xrstring.h
; File C:\Program Files\Microsoft Visual Studio\2022\Community\VC\Tools\MSVC\14.35.32215\include\xmemory
;	COMDAT ??1?$_Alloc_temporary2@V?$xalloc@UItem@CInifile@@@@@std@@QEAA@XZ
_TEXT	SEGMENT
this$ = 8
??1?$_Alloc_temporary2@V?$xalloc@UItem@CInifile@@@@@std@@QEAA@XZ PROC ; std::_Alloc_temporary2<xalloc<CInifile::Item> >::~_Alloc_temporary2<xalloc<CInifile::Item> >, COMDAT
; File C:\Users\Mahito\Desktop\Night outing\Night-outing\src\xrCore\xrstring.h

; 61   : 	void				_dec		()								{	if (0==p_) return;	p_->dwReference--; 	if (0==p_->dwReference)	p_=0;						}

	mov	rax, QWORD PTR [rcx+24]
	xor	edx, edx
	test	rax, rax
	je	SHORT $LN16@Alloc_temp
	dec	DWORD PTR [rax]
	mov	rax, QWORD PTR [rcx+24]
	cmp	DWORD PTR [rax], edx
	jne	SHORT $LN16@Alloc_temp
	mov	QWORD PTR [rcx+24], rdx
$LN16@Alloc_temp:
	mov	rax, QWORD PTR [rcx+16]
	test	rax, rax
	je	SHORT $LN22@Alloc_temp
	dec	DWORD PTR [rax]
	mov	rax, QWORD PTR [rcx+16]
	cmp	DWORD PTR [rax], edx
	jne	SHORT $LN22@Alloc_temp
	mov	QWORD PTR [rcx+16], rdx
$LN22@Alloc_temp:
	mov	rax, QWORD PTR [rcx+8]
	test	rax, rax
	je	SHORT $LN28@Alloc_temp
	dec	DWORD PTR [rax]
	mov	rax, QWORD PTR [rcx+8]
	cmp	DWORD PTR [rax], edx
	jne	SHORT $LN28@Alloc_temp
	mov	QWORD PTR [rcx+8], rdx
$LN28@Alloc_temp:
; File C:\Program Files\Microsoft Visual Studio\2022\Community\VC\Tools\MSVC\14.35.32215\include\xmemory

; 2028 :     }

	ret	0
??1?$_Alloc_temporary2@V?$xalloc@UItem@CInifile@@@@@std@@QEAA@XZ ENDP ; std::_Alloc_temporary2<xalloc<CInifile::Item> >::~_Alloc_temporary2<xalloc<CInifile::Item> >
_TEXT	ENDS
; Function compile flags: /Ogtpy
; File C:\Program Files\Microsoft Visual Studio\2022\Community\VC\Tools\MSVC\14.35.32215\include\xmemory
;	COMDAT ?_Get_value@?$_Alloc_temporary2@V?$xalloc@UItem@CInifile@@@@@std@@QEAAAEAUItem@CInifile@@XZ
_TEXT	SEGMENT
this$ = 8
?_Get_value@?$_Alloc_temporary2@V?$xalloc@UItem@CInifile@@@@@std@@QEAAAEAUItem@CInifile@@XZ PROC ; std::_Alloc_temporary2<xalloc<CInifile::Item> >::_Get_value, COMDAT

; 2008 :         return _Value;

	lea	rax, QWORD PTR [rcx+8]

; 2009 :     }

	ret	0
?_Get_value@?$_Alloc_temporary2@V?$xalloc@UItem@CInifile@@@@@std@@QEAAAEAUItem@CInifile@@XZ ENDP ; std::_Alloc_temporary2<xalloc<CInifile::Item> >::_Get_value
_TEXT	ENDS
; Function compile flags: /Ogtpy
; File C:\Program Files\Microsoft Visual Studio\2022\Community\VC\Tools\MSVC\14.35.32215\include\xmemory
;	COMDAT ??1?$_Alloc_temporary2@V?$xalloc@PEAUSect@CInifile@@@@@std@@QEAA@XZ
_TEXT	SEGMENT
this$ = 8
??1?$_Alloc_temporary2@V?$xalloc@PEAUSect@CInifile@@@@@std@@QEAA@XZ PROC ; std::_Alloc_temporary2<xalloc<CInifile::Sect *> >::~_Alloc_temporary2<xalloc<CInifile::Sect *> >, COMDAT

; 2027 :         _Traits::destroy(_Al, _STD addressof(_Get_value()));
; 2028 :     }

	ret	0
??1?$_Alloc_temporary2@V?$xalloc@PEAUSect@CInifile@@@@@std@@QEAA@XZ ENDP ; std::_Alloc_temporary2<xalloc<CInifile::Sect *> >::~_Alloc_temporary2<xalloc<CInifile::Sect *> >
_TEXT	ENDS
; Function compile flags: /Ogtpy
; File C:\Program Files\Microsoft Visual Studio\2022\Community\VC\Tools\MSVC\14.35.32215\include\xmemory
;	COMDAT ?_Get_value@?$_Alloc_temporary2@V?$xalloc@PEAUSect@CInifile@@@@@std@@QEAAAEAPEAUSect@CInifile@@XZ
_TEXT	SEGMENT
this$ = 8
?_Get_value@?$_Alloc_temporary2@V?$xalloc@PEAUSect@CInifile@@@@@std@@QEAAAEAPEAUSect@CInifile@@XZ PROC ; std::_Alloc_temporary2<xalloc<CInifile::Sect *> >::_Get_value, COMDAT

; 2008 :         return _Value;

	lea	rax, QWORD PTR [rcx+8]

; 2009 :     }

	ret	0
?_Get_value@?$_Alloc_temporary2@V?$xalloc@PEAUSect@CInifile@@@@@std@@QEAAAEAPEAUSect@CInifile@@XZ ENDP ; std::_Alloc_temporary2<xalloc<CInifile::Sect *> >::_Get_value
_TEXT	ENDS
; Function compile flags: /Ogtpy
; File C:\Users\Mahito\Desktop\Night outing\Night-outing\src\xrCore\xrMemory_subst_msvc.h
; File C:\Program Files\Microsoft Visual Studio\2022\Community\VC\Tools\MSVC\14.35.32215\include\vector
; File C:\Users\Mahito\Desktop\Night outing\Night-outing\src\xrCore\xrMemory_subst_msvc.h
; File C:\Program Files\Microsoft Visual Studio\2022\Community\VC\Tools\MSVC\14.35.32215\include\vector
; File C:\Users\Mahito\Desktop\Night outing\Night-outing\src\xrCore\xrMemory.h
; File C:\Users\Mahito\Desktop\Night outing\Night-outing\src\xrCore\xrMemory_subst_msvc.cpp
; File C:\Program Files\Microsoft Visual Studio\2022\Community\VC\Tools\MSVC\14.35.32215\include\vector
; File C:\Users\Mahito\Desktop\Night outing\Night-outing\src\xrCore\xrstring.h
; File C:\Users\Mahito\Desktop\Night outing\Night-outing\src\xrCore\xrMemory_subst_msvc.h
; File C:\Users\Mahito\Desktop\Night outing\Night-outing\src\xrCore\xrMemory_subst_msvc.cpp
; File C:\Users\Mahito\Desktop\Night outing\Night-outing\src\xrCore\xrMemory_subst_msvc.h
; File C:\Users\Mahito\Desktop\Night outing\Night-outing\src\xrCore\xrMemory_subst_msvc.cpp
; File C:\Users\Mahito\Desktop\Night outing\Night-outing\src\xrCore\xrMemory_subst_msvc.h
;	COMDAT ??R?$xr_special_free@$0A@USect@CInifile@@@@QEAAXAEAPEAUSect@CInifile@@@Z
_TEXT	SEGMENT
this$dead$ = 48
ptr$ = 56
??R?$xr_special_free@$0A@USect@CInifile@@@@QEAAXAEAPEAUSect@CInifile@@@Z PROC ; xr_special_free<0,CInifile::Sect>::operator(), COMDAT

; 30   : 	{

$LN66:
	mov	QWORD PTR [rsp+8], rbx
	mov	QWORD PTR [rsp+16], rsi
	push	rdi
	sub	rsp, 32					; 00000020H

; 31   : 		ptr->~T();

	mov	rbx, QWORD PTR [rdx]
; File C:\Program Files\Microsoft Visual Studio\2022\Community\VC\Tools\MSVC\14.35.32215\include\vector

; 2107 :         if (_Myfirst) { // destroy and deallocate old array

	xor	esi, esi
; File C:\Users\Mahito\Desktop\Night outing\Night-outing\src\xrCore\xrMemory_subst_msvc.h

; 30   : 	{

	mov	rdi, rdx
; File C:\Program Files\Microsoft Visual Studio\2022\Community\VC\Tools\MSVC\14.35.32215\include\vector

; 2107 :         if (_Myfirst) { // destroy and deallocate old array

	mov	rcx, QWORD PTR [rbx+8]
	test	rcx, rcx
	je	SHORT $LN13@operator

; 2108 :             _Destroy_range(_Myfirst, _Mylast, _Al);

	mov	rdx, QWORD PTR [rbx+16]
	call	??$_Destroy_range@V?$xalloc@UItem@CInifile@@@@@std@@YAXPEAUItem@CInifile@@QEAU12@AEAV?$xalloc@UItem@CInifile@@@@@Z ; std::_Destroy_range<xalloc<CInifile::Item> >

; 2109 :             _ASAN_VECTOR_REMOVE;
; 2110 :             _Al.deallocate(_Myfirst, static_cast<size_type>(_Myend - _Myfirst));

	mov	rcx, QWORD PTR [rbx+8]
; File C:\Users\Mahito\Desktop\Night outing\Night-outing\src\xrCore\xrMemory.h

; 69   : 	if (P)

	test	rcx, rcx
	je	SHORT $LN18@operator
; File C:\Users\Mahito\Desktop\Night outing\Night-outing\src\xrCore\xrMemory_subst_msvc.cpp

; 99   : 	stat_calls++;

	inc	DWORD PTR ?Memory@@3VxrMemory@@A

; 105  : 		_aligned_free(P);

	call	QWORD PTR __imp__aligned_free
$LN18@operator:
; File C:\Program Files\Microsoft Visual Studio\2022\Community\VC\Tools\MSVC\14.35.32215\include\vector

; 2112 :             _Myfirst = nullptr;

	mov	QWORD PTR [rbx+8], rsi

; 2113 :             _Mylast  = nullptr;

	mov	QWORD PTR [rbx+16], rsi

; 2114 :             _Myend   = nullptr;

	mov	QWORD PTR [rbx+24], rsi
$LN13@operator:
; File C:\Users\Mahito\Desktop\Night outing\Night-outing\src\xrCore\xrstring.h

; 61   : 	void				_dec		()								{	if (0==p_) return;	p_->dwReference--; 	if (0==p_->dwReference)	p_=0;						}

	mov	rax, QWORD PTR [rbx]
	test	rax, rax
	je	SHORT $LN43@operator
	dec	DWORD PTR [rax]
	mov	rax, QWORD PTR [rbx]
	cmp	DWORD PTR [rax], esi
	jne	SHORT $LN43@operator
	mov	QWORD PTR [rbx], rsi
$LN43@operator:
; File C:\Users\Mahito\Desktop\Night outing\Night-outing\src\xrCore\xrMemory_subst_msvc.h

; 32   : 		Memory.mem_free(ptr);

	mov	rcx, QWORD PTR [rdi]
; File C:\Users\Mahito\Desktop\Night outing\Night-outing\src\xrCore\xrMemory_subst_msvc.cpp

; 99   : 	stat_calls++;

	inc	DWORD PTR ?Memory@@3VxrMemory@@A
; File C:\Users\Mahito\Desktop\Night outing\Night-outing\src\xrCore\xrMemory_subst_msvc.h

; 33   : 	}

	mov	rbx, QWORD PTR [rsp+48]
	mov	rsi, QWORD PTR [rsp+56]
	add	rsp, 32					; 00000020H
	pop	rdi
; File C:\Users\Mahito\Desktop\Night outing\Night-outing\src\xrCore\xrMemory_subst_msvc.cpp

; 105  : 		_aligned_free(P);

	rex_jmp	QWORD PTR __imp__aligned_free
??R?$xr_special_free@$0A@USect@CInifile@@@@QEAAXAEAPEAUSect@CInifile@@@Z ENDP ; xr_special_free<0,CInifile::Sect>::operator()
_TEXT	ENDS
; Function compile flags: /Ogtpy
; File C:\Program Files\Microsoft Visual Studio\2022\Community\VC\Tools\MSVC\14.35.32215\include\vector
;	COMDAT ?_Unwrapped@?$_Vector_iterator@V?$_Vector_val@U?$_Simple_types@PEAUSect@CInifile@@@std@@@std@@@std@@QEBAPEAPEAUSect@CInifile@@XZ
_TEXT	SEGMENT
this$ = 8
?_Unwrapped@?$_Vector_iterator@V?$_Vector_val@U?$_Simple_types@PEAUSect@CInifile@@@std@@@std@@@std@@QEBAPEAPEAUSect@CInifile@@XZ PROC ; std::_Vector_iterator<std::_Vector_val<std::_Simple_types<CInifile::Sect *> > >::_Unwrapped, COMDAT

; 334  :         return _Unfancy(this->_Ptr);

	mov	rax, QWORD PTR [rcx]

; 335  :     }

	ret	0
?_Unwrapped@?$_Vector_iterator@V?$_Vector_val@U?$_Simple_types@PEAUSect@CInifile@@@std@@@std@@@std@@QEBAPEAPEAUSect@CInifile@@XZ ENDP ; std::_Vector_iterator<std::_Vector_val<std::_Simple_types<CInifile::Sect *> > >::_Unwrapped
_TEXT	ENDS
; Function compile flags: /Ogtpy
; File C:\Program Files\Microsoft Visual Studio\2022\Community\VC\Tools\MSVC\14.35.32215\include\vector
;	COMDAT ?_Unwrapped@?$_Vector_const_iterator@V?$_Vector_val@U?$_Simple_types@PEAUSect@CInifile@@@std@@@std@@@std@@QEBAPEBQEAUSect@CInifile@@XZ
_TEXT	SEGMENT
this$ = 8
?_Unwrapped@?$_Vector_const_iterator@V?$_Vector_val@U?$_Simple_types@PEAUSect@CInifile@@@std@@@std@@@std@@QEBAPEBQEAUSect@CInifile@@XZ PROC ; std::_Vector_const_iterator<std::_Vector_val<std::_Simple_types<CInifile::Sect *> > >::_Unwrapped, COMDAT

; 207  :         return _Unfancy(_Ptr);

	mov	rax, QWORD PTR [rcx]

; 208  :     }

	ret	0
?_Unwrapped@?$_Vector_const_iterator@V?$_Vector_val@U?$_Simple_types@PEAUSect@CInifile@@@std@@@std@@@std@@QEBAPEBQEAUSect@CInifile@@XZ ENDP ; std::_Vector_const_iterator<std::_Vector_val<std::_Simple_types<CInifile::Sect *> > >::_Unwrapped
_TEXT	ENDS
; Function compile flags: /Ogtpy
; File C:\Program Files\Microsoft Visual Studio\2022\Community\VC\Tools\MSVC\14.35.32215\include\vector
;	COMDAT ?_Unwrapped@?$_Vector_iterator@V?$_Vector_val@U?$_Simple_types@UItem@CInifile@@@std@@@std@@@std@@QEBAPEAUItem@CInifile@@XZ
_TEXT	SEGMENT
this$ = 8
?_Unwrapped@?$_Vector_iterator@V?$_Vector_val@U?$_Simple_types@UItem@CInifile@@@std@@@std@@@std@@QEBAPEAUItem@CInifile@@XZ PROC ; std::_Vector_iterator<std::_Vector_val<std::_Simple_types<CInifile::Item> > >::_Unwrapped, COMDAT

; 334  :         return _Unfancy(this->_Ptr);

	mov	rax, QWORD PTR [rcx]

; 335  :     }

	ret	0
?_Unwrapped@?$_Vector_iterator@V?$_Vector_val@U?$_Simple_types@UItem@CInifile@@@std@@@std@@@std@@QEBAPEAUItem@CInifile@@XZ ENDP ; std::_Vector_iterator<std::_Vector_val<std::_Simple_types<CInifile::Item> > >::_Unwrapped
_TEXT	ENDS
; Function compile flags: /Ogtpy
; File C:\Program Files\Microsoft Visual Studio\2022\Community\VC\Tools\MSVC\14.35.32215\include\vector
;	COMDAT ?_Unwrapped@?$_Vector_const_iterator@V?$_Vector_val@U?$_Simple_types@UItem@CInifile@@@std@@@std@@@std@@QEBAPEBUItem@CInifile@@XZ
_TEXT	SEGMENT
this$ = 8
?_Unwrapped@?$_Vector_const_iterator@V?$_Vector_val@U?$_Simple_types@UItem@CInifile@@@std@@@std@@@std@@QEBAPEBUItem@CInifile@@XZ PROC ; std::_Vector_const_iterator<std::_Vector_val<std::_Simple_types<CInifile::Item> > >::_Unwrapped, COMDAT

; 207  :         return _Unfancy(_Ptr);

	mov	rax, QWORD PTR [rcx]

; 208  :     }

	ret	0
?_Unwrapped@?$_Vector_const_iterator@V?$_Vector_val@U?$_Simple_types@UItem@CInifile@@@std@@@std@@@std@@QEBAPEBUItem@CInifile@@XZ ENDP ; std::_Vector_const_iterator<std::_Vector_val<std::_Simple_types<CInifile::Item> > >::_Unwrapped
_TEXT	ENDS
; Function compile flags: /Ogtpy
; File C:\Program Files\Microsoft Visual Studio\2022\Community\VC\Tools\MSVC\14.35.32215\include\vector
;	COMDAT ??0?$_Vector_val@U?$_Simple_types@PEAUSect@CInifile@@@std@@@std@@QEAA@XZ
_TEXT	SEGMENT
this$ = 8
??0?$_Vector_val@U?$_Simple_types@PEAUSect@CInifile@@@std@@@std@@QEAA@XZ PROC ; std::_Vector_val<std::_Simple_types<CInifile::Sect *> >::_Vector_val<std::_Simple_types<CInifile::Sect *> >, COMDAT

; 390  :     _CONSTEXPR20 _Vector_val() noexcept : _Myfirst(), _Mylast(), _Myend() {}

	xor	eax, eax
	mov	QWORD PTR [rcx], rax
	mov	QWORD PTR [rcx+8], rax
	mov	QWORD PTR [rcx+16], rax
	mov	rax, rcx
	ret	0
??0?$_Vector_val@U?$_Simple_types@PEAUSect@CInifile@@@std@@@std@@QEAA@XZ ENDP ; std::_Vector_val<std::_Simple_types<CInifile::Sect *> >::_Vector_val<std::_Simple_types<CInifile::Sect *> >
_TEXT	ENDS
; Function compile flags: /Ogtpy
; File C:\Program Files\Microsoft Visual Studio\2022\Community\VC\Tools\MSVC\14.35.32215\include\vector
;	COMDAT ?_Make_iterator@?$vector@PEAUSect@CInifile@@V?$xalloc@PEAUSect@CInifile@@@@@std@@AEAA?AV?$_Vector_iterator@V?$_Vector_val@U?$_Simple_types@PEAUSect@CInifile@@@std@@@std@@@2@QEAPEAUSect@CInifile@@@Z
_TEXT	SEGMENT
this$dead$ = 8
__$ReturnUdt$ = 16
_Ptr$ = 24
?_Make_iterator@?$vector@PEAUSect@CInifile@@V?$xalloc@PEAUSect@CInifile@@@@@std@@AEAA?AV?$_Vector_iterator@V?$_Vector_val@U?$_Simple_types@PEAUSect@CInifile@@@std@@@std@@@2@QEAPEAUSect@CInifile@@@Z PROC ; std::vector<CInifile::Sect *,xalloc<CInifile::Sect *> >::_Make_iterator, COMDAT

; 41   :     _CONSTEXPR20 _Vector_const_iterator(_Tptr _Parg, const _Container_base* _Pvector) noexcept : _Ptr(_Parg) {

	mov	QWORD PTR [rdx], r8

; 2252 :         return iterator(_Ptr, _STD addressof(_Mypair._Myval2));

	mov	rax, rdx

; 2253 :     }

	ret	0
?_Make_iterator@?$vector@PEAUSect@CInifile@@V?$xalloc@PEAUSect@CInifile@@@@@std@@AEAA?AV?$_Vector_iterator@V?$_Vector_val@U?$_Simple_types@PEAUSect@CInifile@@@std@@@std@@@2@QEAPEAUSect@CInifile@@@Z ENDP ; std::vector<CInifile::Sect *,xalloc<CInifile::Sect *> >::_Make_iterator
_TEXT	ENDS
; Function compile flags: /Ogtpy
; File C:\Program Files\Microsoft Visual Studio\2022\Community\VC\Tools\MSVC\14.35.32215\include\vector
;	COMDAT ?_Orphan_range@?$vector@PEAUSect@CInifile@@V?$xalloc@PEAUSect@CInifile@@@@@std@@AEBAXPEAPEAUSect@CInifile@@0@Z
_TEXT	SEGMENT
this$dead$ = 8
__formal$dead$ = 16
__formal$dead$ = 24
?_Orphan_range@?$vector@PEAUSect@CInifile@@V?$xalloc@PEAUSect@CInifile@@@@@std@@AEBAXPEAPEAUSect@CInifile@@0@Z PROC ; std::vector<CInifile::Sect *,xalloc<CInifile::Sect *> >::_Orphan_range, COMDAT

; 2240 :     _CONSTEXPR20 void _Orphan_range(pointer, pointer) const {}

	ret	0
?_Orphan_range@?$vector@PEAUSect@CInifile@@V?$xalloc@PEAUSect@CInifile@@@@@std@@AEBAXPEAPEAUSect@CInifile@@0@Z ENDP ; std::vector<CInifile::Sect *,xalloc<CInifile::Sect *> >::_Orphan_range
_TEXT	ENDS
; Function compile flags: /Ogtpy
; File C:\Users\Mahito\Desktop\Night outing\Night-outing\src\xrCore\_stl_extensions.h
;	COMDAT ??0?$xalloc@PEAUSect@CInifile@@@@QEAA@XZ
_TEXT	SEGMENT
this$ = 8
??0?$xalloc@PEAUSect@CInifile@@@@QEAA@XZ PROC		; xalloc<CInifile::Sect *>::xalloc<CInifile::Sect *>, COMDAT

; 77   : 													xalloc			()										{	}

	mov	rax, rcx
	ret	0
??0?$xalloc@PEAUSect@CInifile@@@@QEAA@XZ ENDP		; xalloc<CInifile::Sect *>::xalloc<CInifile::Sect *>
_TEXT	ENDS
; Function compile flags: /Ogtpy
; File C:\Users\Mahito\Desktop\Night outing\Night-outing\src\xrCore\_stl_extensions.h
; File C:\Program Files\Microsoft Visual Studio\2022\Community\VC\Tools\MSVC\14.35.32215\include\vector
; File C:\Users\Mahito\Desktop\Night outing\Night-outing\src\xrCore\_stl_extensions.h
;	COMDAT ??0?$xr_vector@UItem@CInifile@@V?$xalloc@UItem@CInifile@@@@@@QEAA@XZ
_TEXT	SEGMENT
this$ = 8
??0?$xr_vector@UItem@CInifile@@V?$xalloc@UItem@CInifile@@@@@@QEAA@XZ PROC ; xr_vector<CInifile::Item,xalloc<CInifile::Item> >::xr_vector<CInifile::Item,xalloc<CInifile::Item> >, COMDAT
; File C:\Program Files\Microsoft Visual Studio\2022\Community\VC\Tools\MSVC\14.35.32215\include\vector

; 390  :     _CONSTEXPR20 _Vector_val() noexcept : _Myfirst(), _Mylast(), _Myend() {}

	xor	eax, eax
	mov	QWORD PTR [rcx], rax
	mov	QWORD PTR [rcx+8], rax
	mov	QWORD PTR [rcx+16], rax
; File C:\Users\Mahito\Desktop\Night outing\Night-outing\src\xrCore\_stl_extensions.h

; 123  : 			xr_vector			()									: inherited	()					{}

	mov	rax, rcx
	ret	0
??0?$xr_vector@UItem@CInifile@@V?$xalloc@UItem@CInifile@@@@@@QEAA@XZ ENDP ; xr_vector<CInifile::Item,xalloc<CInifile::Item> >::xr_vector<CInifile::Item,xalloc<CInifile::Item> >
_TEXT	ENDS
; Function compile flags: /Ogtpy
; File C:\Program Files\Microsoft Visual Studio\2022\Community\VC\Tools\MSVC\14.35.32215\include\vector
;	COMDAT ?_Make_iterator@?$vector@UItem@CInifile@@V?$xalloc@UItem@CInifile@@@@@std@@AEAA?AV?$_Vector_iterator@V?$_Vector_val@U?$_Simple_types@UItem@CInifile@@@std@@@std@@@2@QEAUItem@CInifile@@@Z
_TEXT	SEGMENT
this$dead$ = 8
__$ReturnUdt$ = 16
_Ptr$ = 24
?_Make_iterator@?$vector@UItem@CInifile@@V?$xalloc@UItem@CInifile@@@@@std@@AEAA?AV?$_Vector_iterator@V?$_Vector_val@U?$_Simple_types@UItem@CInifile@@@std@@@std@@@2@QEAUItem@CInifile@@@Z PROC ; std::vector<CInifile::Item,xalloc<CInifile::Item> >::_Make_iterator, COMDAT

; 41   :     _CONSTEXPR20 _Vector_const_iterator(_Tptr _Parg, const _Container_base* _Pvector) noexcept : _Ptr(_Parg) {

	mov	QWORD PTR [rdx], r8

; 2252 :         return iterator(_Ptr, _STD addressof(_Mypair._Myval2));

	mov	rax, rdx

; 2253 :     }

	ret	0
?_Make_iterator@?$vector@UItem@CInifile@@V?$xalloc@UItem@CInifile@@@@@std@@AEAA?AV?$_Vector_iterator@V?$_Vector_val@U?$_Simple_types@UItem@CInifile@@@std@@@std@@@2@QEAUItem@CInifile@@@Z ENDP ; std::vector<CInifile::Item,xalloc<CInifile::Item> >::_Make_iterator
_TEXT	ENDS
; Function compile flags: /Ogtpy
; File C:\Program Files\Microsoft Visual Studio\2022\Community\VC\Tools\MSVC\14.35.32215\include\vector
; File C:\Users\Mahito\Desktop\Night outing\Night-outing\src\xrCore\xrMemory.h
; File C:\Users\Mahito\Desktop\Night outing\Night-outing\src\xrCore\xrMemory_subst_msvc.cpp
; File C:\Program Files\Microsoft Visual Studio\2022\Community\VC\Tools\MSVC\14.35.32215\include\vector
;	COMDAT ??1?$vector@UItem@CInifile@@V?$xalloc@UItem@CInifile@@@@@std@@QEAA@XZ
_TEXT	SEGMENT
this$ = 48
??1?$vector@UItem@CInifile@@V?$xalloc@UItem@CInifile@@@@@std@@QEAA@XZ PROC ; std::vector<CInifile::Item,xalloc<CInifile::Item> >::~vector<CInifile::Item,xalloc<CInifile::Item> >, COMDAT

; 829  :     _CONSTEXPR20 ~vector() noexcept {

$LN31:
	push	rbx
	sub	rsp, 32					; 00000020H
	mov	rbx, rcx

; 2107 :         if (_Myfirst) { // destroy and deallocate old array

	mov	rcx, QWORD PTR [rcx]
	test	rcx, rcx
	je	SHORT $LN4@vector

; 2108 :             _Destroy_range(_Myfirst, _Mylast, _Al);

	mov	rdx, QWORD PTR [rbx+8]
	call	??$_Destroy_range@V?$xalloc@UItem@CInifile@@@@@std@@YAXPEAUItem@CInifile@@QEAU12@AEAV?$xalloc@UItem@CInifile@@@@@Z ; std::_Destroy_range<xalloc<CInifile::Item> >

; 2109 :             _ASAN_VECTOR_REMOVE;
; 2110 :             _Al.deallocate(_Myfirst, static_cast<size_type>(_Myend - _Myfirst));

	mov	rcx, QWORD PTR [rbx]
; File C:\Users\Mahito\Desktop\Night outing\Night-outing\src\xrCore\xrMemory.h

; 69   : 	if (P)

	test	rcx, rcx
	je	SHORT $LN9@vector
; File C:\Users\Mahito\Desktop\Night outing\Night-outing\src\xrCore\xrMemory_subst_msvc.cpp

; 99   : 	stat_calls++;

	inc	DWORD PTR ?Memory@@3VxrMemory@@A

; 100  : 
; 101  : #ifdef PURE_ALLOC
; 102  : 	if (g_use_pure_alloc)
; 103  : 	{
; 104  : 		//free(P);
; 105  : 		_aligned_free(P);

	call	QWORD PTR __imp__aligned_free
$LN9@vector:
; File C:\Program Files\Microsoft Visual Studio\2022\Community\VC\Tools\MSVC\14.35.32215\include\vector

; 2112 :             _Myfirst = nullptr;

	xor	eax, eax
	mov	QWORD PTR [rbx], rax

; 2113 :             _Mylast  = nullptr;

	mov	QWORD PTR [rbx+8], rax

; 2114 :             _Myend   = nullptr;

	mov	QWORD PTR [rbx+16], rax
$LN4@vector:

; 830  :         _Tidy();
; 831  : #if _ITERATOR_DEBUG_LEVEL != 0
; 832  :         auto&& _Alproxy = _GET_PROXY_ALLOCATOR(_Alty, _Getal());
; 833  :         _Delete_plain_internal(_Alproxy, _STD exchange(_Mypair._Myval2._Myproxy, nullptr));
; 834  : #endif // _ITERATOR_DEBUG_LEVEL != 0
; 835  :     }

	add	rsp, 32					; 00000020H
	pop	rbx
	ret	0
??1?$vector@UItem@CInifile@@V?$xalloc@UItem@CInifile@@@@@std@@QEAA@XZ ENDP ; std::vector<CInifile::Item,xalloc<CInifile::Item> >::~vector<CInifile::Item,xalloc<CInifile::Item> >
_TEXT	ENDS
; Function compile flags: /Ogtpy
; File C:\Users\Mahito\Desktop\Night outing\Night-outing\src\xrCore\_stl_extensions.h
; File C:\Users\Mahito\Desktop\Night outing\Night-outing\src\xrCore\xrstring.h
; File C:\Users\Mahito\Desktop\Night outing\Night-outing\src\xrCore\_stl_extensions.h
;	COMDAT ?destroy@?$xalloc@UItem@CInifile@@@@QEAAXPEAUItem@CInifile@@@Z
_TEXT	SEGMENT
this$dead$ = 8
p$ = 16
?destroy@?$xalloc@UItem@CInifile@@@@QEAAXPEAUItem@CInifile@@@Z PROC ; xalloc<CInifile::Item>::destroy, COMDAT
; File C:\Users\Mahito\Desktop\Night outing\Night-outing\src\xrCore\xrstring.h

; 61   : 	void				_dec		()								{	if (0==p_) return;	p_->dwReference--; 	if (0==p_->dwReference)	p_=0;						}

	mov	rax, QWORD PTR [rdx+16]
	xor	ecx, ecx
	test	rax, rax
	je	SHORT $LN12@destroy
	dec	DWORD PTR [rax]
	mov	rax, QWORD PTR [rdx+16]
	cmp	DWORD PTR [rax], ecx
	jne	SHORT $LN12@destroy
	mov	QWORD PTR [rdx+16], rcx
$LN12@destroy:
	mov	rax, QWORD PTR [rdx+8]
	test	rax, rax
	je	SHORT $LN18@destroy
	dec	DWORD PTR [rax]
	mov	rax, QWORD PTR [rdx+8]
	cmp	DWORD PTR [rax], ecx
	jne	SHORT $LN18@destroy
	mov	QWORD PTR [rdx+8], rcx
$LN18@destroy:
	mov	rax, QWORD PTR [rdx]
	test	rax, rax
	je	SHORT $LN24@destroy
	dec	DWORD PTR [rax]
	mov	rax, QWORD PTR [rdx]
	cmp	DWORD PTR [rax], ecx
	jne	SHORT $LN24@destroy
	mov	QWORD PTR [rdx], rcx
$LN24@destroy:
; File C:\Users\Mahito\Desktop\Night outing\Night-outing\src\xrCore\_stl_extensions.h

; 86   : 							void					destroy			(pointer p)								{	p->~T();			}

	ret	0
?destroy@?$xalloc@UItem@CInifile@@@@QEAAXPEAUItem@CInifile@@@Z ENDP ; xalloc<CInifile::Item>::destroy
_TEXT	ENDS
; Function compile flags: /Ogtpy
; File C:\Program Files\Microsoft Visual Studio\2022\Community\VC\Tools\MSVC\14.35.32215\include\vector
; File C:\Users\Mahito\Desktop\Night outing\Night-outing\src\xrCore\xrMemory.h
; File C:\Users\Mahito\Desktop\Night outing\Night-outing\src\xrCore\xrMemory_subst_msvc.cpp
; File C:\Program Files\Microsoft Visual Studio\2022\Community\VC\Tools\MSVC\14.35.32215\include\vector
; File C:\Users\Mahito\Desktop\Night outing\Night-outing\src\xrCore\xrstring.h
;	COMDAT ??_GSect@CInifile@@QEAAPEAXI@Z
_TEXT	SEGMENT
this$ = 48
__flags$dead$ = 56
??_GSect@CInifile@@QEAAPEAXI@Z PROC			; CInifile::Sect::`scalar deleting destructor', COMDAT
$LN47:
	mov	QWORD PTR [rsp+8], rbx
	push	rdi
	sub	rsp, 32					; 00000020H
	mov	rbx, rcx
; File C:\Program Files\Microsoft Visual Studio\2022\Community\VC\Tools\MSVC\14.35.32215\include\vector

; 2107 :         if (_Myfirst) { // destroy and deallocate old array

	xor	edi, edi
	mov	rcx, QWORD PTR [rcx+8]
	test	rcx, rcx
	je	SHORT $LN11@scalar

; 2108 :             _Destroy_range(_Myfirst, _Mylast, _Al);

	mov	rdx, QWORD PTR [rbx+16]
	call	??$_Destroy_range@V?$xalloc@UItem@CInifile@@@@@std@@YAXPEAUItem@CInifile@@QEAU12@AEAV?$xalloc@UItem@CInifile@@@@@Z ; std::_Destroy_range<xalloc<CInifile::Item> >

; 2109 :             _ASAN_VECTOR_REMOVE;
; 2110 :             _Al.deallocate(_Myfirst, static_cast<size_type>(_Myend - _Myfirst));

	mov	rcx, QWORD PTR [rbx+8]
; File C:\Users\Mahito\Desktop\Night outing\Night-outing\src\xrCore\xrMemory.h

; 69   : 	if (P)

	test	rcx, rcx
	je	SHORT $LN16@scalar
; File C:\Users\Mahito\Desktop\Night outing\Night-outing\src\xrCore\xrMemory_subst_msvc.cpp

; 99   : 	stat_calls++;

	inc	DWORD PTR ?Memory@@3VxrMemory@@A

; 100  : 
; 101  : #ifdef PURE_ALLOC
; 102  : 	if (g_use_pure_alloc)
; 103  : 	{
; 104  : 		//free(P);
; 105  : 		_aligned_free(P);

	call	QWORD PTR __imp__aligned_free
$LN16@scalar:
; File C:\Program Files\Microsoft Visual Studio\2022\Community\VC\Tools\MSVC\14.35.32215\include\vector

; 2112 :             _Myfirst = nullptr;

	mov	QWORD PTR [rbx+8], rdi

; 2113 :             _Mylast  = nullptr;

	mov	QWORD PTR [rbx+16], rdi

; 2114 :             _Myend   = nullptr;

	mov	QWORD PTR [rbx+24], rdi
$LN11@scalar:
; File C:\Users\Mahito\Desktop\Night outing\Night-outing\src\xrCore\xrstring.h

; 61   : 	void				_dec		()								{	if (0==p_) return;	p_->dwReference--; 	if (0==p_->dwReference)	p_=0;						}

	mov	rax, QWORD PTR [rbx]
	test	rax, rax
	je	SHORT $LN44@scalar
	dec	DWORD PTR [rax]
	mov	rax, QWORD PTR [rbx]
	cmp	DWORD PTR [rax], edi
	mov	rax, rbx
	jne	SHORT $LN41@scalar
	mov	QWORD PTR [rbx], rdi
	mov	rbx, QWORD PTR [rsp+48]
	add	rsp, 32					; 00000020H
	pop	rdi
	ret	0
$LN44@scalar:
	mov	rax, rbx
$LN41@scalar:
	mov	rbx, QWORD PTR [rsp+48]
	add	rsp, 32					; 00000020H
	pop	rdi
	ret	0
??_GSect@CInifile@@QEAAPEAXI@Z ENDP			; CInifile::Sect::`scalar deleting destructor'
_TEXT	ENDS
; Function compile flags: /Ogtpy
; File C:\Users\Mahito\Desktop\Night outing\Night-outing\src\xrCore\xrstring.h
;	COMDAT ??_GItem@CInifile@@QEAAPEAXI@Z
_TEXT	SEGMENT
this$ = 8
__flags$dead$ = 16
??_GItem@CInifile@@QEAAPEAXI@Z PROC			; CInifile::Item::`scalar deleting destructor', COMDAT

; 61   : 	void				_dec		()								{	if (0==p_) return;	p_->dwReference--; 	if (0==p_->dwReference)	p_=0;						}

	mov	rax, QWORD PTR [rcx+16]
	xor	edx, edx
	test	rax, rax
	je	SHORT $LN10@scalar
	dec	DWORD PTR [rax]
	mov	rax, QWORD PTR [rcx+16]
	cmp	DWORD PTR [rax], edx
	jne	SHORT $LN10@scalar
	mov	QWORD PTR [rcx+16], rdx
$LN10@scalar:
	mov	rax, QWORD PTR [rcx+8]
	test	rax, rax
	je	SHORT $LN16@scalar
	dec	DWORD PTR [rax]
	mov	rax, QWORD PTR [rcx+8]
	cmp	DWORD PTR [rax], edx
	jne	SHORT $LN16@scalar
	mov	QWORD PTR [rcx+8], rdx
$LN16@scalar:
	mov	rax, QWORD PTR [rcx]
	test	rax, rax
	je	SHORT $LN25@scalar
	dec	DWORD PTR [rax]
	mov	rax, QWORD PTR [rcx]
	cmp	DWORD PTR [rax], edx
	mov	rax, rcx
	jne	SHORT $LN22@scalar
	mov	QWORD PTR [rcx], rdx
	ret	0
$LN25@scalar:
	mov	rax, rcx
$LN22@scalar:
	ret	0
??_GItem@CInifile@@QEAAPEAXI@Z ENDP			; CInifile::Item::`scalar deleting destructor'
_TEXT	ENDS
; Function compile flags: /Ogtpy
; File C:\Program Files\Microsoft Visual Studio\2022\Community\VC\Tools\MSVC\14.35.32215\include\vector
; File C:\Users\Mahito\Desktop\Night outing\Night-outing\src\xrCore\xrMemory.h
; File C:\Users\Mahito\Desktop\Night outing\Night-outing\src\xrCore\xrMemory_subst_msvc.cpp
; File C:\Program Files\Microsoft Visual Studio\2022\Community\VC\Tools\MSVC\14.35.32215\include\vector
; File C:\Users\Mahito\Desktop\Night outing\Night-outing\src\xrCore\xrstring.h
;	COMDAT ??1Sect@CInifile@@QEAA@XZ
_TEXT	SEGMENT
this$ = 48
??1Sect@CInifile@@QEAA@XZ PROC				; CInifile::Sect::~Sect, COMDAT
$LN42:
	mov	QWORD PTR [rsp+8], rbx
	push	rdi
	sub	rsp, 32					; 00000020H
	mov	rbx, rcx
; File C:\Program Files\Microsoft Visual Studio\2022\Community\VC\Tools\MSVC\14.35.32215\include\vector

; 2107 :         if (_Myfirst) { // destroy and deallocate old array

	xor	edi, edi
	mov	rcx, QWORD PTR [rcx+8]
	test	rcx, rcx
	je	SHORT $LN8@Sect

; 2108 :             _Destroy_range(_Myfirst, _Mylast, _Al);

	mov	rdx, QWORD PTR [rbx+16]
	call	??$_Destroy_range@V?$xalloc@UItem@CInifile@@@@@std@@YAXPEAUItem@CInifile@@QEAU12@AEAV?$xalloc@UItem@CInifile@@@@@Z ; std::_Destroy_range<xalloc<CInifile::Item> >

; 2109 :             _ASAN_VECTOR_REMOVE;
; 2110 :             _Al.deallocate(_Myfirst, static_cast<size_type>(_Myend - _Myfirst));

	mov	rcx, QWORD PTR [rbx+8]
; File C:\Users\Mahito\Desktop\Night outing\Night-outing\src\xrCore\xrMemory.h

; 69   : 	if (P)

	test	rcx, rcx
	je	SHORT $LN13@Sect
; File C:\Users\Mahito\Desktop\Night outing\Night-outing\src\xrCore\xrMemory_subst_msvc.cpp

; 99   : 	stat_calls++;

	inc	DWORD PTR ?Memory@@3VxrMemory@@A

; 100  : 
; 101  : #ifdef PURE_ALLOC
; 102  : 	if (g_use_pure_alloc)
; 103  : 	{
; 104  : 		//free(P);
; 105  : 		_aligned_free(P);

	call	QWORD PTR __imp__aligned_free
$LN13@Sect:
; File C:\Program Files\Microsoft Visual Studio\2022\Community\VC\Tools\MSVC\14.35.32215\include\vector

; 2112 :             _Myfirst = nullptr;

	mov	QWORD PTR [rbx+8], rdi

; 2113 :             _Mylast  = nullptr;

	mov	QWORD PTR [rbx+16], rdi

; 2114 :             _Myend   = nullptr;

	mov	QWORD PTR [rbx+24], rdi
$LN8@Sect:
; File C:\Users\Mahito\Desktop\Night outing\Night-outing\src\xrCore\xrstring.h

; 61   : 	void				_dec		()								{	if (0==p_) return;	p_->dwReference--; 	if (0==p_->dwReference)	p_=0;						}

	mov	rax, QWORD PTR [rbx]
	test	rax, rax
	je	SHORT $LN38@Sect
	dec	DWORD PTR [rax]
	mov	rax, QWORD PTR [rbx]
	cmp	DWORD PTR [rax], edi
	jne	SHORT $LN38@Sect
	mov	QWORD PTR [rbx], rdi
$LN38@Sect:
	mov	rbx, QWORD PTR [rsp+48]
	add	rsp, 32					; 00000020H
	pop	rdi
	ret	0
??1Sect@CInifile@@QEAA@XZ ENDP				; CInifile::Sect::~Sect
_TEXT	ENDS
; Function compile flags: /Ogtpy
; File C:\Program Files\Microsoft Visual Studio\2022\Community\VC\Tools\MSVC\14.35.32215\include\vector
; File C:\Users\Mahito\Desktop\Night outing\Night-outing\src\xrCore\xrMemory.h
; File C:\Users\Mahito\Desktop\Night outing\Night-outing\src\xrCore\xrMemory_subst_msvc.cpp
; File C:\Program Files\Microsoft Visual Studio\2022\Community\VC\Tools\MSVC\14.35.32215\include\vector
;	COMDAT ?_Tidy@?$vector@UItem@CInifile@@V?$xalloc@UItem@CInifile@@@@@std@@AEAAXXZ
_TEXT	SEGMENT
this$ = 48
?_Tidy@?$vector@UItem@CInifile@@V?$xalloc@UItem@CInifile@@@@@std@@AEAAXXZ PROC ; std::vector<CInifile::Item,xalloc<CInifile::Item> >::_Tidy, COMDAT

; 2098 :     _CONSTEXPR20 void _Tidy() noexcept { // free all storage

$LN29:
	push	rbx
	sub	rsp, 32					; 00000020H
	mov	rbx, rcx

; 2099 :         auto& _Al         = _Getal();
; 2100 :         auto& _My_data    = _Mypair._Myval2;
; 2101 :         pointer& _Myfirst = _My_data._Myfirst;
; 2102 :         pointer& _Mylast  = _My_data._Mylast;
; 2103 :         pointer& _Myend   = _My_data._Myend;
; 2104 : 
; 2105 :         _My_data._Orphan_all();
; 2106 : 
; 2107 :         if (_Myfirst) { // destroy and deallocate old array

	mov	rcx, QWORD PTR [rcx]
	test	rcx, rcx
	je	SHORT $LN2@Tidy

; 2108 :             _Destroy_range(_Myfirst, _Mylast, _Al);

	mov	rdx, QWORD PTR [rbx+8]
	call	??$_Destroy_range@V?$xalloc@UItem@CInifile@@@@@std@@YAXPEAUItem@CInifile@@QEAU12@AEAV?$xalloc@UItem@CInifile@@@@@Z ; std::_Destroy_range<xalloc<CInifile::Item> >

; 2109 :             _ASAN_VECTOR_REMOVE;
; 2110 :             _Al.deallocate(_Myfirst, static_cast<size_type>(_Myend - _Myfirst));

	mov	rcx, QWORD PTR [rbx]
; File C:\Users\Mahito\Desktop\Night outing\Night-outing\src\xrCore\xrMemory.h

; 69   : 	if (P)

	test	rcx, rcx
	je	SHORT $LN7@Tidy
; File C:\Users\Mahito\Desktop\Night outing\Night-outing\src\xrCore\xrMemory_subst_msvc.cpp

; 99   : 	stat_calls++;

	inc	DWORD PTR ?Memory@@3VxrMemory@@A

; 100  : 
; 101  : #ifdef PURE_ALLOC
; 102  : 	if (g_use_pure_alloc)
; 103  : 	{
; 104  : 		//free(P);
; 105  : 		_aligned_free(P);

	call	QWORD PTR __imp__aligned_free
$LN7@Tidy:
; File C:\Program Files\Microsoft Visual Studio\2022\Community\VC\Tools\MSVC\14.35.32215\include\vector

; 2112 :             _Myfirst = nullptr;

	xor	eax, eax
	mov	QWORD PTR [rbx], rax

; 2113 :             _Mylast  = nullptr;

	mov	QWORD PTR [rbx+8], rax

; 2114 :             _Myend   = nullptr;

	mov	QWORD PTR [rbx+16], rax
$LN2@Tidy:

; 2115 :         }
; 2116 :     }

	add	rsp, 32					; 00000020H
	pop	rbx
	ret	0
?_Tidy@?$vector@UItem@CInifile@@V?$xalloc@UItem@CInifile@@@@@std@@AEAAXXZ ENDP ; std::vector<CInifile::Item,xalloc<CInifile::Item> >::_Tidy
_TEXT	ENDS
; Function compile flags: /Ogtpy
; File C:\Program Files\Microsoft Visual Studio\2022\Community\VC\Tools\MSVC\14.35.32215\include\vector
;	COMDAT ??0?$vector@UItem@CInifile@@V?$xalloc@UItem@CInifile@@@@@std@@QEAA@XZ
_TEXT	SEGMENT
this$ = 8
??0?$vector@UItem@CInifile@@V?$xalloc@UItem@CInifile@@@@@std@@QEAA@XZ PROC ; std::vector<CInifile::Item,xalloc<CInifile::Item> >::vector<CInifile::Item,xalloc<CInifile::Item> >, COMDAT

; 390  :     _CONSTEXPR20 _Vector_val() noexcept : _Myfirst(), _Mylast(), _Myend() {}

	xor	eax, eax
	mov	QWORD PTR [rcx], rax
	mov	QWORD PTR [rcx+8], rax
	mov	QWORD PTR [rcx+16], rax

; 674  :         _Mypair._Myval2._Alloc_proxy(_GET_PROXY_ALLOCATOR(_Alty, _Getal()));
; 675  :     }

	mov	rax, rcx
	ret	0
??0?$vector@UItem@CInifile@@V?$xalloc@UItem@CInifile@@@@@std@@QEAA@XZ ENDP ; std::vector<CInifile::Item,xalloc<CInifile::Item> >::vector<CInifile::Item,xalloc<CInifile::Item> >
_TEXT	ENDS
; Function compile flags: /Ogtpy
; File C:\Program Files\Microsoft Visual Studio\2022\Community\VC\Tools\MSVC\14.35.32215\include\xutility
;	COMDAT ??$_Adl_verify_range@V?$_Vector_iterator@V?$_Vector_val@U?$_Simple_types@UItem@CInifile@@@std@@@std@@@std@@V12@@std@@YAXAEBV?$_Vector_iterator@V?$_Vector_val@U?$_Simple_types@UItem@CInifile@@@std@@@std@@@0@0@Z
_TEXT	SEGMENT
_First$dead$ = 8
_Last$dead$ = 16
??$_Adl_verify_range@V?$_Vector_iterator@V?$_Vector_val@U?$_Simple_types@UItem@CInifile@@@std@@@std@@@std@@V12@@std@@YAXAEBV?$_Vector_iterator@V?$_Vector_val@U?$_Simple_types@UItem@CInifile@@@std@@@std@@@0@0@Z PROC ; std::_Adl_verify_range<std::_Vector_iterator<std::_Vector_val<std::_Simple_types<CInifile::Item> > >,std::_Vector_iterator<std::_Vector_val<std::_Simple_types<CInifile::Item> > > >, COMDAT

; 934  :     // check that [_First, _Last) forms an iterator range
; 935  :     if constexpr (_Range_verifiable_v<_Iter, _Sentinel>) {
; 936  :         _Verify_range(_First, _Last);
; 937  :     }
; 938  : }

	ret	0
??$_Adl_verify_range@V?$_Vector_iterator@V?$_Vector_val@U?$_Simple_types@UItem@CInifile@@@std@@@std@@@std@@V12@@std@@YAXAEBV?$_Vector_iterator@V?$_Vector_val@U?$_Simple_types@UItem@CInifile@@@std@@@std@@@0@0@Z ENDP ; std::_Adl_verify_range<std::_Vector_iterator<std::_Vector_val<std::_Simple_types<CInifile::Item> > >,std::_Vector_iterator<std::_Vector_val<std::_Simple_types<CInifile::Item> > > >
_TEXT	ENDS
; Function compile flags: /Ogtpy
; File C:\Program Files\Microsoft Visual Studio\2022\Community\VC\Tools\MSVC\14.35.32215\include\xutility
;	COMDAT ??$distance@PEAUItem@CInifile@@@std@@YA_JPEAUItem@CInifile@@0@Z
_TEXT	SEGMENT
_First$ = 8
_Last$ = 16
??$distance@PEAUItem@CInifile@@@std@@YA_JPEAUItem@CInifile@@0@Z PROC ; std::distance<CInifile::Item *>, COMDAT

; 1206 :     if constexpr (_Is_ranges_random_iter_v<_InIt>) {
; 1207 :         return _Last - _First; // assume the iterator will do debug checking

	sub	rdx, rcx
	mov	rax, -6148914691236517205		; aaaaaaaaaaaaaaabH
	sar	rdx, 3
	imul	rax, rdx

; 1208 :     } else {
; 1209 :         _Adl_verify_range(_First, _Last);
; 1210 :         auto _UFirst             = _Get_unwrapped(_First);
; 1211 :         const auto _ULast        = _Get_unwrapped(_Last);
; 1212 :         _Iter_diff_t<_InIt> _Off = 0;
; 1213 :         for (; _UFirst != _ULast; ++_UFirst) {
; 1214 :             ++_Off;
; 1215 :         }
; 1216 : 
; 1217 :         return _Off;
; 1218 :     }
; 1219 : }

	ret	0
??$distance@PEAUItem@CInifile@@@std@@YA_JPEAUItem@CInifile@@0@Z ENDP ; std::distance<CInifile::Item *>
_TEXT	ENDS
; Function compile flags: /Ogtpy
; File C:\Program Files\Microsoft Visual Studio\2022\Community\VC\Tools\MSVC\14.35.32215\include\xutility
;	COMDAT ??$next@PEAUItem@CInifile@@@std@@YAPEAUItem@CInifile@@PEAU12@_J@Z
_TEXT	SEGMENT
_First$ = 8
_Off$ = 16
??$next@PEAUItem@CInifile@@@std@@YAPEAUItem@CInifile@@PEAU12@_J@Z PROC ; std::next<CInifile::Item *>, COMDAT

; 1179 :         _Where += _Off;

	lea	rax, QWORD PTR [rdx+rdx*2]
	lea	rax, QWORD PTR [rcx+rax*8]

; 1228 :     static_assert(_Is_ranges_input_iter_v<_InIt>, "next requires input iterator");
; 1229 : 
; 1230 :     _STD advance(_First, _Off);
; 1231 :     return _First;
; 1232 : }

	ret	0
??$next@PEAUItem@CInifile@@@std@@YAPEAUItem@CInifile@@PEAU12@_J@Z ENDP ; std::next<CInifile::Item *>
_TEXT	ENDS
; Function compile flags: /Ogtpy
; File C:\Program Files\Microsoft Visual Studio\2022\Community\VC\Tools\MSVC\14.35.32215\include\xutility
;	COMDAT ??$_Next_iter@PEAUItem@CInifile@@@std@@YAPEAUItem@CInifile@@PEAU12@@Z
_TEXT	SEGMENT
_First$ = 8
??$_Next_iter@PEAUItem@CInifile@@@std@@YAPEAUItem@CInifile@@PEAU12@@Z PROC ; std::_Next_iter<CInifile::Item *>, COMDAT

; 1223 :     return ++_First;

	lea	rax, QWORD PTR [rcx+24]

; 1224 : }

	ret	0
??$_Next_iter@PEAUItem@CInifile@@@std@@YAPEAUItem@CInifile@@PEAU12@@Z ENDP ; std::_Next_iter<CInifile::Item *>
_TEXT	ENDS
; Function compile flags: /Ogtpy
; File C:\Program Files\Microsoft Visual Studio\2022\Community\VC\Tools\MSVC\14.35.32215\include\xutility
;	COMDAT ??$_Seek_wrapped@V?$_Vector_iterator@V?$_Vector_val@U?$_Simple_types@UItem@CInifile@@@std@@@std@@@std@@AEAPEAUItem@CInifile@@@std@@YAXAEAV?$_Vector_iterator@V?$_Vector_val@U?$_Simple_types@UItem@CInifile@@@std@@@std@@@0@AEAPEAUItem@CInifile@@@Z
_TEXT	SEGMENT
_It$ = 8
_UIt$ = 16
??$_Seek_wrapped@V?$_Vector_iterator@V?$_Vector_val@U?$_Simple_types@UItem@CInifile@@@std@@@std@@@std@@AEAPEAUItem@CInifile@@@std@@YAXAEAV?$_Vector_iterator@V?$_Vector_val@U?$_Simple_types@UItem@CInifile@@@std@@@std@@@0@AEAPEAUItem@CInifile@@@Z PROC ; std::_Seek_wrapped<std::_Vector_iterator<std::_Vector_val<std::_Simple_types<CInifile::Item> > >,CInifile::Item * &>, COMDAT

; 1057 :     if constexpr (_Wrapped_seekable_v<_Iter, _UIter>) {
; 1058 :         _It._Seek_to(_STD forward<_UIter>(_UIt));

	mov	rax, QWORD PTR [rdx]
	mov	QWORD PTR [rcx], rax

; 1059 :     } else {
; 1060 :         _It = _STD forward<_UIter>(_UIt);
; 1061 :     }
; 1062 : }

	ret	0
??$_Seek_wrapped@V?$_Vector_iterator@V?$_Vector_val@U?$_Simple_types@UItem@CInifile@@@std@@@std@@@std@@AEAPEAUItem@CInifile@@@std@@YAXAEAV?$_Vector_iterator@V?$_Vector_val@U?$_Simple_types@UItem@CInifile@@@std@@@std@@@0@AEAPEAUItem@CInifile@@@Z ENDP ; std::_Seek_wrapped<std::_Vector_iterator<std::_Vector_val<std::_Simple_types<CInifile::Item> > >,CInifile::Item * &>
_TEXT	ENDS
; Function compile flags: /Ogtpy
; File C:\Program Files\Microsoft Visual Studio\2022\Community\VC\Tools\MSVC\14.35.32215\include\xutility
;	COMDAT ??$_Adl_verify_range@V?$_Vector_iterator@V?$_Vector_val@U?$_Simple_types@PEAUSect@CInifile@@@std@@@std@@@std@@V12@@std@@YAXAEBV?$_Vector_iterator@V?$_Vector_val@U?$_Simple_types@PEAUSect@CInifile@@@std@@@std@@@0@0@Z
_TEXT	SEGMENT
_First$dead$ = 8
_Last$dead$ = 16
??$_Adl_verify_range@V?$_Vector_iterator@V?$_Vector_val@U?$_Simple_types@PEAUSect@CInifile@@@std@@@std@@@std@@V12@@std@@YAXAEBV?$_Vector_iterator@V?$_Vector_val@U?$_Simple_types@PEAUSect@CInifile@@@std@@@std@@@0@0@Z PROC ; std::_Adl_verify_range<std::_Vector_iterator<std::_Vector_val<std::_Simple_types<CInifile::Sect *> > >,std::_Vector_iterator<std::_Vector_val<std::_Simple_types<CInifile::Sect *> > > >, COMDAT

; 934  :     // check that [_First, _Last) forms an iterator range
; 935  :     if constexpr (_Range_verifiable_v<_Iter, _Sentinel>) {
; 936  :         _Verify_range(_First, _Last);
; 937  :     }
; 938  : }

	ret	0
??$_Adl_verify_range@V?$_Vector_iterator@V?$_Vector_val@U?$_Simple_types@PEAUSect@CInifile@@@std@@@std@@@std@@V12@@std@@YAXAEBV?$_Vector_iterator@V?$_Vector_val@U?$_Simple_types@PEAUSect@CInifile@@@std@@@std@@@0@0@Z ENDP ; std::_Adl_verify_range<std::_Vector_iterator<std::_Vector_val<std::_Simple_types<CInifile::Sect *> > >,std::_Vector_iterator<std::_Vector_val<std::_Simple_types<CInifile::Sect *> > > >
_TEXT	ENDS
; Function compile flags: /Ogtpy
; File C:\Program Files\Microsoft Visual Studio\2022\Community\VC\Tools\MSVC\14.35.32215\include\xutility
;	COMDAT ??$distance@PEAPEAUSect@CInifile@@@std@@YA_JPEAPEAUSect@CInifile@@0@Z
_TEXT	SEGMENT
_First$ = 8
_Last$ = 16
??$distance@PEAPEAUSect@CInifile@@@std@@YA_JPEAPEAUSect@CInifile@@0@Z PROC ; std::distance<CInifile::Sect * *>, COMDAT

; 1206 :     if constexpr (_Is_ranges_random_iter_v<_InIt>) {
; 1207 :         return _Last - _First; // assume the iterator will do debug checking

	sub	rdx, rcx
	sar	rdx, 3
	mov	rax, rdx

; 1208 :     } else {
; 1209 :         _Adl_verify_range(_First, _Last);
; 1210 :         auto _UFirst             = _Get_unwrapped(_First);
; 1211 :         const auto _ULast        = _Get_unwrapped(_Last);
; 1212 :         _Iter_diff_t<_InIt> _Off = 0;
; 1213 :         for (; _UFirst != _ULast; ++_UFirst) {
; 1214 :             ++_Off;
; 1215 :         }
; 1216 : 
; 1217 :         return _Off;
; 1218 :     }
; 1219 : }

	ret	0
??$distance@PEAPEAUSect@CInifile@@@std@@YA_JPEAPEAUSect@CInifile@@0@Z ENDP ; std::distance<CInifile::Sect * *>
_TEXT	ENDS
; Function compile flags: /Ogtpy
; File C:\Program Files\Microsoft Visual Studio\2022\Community\VC\Tools\MSVC\14.35.32215\include\xutility
;	COMDAT ??$next@PEAPEAUSect@CInifile@@@std@@YAPEAPEAUSect@CInifile@@PEAPEAU12@_J@Z
_TEXT	SEGMENT
_First$ = 8
_Off$ = 16
??$next@PEAPEAUSect@CInifile@@@std@@YAPEAPEAUSect@CInifile@@PEAPEAU12@_J@Z PROC ; std::next<CInifile::Sect * *>, COMDAT

; 1179 :         _Where += _Off;

	lea	rax, QWORD PTR [rcx+rdx*8]

; 1228 :     static_assert(_Is_ranges_input_iter_v<_InIt>, "next requires input iterator");
; 1229 : 
; 1230 :     _STD advance(_First, _Off);
; 1231 :     return _First;
; 1232 : }

	ret	0
??$next@PEAPEAUSect@CInifile@@@std@@YAPEAPEAUSect@CInifile@@PEAPEAU12@_J@Z ENDP ; std::next<CInifile::Sect * *>
_TEXT	ENDS
; Function compile flags: /Ogtpy
; File C:\Program Files\Microsoft Visual Studio\2022\Community\VC\Tools\MSVC\14.35.32215\include\xutility
;	COMDAT ??$_Next_iter@PEAPEAUSect@CInifile@@@std@@YAPEAPEAUSect@CInifile@@PEAPEAU12@@Z
_TEXT	SEGMENT
_First$ = 8
??$_Next_iter@PEAPEAUSect@CInifile@@@std@@YAPEAPEAUSect@CInifile@@PEAPEAU12@@Z PROC ; std::_Next_iter<CInifile::Sect * *>, COMDAT

; 1223 :     return ++_First;

	lea	rax, QWORD PTR [rcx+8]

; 1224 : }

	ret	0
??$_Next_iter@PEAPEAUSect@CInifile@@@std@@YAPEAPEAUSect@CInifile@@PEAPEAU12@@Z ENDP ; std::_Next_iter<CInifile::Sect * *>
_TEXT	ENDS
; Function compile flags: /Ogtpy
; File C:\Program Files\Microsoft Visual Studio\2022\Community\VC\Tools\MSVC\14.35.32215\include\xutility
;	COMDAT ??$_Seek_wrapped@V?$_Vector_iterator@V?$_Vector_val@U?$_Simple_types@PEAUSect@CInifile@@@std@@@std@@@std@@AEAPEAPEAUSect@CInifile@@@std@@YAXAEAV?$_Vector_iterator@V?$_Vector_val@U?$_Simple_types@PEAUSect@CInifile@@@std@@@std@@@0@AEAPEAPEAUSect@CInifile@@@Z
_TEXT	SEGMENT
_It$ = 8
_UIt$ = 16
??$_Seek_wrapped@V?$_Vector_iterator@V?$_Vector_val@U?$_Simple_types@PEAUSect@CInifile@@@std@@@std@@@std@@AEAPEAPEAUSect@CInifile@@@std@@YAXAEAV?$_Vector_iterator@V?$_Vector_val@U?$_Simple_types@PEAUSect@CInifile@@@std@@@std@@@0@AEAPEAPEAUSect@CInifile@@@Z PROC ; std::_Seek_wrapped<std::_Vector_iterator<std::_Vector_val<std::_Simple_types<CInifile::Sect *> > >,CInifile::Sect * * &>, COMDAT

; 1057 :     if constexpr (_Wrapped_seekable_v<_Iter, _UIter>) {
; 1058 :         _It._Seek_to(_STD forward<_UIter>(_UIt));

	mov	rax, QWORD PTR [rdx]
	mov	QWORD PTR [rcx], rax

; 1059 :     } else {
; 1060 :         _It = _STD forward<_UIter>(_UIt);
; 1061 :     }
; 1062 : }

	ret	0
??$_Seek_wrapped@V?$_Vector_iterator@V?$_Vector_val@U?$_Simple_types@PEAUSect@CInifile@@@std@@@std@@@std@@AEAPEAPEAUSect@CInifile@@@std@@YAXAEAV?$_Vector_iterator@V?$_Vector_val@U?$_Simple_types@PEAUSect@CInifile@@@std@@@std@@@0@AEAPEAPEAUSect@CInifile@@@Z ENDP ; std::_Seek_wrapped<std::_Vector_iterator<std::_Vector_val<std::_Simple_types<CInifile::Sect *> > >,CInifile::Sect * * &>
_TEXT	ENDS
; Function compile flags: /Ogtpy
; File C:\Program Files\Microsoft Visual Studio\2022\Community\VC\Tools\MSVC\14.35.32215\include\xutility
;	COMDAT ??$_Adl_verify_range@V?$_Vector_const_iterator@V?$_Vector_val@U?$_Simple_types@PEAUSect@CInifile@@@std@@@std@@@std@@V12@@std@@YAXAEBV?$_Vector_const_iterator@V?$_Vector_val@U?$_Simple_types@PEAUSect@CInifile@@@std@@@std@@@0@0@Z
_TEXT	SEGMENT
_First$dead$ = 8
_Last$dead$ = 16
??$_Adl_verify_range@V?$_Vector_const_iterator@V?$_Vector_val@U?$_Simple_types@PEAUSect@CInifile@@@std@@@std@@@std@@V12@@std@@YAXAEBV?$_Vector_const_iterator@V?$_Vector_val@U?$_Simple_types@PEAUSect@CInifile@@@std@@@std@@@0@0@Z PROC ; std::_Adl_verify_range<std::_Vector_const_iterator<std::_Vector_val<std::_Simple_types<CInifile::Sect *> > >,std::_Vector_const_iterator<std::_Vector_val<std::_Simple_types<CInifile::Sect *> > > >, COMDAT

; 934  :     // check that [_First, _Last) forms an iterator range
; 935  :     if constexpr (_Range_verifiable_v<_Iter, _Sentinel>) {
; 936  :         _Verify_range(_First, _Last);
; 937  :     }
; 938  : }

	ret	0
??$_Adl_verify_range@V?$_Vector_const_iterator@V?$_Vector_val@U?$_Simple_types@PEAUSect@CInifile@@@std@@@std@@@std@@V12@@std@@YAXAEBV?$_Vector_const_iterator@V?$_Vector_val@U?$_Simple_types@PEAUSect@CInifile@@@std@@@std@@@0@0@Z ENDP ; std::_Adl_verify_range<std::_Vector_const_iterator<std::_Vector_val<std::_Simple_types<CInifile::Sect *> > >,std::_Vector_const_iterator<std::_Vector_val<std::_Simple_types<CInifile::Sect *> > > >
_TEXT	ENDS
; Function compile flags: /Ogtpy
; File C:\Program Files\Microsoft Visual Studio\2022\Community\VC\Tools\MSVC\14.35.32215\include\xutility
;	COMDAT ??$distance@PEBQEAUSect@CInifile@@@std@@YA_JPEBQEAUSect@CInifile@@0@Z
_TEXT	SEGMENT
_First$ = 8
_Last$ = 16
??$distance@PEBQEAUSect@CInifile@@@std@@YA_JPEBQEAUSect@CInifile@@0@Z PROC ; std::distance<CInifile::Sect * const *>, COMDAT

; 1206 :     if constexpr (_Is_ranges_random_iter_v<_InIt>) {
; 1207 :         return _Last - _First; // assume the iterator will do debug checking

	sub	rdx, rcx
	sar	rdx, 3
	mov	rax, rdx

; 1208 :     } else {
; 1209 :         _Adl_verify_range(_First, _Last);
; 1210 :         auto _UFirst             = _Get_unwrapped(_First);
; 1211 :         const auto _ULast        = _Get_unwrapped(_Last);
; 1212 :         _Iter_diff_t<_InIt> _Off = 0;
; 1213 :         for (; _UFirst != _ULast; ++_UFirst) {
; 1214 :             ++_Off;
; 1215 :         }
; 1216 : 
; 1217 :         return _Off;
; 1218 :     }
; 1219 : }

	ret	0
??$distance@PEBQEAUSect@CInifile@@@std@@YA_JPEBQEAUSect@CInifile@@0@Z ENDP ; std::distance<CInifile::Sect * const *>
_TEXT	ENDS
; Function compile flags: /Ogtpy
; File C:\Program Files\Microsoft Visual Studio\2022\Community\VC\Tools\MSVC\14.35.32215\include\xutility
;	COMDAT ??$next@PEBQEAUSect@CInifile@@@std@@YAPEBQEAUSect@CInifile@@PEBQEAU12@_J@Z
_TEXT	SEGMENT
_First$ = 8
_Off$ = 16
??$next@PEBQEAUSect@CInifile@@@std@@YAPEBQEAUSect@CInifile@@PEBQEAU12@_J@Z PROC ; std::next<CInifile::Sect * const *>, COMDAT

; 1179 :         _Where += _Off;

	lea	rax, QWORD PTR [rcx+rdx*8]

; 1228 :     static_assert(_Is_ranges_input_iter_v<_InIt>, "next requires input iterator");
; 1229 : 
; 1230 :     _STD advance(_First, _Off);
; 1231 :     return _First;
; 1232 : }

	ret	0
??$next@PEBQEAUSect@CInifile@@@std@@YAPEBQEAUSect@CInifile@@PEBQEAU12@_J@Z ENDP ; std::next<CInifile::Sect * const *>
_TEXT	ENDS
; Function compile flags: /Ogtpy
; File C:\Program Files\Microsoft Visual Studio\2022\Community\VC\Tools\MSVC\14.35.32215\include\xutility
;	COMDAT ??$_Next_iter@PEBQEAUSect@CInifile@@@std@@YAPEBQEAUSect@CInifile@@PEBQEAU12@@Z
_TEXT	SEGMENT
_First$ = 8
??$_Next_iter@PEBQEAUSect@CInifile@@@std@@YAPEBQEAUSect@CInifile@@PEBQEAU12@@Z PROC ; std::_Next_iter<CInifile::Sect * const *>, COMDAT

; 1223 :     return ++_First;

	lea	rax, QWORD PTR [rcx+8]

; 1224 : }

	ret	0
??$_Next_iter@PEBQEAUSect@CInifile@@@std@@YAPEBQEAUSect@CInifile@@PEBQEAU12@@Z ENDP ; std::_Next_iter<CInifile::Sect * const *>
_TEXT	ENDS
; Function compile flags: /Ogtpy
; File C:\Program Files\Microsoft Visual Studio\2022\Community\VC\Tools\MSVC\14.35.32215\include\xutility
;	COMDAT ??$_Seek_wrapped@V?$_Vector_const_iterator@V?$_Vector_val@U?$_Simple_types@PEAUSect@CInifile@@@std@@@std@@@std@@AEAPEBQEAUSect@CInifile@@@std@@YAXAEAV?$_Vector_const_iterator@V?$_Vector_val@U?$_Simple_types@PEAUSect@CInifile@@@std@@@std@@@0@AEAPEBQEAUSect@CInifile@@@Z
_TEXT	SEGMENT
_It$ = 8
_UIt$ = 16
??$_Seek_wrapped@V?$_Vector_const_iterator@V?$_Vector_val@U?$_Simple_types@PEAUSect@CInifile@@@std@@@std@@@std@@AEAPEBQEAUSect@CInifile@@@std@@YAXAEAV?$_Vector_const_iterator@V?$_Vector_val@U?$_Simple_types@PEAUSect@CInifile@@@std@@@std@@@0@AEAPEBQEAUSect@CInifile@@@Z PROC ; std::_Seek_wrapped<std::_Vector_const_iterator<std::_Vector_val<std::_Simple_types<CInifile::Sect *> > >,CInifile::Sect * const * &>, COMDAT

; 1057 :     if constexpr (_Wrapped_seekable_v<_Iter, _UIter>) {
; 1058 :         _It._Seek_to(_STD forward<_UIter>(_UIt));

	mov	rax, QWORD PTR [rdx]
	mov	QWORD PTR [rcx], rax

; 1059 :     } else {
; 1060 :         _It = _STD forward<_UIter>(_UIt);
; 1061 :     }
; 1062 : }

	ret	0
??$_Seek_wrapped@V?$_Vector_const_iterator@V?$_Vector_val@U?$_Simple_types@PEAUSect@CInifile@@@std@@@std@@@std@@AEAPEBQEAUSect@CInifile@@@std@@YAXAEAV?$_Vector_const_iterator@V?$_Vector_val@U?$_Simple_types@PEAUSect@CInifile@@@std@@@std@@@0@AEAPEBQEAUSect@CInifile@@@Z ENDP ; std::_Seek_wrapped<std::_Vector_const_iterator<std::_Vector_val<std::_Simple_types<CInifile::Sect *> > >,CInifile::Sect * const * &>
_TEXT	ENDS
; Function compile flags: /Ogtpy
; File C:\Program Files\Microsoft Visual Studio\2022\Community\VC\Tools\MSVC\14.35.32215\include\xutility
;	COMDAT ??$_Adl_verify_range@V?$_Vector_const_iterator@V?$_Vector_val@U?$_Simple_types@UItem@CInifile@@@std@@@std@@@std@@V12@@std@@YAXAEBV?$_Vector_const_iterator@V?$_Vector_val@U?$_Simple_types@UItem@CInifile@@@std@@@std@@@0@0@Z
_TEXT	SEGMENT
_First$dead$ = 8
_Last$dead$ = 16
??$_Adl_verify_range@V?$_Vector_const_iterator@V?$_Vector_val@U?$_Simple_types@UItem@CInifile@@@std@@@std@@@std@@V12@@std@@YAXAEBV?$_Vector_const_iterator@V?$_Vector_val@U?$_Simple_types@UItem@CInifile@@@std@@@std@@@0@0@Z PROC ; std::_Adl_verify_range<std::_Vector_const_iterator<std::_Vector_val<std::_Simple_types<CInifile::Item> > >,std::_Vector_const_iterator<std::_Vector_val<std::_Simple_types<CInifile::Item> > > >, COMDAT

; 934  :     // check that [_First, _Last) forms an iterator range
; 935  :     if constexpr (_Range_verifiable_v<_Iter, _Sentinel>) {
; 936  :         _Verify_range(_First, _Last);
; 937  :     }
; 938  : }

	ret	0
??$_Adl_verify_range@V?$_Vector_const_iterator@V?$_Vector_val@U?$_Simple_types@UItem@CInifile@@@std@@@std@@@std@@V12@@std@@YAXAEBV?$_Vector_const_iterator@V?$_Vector_val@U?$_Simple_types@UItem@CInifile@@@std@@@std@@@0@0@Z ENDP ; std::_Adl_verify_range<std::_Vector_const_iterator<std::_Vector_val<std::_Simple_types<CInifile::Item> > >,std::_Vector_const_iterator<std::_Vector_val<std::_Simple_types<CInifile::Item> > > >
_TEXT	ENDS
; Function compile flags: /Ogtpy
; File C:\Program Files\Microsoft Visual Studio\2022\Community\VC\Tools\MSVC\14.35.32215\include\xutility
;	COMDAT ??$distance@PEBUItem@CInifile@@@std@@YA_JPEBUItem@CInifile@@0@Z
_TEXT	SEGMENT
_First$ = 8
_Last$ = 16
??$distance@PEBUItem@CInifile@@@std@@YA_JPEBUItem@CInifile@@0@Z PROC ; std::distance<CInifile::Item const *>, COMDAT

; 1206 :     if constexpr (_Is_ranges_random_iter_v<_InIt>) {
; 1207 :         return _Last - _First; // assume the iterator will do debug checking

	sub	rdx, rcx
	mov	rax, -6148914691236517205		; aaaaaaaaaaaaaaabH
	sar	rdx, 3
	imul	rax, rdx

; 1208 :     } else {
; 1209 :         _Adl_verify_range(_First, _Last);
; 1210 :         auto _UFirst             = _Get_unwrapped(_First);
; 1211 :         const auto _ULast        = _Get_unwrapped(_Last);
; 1212 :         _Iter_diff_t<_InIt> _Off = 0;
; 1213 :         for (; _UFirst != _ULast; ++_UFirst) {
; 1214 :             ++_Off;
; 1215 :         }
; 1216 : 
; 1217 :         return _Off;
; 1218 :     }
; 1219 : }

	ret	0
??$distance@PEBUItem@CInifile@@@std@@YA_JPEBUItem@CInifile@@0@Z ENDP ; std::distance<CInifile::Item const *>
_TEXT	ENDS
; Function compile flags: /Ogtpy
; File C:\Program Files\Microsoft Visual Studio\2022\Community\VC\Tools\MSVC\14.35.32215\include\xutility
;	COMDAT ??$next@PEBUItem@CInifile@@@std@@YAPEBUItem@CInifile@@PEBU12@_J@Z
_TEXT	SEGMENT
_First$ = 8
_Off$ = 16
??$next@PEBUItem@CInifile@@@std@@YAPEBUItem@CInifile@@PEBU12@_J@Z PROC ; std::next<CInifile::Item const *>, COMDAT

; 1179 :         _Where += _Off;

	lea	rax, QWORD PTR [rdx+rdx*2]
	lea	rax, QWORD PTR [rcx+rax*8]

; 1228 :     static_assert(_Is_ranges_input_iter_v<_InIt>, "next requires input iterator");
; 1229 : 
; 1230 :     _STD advance(_First, _Off);
; 1231 :     return _First;
; 1232 : }

	ret	0
??$next@PEBUItem@CInifile@@@std@@YAPEBUItem@CInifile@@PEBU12@_J@Z ENDP ; std::next<CInifile::Item const *>
_TEXT	ENDS
; Function compile flags: /Ogtpy
; File C:\Program Files\Microsoft Visual Studio\2022\Community\VC\Tools\MSVC\14.35.32215\include\xutility
;	COMDAT ??$_Next_iter@PEBUItem@CInifile@@@std@@YAPEBUItem@CInifile@@PEBU12@@Z
_TEXT	SEGMENT
_First$ = 8
??$_Next_iter@PEBUItem@CInifile@@@std@@YAPEBUItem@CInifile@@PEBU12@@Z PROC ; std::_Next_iter<CInifile::Item const *>, COMDAT

; 1223 :     return ++_First;

	lea	rax, QWORD PTR [rcx+24]

; 1224 : }

	ret	0
??$_Next_iter@PEBUItem@CInifile@@@std@@YAPEBUItem@CInifile@@PEBU12@@Z ENDP ; std::_Next_iter<CInifile::Item const *>
_TEXT	ENDS
; Function compile flags: /Ogtpy
; File C:\Program Files\Microsoft Visual Studio\2022\Community\VC\Tools\MSVC\14.35.32215\include\xutility
;	COMDAT ??$_Seek_wrapped@V?$_Vector_const_iterator@V?$_Vector_val@U?$_Simple_types@UItem@CInifile@@@std@@@std@@@std@@AEAPEBUItem@CInifile@@@std@@YAXAEAV?$_Vector_const_iterator@V?$_Vector_val@U?$_Simple_types@UItem@CInifile@@@std@@@std@@@0@AEAPEBUItem@CInifile@@@Z
_TEXT	SEGMENT
_It$ = 8
_UIt$ = 16
??$_Seek_wrapped@V?$_Vector_const_iterator@V?$_Vector_val@U?$_Simple_types@UItem@CInifile@@@std@@@std@@@std@@AEAPEBUItem@CInifile@@@std@@YAXAEAV?$_Vector_const_iterator@V?$_Vector_val@U?$_Simple_types@UItem@CInifile@@@std@@@std@@@0@AEAPEBUItem@CInifile@@@Z PROC ; std::_Seek_wrapped<std::_Vector_const_iterator<std::_Vector_val<std::_Simple_types<CInifile::Item> > >,CInifile::Item const * &>, COMDAT

; 1057 :     if constexpr (_Wrapped_seekable_v<_Iter, _UIter>) {
; 1058 :         _It._Seek_to(_STD forward<_UIter>(_UIt));

	mov	rax, QWORD PTR [rdx]
	mov	QWORD PTR [rcx], rax

; 1059 :     } else {
; 1060 :         _It = _STD forward<_UIter>(_UIt);
; 1061 :     }
; 1062 : }

	ret	0
??$_Seek_wrapped@V?$_Vector_const_iterator@V?$_Vector_val@U?$_Simple_types@UItem@CInifile@@@std@@@std@@@std@@AEAPEBUItem@CInifile@@@std@@YAXAEAV?$_Vector_const_iterator@V?$_Vector_val@U?$_Simple_types@UItem@CInifile@@@std@@@std@@@0@AEAPEBUItem@CInifile@@@Z ENDP ; std::_Seek_wrapped<std::_Vector_const_iterator<std::_Vector_val<std::_Simple_types<CInifile::Item> > >,CInifile::Item const * &>
_TEXT	ENDS
; Function compile flags: /Ogtpy
; File C:\Program Files\Microsoft Visual Studio\2022\Community\VC\Tools\MSVC\14.35.32215\include\type_traits
;	COMDAT ??$forward@AEBQEAUSect@CInifile@@@std@@YAAEBQEAUSect@CInifile@@AEBQEAU12@@Z
_TEXT	SEGMENT
_Arg$ = 8
??$forward@AEBQEAUSect@CInifile@@@std@@YAAEBQEAUSect@CInifile@@AEBQEAU12@@Z PROC ; std::forward<CInifile::Sect * const &>, COMDAT

; 1427 :     return static_cast<_Ty&&>(_Arg);

	mov	rax, rcx

; 1428 : }

	ret	0
??$forward@AEBQEAUSect@CInifile@@@std@@YAAEBQEAUSect@CInifile@@AEBQEAU12@@Z ENDP ; std::forward<CInifile::Sect * const &>
_TEXT	ENDS
; Function compile flags: /Ogtpy
; File C:\Program Files\Microsoft Visual Studio\2022\Community\VC\Tools\MSVC\14.35.32215\include\vector
;	COMDAT ??$_Emplace_back_with_unused_capacity@AEBQEAUSect@CInifile@@@?$vector@PEAUSect@CInifile@@V?$xalloc@PEAUSect@CInifile@@@@@std@@AEAAAEAPEAUSect@CInifile@@AEBQEAU23@@Z
_TEXT	SEGMENT
this$ = 8
<_Val_0>$ = 16
??$_Emplace_back_with_unused_capacity@AEBQEAUSect@CInifile@@@?$vector@PEAUSect@CInifile@@V?$xalloc@PEAUSect@CInifile@@@@@std@@AEAAAEAPEAUSect@CInifile@@AEBQEAU23@@Z PROC ; std::vector<CInifile::Sect *,xalloc<CInifile::Sect *> >::_Emplace_back_with_unused_capacity<CInifile::Sect * const &>, COMDAT

; 853  :         // insert by perfectly forwarding into element at end, provide strong guarantee
; 854  :         auto& _My_data   = _Mypair._Myval2;
; 855  :         pointer& _Mylast = _My_data._Mylast;
; 856  :         _STL_INTERNAL_CHECK(_Mylast != _My_data._Myend); // check that we have unused capacity
; 857  :         if constexpr (conjunction_v<is_nothrow_constructible<_Ty, _Valty...>,
; 858  :                           _Uses_default_construct<_Alloc, _Ty*, _Valty...>>) {
; 859  :             _ASAN_VECTOR_MODIFY(1);
; 860  :             _Construct_in_place(*_Mylast, _STD forward<_Valty>(_Val)...);
; 861  :         } else {
; 862  :             _ASAN_VECTOR_EXTEND_GUARD(static_cast<size_type>(_Mylast - _My_data._Myfirst) + 1);
; 863  :             _Alty_traits::construct(_Getal(), _Unfancy(_Mylast), _STD forward<_Valty>(_Val)...);

	mov	rax, QWORD PTR [rdx]
	mov	r8, QWORD PTR [rcx+8]
	mov	QWORD PTR [r8], rax

; 864  :             _ASAN_VECTOR_RELEASE_GUARD;
; 865  :         }
; 866  : 
; 867  :         _Orphan_range(_Mylast, _Mylast);
; 868  :         _Ty& _Result = *_Mylast;

	mov	rax, QWORD PTR [rcx+8]

; 869  :         ++_Mylast;

	lea	rdx, QWORD PTR [rax+8]
	mov	QWORD PTR [rcx+8], rdx

; 870  : 
; 871  :         return _Result;
; 872  :     }

	ret	0
??$_Emplace_back_with_unused_capacity@AEBQEAUSect@CInifile@@@?$vector@PEAUSect@CInifile@@V?$xalloc@PEAUSect@CInifile@@@@@std@@AEAAAEAPEAUSect@CInifile@@AEBQEAU23@@Z ENDP ; std::vector<CInifile::Sect *,xalloc<CInifile::Sect *> >::_Emplace_back_with_unused_capacity<CInifile::Sect * const &>
_TEXT	ENDS
; Function compile flags: /Ogtpy
; File C:\Program Files\Microsoft Visual Studio\2022\Community\VC\Tools\MSVC\14.35.32215\include\xmemory
;	COMDAT ??$?0AEBQEAUSect@CInifile@@@?$_Alloc_temporary2@V?$xalloc@PEAUSect@CInifile@@@@@std@@QEAA@AEAV?$xalloc@PEAUSect@CInifile@@@@AEBQEAUSect@CInifile@@@Z
_TEXT	SEGMENT
this$ = 8
_Al_$ = 16
<_Vals_0>$ = 24
??$?0AEBQEAUSect@CInifile@@@?$_Alloc_temporary2@V?$xalloc@PEAUSect@CInifile@@@@@std@@QEAA@AEAV?$xalloc@PEAUSect@CInifile@@@@AEBQEAUSect@CInifile@@@Z PROC ; std::_Alloc_temporary2<xalloc<CInifile::Sect *> >::_Alloc_temporary2<xalloc<CInifile::Sect *> ><CInifile::Sect * const &>, COMDAT

; 2019 :         : _Al(_Al_) {

	mov	QWORD PTR [rcx], rdx

; 2020 :         _Traits::construct(_Al, _STD addressof(_Get_value()), _STD forward<_Args>(_Vals)...);

	mov	rax, QWORD PTR [r8]
	mov	QWORD PTR [rcx+8], rax

; 2021 :     }

	mov	rax, rcx
	ret	0
??$?0AEBQEAUSect@CInifile@@@?$_Alloc_temporary2@V?$xalloc@PEAUSect@CInifile@@@@@std@@QEAA@AEAV?$xalloc@PEAUSect@CInifile@@@@AEBQEAUSect@CInifile@@@Z ENDP ; std::_Alloc_temporary2<xalloc<CInifile::Sect *> >::_Alloc_temporary2<xalloc<CInifile::Sect *> ><CInifile::Sect * const &>
_TEXT	ENDS
; Function compile flags: /Ogtpy
; File C:\Program Files\Microsoft Visual Studio\2022\Community\VC\Tools\MSVC\14.35.32215\include\xstddef
;	COMDAT ??$addressof@PEAUSect@CInifile@@@std@@YAPEAPEAUSect@CInifile@@AEAPEAU12@@Z
_TEXT	SEGMENT
_Val$ = 8
??$addressof@PEAUSect@CInifile@@@std@@YAPEAPEAUSect@CInifile@@AEAPEAU12@@Z PROC ; std::addressof<CInifile::Sect *>, COMDAT

; 281  :     return __builtin_addressof(_Val);

	mov	rax, rcx

; 282  : }

	ret	0
??$addressof@PEAUSect@CInifile@@@std@@YAPEAPEAUSect@CInifile@@AEAPEAU12@@Z ENDP ; std::addressof<CInifile::Sect *>
_TEXT	ENDS
; Function compile flags: /Ogtpy
; File C:\Program Files\Microsoft Visual Studio\2022\Community\VC\Tools\MSVC\14.35.32215\include\xstddef
;	COMDAT ??$_Unfancy@PEAUSect@CInifile@@@std@@YAPEAPEAUSect@CInifile@@PEAPEAU12@@Z
_TEXT	SEGMENT
_Ptr$ = 8
??$_Unfancy@PEAUSect@CInifile@@@std@@YAPEAPEAUSect@CInifile@@PEAPEAU12@@Z PROC ; std::_Unfancy<CInifile::Sect *>, COMDAT

; 294  :     return _Ptr;

	mov	rax, rcx

; 295  : }

	ret	0
??$_Unfancy@PEAUSect@CInifile@@@std@@YAPEAPEAUSect@CInifile@@PEAPEAU12@@Z ENDP ; std::_Unfancy<CInifile::Sect *>
_TEXT	ENDS
; Function compile flags: /Ogtpy
; File C:\Program Files\Microsoft Visual Studio\2022\Community\VC\Tools\MSVC\14.35.32215\include\type_traits
;	COMDAT ??$move@AEAPEAUSect@CInifile@@@std@@YA$$QEAPEAUSect@CInifile@@AEAPEAU12@@Z
_TEXT	SEGMENT
_Arg$ = 8
??$move@AEAPEAUSect@CInifile@@@std@@YA$$QEAPEAUSect@CInifile@@AEAPEAU12@@Z PROC ; std::move<CInifile::Sect * &>, COMDAT

; 1438 :     return static_cast<remove_reference_t<_Ty>&&>(_Arg);

	mov	rax, rcx

; 1439 : }

	ret	0
??$move@AEAPEAUSect@CInifile@@@std@@YA$$QEAPEAUSect@CInifile@@AEAPEAU12@@Z ENDP ; std::move<CInifile::Sect * &>
_TEXT	ENDS
; Function compile flags: /Ogtpy
; File C:\Program Files\Microsoft Visual Studio\2022\Community\VC\Tools\MSVC\14.35.32215\include\xmemory
;	COMDAT ??$construct@PEAUSect@CInifile@@PEAU12@@?$_Normal_allocator_traits@V?$xalloc@PEAUSect@CInifile@@@@@std@@SAXAEAV?$xalloc@PEAUSect@CInifile@@@@PEAPEAUSect@CInifile@@$$QEAPEAU34@@Z
_TEXT	SEGMENT
_Al$dead$ = 8
_Ptr$ = 16
<_Args_0>$ = 24
??$construct@PEAUSect@CInifile@@PEAU12@@?$_Normal_allocator_traits@V?$xalloc@PEAUSect@CInifile@@@@@std@@SAXAEAV?$xalloc@PEAUSect@CInifile@@@@PEAPEAUSect@CInifile@@$$QEAPEAU34@@Z PROC ; std::_Normal_allocator_traits<xalloc<CInifile::Sect *> >::construct<CInifile::Sect *,CInifile::Sect *>, COMDAT

; 565  :         if constexpr (_Uses_default_construct<_Alloc, _Ty*, _Types...>::value) {
; 566  : #if _HAS_CXX20
; 567  :             _STD construct_at(_Ptr, _STD forward<_Types>(_Args)...);
; 568  : #else // _HAS_CXX20
; 569  :             ::new (static_cast<void*>(_Ptr)) _Ty(_STD forward<_Types>(_Args)...);
; 570  : #endif // _HAS_CXX20
; 571  :         } else {
; 572  :             _Al.construct(_Ptr, _STD forward<_Types>(_Args)...);

	mov	rax, QWORD PTR [r8]
	mov	QWORD PTR [rdx], rax

; 573  :         }
; 574  :     }

	ret	0
??$construct@PEAUSect@CInifile@@PEAU12@@?$_Normal_allocator_traits@V?$xalloc@PEAUSect@CInifile@@@@@std@@SAXAEAV?$xalloc@PEAUSect@CInifile@@@@PEAPEAUSect@CInifile@@$$QEAPEAU34@@Z ENDP ; std::_Normal_allocator_traits<xalloc<CInifile::Sect *> >::construct<CInifile::Sect *,CInifile::Sect *>
_TEXT	ENDS
; Function compile flags: /Ogtpy
; File C:\Program Files\Microsoft Visual Studio\2022\Community\VC\Tools\MSVC\14.35.32215\include\xutility
;	COMDAT ??$_Move_backward_unchecked@PEAPEAUSect@CInifile@@PEAPEAU12@@std@@YAPEAPEAUSect@CInifile@@PEAPEAU12@00@Z
_TEXT	SEGMENT
_First$ = 8
_Last$ = 16
_Dest$ = 24
??$_Move_backward_unchecked@PEAPEAUSect@CInifile@@PEAPEAU12@@std@@YAPEAPEAUSect@CInifile@@PEAPEAU12@00@Z PROC ; std::_Move_backward_unchecked<CInifile::Sect * *,CInifile::Sect * *>, COMDAT

; 4546 :     const auto _Count           = static_cast<size_t>(_Last_ch - _First_ch);

	sub	rdx, rcx

; 4633 : _CONSTEXPR20 _BidIt2 _Move_backward_unchecked(_BidIt1 _First, _BidIt1 _Last, _BidIt2 _Dest) {

	mov	rax, r8

; 4547 :     auto _Result                = _CSTD memmove(_Dest_ch - _Count, _First_ch, _Count);

	sub	rax, rdx
	mov	r8, rdx
	mov	rdx, rcx
	mov	rcx, rax
	jmp	memmove
??$_Move_backward_unchecked@PEAPEAUSect@CInifile@@PEAPEAU12@@std@@YAPEAPEAUSect@CInifile@@PEAPEAU12@00@Z ENDP ; std::_Move_backward_unchecked<CInifile::Sect * *,CInifile::Sect * *>
_TEXT	ENDS
; Function compile flags: /Ogtpy
; File C:\Program Files\Microsoft Visual Studio\2022\Community\VC\Tools\MSVC\14.35.32215\include\vector
; File C:\Users\Mahito\Desktop\Night outing\Night-outing\src\xrCore\xrMemory.h
; File C:\Users\Mahito\Desktop\Night outing\Night-outing\src\xrCore\xrMemory_subst_msvc.cpp
; File C:\Program Files\Microsoft Visual Studio\2022\Community\VC\Tools\MSVC\14.35.32215\include\vector
; File C:\Program Files\Microsoft Visual Studio\2022\Community\VC\Tools\MSVC\14.35.32215\include\xmemory
; File C:\Program Files\Microsoft Visual Studio\2022\Community\VC\Tools\MSVC\14.35.32215\include\vector
; File C:\Program Files\Microsoft Visual Studio\2022\Community\VC\Tools\MSVC\14.35.32215\include\xmemory
; File C:\Program Files\Microsoft Visual Studio\2022\Community\VC\Tools\MSVC\14.35.32215\include\vector
; File C:\Program Files\Microsoft Visual Studio\2022\Community\VC\Tools\MSVC\14.35.32215\include\xmemory
; File C:\Program Files\Microsoft Visual Studio\2022\Community\VC\Tools\MSVC\14.35.32215\include\vector
; File C:\Users\Mahito\Desktop\Night outing\Night-outing\src\xrCore\xrMemory_subst_msvc.cpp
; File C:\Program Files\Microsoft Visual Studio\2022\Community\VC\Tools\MSVC\14.35.32215\include\vector
;	COMDAT ??$_Emplace_reallocate@AEBQEAUSect@CInifile@@@?$vector@PEAUSect@CInifile@@V?$xalloc@PEAUSect@CInifile@@@@@std@@AEAAPEAPEAUSect@CInifile@@QEAPEAU23@AEBQEAU23@@Z
_TEXT	SEGMENT
_UFirst$1 = 32
_UFirst$2 = 40
_UFirst$3 = 48
_Backout$4 = 56
_Backout$5 = 80
_Backout$6 = 104
_Newsize$1$ = 176
this$ = 176
_Newvec$ = 184
_Whereptr$ = 184
<_Val_0>$ = 192
??$_Emplace_reallocate@AEBQEAUSect@CInifile@@@?$vector@PEAUSect@CInifile@@V?$xalloc@PEAUSect@CInifile@@@@@std@@AEAAPEAPEAUSect@CInifile@@QEAPEAU23@AEBQEAU23@@Z PROC ; std::vector<CInifile::Sect *,xalloc<CInifile::Sect *> >::_Emplace_reallocate<CInifile::Sect * const &>, COMDAT

; 875  :     _CONSTEXPR20 pointer _Emplace_reallocate(const pointer _Whereptr, _Valty&&... _Val) {

$LN123:
	mov	QWORD PTR [rsp+24], rbx
	mov	QWORD PTR [rsp+32], rsi
	push	rdi
	push	r12
	push	r13
	push	r14
	push	r15
	sub	rsp, 128				; 00000080H
	mov	r12, r8
	mov	rbx, rdx
	mov	r14, rcx

; 876  :         // reallocate and insert by perfectly forwarding _Val at _Whereptr
; 877  :         _Alty& _Al        = _Getal();
; 878  :         auto& _My_data    = _Mypair._Myval2;
; 879  :         pointer& _Myfirst = _My_data._Myfirst;
; 880  :         pointer& _Mylast  = _My_data._Mylast;
; 881  : 
; 882  :         _STL_INTERNAL_CHECK(_Mylast == _My_data._Myend); // check that we have no unused capacity
; 883  : 
; 884  :         const auto _Whereoff = static_cast<size_type>(_Whereptr - _Myfirst);

	mov	rdx, QWORD PTR [rcx]
	mov	r15, rbx
	sub	r15, rdx
	sar	r15, 3

; 885  :         const auto _Oldsize  = static_cast<size_type>(_Mylast - _Myfirst);

	mov	rax, QWORD PTR [rcx+8]
	sub	rax, rdx
	sar	rax, 3

; 886  : 
; 887  :         if (_Oldsize == max_size()) {

	mov	r13, 2305843009213693951		; 1fffffffffffffffH
	cmp	rax, r13
	je	$LN122@Emplace_re

; 889  :         }
; 890  : 
; 891  :         const size_type _Newsize     = _Oldsize + 1;

	lea	r8, QWORD PTR [rax+1]
	mov	QWORD PTR _Newsize$1$[rsp], r8

; 1942 :         return static_cast<size_type>(_My_data._Myend - _My_data._Myfirst);

	mov	rcx, QWORD PTR [rcx+16]
	sub	rcx, rdx
	sar	rcx, 3

; 2029 :         if (_Oldcapacity > _Max - _Oldcapacity / 2) {

	mov	rdx, rcx
	shr	rdx, 1
	mov	rax, r13
	sub	rax, rdx
	cmp	rcx, rax
	ja	SHORT $LN13@Emplace_re

; 2030 :             return _Max; // geometric growth would overflow
; 2031 :         }
; 2032 : 
; 2033 :         const size_type _Geometric = _Oldcapacity + _Oldcapacity / 2;

	lea	r13, QWORD PTR [rdx+rcx]

; 2034 : 
; 2035 :         if (_Geometric < _Newsize) {

	cmp	r13, r8
	cmovb	r13, r8
$LN13@Emplace_re:
; File C:\Users\Mahito\Desktop\Night outing\Night-outing\src\xrCore\xrMemory.h

; 64   : IC T* xr_alloc(u32 count) { return (T*)Memory.mem_alloc(count * sizeof(T)); }

	mov	esi, r13d
	shl	rsi, 3
; File C:\Users\Mahito\Desktop\Night outing\Night-outing\src\xrCore\xrMemory_subst_msvc.cpp

; 39   : 	stat_calls++;

	inc	DWORD PTR ?Memory@@3VxrMemory@@A

; 40   : 
; 41   : #ifdef PURE_ALLOC
; 42   : 	if (g_use_pure_alloc)
; 43   : 	{
; 44   : 		//void* result = malloc(size);
; 45   : 		void* result = _aligned_malloc(size, PURE_MEMORY_ALIGNMENT);

	mov	edx, 16
	mov	rcx, rsi
	call	QWORD PTR __imp__aligned_malloc
	mov	rdi, rax

; 46   : #ifdef PURE_MEMORY_FILL_ZERO
; 47   : 		if (result)

	test	rax, rax
	je	SHORT $LN23@Emplace_re

; 48   : 			memset(result, 0, size);

	mov	r8, rsi
	xor	edx, edx
	mov	rcx, rax
	call	memset
$LN23@Emplace_re:
; File C:\Program Files\Microsoft Visual Studio\2022\Community\VC\Tools\MSVC\14.35.32215\include\vector

; 894  :         const pointer _Newvec           = _Al.allocate(_Newcapacity);

	mov	QWORD PTR _Newvec$[rsp], rdi

; 895  :         const pointer _Constructed_last = _Newvec + _Whereoff + 1;
; 896  :         pointer _Constructed_first      = _Constructed_last;
; 897  : 
; 898  :         _TRY_BEGIN
; 899  :         _Alty_traits::construct(_Al, _Unfancy(_Newvec + _Whereoff), _STD forward<_Valty>(_Val)...);

	lea	rsi, QWORD PTR [rdi+r15*8]
	mov	rax, QWORD PTR [r12]
	mov	QWORD PTR [rsi], rax

; 900  :         _Constructed_first = _Newvec + _Whereoff;
; 901  : 
; 902  :         if (_Whereptr == _Mylast) { // at back, provide strong guarantee

	mov	r9, QWORD PTR [r14+8]
	mov	rcx, QWORD PTR [r14]
	mov	rdx, rdi
	cmp	rbx, r9
	jne	SHORT $LN4@Emplace_re
; File C:\Program Files\Microsoft Visual Studio\2022\Community\VC\Tools\MSVC\14.35.32215\include\xmemory

; 1789 :     auto _UFirst      = _Get_unwrapped(_First);

	mov	QWORD PTR _UFirst$1[rsp], rcx

; 1649 :     _CONSTEXPR20 _Uninitialized_backout_al(pointer _Dest, _Alloc& _Al_) : _First(_Dest), _Last(_Dest), _Al(_Al_) {}

	mov	QWORD PTR _Backout$4[rsp], rdi
	mov	QWORD PTR _Backout$4[rsp+8], rdx
	mov	QWORD PTR _Backout$4[rsp+16], r14

; 1803 :     for (; _UFirst != _ULast; ++_UFirst) {

	mov	r8, rdi
	npad	6
$LL80@Emplace_re:
	cmp	rcx, r9
	je	SHORT $LN79@Emplace_re

; 1660 :         allocator_traits<_Alloc>::construct(_Al, _Unfancy(_Last), _STD forward<_Types>(_Vals)...);

	mov	rax, QWORD PTR [rcx]
	mov	QWORD PTR [rdx], rax
	lea	rdx, QWORD PTR [r8+8]

; 1661 :         ++_Last;

	mov	QWORD PTR _Backout$4[rsp+8], rdx

; 1803 :     for (; _UFirst != _ULast; ++_UFirst) {

	add	rcx, 8
	mov	QWORD PTR _UFirst$1[rsp], rcx
	mov	r8, rdx
	jmp	SHORT $LL80@Emplace_re
$LN79@Emplace_re:

; 1665 :         _First = _Last;

	mov	QWORD PTR _Backout$4[rsp], rdx
; File C:\Program Files\Microsoft Visual Studio\2022\Community\VC\Tools\MSVC\14.35.32215\include\vector

; 908  :         } else { // provide basic guarantee

	jmp	$LN5@Emplace_re
$LN4@Emplace_re:
; File C:\Program Files\Microsoft Visual Studio\2022\Community\VC\Tools\MSVC\14.35.32215\include\xmemory

; 1789 :     auto _UFirst      = _Get_unwrapped(_First);

	mov	QWORD PTR _UFirst$2[rsp], rcx

; 1649 :     _CONSTEXPR20 _Uninitialized_backout_al(pointer _Dest, _Alloc& _Al_) : _First(_Dest), _Last(_Dest), _Al(_Al_) {}

	mov	QWORD PTR _Backout$5[rsp], rdi
	mov	QWORD PTR _Backout$5[rsp+8], rdx
	mov	QWORD PTR _Backout$5[rsp+16], r14

; 1803 :     for (; _UFirst != _ULast; ++_UFirst) {

	mov	r8, rdi
$LL91@Emplace_re:
	cmp	rcx, rbx
	je	SHORT $LN90@Emplace_re

; 1660 :         allocator_traits<_Alloc>::construct(_Al, _Unfancy(_Last), _STD forward<_Types>(_Vals)...);

	mov	rax, QWORD PTR [rcx]
	mov	QWORD PTR [rdx], rax
	lea	rdx, QWORD PTR [r8+8]

; 1661 :         ++_Last;

	mov	QWORD PTR _Backout$5[rsp+8], rdx

; 1803 :     for (; _UFirst != _ULast; ++_UFirst) {

	add	rcx, 8
	mov	QWORD PTR _UFirst$2[rsp], rcx
	mov	r8, rdx
	jmp	SHORT $LL91@Emplace_re
$LN90@Emplace_re:

; 1665 :         _First = _Last;

	mov	QWORD PTR _Backout$5[rsp], rdx
; File C:\Program Files\Microsoft Visual Studio\2022\Community\VC\Tools\MSVC\14.35.32215\include\vector

; 911  :             _Uninitialized_move(_Whereptr, _Mylast, _Newvec + _Whereoff + 1, _Al);

	lea	rcx, QWORD PTR [rsi+8]
	mov	r8, QWORD PTR [r14+8]
; File C:\Program Files\Microsoft Visual Studio\2022\Community\VC\Tools\MSVC\14.35.32215\include\xmemory

; 1789 :     auto _UFirst      = _Get_unwrapped(_First);

	mov	QWORD PTR _UFirst$3[rsp], rbx

; 1649 :     _CONSTEXPR20 _Uninitialized_backout_al(pointer _Dest, _Alloc& _Al_) : _First(_Dest), _Last(_Dest), _Al(_Al_) {}

	mov	QWORD PTR _Backout$6[rsp], rcx
	mov	QWORD PTR _Backout$6[rsp+8], rcx
	mov	QWORD PTR _Backout$6[rsp+16], r14
$LN120@Emplace_re:

; 1803 :     for (; _UFirst != _ULast; ++_UFirst) {

	mov	rdx, rcx
	cmp	rbx, r8
	je	SHORT $LN101@Emplace_re

; 1660 :         allocator_traits<_Alloc>::construct(_Al, _Unfancy(_Last), _STD forward<_Types>(_Vals)...);

	mov	rax, QWORD PTR [rbx]
	mov	QWORD PTR [rcx], rax
	lea	rcx, QWORD PTR [rcx+8]

; 1661 :         ++_Last;

	mov	QWORD PTR _Backout$6[rsp+8], rcx

; 1803 :     for (; _UFirst != _ULast; ++_UFirst) {

	add	rbx, 8
	mov	QWORD PTR _UFirst$3[rsp], rbx
	jmp	SHORT $LN120@Emplace_re
$LN101@Emplace_re:

; 1665 :         _First = _Last;

	mov	QWORD PTR _Backout$6[rsp], rcx
$LN5@Emplace_re:
; File C:\Program Files\Microsoft Visual Studio\2022\Community\VC\Tools\MSVC\14.35.32215\include\vector

; 2086 :         if (_Myfirst) { // destroy and deallocate old array

	mov	rcx, QWORD PTR [r14]
	test	rcx, rcx
	je	SHORT $LN56@Emplace_re
; File C:\Users\Mahito\Desktop\Night outing\Night-outing\src\xrCore\xrMemory_subst_msvc.cpp

; 99   : 	stat_calls++;

	inc	DWORD PTR ?Memory@@3VxrMemory@@A

; 100  : 
; 101  : #ifdef PURE_ALLOC
; 102  : 	if (g_use_pure_alloc)
; 103  : 	{
; 104  : 		//free(P);
; 105  : 		_aligned_free(P);

	call	QWORD PTR __imp__aligned_free
$LN56@Emplace_re:
; File C:\Program Files\Microsoft Visual Studio\2022\Community\VC\Tools\MSVC\14.35.32215\include\vector

; 2092 :         _Myfirst = _Newvec;

	mov	QWORD PTR [r14], rdi

; 2093 :         _Mylast  = _Newvec + _Newsize;

	mov	rax, QWORD PTR _Newsize$1$[rsp]
	lea	rcx, QWORD PTR [rdi+rax*8]
	mov	QWORD PTR [r14+8], rcx

; 2094 :         _Myend   = _Newvec + _Newcapacity;

	lea	rcx, QWORD PTR [rdi+r13*8]
	mov	QWORD PTR [r14+16], rcx

; 912  :         }
; 913  :         _CATCH_ALL
; 914  :         _Destroy_range(_Constructed_first, _Constructed_last, _Al);
; 915  :         _Al.deallocate(_Newvec, _Newcapacity);
; 916  :         _RERAISE;
; 917  :         _CATCH_END
; 918  : 
; 919  :         _Change_array(_Newvec, _Newsize, _Newcapacity);
; 920  :         return _Newvec + _Whereoff;

	mov	rax, rsi

; 921  :     }

	lea	r11, QWORD PTR [rsp+128]
	mov	rbx, QWORD PTR [r11+64]
	mov	rsi, QWORD PTR [r11+72]
	mov	rsp, r11
	pop	r15
	pop	r14
	pop	r13
	pop	r12
	pop	rdi
	ret	0
$LN122@Emplace_re:

; 888  :             _Xlength();

	call	?_Xlength@?$vector@PEAUSect@CInifile@@V?$xalloc@PEAUSect@CInifile@@@@@std@@CAXXZ ; std::vector<CInifile::Sect *,xalloc<CInifile::Sect *> >::_Xlength
	int	3
$LN119@Emplace_re:
??$_Emplace_reallocate@AEBQEAUSect@CInifile@@@?$vector@PEAUSect@CInifile@@V?$xalloc@PEAUSect@CInifile@@@@@std@@AEAAPEAPEAUSect@CInifile@@QEAPEAU23@AEBQEAU23@@Z ENDP ; std::vector<CInifile::Sect *,xalloc<CInifile::Sect *> >::_Emplace_reallocate<CInifile::Sect * const &>
_TEXT	ENDS
; Function compile flags: /Ogtpy
;	COMDAT text$x
text$x	SEGMENT
_UFirst$1 = 32
_UFirst$2 = 40
_UFirst$3 = 48
_Backout$4 = 56
_Backout$5 = 80
_Backout$6 = 104
_Newsize$1$ = 176
this$ = 176
_Newvec$ = 184
_Whereptr$ = 184
<_Val_0>$ = 192
?catch$0@?0???$_Emplace_reallocate@AEBQEAUSect@CInifile@@@?$vector@PEAUSect@CInifile@@V?$xalloc@PEAUSect@CInifile@@@@@std@@AEAAPEAPEAUSect@CInifile@@QEAPEAU23@AEBQEAU23@@Z@4HA PROC ; `std::vector<CInifile::Sect *,xalloc<CInifile::Sect *> >::_Emplace_reallocate<CInifile::Sect * const &>'::`1'::catch$0

; 913  :         _CATCH_ALL

	mov	QWORD PTR [rsp+16], rdx
	push	rbp
	sub	rsp, 32					; 00000020H
	mov	rbp, rdx
__catch$??$_Emplace_reallocate@AEBQEAUSect@CInifile@@@?$vector@PEAUSect@CInifile@@V?$xalloc@PEAUSect@CInifile@@@@@std@@AEAAPEAPEAUSect@CInifile@@QEAPEAU23@AEBQEAU23@@Z$0:

; 914  :         _Destroy_range(_Constructed_first, _Constructed_last, _Al);
; 915  :         _Al.deallocate(_Newvec, _Newcapacity);

	mov	rdx, QWORD PTR _Newvec$[rbp]
	call	?deallocate@?$xalloc@PEAUSect@CInifile@@@@QEBAXPEAPEAUSect@CInifile@@_K@Z ; xalloc<CInifile::Sect *>::deallocate

; 916  :         _RERAISE;

	xor	edx, edx
	xor	ecx, ecx
	call	_CxxThrowException
	npad	1
?catch$0@?0???$_Emplace_reallocate@AEBQEAUSect@CInifile@@@?$vector@PEAUSect@CInifile@@V?$xalloc@PEAUSect@CInifile@@@@@std@@AEAAPEAPEAUSect@CInifile@@QEAPEAU23@AEBQEAU23@@Z@4HA ENDP ; `std::vector<CInifile::Sect *,xalloc<CInifile::Sect *> >::_Emplace_reallocate<CInifile::Sect * const &>'::`1'::catch$0
text$x	ENDS
; Function compile flags: /Ogtpy
; File C:\Program Files\Microsoft Visual Studio\2022\Community\VC\Tools\MSVC\14.35.32215\include\type_traits
;	COMDAT ??$move@AEAUItem@CInifile@@@std@@YA$$QEAUItem@CInifile@@AEAU12@@Z
_TEXT	SEGMENT
_Arg$ = 8
??$move@AEAUItem@CInifile@@@std@@YA$$QEAUItem@CInifile@@AEAU12@@Z PROC ; std::move<CInifile::Item &>, COMDAT

; 1438 :     return static_cast<remove_reference_t<_Ty>&&>(_Arg);

	mov	rax, rcx

; 1439 : }

	ret	0
??$move@AEAUItem@CInifile@@@std@@YA$$QEAUItem@CInifile@@AEAU12@@Z ENDP ; std::move<CInifile::Item &>
_TEXT	ENDS
; Function compile flags: /Ogtpy
; File C:\Program Files\Microsoft Visual Studio\2022\Community\VC\Tools\MSVC\14.35.32215\include\type_traits
;	COMDAT ??$forward@AEBUItem@CInifile@@@std@@YAAEBUItem@CInifile@@AEBU12@@Z
_TEXT	SEGMENT
_Arg$ = 8
??$forward@AEBUItem@CInifile@@@std@@YAAEBUItem@CInifile@@AEBU12@@Z PROC ; std::forward<CInifile::Item const &>, COMDAT

; 1427 :     return static_cast<_Ty&&>(_Arg);

	mov	rax, rcx

; 1428 : }

	ret	0
??$forward@AEBUItem@CInifile@@@std@@YAAEBUItem@CInifile@@AEBU12@@Z ENDP ; std::forward<CInifile::Item const &>
_TEXT	ENDS
; Function compile flags: /Ogtpy
; File C:\Program Files\Microsoft Visual Studio\2022\Community\VC\Tools\MSVC\14.35.32215\include\vector
; File C:\Users\Mahito\Desktop\Night outing\Night-outing\src\xrCore\_stl_extensions.h
; File C:\Program Files\Microsoft Visual Studio\2022\Community\VC\Tools\MSVC\14.35.32215\include\vector
; File C:\Users\Mahito\Desktop\Night outing\Night-outing\src\xrCore\xrstring.h
; File C:\Program Files\Microsoft Visual Studio\2022\Community\VC\Tools\MSVC\14.35.32215\include\vector
;	COMDAT ??$_Emplace_back_with_unused_capacity@AEBUItem@CInifile@@@?$vector@UItem@CInifile@@V?$xalloc@UItem@CInifile@@@@@std@@AEAAAEAUItem@CInifile@@AEBU23@@Z
_TEXT	SEGMENT
this$ = 8
<_Val_0>$ = 16
??$_Emplace_back_with_unused_capacity@AEBUItem@CInifile@@@?$vector@UItem@CInifile@@V?$xalloc@UItem@CInifile@@@@@std@@AEAAAEAUItem@CInifile@@AEBU23@@Z PROC ; std::vector<CInifile::Item,xalloc<CInifile::Item> >::_Emplace_back_with_unused_capacity<CInifile::Item const &>, COMDAT
; File C:\Users\Mahito\Desktop\Night outing\Night-outing\src\xrCore\_stl_extensions.h

; 85   : 							void					construct		(pointer p, const T& _Val)				{	::new(p) T(_Val);	}

	mov	rax, QWORD PTR [rcx+8]
; File C:\Program Files\Microsoft Visual Studio\2022\Community\VC\Tools\MSVC\14.35.32215\include\vector

; 852  :     _CONSTEXPR20 _Ty& _Emplace_back_with_unused_capacity(_Valty&&... _Val) {

	mov	r11, rdx
	mov	r10, rcx
; File C:\Users\Mahito\Desktop\Night outing\Night-outing\src\xrCore\xrstring.h

; 74   : 						shared_str	(shared_str const &rhs)			{	p_ = 0;	_set(rhs);								}

	mov	QWORD PTR [rax], 0

; 64   : 	void				_set		(shared_str const &rhs)			{	str_value* v = rhs.p_; if (0!=v) v->dwReference++; _dec(); p_ = v;							}

	mov	r8, QWORD PTR [rdx]
	test	r8, r8
	je	SHORT $LN12@Emplace_ba
	inc	DWORD PTR [r8]
$LN12@Emplace_ba:

; 61   : 	void				_dec		()								{	if (0==p_) return;	p_->dwReference--; 	if (0==p_->dwReference)	p_=0;						}

	mov	r9, QWORD PTR [rax]
	test	r9, r9
	je	SHORT $LN16@Emplace_ba
	dec	DWORD PTR [r9]
$LN16@Emplace_ba:

; 64   : 	void				_set		(shared_str const &rhs)			{	str_value* v = rhs.p_; if (0!=v) v->dwReference++; _dec(); p_ = v;							}

	mov	QWORD PTR [rax], r8

; 74   : 						shared_str	(shared_str const &rhs)			{	p_ = 0;	_set(rhs);								}

	mov	QWORD PTR [rax+8], 0

; 64   : 	void				_set		(shared_str const &rhs)			{	str_value* v = rhs.p_; if (0!=v) v->dwReference++; _dec(); p_ = v;							}

	mov	rcx, QWORD PTR [rdx+8]
	test	rcx, rcx
	je	SHORT $LN21@Emplace_ba
	inc	DWORD PTR [rcx]
$LN21@Emplace_ba:

; 61   : 	void				_dec		()								{	if (0==p_) return;	p_->dwReference--; 	if (0==p_->dwReference)	p_=0;						}

	mov	rdx, QWORD PTR [rax+8]
	test	rdx, rdx
	je	SHORT $LN25@Emplace_ba
	dec	DWORD PTR [rdx]
$LN25@Emplace_ba:

; 64   : 	void				_set		(shared_str const &rhs)			{	str_value* v = rhs.p_; if (0!=v) v->dwReference++; _dec(); p_ = v;							}

	mov	QWORD PTR [rax+8], rcx

; 74   : 						shared_str	(shared_str const &rhs)			{	p_ = 0;	_set(rhs);								}

	mov	QWORD PTR [rax+16], 0

; 64   : 	void				_set		(shared_str const &rhs)			{	str_value* v = rhs.p_; if (0!=v) v->dwReference++; _dec(); p_ = v;							}

	mov	rdx, QWORD PTR [r11+16]
	test	rdx, rdx
	je	SHORT $LN30@Emplace_ba
	inc	DWORD PTR [rdx]
$LN30@Emplace_ba:

; 61   : 	void				_dec		()								{	if (0==p_) return;	p_->dwReference--; 	if (0==p_->dwReference)	p_=0;						}

	mov	rcx, QWORD PTR [rax+16]
	test	rcx, rcx
	je	SHORT $LN34@Emplace_ba
	dec	DWORD PTR [rcx]
$LN34@Emplace_ba:

; 64   : 	void				_set		(shared_str const &rhs)			{	str_value* v = rhs.p_; if (0!=v) v->dwReference++; _dec(); p_ = v;							}

	mov	QWORD PTR [rax+16], rdx
; File C:\Program Files\Microsoft Visual Studio\2022\Community\VC\Tools\MSVC\14.35.32215\include\vector

; 868  :         _Ty& _Result = *_Mylast;

	mov	rax, QWORD PTR [r10+8]

; 869  :         ++_Mylast;

	lea	rcx, QWORD PTR [rax+24]
	mov	QWORD PTR [r10+8], rcx

; 870  : 
; 871  :         return _Result;
; 872  :     }

	ret	0
??$_Emplace_back_with_unused_capacity@AEBUItem@CInifile@@@?$vector@UItem@CInifile@@V?$xalloc@UItem@CInifile@@@@@std@@AEAAAEAUItem@CInifile@@AEBU23@@Z ENDP ; std::vector<CInifile::Item,xalloc<CInifile::Item> >::_Emplace_back_with_unused_capacity<CInifile::Item const &>
_TEXT	ENDS
; Function compile flags: /Ogtpy
; File C:\Program Files\Microsoft Visual Studio\2022\Community\VC\Tools\MSVC\14.35.32215\include\xmemory
; File C:\Users\Mahito\Desktop\Night outing\Night-outing\src\xrCore\xrstring.h
; File C:\Program Files\Microsoft Visual Studio\2022\Community\VC\Tools\MSVC\14.35.32215\include\xmemory
; File C:\Users\Mahito\Desktop\Night outing\Night-outing\src\xrCore\xrstring.h
; File C:\Program Files\Microsoft Visual Studio\2022\Community\VC\Tools\MSVC\14.35.32215\include\xmemory
;	COMDAT ??$?0AEBUItem@CInifile@@@?$_Alloc_temporary2@V?$xalloc@UItem@CInifile@@@@@std@@QEAA@AEAV?$xalloc@UItem@CInifile@@@@AEBUItem@CInifile@@@Z
_TEXT	SEGMENT
this$ = 8
_Al_$ = 16
<_Vals_0>$ = 24
??$?0AEBUItem@CInifile@@@?$_Alloc_temporary2@V?$xalloc@UItem@CInifile@@@@@std@@QEAA@AEAV?$xalloc@UItem@CInifile@@@@AEBUItem@CInifile@@@Z PROC ; std::_Alloc_temporary2<xalloc<CInifile::Item> >::_Alloc_temporary2<xalloc<CInifile::Item> ><CInifile::Item const &>, COMDAT
; File C:\Users\Mahito\Desktop\Night outing\Night-outing\src\xrCore\xrstring.h

; 74   : 						shared_str	(shared_str const &rhs)			{	p_ = 0;	_set(rhs);								}

	xor	r9d, r9d
; File C:\Program Files\Microsoft Visual Studio\2022\Community\VC\Tools\MSVC\14.35.32215\include\xmemory

; 2019 :         : _Al(_Al_) {

	mov	QWORD PTR [rcx], rdx
; File C:\Users\Mahito\Desktop\Night outing\Night-outing\src\xrCore\xrstring.h

; 74   : 						shared_str	(shared_str const &rhs)			{	p_ = 0;	_set(rhs);								}

	mov	QWORD PTR [rcx+8], r9

; 64   : 	void				_set		(shared_str const &rhs)			{	str_value* v = rhs.p_; if (0!=v) v->dwReference++; _dec(); p_ = v;							}

	mov	rax, QWORD PTR [r8]
	test	rax, rax
	je	SHORT $LN12@Item
	inc	DWORD PTR [rax]
$LN12@Item:

; 61   : 	void				_dec		()								{	if (0==p_) return;	p_->dwReference--; 	if (0==p_->dwReference)	p_=0;						}

	mov	rdx, QWORD PTR [rcx+8]
	test	rdx, rdx
	je	SHORT $LN16@Item
	dec	DWORD PTR [rdx]
$LN16@Item:

; 64   : 	void				_set		(shared_str const &rhs)			{	str_value* v = rhs.p_; if (0!=v) v->dwReference++; _dec(); p_ = v;							}

	mov	QWORD PTR [rcx+8], rax

; 74   : 						shared_str	(shared_str const &rhs)			{	p_ = 0;	_set(rhs);								}

	mov	QWORD PTR [rcx+16], r9

; 64   : 	void				_set		(shared_str const &rhs)			{	str_value* v = rhs.p_; if (0!=v) v->dwReference++; _dec(); p_ = v;							}

	mov	rax, QWORD PTR [r8+8]
	test	rax, rax
	je	SHORT $LN21@Item
	inc	DWORD PTR [rax]
$LN21@Item:

; 61   : 	void				_dec		()								{	if (0==p_) return;	p_->dwReference--; 	if (0==p_->dwReference)	p_=0;						}

	mov	rdx, QWORD PTR [rcx+16]
	test	rdx, rdx
	je	SHORT $LN25@Item
	dec	DWORD PTR [rdx]
$LN25@Item:

; 64   : 	void				_set		(shared_str const &rhs)			{	str_value* v = rhs.p_; if (0!=v) v->dwReference++; _dec(); p_ = v;							}

	mov	QWORD PTR [rcx+16], rax

; 74   : 						shared_str	(shared_str const &rhs)			{	p_ = 0;	_set(rhs);								}

	mov	QWORD PTR [rcx+24], r9

; 64   : 	void				_set		(shared_str const &rhs)			{	str_value* v = rhs.p_; if (0!=v) v->dwReference++; _dec(); p_ = v;							}

	mov	rax, QWORD PTR [r8+16]
	test	rax, rax
	je	SHORT $LN30@Item
	inc	DWORD PTR [rax]
$LN30@Item:

; 61   : 	void				_dec		()								{	if (0==p_) return;	p_->dwReference--; 	if (0==p_->dwReference)	p_=0;						}

	mov	rdx, QWORD PTR [rcx+24]
	test	rdx, rdx
	je	SHORT $LN36@Item
	dec	DWORD PTR [rdx]
$LN36@Item:
; File C:\Program Files\Microsoft Visual Studio\2022\Community\VC\Tools\MSVC\14.35.32215\include\xmemory

; 2021 :     }

	mov	QWORD PTR [rcx+24], rax
	mov	rax, rcx
	ret	0
??$?0AEBUItem@CInifile@@@?$_Alloc_temporary2@V?$xalloc@UItem@CInifile@@@@@std@@QEAA@AEAV?$xalloc@UItem@CInifile@@@@AEBUItem@CInifile@@@Z ENDP ; std::_Alloc_temporary2<xalloc<CInifile::Item> >::_Alloc_temporary2<xalloc<CInifile::Item> ><CInifile::Item const &>
_TEXT	ENDS
; Function compile flags: /Ogtpy
; File C:\Program Files\Microsoft Visual Studio\2022\Community\VC\Tools\MSVC\14.35.32215\include\xstddef
;	COMDAT ??$addressof@UItem@CInifile@@@std@@YAPEAUItem@CInifile@@AEAU12@@Z
_TEXT	SEGMENT
_Val$ = 8
??$addressof@UItem@CInifile@@@std@@YAPEAUItem@CInifile@@AEAU12@@Z PROC ; std::addressof<CInifile::Item>, COMDAT

; 281  :     return __builtin_addressof(_Val);

	mov	rax, rcx

; 282  : }

	ret	0
??$addressof@UItem@CInifile@@@std@@YAPEAUItem@CInifile@@AEAU12@@Z ENDP ; std::addressof<CInifile::Item>
_TEXT	ENDS
; Function compile flags: /Ogtpy
; File C:\Program Files\Microsoft Visual Studio\2022\Community\VC\Tools\MSVC\14.35.32215\include\xmemory
; File C:\Users\Mahito\Desktop\Night outing\Night-outing\src\xrCore\xrstring.h
; File C:\Program Files\Microsoft Visual Studio\2022\Community\VC\Tools\MSVC\14.35.32215\include\xmemory
;	COMDAT ??$construct@UItem@CInifile@@U12@@?$_Normal_allocator_traits@V?$xalloc@UItem@CInifile@@@@@std@@SAXAEAV?$xalloc@UItem@CInifile@@@@PEAUItem@CInifile@@$$QEAU34@@Z
_TEXT	SEGMENT
_Al$dead$ = 8
_Ptr$ = 16
<_Args_0>$ = 24
??$construct@UItem@CInifile@@U12@@?$_Normal_allocator_traits@V?$xalloc@UItem@CInifile@@@@@std@@SAXAEAV?$xalloc@UItem@CInifile@@@@PEAUItem@CInifile@@$$QEAU34@@Z PROC ; std::_Normal_allocator_traits<xalloc<CInifile::Item> >::construct<CInifile::Item,CInifile::Item>, COMDAT
; File C:\Users\Mahito\Desktop\Night outing\Night-outing\src\xrCore\xrstring.h

; 74   : 						shared_str	(shared_str const &rhs)			{	p_ = 0;	_set(rhs);								}

	xor	r9d, r9d
	mov	QWORD PTR [rdx], r9

; 64   : 	void				_set		(shared_str const &rhs)			{	str_value* v = rhs.p_; if (0!=v) v->dwReference++; _dec(); p_ = v;							}

	mov	rax, QWORD PTR [r8]
	test	rax, rax
	je	SHORT $LN10@construct
	inc	DWORD PTR [rax]
$LN10@construct:

; 61   : 	void				_dec		()								{	if (0==p_) return;	p_->dwReference--; 	if (0==p_->dwReference)	p_=0;						}

	mov	rcx, QWORD PTR [rdx]
	test	rcx, rcx
	je	SHORT $LN14@construct
	dec	DWORD PTR [rcx]
$LN14@construct:

; 64   : 	void				_set		(shared_str const &rhs)			{	str_value* v = rhs.p_; if (0!=v) v->dwReference++; _dec(); p_ = v;							}

	mov	QWORD PTR [rdx], rax

; 74   : 						shared_str	(shared_str const &rhs)			{	p_ = 0;	_set(rhs);								}

	mov	QWORD PTR [rdx+8], r9

; 64   : 	void				_set		(shared_str const &rhs)			{	str_value* v = rhs.p_; if (0!=v) v->dwReference++; _dec(); p_ = v;							}

	mov	rax, QWORD PTR [r8+8]
	test	rax, rax
	je	SHORT $LN19@construct
	inc	DWORD PTR [rax]
$LN19@construct:

; 61   : 	void				_dec		()								{	if (0==p_) return;	p_->dwReference--; 	if (0==p_->dwReference)	p_=0;						}

	mov	rcx, QWORD PTR [rdx+8]
	test	rcx, rcx
	je	SHORT $LN23@construct
	dec	DWORD PTR [rcx]
$LN23@construct:

; 64   : 	void				_set		(shared_str const &rhs)			{	str_value* v = rhs.p_; if (0!=v) v->dwReference++; _dec(); p_ = v;							}

	mov	QWORD PTR [rdx+8], rax

; 74   : 						shared_str	(shared_str const &rhs)			{	p_ = 0;	_set(rhs);								}

	mov	QWORD PTR [rdx+16], r9

; 64   : 	void				_set		(shared_str const &rhs)			{	str_value* v = rhs.p_; if (0!=v) v->dwReference++; _dec(); p_ = v;							}

	mov	rax, QWORD PTR [r8+16]
	test	rax, rax
	je	SHORT $LN28@construct
	inc	DWORD PTR [rax]
$LN28@construct:

; 61   : 	void				_dec		()								{	if (0==p_) return;	p_->dwReference--; 	if (0==p_->dwReference)	p_=0;						}

	mov	rcx, QWORD PTR [rdx+16]
	test	rcx, rcx
	je	SHORT $LN34@construct
	dec	DWORD PTR [rcx]
$LN34@construct:
; File C:\Program Files\Microsoft Visual Studio\2022\Community\VC\Tools\MSVC\14.35.32215\include\xmemory

; 574  :     }

	mov	QWORD PTR [rdx+16], rax
	ret	0
??$construct@UItem@CInifile@@U12@@?$_Normal_allocator_traits@V?$xalloc@UItem@CInifile@@@@@std@@SAXAEAV?$xalloc@UItem@CInifile@@@@PEAUItem@CInifile@@$$QEAU34@@Z ENDP ; std::_Normal_allocator_traits<xalloc<CInifile::Item> >::construct<CInifile::Item,CInifile::Item>
_TEXT	ENDS
; Function compile flags: /Ogtpy
; File C:\Program Files\Microsoft Visual Studio\2022\Community\VC\Tools\MSVC\14.35.32215\include\xutility
; File C:\Users\Mahito\Desktop\Night outing\Night-outing\src\xrCore\xrstring.h
; File C:\Program Files\Microsoft Visual Studio\2022\Community\VC\Tools\MSVC\14.35.32215\include\xutility
; File C:\Users\Mahito\Desktop\Night outing\Night-outing\src\xrCore\xrstring.h
; File C:\Program Files\Microsoft Visual Studio\2022\Community\VC\Tools\MSVC\14.35.32215\include\xutility
;	COMDAT ??$_Move_backward_unchecked@PEAUItem@CInifile@@PEAU12@@std@@YAPEAUItem@CInifile@@PEAU12@00@Z
_TEXT	SEGMENT
_First$ = 8
_Last$ = 16
_Dest$ = 24
??$_Move_backward_unchecked@PEAUItem@CInifile@@PEAU12@@std@@YAPEAUItem@CInifile@@PEAU12@00@Z PROC ; std::_Move_backward_unchecked<CInifile::Item *,CInifile::Item *>, COMDAT

; 4633 : _CONSTEXPR20 _BidIt2 _Move_backward_unchecked(_BidIt1 _First, _BidIt1 _Last, _BidIt2 _Dest) {

	mov	r9, rcx

; 4645 :     while (_First != _Last) {

	cmp	rdx, rcx
	je	SHORT $LN39@Move_backw
	npad	8
$LL36@Move_backw:
; File C:\Users\Mahito\Desktop\Night outing\Night-outing\src\xrCore\xrstring.h

; 64   : 	void				_set		(shared_str const &rhs)			{	str_value* v = rhs.p_; if (0!=v) v->dwReference++; _dec(); p_ = v;							}

	mov	rax, QWORD PTR [rdx-24]
; File C:\Program Files\Microsoft Visual Studio\2022\Community\VC\Tools\MSVC\14.35.32215\include\xutility

; 4646 :         *--_Dest = _STD move(*--_Last);

	sub	rdx, 24
	sub	r8, 24
; File C:\Users\Mahito\Desktop\Night outing\Night-outing\src\xrCore\xrstring.h

; 64   : 	void				_set		(shared_str const &rhs)			{	str_value* v = rhs.p_; if (0!=v) v->dwReference++; _dec(); p_ = v;							}

	test	rax, rax
	je	SHORT $LN10@Move_backw
	inc	DWORD PTR [rax]
$LN10@Move_backw:

; 61   : 	void				_dec		()								{	if (0==p_) return;	p_->dwReference--; 	if (0==p_->dwReference)	p_=0;						}

	mov	rcx, QWORD PTR [r8]
	test	rcx, rcx
	je	SHORT $LN14@Move_backw
	dec	DWORD PTR [rcx]
$LN14@Move_backw:

; 64   : 	void				_set		(shared_str const &rhs)			{	str_value* v = rhs.p_; if (0!=v) v->dwReference++; _dec(); p_ = v;							}

	mov	QWORD PTR [r8], rax
	mov	rax, QWORD PTR [rdx+8]
	test	rax, rax
	je	SHORT $LN19@Move_backw
	inc	DWORD PTR [rax]
$LN19@Move_backw:

; 61   : 	void				_dec		()								{	if (0==p_) return;	p_->dwReference--; 	if (0==p_->dwReference)	p_=0;						}

	mov	rcx, QWORD PTR [r8+8]
	test	rcx, rcx
	je	SHORT $LN23@Move_backw
	dec	DWORD PTR [rcx]
$LN23@Move_backw:

; 64   : 	void				_set		(shared_str const &rhs)			{	str_value* v = rhs.p_; if (0!=v) v->dwReference++; _dec(); p_ = v;							}

	mov	QWORD PTR [r8+8], rax
	mov	rax, QWORD PTR [rdx+16]
	test	rax, rax
	je	SHORT $LN28@Move_backw
	inc	DWORD PTR [rax]
$LN28@Move_backw:

; 61   : 	void				_dec		()								{	if (0==p_) return;	p_->dwReference--; 	if (0==p_->dwReference)	p_=0;						}

	mov	rcx, QWORD PTR [r8+16]
	test	rcx, rcx
	je	SHORT $LN32@Move_backw
	dec	DWORD PTR [rcx]
$LN32@Move_backw:

; 64   : 	void				_set		(shared_str const &rhs)			{	str_value* v = rhs.p_; if (0!=v) v->dwReference++; _dec(); p_ = v;							}

	mov	QWORD PTR [r8+16], rax
; File C:\Program Files\Microsoft Visual Studio\2022\Community\VC\Tools\MSVC\14.35.32215\include\xutility

; 4645 :     while (_First != _Last) {

	cmp	rdx, r9
	jne	SHORT $LL36@Move_backw
$LN39@Move_backw:

; 4647 :     }
; 4648 : 
; 4649 :     return _Dest;
; 4650 : }

	mov	rax, r8
	ret	0
??$_Move_backward_unchecked@PEAUItem@CInifile@@PEAU12@@std@@YAPEAUItem@CInifile@@PEAU12@00@Z ENDP ; std::_Move_backward_unchecked<CInifile::Item *,CInifile::Item *>
_TEXT	ENDS
; Function compile flags: /Ogtpy
; File C:\Program Files\Microsoft Visual Studio\2022\Community\VC\Tools\MSVC\14.35.32215\include\vector
; File C:\Users\Mahito\Desktop\Night outing\Night-outing\src\xrCore\xrMemory.h
; File C:\Users\Mahito\Desktop\Night outing\Night-outing\src\xrCore\xrMemory_subst_msvc.cpp
; File C:\Program Files\Microsoft Visual Studio\2022\Community\VC\Tools\MSVC\14.35.32215\include\vector
; File C:\Users\Mahito\Desktop\Night outing\Night-outing\src\xrCore\xrstring.h
; File C:\Program Files\Microsoft Visual Studio\2022\Community\VC\Tools\MSVC\14.35.32215\include\vector
; File C:\Program Files\Microsoft Visual Studio\2022\Community\VC\Tools\MSVC\14.35.32215\include\xmemory
; File C:\Users\Mahito\Desktop\Night outing\Night-outing\src\xrCore\xrstring.h
; File C:\Program Files\Microsoft Visual Studio\2022\Community\VC\Tools\MSVC\14.35.32215\include\xmemory
; File C:\Users\Mahito\Desktop\Night outing\Night-outing\src\xrCore\xrstring.h
; File C:\Program Files\Microsoft Visual Studio\2022\Community\VC\Tools\MSVC\14.35.32215\include\xmemory
; File C:\Program Files\Microsoft Visual Studio\2022\Community\VC\Tools\MSVC\14.35.32215\include\vector
; File C:\Program Files\Microsoft Visual Studio\2022\Community\VC\Tools\MSVC\14.35.32215\include\xmemory
; File C:\Users\Mahito\Desktop\Night outing\Night-outing\src\xrCore\xrstring.h
; File C:\Program Files\Microsoft Visual Studio\2022\Community\VC\Tools\MSVC\14.35.32215\include\xmemory
; File C:\Users\Mahito\Desktop\Night outing\Night-outing\src\xrCore\xrstring.h
; File C:\Program Files\Microsoft Visual Studio\2022\Community\VC\Tools\MSVC\14.35.32215\include\xmemory
; File C:\Program Files\Microsoft Visual Studio\2022\Community\VC\Tools\MSVC\14.35.32215\include\vector
; File C:\Program Files\Microsoft Visual Studio\2022\Community\VC\Tools\MSVC\14.35.32215\include\xmemory
; File C:\Users\Mahito\Desktop\Night outing\Night-outing\src\xrCore\xrstring.h
; File C:\Program Files\Microsoft Visual Studio\2022\Community\VC\Tools\MSVC\14.35.32215\include\xmemory
; File C:\Users\Mahito\Desktop\Night outing\Night-outing\src\xrCore\xrstring.h
; File C:\Program Files\Microsoft Visual Studio\2022\Community\VC\Tools\MSVC\14.35.32215\include\xmemory
; File C:\Program Files\Microsoft Visual Studio\2022\Community\VC\Tools\MSVC\14.35.32215\include\vector
;	COMDAT ??$_Emplace_reallocate@AEBUItem@CInifile@@@?$vector@UItem@CInifile@@V?$xalloc@UItem@CInifile@@@@@std@@AEAAPEAUItem@CInifile@@QEAU23@AEBU23@@Z
_TEXT	SEGMENT
_Constructed_first$ = 32
_UFirst$1 = 40
_First$ = 48
_UFirst$2 = 56
_First$ = 64
_UFirst$3 = 72
_First$ = 80
_Backout$4 = 88
_Backout$5 = 112
_Backout$6 = 136
_Newsize$1$ = 224
this$ = 224
_Constructed_last$ = 232
_Whereptr$ = 232
<_Val_0>$ = 240
_Newvec$ = 248
??$_Emplace_reallocate@AEBUItem@CInifile@@@?$vector@UItem@CInifile@@V?$xalloc@UItem@CInifile@@@@@std@@AEAAPEAUItem@CInifile@@QEAU23@AEBU23@@Z PROC ; std::vector<CInifile::Item,xalloc<CInifile::Item> >::_Emplace_reallocate<CInifile::Item const &>, COMDAT

; 875  :     _CONSTEXPR20 pointer _Emplace_reallocate(const pointer _Whereptr, _Valty&&... _Val) {

$LN343:
	push	rbx
	push	rsi
	push	rdi
	push	r12
	push	r13
	push	r14
	push	r15
	sub	rsp, 160				; 000000a0H
	mov	r14, r8
	mov	rbx, rdx
	mov	r12, rcx

; 876  :         // reallocate and insert by perfectly forwarding _Val at _Whereptr
; 877  :         _Alty& _Al        = _Getal();
; 878  :         auto& _My_data    = _Mypair._Myval2;
; 879  :         pointer& _Myfirst = _My_data._Myfirst;
; 880  :         pointer& _Mylast  = _My_data._Mylast;
; 881  : 
; 882  :         _STL_INTERNAL_CHECK(_Mylast == _My_data._Myend); // check that we have no unused capacity
; 883  : 
; 884  :         const auto _Whereoff = static_cast<size_type>(_Whereptr - _Myfirst);

	mov	r9, QWORD PTR [rcx]
	sub	rdx, r9
	mov	rax, 3074457345618258603		; 2aaaaaaaaaaaaaabH
	imul	rdx
	mov	rsi, rdx
	sar	rsi, 2
	mov	rax, rsi
	shr	rax, 63					; 0000003fH
	add	rsi, rax

; 885  :         const auto _Oldsize  = static_cast<size_type>(_Mylast - _Myfirst);

	mov	rax, QWORD PTR [rcx+8]
	sub	rax, r9
	sar	rax, 3
	mov	rdx, -6148914691236517205		; aaaaaaaaaaaaaaabH
	imul	rax, rdx

; 886  : 
; 887  :         if (_Oldsize == max_size()) {

	mov	r13, 768614336404564650			; 0aaaaaaaaaaaaaaaH
	cmp	rax, r13
	je	$LN342@Emplace_re

; 889  :         }
; 890  : 
; 891  :         const size_type _Newsize     = _Oldsize + 1;

	lea	r8, QWORD PTR [rax+1]
	mov	QWORD PTR _Newsize$1$[rsp], r8

; 1942 :         return static_cast<size_type>(_My_data._Myend - _My_data._Myfirst);

	mov	rcx, QWORD PTR [rcx+16]
	sub	rcx, r9
	sar	rcx, 3
	imul	rcx, rdx

; 2029 :         if (_Oldcapacity > _Max - _Oldcapacity / 2) {

	mov	rdx, rcx
	shr	rdx, 1
	mov	rax, r13
	sub	rax, rdx
	cmp	rcx, rax
	ja	SHORT $LN13@Emplace_re

; 2030 :             return _Max; // geometric growth would overflow
; 2031 :         }
; 2032 : 
; 2033 :         const size_type _Geometric = _Oldcapacity + _Oldcapacity / 2;

	lea	r13, QWORD PTR [rdx+rcx]

; 2034 : 
; 2035 :         if (_Geometric < _Newsize) {

	cmp	r13, r8
	cmovb	r13, r8
$LN13@Emplace_re:
; File C:\Users\Mahito\Desktop\Night outing\Night-outing\src\xrCore\xrMemory.h

; 64   : IC T* xr_alloc(u32 count) { return (T*)Memory.mem_alloc(count * sizeof(T)); }

	mov	eax, r13d
	lea	rdi, QWORD PTR [rax+rax*2]
	shl	rdi, 3
; File C:\Users\Mahito\Desktop\Night outing\Night-outing\src\xrCore\xrMemory_subst_msvc.cpp

; 39   : 	stat_calls++;

	inc	DWORD PTR ?Memory@@3VxrMemory@@A

; 40   : 
; 41   : #ifdef PURE_ALLOC
; 42   : 	if (g_use_pure_alloc)
; 43   : 	{
; 44   : 		//void* result = malloc(size);
; 45   : 		void* result = _aligned_malloc(size, PURE_MEMORY_ALIGNMENT);

	mov	edx, 16
	mov	rcx, rdi
	call	QWORD PTR __imp__aligned_malloc
	mov	r15, rax

; 46   : #ifdef PURE_MEMORY_FILL_ZERO
; 47   : 		if (result)

	test	rax, rax
	je	SHORT $LN23@Emplace_re

; 48   : 			memset(result, 0, size);

	mov	r8, rdi
	xor	edx, edx
	mov	rcx, rax
	call	memset
$LN23@Emplace_re:
; File C:\Program Files\Microsoft Visual Studio\2022\Community\VC\Tools\MSVC\14.35.32215\include\vector

; 894  :         const pointer _Newvec           = _Al.allocate(_Newcapacity);

	mov	QWORD PTR _Newvec$[rsp], r15

; 895  :         const pointer _Constructed_last = _Newvec + _Whereoff + 1;

	lea	rax, QWORD PTR [rsi+rsi*2]
	lea	rdi, QWORD PTR [r15+rax*8]
	lea	rdx, QWORD PTR [rdi+24]
	mov	QWORD PTR _Constructed_last$[rsp], rdx

; 896  :         pointer _Constructed_first      = _Constructed_last;

	mov	QWORD PTR _Constructed_first$[rsp], rdx
; File C:\Users\Mahito\Desktop\Night outing\Night-outing\src\xrCore\xrstring.h

; 74   : 						shared_str	(shared_str const &rhs)			{	p_ = 0;	_set(rhs);								}

	xor	esi, esi
	mov	QWORD PTR [rdi], rsi

; 64   : 	void				_set		(shared_str const &rhs)			{	str_value* v = rhs.p_; if (0!=v) v->dwReference++; _dec(); p_ = v;							}

	mov	rcx, QWORD PTR [r14]
	test	rcx, rcx
	je	SHORT $LN59@Emplace_re
	inc	DWORD PTR [rcx]
$LN59@Emplace_re:

; 61   : 	void				_dec		()								{	if (0==p_) return;	p_->dwReference--; 	if (0==p_->dwReference)	p_=0;						}

	mov	rax, QWORD PTR [rdi]
	test	rax, rax
	je	SHORT $LN63@Emplace_re
	dec	DWORD PTR [rax]
	mov	rax, QWORD PTR [rdi]
	cmp	DWORD PTR [rax], esi
	jne	SHORT $LN63@Emplace_re
	mov	QWORD PTR [rdi], rsi
$LN63@Emplace_re:

; 64   : 	void				_set		(shared_str const &rhs)			{	str_value* v = rhs.p_; if (0!=v) v->dwReference++; _dec(); p_ = v;							}

	mov	QWORD PTR [rdi], rcx

; 74   : 						shared_str	(shared_str const &rhs)			{	p_ = 0;	_set(rhs);								}

	mov	QWORD PTR [rdi+8], rsi

; 64   : 	void				_set		(shared_str const &rhs)			{	str_value* v = rhs.p_; if (0!=v) v->dwReference++; _dec(); p_ = v;							}

	mov	rcx, QWORD PTR [r14+8]
	test	rcx, rcx
	je	SHORT $LN68@Emplace_re
	inc	DWORD PTR [rcx]
$LN68@Emplace_re:

; 61   : 	void				_dec		()								{	if (0==p_) return;	p_->dwReference--; 	if (0==p_->dwReference)	p_=0;						}

	mov	rax, QWORD PTR [rdi+8]
	test	rax, rax
	je	SHORT $LN72@Emplace_re
	dec	DWORD PTR [rax]
	mov	rax, QWORD PTR [rdi+8]
	cmp	DWORD PTR [rax], esi
	jne	SHORT $LN72@Emplace_re
	mov	QWORD PTR [rdi+8], rsi
$LN72@Emplace_re:

; 64   : 	void				_set		(shared_str const &rhs)			{	str_value* v = rhs.p_; if (0!=v) v->dwReference++; _dec(); p_ = v;							}

	mov	QWORD PTR [rdi+8], rcx

; 74   : 						shared_str	(shared_str const &rhs)			{	p_ = 0;	_set(rhs);								}

	mov	QWORD PTR [rdi+16], rsi

; 64   : 	void				_set		(shared_str const &rhs)			{	str_value* v = rhs.p_; if (0!=v) v->dwReference++; _dec(); p_ = v;							}

	mov	rcx, QWORD PTR [r14+16]
	test	rcx, rcx
	je	SHORT $LN77@Emplace_re
	inc	DWORD PTR [rcx]
$LN77@Emplace_re:

; 61   : 	void				_dec		()								{	if (0==p_) return;	p_->dwReference--; 	if (0==p_->dwReference)	p_=0;						}

	mov	rax, QWORD PTR [rdi+16]
	test	rax, rax
	je	SHORT $LN81@Emplace_re
	dec	DWORD PTR [rax]
	mov	rax, QWORD PTR [rdi+16]
	cmp	DWORD PTR [rax], esi
	jne	SHORT $LN81@Emplace_re
	mov	QWORD PTR [rdi+16], rsi
$LN81@Emplace_re:

; 64   : 	void				_set		(shared_str const &rhs)			{	str_value* v = rhs.p_; if (0!=v) v->dwReference++; _dec(); p_ = v;							}

	mov	QWORD PTR [rdi+16], rcx
; File C:\Program Files\Microsoft Visual Studio\2022\Community\VC\Tools\MSVC\14.35.32215\include\vector

; 900  :         _Constructed_first = _Newvec + _Whereoff;

	mov	QWORD PTR _Constructed_first$[rsp], rdi

; 901  : 
; 902  :         if (_Whereptr == _Mylast) { // at back, provide strong guarantee

	mov	r11, QWORD PTR [r12+8]
	mov	r9, QWORD PTR [r12]
	mov	rcx, r15
	cmp	rbx, r11
	jne	$LN4@Emplace_re
; File C:\Program Files\Microsoft Visual Studio\2022\Community\VC\Tools\MSVC\14.35.32215\include\xmemory

; 1688 :     auto _UFirst = _Get_unwrapped(_STD move(_First));

	mov	QWORD PTR _UFirst$1[rsp], r9

; 1649 :     _CONSTEXPR20 _Uninitialized_backout_al(pointer _Dest, _Alloc& _Al_) : _First(_Dest), _Last(_Dest), _Al(_Al_) {}

	mov	QWORD PTR _Backout$4[rsp], r15
	mov	QWORD PTR _Backout$4[rsp+8], rcx
	mov	QWORD PTR _Backout$4[rsp+16], r12

; 1713 :     for (; _UFirst != _ULast; ++_UFirst) {

	mov	rdx, r15
	mov	r8, r15
$LL86@Emplace_re:
	cmp	r9, r11
	je	$LN85@Emplace_re
; File C:\Users\Mahito\Desktop\Night outing\Night-outing\src\xrCore\xrstring.h

; 74   : 						shared_str	(shared_str const &rhs)			{	p_ = 0;	_set(rhs);								}

	mov	QWORD PTR [rdx], rsi

; 64   : 	void				_set		(shared_str const &rhs)			{	str_value* v = rhs.p_; if (0!=v) v->dwReference++; _dec(); p_ = v;							}

	mov	r8, QWORD PTR [r9]
	test	r8, r8
	je	SHORT $LN99@Emplace_re
	inc	DWORD PTR [r8]
$LN99@Emplace_re:

; 61   : 	void				_dec		()								{	if (0==p_) return;	p_->dwReference--; 	if (0==p_->dwReference)	p_=0;						}

	mov	r10, QWORD PTR [rdx]
	test	r10, r10
	je	SHORT $LN103@Emplace_re
	mov	eax, DWORD PTR [r10]
	dec	eax
	mov	DWORD PTR [r10], eax
	mov	rax, QWORD PTR [rdx]
	cmp	DWORD PTR [rax], esi
	jne	SHORT $LN103@Emplace_re
	mov	QWORD PTR [rdx], rsi
$LN103@Emplace_re:

; 64   : 	void				_set		(shared_str const &rhs)			{	str_value* v = rhs.p_; if (0!=v) v->dwReference++; _dec(); p_ = v;							}

	mov	QWORD PTR [rdx], r8

; 74   : 						shared_str	(shared_str const &rhs)			{	p_ = 0;	_set(rhs);								}

	mov	QWORD PTR [rdx+8], rsi

; 64   : 	void				_set		(shared_str const &rhs)			{	str_value* v = rhs.p_; if (0!=v) v->dwReference++; _dec(); p_ = v;							}

	mov	r8, QWORD PTR [r9+8]
	test	r8, r8
	je	SHORT $LN108@Emplace_re
	inc	DWORD PTR [r8]
$LN108@Emplace_re:

; 61   : 	void				_dec		()								{	if (0==p_) return;	p_->dwReference--; 	if (0==p_->dwReference)	p_=0;						}

	mov	rax, QWORD PTR [rdx+8]
	test	rax, rax
	je	SHORT $LN112@Emplace_re
	dec	DWORD PTR [rax]
	mov	rax, QWORD PTR [rdx+8]
	cmp	DWORD PTR [rax], esi
	jne	SHORT $LN112@Emplace_re
	mov	QWORD PTR [rdx+8], rsi
$LN112@Emplace_re:

; 64   : 	void				_set		(shared_str const &rhs)			{	str_value* v = rhs.p_; if (0!=v) v->dwReference++; _dec(); p_ = v;							}

	mov	QWORD PTR [rdx+8], r8

; 74   : 						shared_str	(shared_str const &rhs)			{	p_ = 0;	_set(rhs);								}

	mov	QWORD PTR [rdx+16], rsi

; 64   : 	void				_set		(shared_str const &rhs)			{	str_value* v = rhs.p_; if (0!=v) v->dwReference++; _dec(); p_ = v;							}

	mov	r8, QWORD PTR [r9+16]
	test	r8, r8
	je	SHORT $LN117@Emplace_re
	inc	DWORD PTR [r8]
$LN117@Emplace_re:

; 61   : 	void				_dec		()								{	if (0==p_) return;	p_->dwReference--; 	if (0==p_->dwReference)	p_=0;						}

	mov	rax, QWORD PTR [rdx+16]
	test	rax, rax
	je	SHORT $LN121@Emplace_re
	dec	DWORD PTR [rax]
	mov	rax, QWORD PTR [rdx+16]
	cmp	DWORD PTR [rax], esi
	jne	SHORT $LN121@Emplace_re
	mov	QWORD PTR [rdx+16], rsi
$LN121@Emplace_re:

; 64   : 	void				_set		(shared_str const &rhs)			{	str_value* v = rhs.p_; if (0!=v) v->dwReference++; _dec(); p_ = v;							}

	mov	QWORD PTR [rdx+16], r8
; File C:\Program Files\Microsoft Visual Studio\2022\Community\VC\Tools\MSVC\14.35.32215\include\xmemory

; 1661 :         ++_Last;

	add	rcx, 24
	mov	rdx, rcx
	mov	QWORD PTR _Backout$4[rsp+8], rcx

; 1713 :     for (; _UFirst != _ULast; ++_UFirst) {

	add	r9, 24
	mov	QWORD PTR _UFirst$1[rsp], r9
	mov	r8, rcx
	jmp	$LL86@Emplace_re
$LN85@Emplace_re:

; 1665 :         _First = _Last;

	mov	QWORD PTR _Backout$4[rsp], rcx
$LN337@Emplace_re:

; 946  :         for (; _First != _Last; ++_First) {

	mov	QWORD PTR _First$[rsp], rcx
	cmp	rcx, r8
	je	SHORT $LN129@Emplace_re
; File C:\Users\Mahito\Desktop\Night outing\Night-outing\src\xrCore\xrstring.h

; 61   : 	void				_dec		()								{	if (0==p_) return;	p_->dwReference--; 	if (0==p_->dwReference)	p_=0;						}

	mov	rax, QWORD PTR [rcx+16]
	test	rax, rax
	je	SHORT $LN145@Emplace_re
	dec	DWORD PTR [rax]
	mov	rax, QWORD PTR [rcx+16]
	cmp	DWORD PTR [rax], esi
	jne	SHORT $LN145@Emplace_re
	mov	QWORD PTR [rcx+16], rsi
$LN145@Emplace_re:
	mov	rax, QWORD PTR [rcx+8]
	test	rax, rax
	je	SHORT $LN151@Emplace_re
	dec	DWORD PTR [rax]
	mov	rax, QWORD PTR [rcx+8]
	cmp	DWORD PTR [rax], esi
	jne	SHORT $LN151@Emplace_re
	mov	QWORD PTR [rcx+8], rsi
$LN151@Emplace_re:
	mov	rax, QWORD PTR [rcx]
	test	rax, rax
	je	SHORT $LN157@Emplace_re
	dec	DWORD PTR [rax]
	mov	rax, QWORD PTR [rcx]
	cmp	DWORD PTR [rax], esi
	jne	SHORT $LN157@Emplace_re
	mov	QWORD PTR [rcx], rsi
$LN157@Emplace_re:
; File C:\Program Files\Microsoft Visual Studio\2022\Community\VC\Tools\MSVC\14.35.32215\include\xmemory

; 946  :         for (; _First != _Last; ++_First) {

	add	rcx, 24
	jmp	SHORT $LN337@Emplace_re
$LN129@Emplace_re:
; File C:\Program Files\Microsoft Visual Studio\2022\Community\VC\Tools\MSVC\14.35.32215\include\vector

; 908  :         } else { // provide basic guarantee

	jmp	$LN5@Emplace_re
$LN4@Emplace_re:
; File C:\Program Files\Microsoft Visual Studio\2022\Community\VC\Tools\MSVC\14.35.32215\include\xmemory

; 1789 :     auto _UFirst      = _Get_unwrapped(_First);

	mov	QWORD PTR _UFirst$2[rsp], r9

; 1649 :     _CONSTEXPR20 _Uninitialized_backout_al(pointer _Dest, _Alloc& _Al_) : _First(_Dest), _Last(_Dest), _Al(_Al_) {}

	mov	QWORD PTR _Backout$5[rsp], r15
	mov	QWORD PTR _Backout$5[rsp+8], rcx
	mov	QWORD PTR _Backout$5[rsp+16], r12

; 1803 :     for (; _UFirst != _ULast; ++_UFirst) {

	mov	r8, r15
	mov	r10, r15
$LL164@Emplace_re:
	cmp	r9, rbx
	je	$LN163@Emplace_re
; File C:\Users\Mahito\Desktop\Night outing\Night-outing\src\xrCore\xrstring.h

; 74   : 						shared_str	(shared_str const &rhs)			{	p_ = 0;	_set(rhs);								}

	mov	QWORD PTR [r8], rsi

; 64   : 	void				_set		(shared_str const &rhs)			{	str_value* v = rhs.p_; if (0!=v) v->dwReference++; _dec(); p_ = v;							}

	mov	r10, QWORD PTR [r9]
	test	r10, r10
	je	SHORT $LN177@Emplace_re
	inc	DWORD PTR [r10]
$LN177@Emplace_re:

; 61   : 	void				_dec		()								{	if (0==p_) return;	p_->dwReference--; 	if (0==p_->dwReference)	p_=0;						}

	mov	r11, QWORD PTR [r8]
	test	r11, r11
	je	SHORT $LN181@Emplace_re
	mov	eax, DWORD PTR [r11]
	dec	eax
	mov	DWORD PTR [r11], eax
	mov	rax, QWORD PTR [r8]
	cmp	DWORD PTR [rax], esi
	jne	SHORT $LN181@Emplace_re
	mov	QWORD PTR [r8], rsi
$LN181@Emplace_re:

; 64   : 	void				_set		(shared_str const &rhs)			{	str_value* v = rhs.p_; if (0!=v) v->dwReference++; _dec(); p_ = v;							}

	mov	QWORD PTR [r8], r10

; 74   : 						shared_str	(shared_str const &rhs)			{	p_ = 0;	_set(rhs);								}

	mov	QWORD PTR [r8+8], rsi

; 64   : 	void				_set		(shared_str const &rhs)			{	str_value* v = rhs.p_; if (0!=v) v->dwReference++; _dec(); p_ = v;							}

	mov	r10, QWORD PTR [r9+8]
	test	r10, r10
	je	SHORT $LN186@Emplace_re
	inc	DWORD PTR [r10]
$LN186@Emplace_re:

; 61   : 	void				_dec		()								{	if (0==p_) return;	p_->dwReference--; 	if (0==p_->dwReference)	p_=0;						}

	mov	rax, QWORD PTR [r8+8]
	test	rax, rax
	je	SHORT $LN190@Emplace_re
	dec	DWORD PTR [rax]
	mov	rax, QWORD PTR [r8+8]
	cmp	DWORD PTR [rax], esi
	jne	SHORT $LN190@Emplace_re
	mov	QWORD PTR [r8+8], rsi
$LN190@Emplace_re:

; 64   : 	void				_set		(shared_str const &rhs)			{	str_value* v = rhs.p_; if (0!=v) v->dwReference++; _dec(); p_ = v;							}

	mov	QWORD PTR [r8+8], r10

; 74   : 						shared_str	(shared_str const &rhs)			{	p_ = 0;	_set(rhs);								}

	mov	QWORD PTR [r8+16], rsi

; 64   : 	void				_set		(shared_str const &rhs)			{	str_value* v = rhs.p_; if (0!=v) v->dwReference++; _dec(); p_ = v;							}

	mov	r10, QWORD PTR [r9+16]
	test	r10, r10
	je	SHORT $LN195@Emplace_re
	inc	DWORD PTR [r10]
$LN195@Emplace_re:

; 61   : 	void				_dec		()								{	if (0==p_) return;	p_->dwReference--; 	if (0==p_->dwReference)	p_=0;						}

	mov	rax, QWORD PTR [r8+16]
	test	rax, rax
	je	SHORT $LN199@Emplace_re
	dec	DWORD PTR [rax]
	mov	rax, QWORD PTR [r8+16]
	cmp	DWORD PTR [rax], esi
	jne	SHORT $LN199@Emplace_re
	mov	QWORD PTR [r8+16], rsi
$LN199@Emplace_re:

; 64   : 	void				_set		(shared_str const &rhs)			{	str_value* v = rhs.p_; if (0!=v) v->dwReference++; _dec(); p_ = v;							}

	mov	QWORD PTR [r8+16], r10
; File C:\Program Files\Microsoft Visual Studio\2022\Community\VC\Tools\MSVC\14.35.32215\include\xmemory

; 1661 :         ++_Last;

	add	rcx, 24
	mov	r8, rcx
	mov	QWORD PTR _Backout$5[rsp+8], rcx

; 1803 :     for (; _UFirst != _ULast; ++_UFirst) {

	add	r9, 24
	mov	QWORD PTR _UFirst$2[rsp], r9
	mov	r10, rcx
	jmp	$LL164@Emplace_re
$LN163@Emplace_re:

; 1665 :         _First = _Last;

	mov	QWORD PTR _Backout$5[rsp], rcx
$LN338@Emplace_re:

; 946  :         for (; _First != _Last; ++_First) {

	mov	QWORD PTR _First$[rsp], rcx
	cmp	rcx, r10
	je	SHORT $LN207@Emplace_re
; File C:\Users\Mahito\Desktop\Night outing\Night-outing\src\xrCore\xrstring.h

; 61   : 	void				_dec		()								{	if (0==p_) return;	p_->dwReference--; 	if (0==p_->dwReference)	p_=0;						}

	mov	rax, QWORD PTR [rcx+16]
	test	rax, rax
	je	SHORT $LN223@Emplace_re
	dec	DWORD PTR [rax]
	mov	rax, QWORD PTR [rcx+16]
	cmp	DWORD PTR [rax], esi
	jne	SHORT $LN223@Emplace_re
	mov	QWORD PTR [rcx+16], rsi
$LN223@Emplace_re:
	mov	rax, QWORD PTR [rcx+8]
	test	rax, rax
	je	SHORT $LN229@Emplace_re
	dec	DWORD PTR [rax]
	mov	rax, QWORD PTR [rcx+8]
	cmp	DWORD PTR [rax], esi
	jne	SHORT $LN229@Emplace_re
	mov	QWORD PTR [rcx+8], rsi
$LN229@Emplace_re:
	mov	rax, QWORD PTR [rcx]
	test	rax, rax
	je	SHORT $LN235@Emplace_re
	dec	DWORD PTR [rax]
	mov	rax, QWORD PTR [rcx]
	cmp	DWORD PTR [rax], esi
	jne	SHORT $LN235@Emplace_re
	mov	QWORD PTR [rcx], rsi
$LN235@Emplace_re:
; File C:\Program Files\Microsoft Visual Studio\2022\Community\VC\Tools\MSVC\14.35.32215\include\xmemory

; 946  :         for (; _First != _Last; ++_First) {

	add	rcx, 24
	jmp	SHORT $LN338@Emplace_re
$LN207@Emplace_re:
; File C:\Program Files\Microsoft Visual Studio\2022\Community\VC\Tools\MSVC\14.35.32215\include\vector

; 910  :             _Constructed_first = _Newvec;

	mov	QWORD PTR _Constructed_first$[rsp], r15

; 911  :             _Uninitialized_move(_Whereptr, _Mylast, _Newvec + _Whereoff + 1, _Al);

	mov	r10, QWORD PTR [r12+8]
; File C:\Program Files\Microsoft Visual Studio\2022\Community\VC\Tools\MSVC\14.35.32215\include\xmemory

; 1789 :     auto _UFirst      = _Get_unwrapped(_First);

	mov	QWORD PTR _UFirst$3[rsp], rbx

; 1649 :     _CONSTEXPR20 _Uninitialized_backout_al(pointer _Dest, _Alloc& _Al_) : _First(_Dest), _Last(_Dest), _Al(_Al_) {}

	mov	QWORD PTR _Backout$6[rsp], rdx
	mov	QWORD PTR _Backout$6[rsp+8], rdx
	mov	QWORD PTR _Backout$6[rsp+16], r12

; 1803 :     for (; _UFirst != _ULast; ++_UFirst) {

	mov	rcx, rdx
$LN339@Emplace_re:
	mov	r8, rdx
	cmp	rbx, r10
	je	$LN241@Emplace_re
; File C:\Users\Mahito\Desktop\Night outing\Night-outing\src\xrCore\xrstring.h

; 74   : 						shared_str	(shared_str const &rhs)			{	p_ = 0;	_set(rhs);								}

	mov	QWORD PTR [rcx], rsi

; 64   : 	void				_set		(shared_str const &rhs)			{	str_value* v = rhs.p_; if (0!=v) v->dwReference++; _dec(); p_ = v;							}

	mov	r8, QWORD PTR [rbx]
	test	r8, r8
	je	SHORT $LN255@Emplace_re
	inc	DWORD PTR [r8]
$LN255@Emplace_re:

; 61   : 	void				_dec		()								{	if (0==p_) return;	p_->dwReference--; 	if (0==p_->dwReference)	p_=0;						}

	mov	r9, QWORD PTR [rcx]
	test	r9, r9
	je	SHORT $LN259@Emplace_re
	mov	eax, DWORD PTR [r9]
	dec	eax
	mov	DWORD PTR [r9], eax
	mov	rax, QWORD PTR [rcx]
	cmp	DWORD PTR [rax], esi
	jne	SHORT $LN259@Emplace_re
	mov	QWORD PTR [rcx], rsi
$LN259@Emplace_re:

; 64   : 	void				_set		(shared_str const &rhs)			{	str_value* v = rhs.p_; if (0!=v) v->dwReference++; _dec(); p_ = v;							}

	mov	QWORD PTR [rcx], r8

; 74   : 						shared_str	(shared_str const &rhs)			{	p_ = 0;	_set(rhs);								}

	mov	QWORD PTR [rcx+8], rsi

; 64   : 	void				_set		(shared_str const &rhs)			{	str_value* v = rhs.p_; if (0!=v) v->dwReference++; _dec(); p_ = v;							}

	mov	r8, QWORD PTR [rbx+8]
	test	r8, r8
	je	SHORT $LN264@Emplace_re
	inc	DWORD PTR [r8]
$LN264@Emplace_re:

; 61   : 	void				_dec		()								{	if (0==p_) return;	p_->dwReference--; 	if (0==p_->dwReference)	p_=0;						}

	mov	rax, QWORD PTR [rcx+8]
	test	rax, rax
	je	SHORT $LN268@Emplace_re
	dec	DWORD PTR [rax]
	mov	rax, QWORD PTR [rcx+8]
	cmp	DWORD PTR [rax], esi
	jne	SHORT $LN268@Emplace_re
	mov	QWORD PTR [rcx+8], rsi
$LN268@Emplace_re:

; 64   : 	void				_set		(shared_str const &rhs)			{	str_value* v = rhs.p_; if (0!=v) v->dwReference++; _dec(); p_ = v;							}

	mov	QWORD PTR [rcx+8], r8

; 74   : 						shared_str	(shared_str const &rhs)			{	p_ = 0;	_set(rhs);								}

	mov	QWORD PTR [rcx+16], rsi

; 64   : 	void				_set		(shared_str const &rhs)			{	str_value* v = rhs.p_; if (0!=v) v->dwReference++; _dec(); p_ = v;							}

	mov	r8, QWORD PTR [rbx+16]
	test	r8, r8
	je	SHORT $LN273@Emplace_re
	inc	DWORD PTR [r8]
$LN273@Emplace_re:

; 61   : 	void				_dec		()								{	if (0==p_) return;	p_->dwReference--; 	if (0==p_->dwReference)	p_=0;						}

	mov	rax, QWORD PTR [rcx+16]
	test	rax, rax
	je	SHORT $LN277@Emplace_re
	dec	DWORD PTR [rax]
	mov	rax, QWORD PTR [rcx+16]
	cmp	DWORD PTR [rax], esi
	jne	SHORT $LN277@Emplace_re
	mov	QWORD PTR [rcx+16], rsi
$LN277@Emplace_re:

; 64   : 	void				_set		(shared_str const &rhs)			{	str_value* v = rhs.p_; if (0!=v) v->dwReference++; _dec(); p_ = v;							}

	mov	QWORD PTR [rcx+16], r8
; File C:\Program Files\Microsoft Visual Studio\2022\Community\VC\Tools\MSVC\14.35.32215\include\xmemory

; 1661 :         ++_Last;

	add	rdx, 24
	mov	rcx, rdx
	mov	QWORD PTR _Backout$6[rsp+8], rdx

; 1803 :     for (; _UFirst != _ULast; ++_UFirst) {

	add	rbx, 24
	mov	QWORD PTR _UFirst$3[rsp], rbx
	jmp	$LN339@Emplace_re
$LN241@Emplace_re:

; 1665 :         _First = _Last;

	mov	QWORD PTR _Backout$6[rsp], rdx
$LN340@Emplace_re:

; 946  :         for (; _First != _Last; ++_First) {

	mov	QWORD PTR _First$[rsp], rdx
	cmp	rdx, r8
	je	SHORT $LN285@Emplace_re
; File C:\Users\Mahito\Desktop\Night outing\Night-outing\src\xrCore\xrstring.h

; 61   : 	void				_dec		()								{	if (0==p_) return;	p_->dwReference--; 	if (0==p_->dwReference)	p_=0;						}

	mov	rax, QWORD PTR [rdx+16]
	test	rax, rax
	je	SHORT $LN301@Emplace_re
	dec	DWORD PTR [rax]
	mov	rax, QWORD PTR [rdx+16]
	cmp	DWORD PTR [rax], esi
	jne	SHORT $LN301@Emplace_re
	mov	QWORD PTR [rdx+16], rsi
$LN301@Emplace_re:
	mov	rax, QWORD PTR [rdx+8]
	test	rax, rax
	je	SHORT $LN307@Emplace_re
	dec	DWORD PTR [rax]
	mov	rax, QWORD PTR [rdx+8]
	cmp	DWORD PTR [rax], esi
	jne	SHORT $LN307@Emplace_re
	mov	QWORD PTR [rdx+8], rsi
$LN307@Emplace_re:
	mov	rax, QWORD PTR [rdx]
	test	rax, rax
	je	SHORT $LN313@Emplace_re
	dec	DWORD PTR [rax]
	mov	rax, QWORD PTR [rdx]
	cmp	DWORD PTR [rax], esi
	jne	SHORT $LN313@Emplace_re
	mov	QWORD PTR [rdx], rsi
$LN313@Emplace_re:
; File C:\Program Files\Microsoft Visual Studio\2022\Community\VC\Tools\MSVC\14.35.32215\include\xmemory

; 946  :         for (; _First != _Last; ++_First) {

	add	rdx, 24
	jmp	SHORT $LN340@Emplace_re
$LN285@Emplace_re:
$LN5@Emplace_re:
; File C:\Program Files\Microsoft Visual Studio\2022\Community\VC\Tools\MSVC\14.35.32215\include\vector

; 919  :         _Change_array(_Newvec, _Newsize, _Newcapacity);

	mov	r9, r13
	mov	r8, QWORD PTR _Newsize$1$[rsp]
	mov	rdx, r15
	mov	rcx, r12
	call	?_Change_array@?$vector@UItem@CInifile@@V?$xalloc@UItem@CInifile@@@@@std@@AEAAXQEAUItem@CInifile@@_K1@Z ; std::vector<CInifile::Item,xalloc<CInifile::Item> >::_Change_array

; 920  :         return _Newvec + _Whereoff;

	mov	rax, rdi

; 921  :     }

	add	rsp, 160				; 000000a0H
	pop	r15
	pop	r14
	pop	r13
	pop	r12
	pop	rdi
	pop	rsi
	pop	rbx
	ret	0
$LN342@Emplace_re:

; 888  :             _Xlength();

	call	?_Xlength@?$vector@UItem@CInifile@@V?$xalloc@UItem@CInifile@@@@@std@@CAXXZ ; std::vector<CInifile::Item,xalloc<CInifile::Item> >::_Xlength
	int	3
$LN336@Emplace_re:
??$_Emplace_reallocate@AEBUItem@CInifile@@@?$vector@UItem@CInifile@@V?$xalloc@UItem@CInifile@@@@@std@@AEAAPEAUItem@CInifile@@QEAU23@AEBU23@@Z ENDP ; std::vector<CInifile::Item,xalloc<CInifile::Item> >::_Emplace_reallocate<CInifile::Item const &>
_TEXT	ENDS
; Function compile flags: /Ogtpy
;	COMDAT text$x
text$x	SEGMENT
_Constructed_first$ = 32
_UFirst$1 = 40
_First$ = 48
_UFirst$2 = 56
_First$ = 64
_UFirst$3 = 72
_First$ = 80
_Backout$4 = 88
_Backout$5 = 112
_Backout$6 = 136
_Newsize$1$ = 224
this$ = 224
_Constructed_last$ = 232
_Whereptr$ = 232
<_Val_0>$ = 240
_Newvec$ = 248
?catch$0@?0???$_Emplace_reallocate@AEBUItem@CInifile@@@?$vector@UItem@CInifile@@V?$xalloc@UItem@CInifile@@@@@std@@AEAAPEAUItem@CInifile@@QEAU23@AEBU23@@Z@4HA PROC ; `std::vector<CInifile::Item,xalloc<CInifile::Item> >::_Emplace_reallocate<CInifile::Item const &>'::`1'::catch$0

; 913  :         _CATCH_ALL

	mov	QWORD PTR [rsp+16], rdx
	push	rbp
	sub	rsp, 32					; 00000020H
	mov	rbp, rdx
__catch$??$_Emplace_reallocate@AEBUItem@CInifile@@@?$vector@UItem@CInifile@@V?$xalloc@UItem@CInifile@@@@@std@@AEAAPEAUItem@CInifile@@QEAU23@AEBU23@@Z$0:

; 914  :         _Destroy_range(_Constructed_first, _Constructed_last, _Al);

	mov	rdx, QWORD PTR _Constructed_last$[rbp]
	mov	rcx, QWORD PTR _Constructed_first$[rbp]
	call	??$_Destroy_range@V?$xalloc@UItem@CInifile@@@@@std@@YAXPEAUItem@CInifile@@QEAU12@AEAV?$xalloc@UItem@CInifile@@@@@Z ; std::_Destroy_range<xalloc<CInifile::Item> >

; 915  :         _Al.deallocate(_Newvec, _Newcapacity);

	mov	rdx, QWORD PTR _Newvec$[rbp]
	call	?deallocate@?$xalloc@UItem@CInifile@@@@QEBAXPEAUItem@CInifile@@_K@Z ; xalloc<CInifile::Item>::deallocate

; 916  :         _RERAISE;

	xor	edx, edx
	xor	ecx, ecx
	call	_CxxThrowException
	npad	1
?catch$0@?0???$_Emplace_reallocate@AEBUItem@CInifile@@@?$vector@UItem@CInifile@@V?$xalloc@UItem@CInifile@@@@@std@@AEAAPEAUItem@CInifile@@QEAU23@AEBU23@@Z@4HA ENDP ; `std::vector<CInifile::Item,xalloc<CInifile::Item> >::_Emplace_reallocate<CInifile::Item const &>'::`1'::catch$0
text$x	ENDS
; Function compile flags: /Ogtpy
; File C:\Program Files\Microsoft Visual Studio\2022\Community\VC\Tools\MSVC\14.35.32215\include\xmemory
;	COMDAT ??$destroy@PEAUSect@CInifile@@@?$_Normal_allocator_traits@V?$xalloc@PEAUSect@CInifile@@@@@std@@SAXAEAV?$xalloc@PEAUSect@CInifile@@@@PEAPEAUSect@CInifile@@@Z
_TEXT	SEGMENT
_Al$dead$ = 8
_Ptr$dead$ = 16
??$destroy@PEAUSect@CInifile@@@?$_Normal_allocator_traits@V?$xalloc@PEAUSect@CInifile@@@@@std@@SAXAEAV?$xalloc@PEAUSect@CInifile@@@@PEAPEAUSect@CInifile@@@Z PROC ; std::_Normal_allocator_traits<xalloc<CInifile::Sect *> >::destroy<CInifile::Sect *>, COMDAT

; 578  :         if constexpr (_Uses_default_destroy<_Alloc, _Ty*>::value) {
; 579  : #if _HAS_CXX20
; 580  :             _STD destroy_at(_Ptr);
; 581  : #else // _HAS_CXX20
; 582  :             _Ptr->~_Ty();
; 583  : #endif // _HAS_CXX20
; 584  :         } else {
; 585  :             _Al.destroy(_Ptr);
; 586  :         }
; 587  :     }

	ret	0
??$destroy@PEAUSect@CInifile@@@?$_Normal_allocator_traits@V?$xalloc@PEAUSect@CInifile@@@@@std@@SAXAEAV?$xalloc@PEAUSect@CInifile@@@@PEAPEAUSect@CInifile@@@Z ENDP ; std::_Normal_allocator_traits<xalloc<CInifile::Sect *> >::destroy<CInifile::Sect *>
_TEXT	ENDS
; Function compile flags: /Ogtpy
; File C:\Program Files\Microsoft Visual Studio\2022\Community\VC\Tools\MSVC\14.35.32215\include\xmemory
;	COMDAT ??$_Emplace_back@PEAUSect@CInifile@@@?$_Uninitialized_backout_al@V?$xalloc@PEAUSect@CInifile@@@@@std@@QEAAX$$QEAPEAUSect@CInifile@@@Z
_TEXT	SEGMENT
this$ = 8
<_Vals_0>$ = 16
??$_Emplace_back@PEAUSect@CInifile@@@?$_Uninitialized_backout_al@V?$xalloc@PEAUSect@CInifile@@@@@std@@QEAAX$$QEAPEAUSect@CInifile@@@Z PROC ; std::_Uninitialized_backout_al<xalloc<CInifile::Sect *> >::_Emplace_back<CInifile::Sect *>, COMDAT

; 1660 :         allocator_traits<_Alloc>::construct(_Al, _Unfancy(_Last), _STD forward<_Types>(_Vals)...);

	mov	r8, QWORD PTR [rcx+8]
	mov	rax, QWORD PTR [rdx]
	mov	QWORD PTR [r8], rax

; 1661 :         ++_Last;

	add	QWORD PTR [rcx+8], 8

; 1662 :     }

	ret	0
??$_Emplace_back@PEAUSect@CInifile@@@?$_Uninitialized_backout_al@V?$xalloc@PEAUSect@CInifile@@@@@std@@QEAAX$$QEAPEAUSect@CInifile@@@Z ENDP ; std::_Uninitialized_backout_al<xalloc<CInifile::Sect *> >::_Emplace_back<CInifile::Sect *>
_TEXT	ENDS
; Function compile flags: /Ogtpy
; File C:\Program Files\Microsoft Visual Studio\2022\Community\VC\Tools\MSVC\14.35.32215\include\type_traits
;	COMDAT ??$move@AEAPEAUItem@CInifile@@@std@@YA$$QEAPEAUItem@CInifile@@AEAPEAU12@@Z
_TEXT	SEGMENT
_Arg$ = 8
??$move@AEAPEAUItem@CInifile@@@std@@YA$$QEAPEAUItem@CInifile@@AEAPEAU12@@Z PROC ; std::move<CInifile::Item * &>, COMDAT

; 1438 :     return static_cast<remove_reference_t<_Ty>&&>(_Arg);

	mov	rax, rcx

; 1439 : }

	ret	0
??$move@AEAPEAUItem@CInifile@@@std@@YA$$QEAPEAUItem@CInifile@@AEAPEAU12@@Z ENDP ; std::move<CInifile::Item * &>
_TEXT	ENDS
; Function compile flags: /Ogtpy
; File C:\Program Files\Microsoft Visual Studio\2022\Community\VC\Tools\MSVC\14.35.32215\include\xmemory
; File C:\Users\Mahito\Desktop\Night outing\Night-outing\src\xrCore\_stl_extensions.h
; File C:\Users\Mahito\Desktop\Night outing\Night-outing\src\xrCore\xrstring.h
; File C:\Program Files\Microsoft Visual Studio\2022\Community\VC\Tools\MSVC\14.35.32215\include\xmemory
; File C:\Users\Mahito\Desktop\Night outing\Night-outing\src\xrCore\xrstring.h
; File C:\Program Files\Microsoft Visual Studio\2022\Community\VC\Tools\MSVC\14.35.32215\include\xmemory
;	COMDAT ??$_Emplace_back@AEAUItem@CInifile@@@?$_Uninitialized_backout_al@V?$xalloc@UItem@CInifile@@@@@std@@QEAAXAEAUItem@CInifile@@@Z
_TEXT	SEGMENT
this$ = 8
<_Vals_0>$ = 16
??$_Emplace_back@AEAUItem@CInifile@@@?$_Uninitialized_backout_al@V?$xalloc@UItem@CInifile@@@@@std@@QEAAXAEAUItem@CInifile@@@Z PROC ; std::_Uninitialized_backout_al<xalloc<CInifile::Item> >::_Emplace_back<CInifile::Item &>, COMDAT
; File C:\Users\Mahito\Desktop\Night outing\Night-outing\src\xrCore\_stl_extensions.h

; 85   : 							void					construct		(pointer p, const T& _Val)				{	::new(p) T(_Val);	}

	mov	rax, QWORD PTR [rcx+8]
; File C:\Users\Mahito\Desktop\Night outing\Night-outing\src\xrCore\xrstring.h

; 74   : 						shared_str	(shared_str const &rhs)			{	p_ = 0;	_set(rhs);								}

	xor	r10d, r10d
; File C:\Program Files\Microsoft Visual Studio\2022\Community\VC\Tools\MSVC\14.35.32215\include\xmemory

; 1659 :     _CONSTEXPR20 void _Emplace_back(_Types&&... _Vals) { // construct a new element at *_Last and increment

	mov	r8, rcx
	mov	r9, rdx
; File C:\Users\Mahito\Desktop\Night outing\Night-outing\src\xrCore\xrstring.h

; 74   : 						shared_str	(shared_str const &rhs)			{	p_ = 0;	_set(rhs);								}

	mov	QWORD PTR [rax], r10

; 64   : 	void				_set		(shared_str const &rhs)			{	str_value* v = rhs.p_; if (0!=v) v->dwReference++; _dec(); p_ = v;							}

	mov	rcx, QWORD PTR [rdx]
	test	rcx, rcx
	je	SHORT $LN12@Emplace_ba
	inc	DWORD PTR [rcx]
$LN12@Emplace_ba:

; 61   : 	void				_dec		()								{	if (0==p_) return;	p_->dwReference--; 	if (0==p_->dwReference)	p_=0;						}

	mov	rdx, QWORD PTR [rax]
	test	rdx, rdx
	je	SHORT $LN16@Emplace_ba
	dec	DWORD PTR [rdx]
$LN16@Emplace_ba:

; 64   : 	void				_set		(shared_str const &rhs)			{	str_value* v = rhs.p_; if (0!=v) v->dwReference++; _dec(); p_ = v;							}

	mov	QWORD PTR [rax], rcx

; 74   : 						shared_str	(shared_str const &rhs)			{	p_ = 0;	_set(rhs);								}

	mov	QWORD PTR [rax+8], r10

; 64   : 	void				_set		(shared_str const &rhs)			{	str_value* v = rhs.p_; if (0!=v) v->dwReference++; _dec(); p_ = v;							}

	mov	rcx, QWORD PTR [r9+8]
	test	rcx, rcx
	je	SHORT $LN21@Emplace_ba
	inc	DWORD PTR [rcx]
$LN21@Emplace_ba:

; 61   : 	void				_dec		()								{	if (0==p_) return;	p_->dwReference--; 	if (0==p_->dwReference)	p_=0;						}

	mov	rdx, QWORD PTR [rax+8]
	test	rdx, rdx
	je	SHORT $LN25@Emplace_ba
	dec	DWORD PTR [rdx]
$LN25@Emplace_ba:

; 64   : 	void				_set		(shared_str const &rhs)			{	str_value* v = rhs.p_; if (0!=v) v->dwReference++; _dec(); p_ = v;							}

	mov	QWORD PTR [rax+8], rcx

; 74   : 						shared_str	(shared_str const &rhs)			{	p_ = 0;	_set(rhs);								}

	mov	QWORD PTR [rax+16], r10

; 64   : 	void				_set		(shared_str const &rhs)			{	str_value* v = rhs.p_; if (0!=v) v->dwReference++; _dec(); p_ = v;							}

	mov	rcx, QWORD PTR [r9+16]
	test	rcx, rcx
	je	SHORT $LN30@Emplace_ba
	inc	DWORD PTR [rcx]
$LN30@Emplace_ba:

; 61   : 	void				_dec		()								{	if (0==p_) return;	p_->dwReference--; 	if (0==p_->dwReference)	p_=0;						}

	mov	rdx, QWORD PTR [rax+16]
	test	rdx, rdx
	je	SHORT $LN36@Emplace_ba
	dec	DWORD PTR [rdx]
$LN36@Emplace_ba:
; File C:\Program Files\Microsoft Visual Studio\2022\Community\VC\Tools\MSVC\14.35.32215\include\xmemory

; 1662 :     }

	mov	QWORD PTR [rax+16], rcx
	add	QWORD PTR [r8+8], 24
	ret	0
??$_Emplace_back@AEAUItem@CInifile@@@?$_Uninitialized_backout_al@V?$xalloc@UItem@CInifile@@@@@std@@QEAAXAEAUItem@CInifile@@@Z ENDP ; std::_Uninitialized_backout_al<xalloc<CInifile::Item> >::_Emplace_back<CInifile::Item &>
_TEXT	ENDS
; Function compile flags: /Ogtpy
; File C:\Program Files\Microsoft Visual Studio\2022\Community\VC\Tools\MSVC\14.35.32215\include\xmemory
; File C:\Program Files\Microsoft Visual Studio\2022\Community\VC\Tools\MSVC\14.35.32215\include\vector
; File C:\Program Files\Microsoft Visual Studio\2022\Community\VC\Tools\MSVC\14.35.32215\include\xmemory
;	COMDAT ??$?0$$V@?$_Compressed_pair@V?$xalloc@UItem@CInifile@@@@V?$_Vector_val@U?$_Simple_types@UItem@CInifile@@@std@@@std@@$00@std@@QEAA@U_Zero_then_variadic_args_t@1@@Z
_TEXT	SEGMENT
this$ = 8
__formal$dead$ = 16
??$?0$$V@?$_Compressed_pair@V?$xalloc@UItem@CInifile@@@@V?$_Vector_val@U?$_Simple_types@UItem@CInifile@@@std@@@std@@$00@std@@QEAA@U_Zero_then_variadic_args_t@1@@Z PROC ; std::_Compressed_pair<xalloc<CInifile::Item>,std::_Vector_val<std::_Simple_types<CInifile::Item> >,1>::_Compressed_pair<xalloc<CInifile::Item>,std::_Vector_val<std::_Simple_types<CInifile::Item> >,1><>, COMDAT
; File C:\Program Files\Microsoft Visual Studio\2022\Community\VC\Tools\MSVC\14.35.32215\include\vector

; 390  :     _CONSTEXPR20 _Vector_val() noexcept : _Myfirst(), _Mylast(), _Myend() {}

	xor	eax, eax
	mov	QWORD PTR [rcx], rax
	mov	QWORD PTR [rcx+8], rax
	mov	QWORD PTR [rcx+16], rax
; File C:\Program Files\Microsoft Visual Studio\2022\Community\VC\Tools\MSVC\14.35.32215\include\xmemory

; 1375 :         : _Ty1(), _Myval2(_STD forward<_Other2>(_Val2)...) {}

	mov	rax, rcx
	ret	0
??$?0$$V@?$_Compressed_pair@V?$xalloc@UItem@CInifile@@@@V?$_Vector_val@U?$_Simple_types@UItem@CInifile@@@std@@@std@@$00@std@@QEAA@U_Zero_then_variadic_args_t@1@@Z ENDP ; std::_Compressed_pair<xalloc<CInifile::Item>,std::_Vector_val<std::_Simple_types<CInifile::Item> >,1>::_Compressed_pair<xalloc<CInifile::Item>,std::_Vector_val<std::_Simple_types<CInifile::Item> >,1><>
_TEXT	ENDS
; Function compile flags: /Ogtpy
; File C:\Program Files\Microsoft Visual Studio\2022\Community\VC\Tools\MSVC\14.35.32215\include\vector
;	COMDAT ?_Seek_to@?$_Vector_const_iterator@V?$_Vector_val@U?$_Simple_types@PEAUSect@CInifile@@@std@@@std@@@std@@QEAAXPEBQEAUSect@CInifile@@@Z
_TEXT	SEGMENT
this$ = 8
_It$ = 16
?_Seek_to@?$_Vector_const_iterator@V?$_Vector_val@U?$_Simple_types@PEAUSect@CInifile@@@std@@@std@@@std@@QEAAXPEBQEAUSect@CInifile@@@Z PROC ; std::_Vector_const_iterator<std::_Vector_val<std::_Simple_types<CInifile::Sect *> > >::_Seek_to, COMDAT

; 211  :         _Ptr = _Refancy<_Tptr>(const_cast<value_type*>(_It));

	mov	QWORD PTR [rcx], rdx

; 212  :     }

	ret	0
?_Seek_to@?$_Vector_const_iterator@V?$_Vector_val@U?$_Simple_types@PEAUSect@CInifile@@@std@@@std@@@std@@QEAAXPEBQEAUSect@CInifile@@@Z ENDP ; std::_Vector_const_iterator<std::_Vector_val<std::_Simple_types<CInifile::Sect *> > >::_Seek_to
_TEXT	ENDS
; Function compile flags: /Ogtpy
; File C:\Program Files\Microsoft Visual Studio\2022\Community\VC\Tools\MSVC\14.35.32215\include\vector
;	COMDAT ?_Seek_to@?$_Vector_const_iterator@V?$_Vector_val@U?$_Simple_types@UItem@CInifile@@@std@@@std@@@std@@QEAAXPEBUItem@CInifile@@@Z
_TEXT	SEGMENT
this$ = 8
_It$ = 16
?_Seek_to@?$_Vector_const_iterator@V?$_Vector_val@U?$_Simple_types@UItem@CInifile@@@std@@@std@@@std@@QEAAXPEBUItem@CInifile@@@Z PROC ; std::_Vector_const_iterator<std::_Vector_val<std::_Simple_types<CInifile::Item> > >::_Seek_to, COMDAT

; 211  :         _Ptr = _Refancy<_Tptr>(const_cast<value_type*>(_It));

	mov	QWORD PTR [rcx], rdx

; 212  :     }

	ret	0
?_Seek_to@?$_Vector_const_iterator@V?$_Vector_val@U?$_Simple_types@UItem@CInifile@@@std@@@std@@@std@@QEAAXPEBUItem@CInifile@@@Z ENDP ; std::_Vector_const_iterator<std::_Vector_val<std::_Simple_types<CInifile::Item> > >::_Seek_to
_TEXT	ENDS
; Function compile flags: /Ogtpy
; File C:\Program Files\Microsoft Visual Studio\2022\Community\VC\Tools\MSVC\14.35.32215\include\vector
;	COMDAT ?_Calculate_growth@?$vector@PEAUSect@CInifile@@V?$xalloc@PEAUSect@CInifile@@@@@std@@AEBA_K_K@Z
_TEXT	SEGMENT
this$ = 8
_Newsize$ = 16
?_Calculate_growth@?$vector@PEAUSect@CInifile@@V?$xalloc@PEAUSect@CInifile@@@@@std@@AEBA_K_K@Z PROC ; std::vector<CInifile::Sect *,xalloc<CInifile::Sect *> >::_Calculate_growth, COMDAT

; 1942 :         return static_cast<size_type>(_My_data._Myend - _My_data._Myfirst);

	mov	r8, QWORD PTR [rcx+16]

; 2025 :         // given _Oldcapacity and _Newsize, calculate geometric growth
; 2026 :         const size_type _Oldcapacity = capacity();
; 2027 :         const auto _Max              = max_size();
; 2028 : 
; 2029 :         if (_Oldcapacity > _Max - _Oldcapacity / 2) {

	mov	rax, 2305843009213693951		; 1fffffffffffffffH

; 1942 :         return static_cast<size_type>(_My_data._Myend - _My_data._Myfirst);

	sub	r8, QWORD PTR [rcx]

; 2025 :         // given _Oldcapacity and _Newsize, calculate geometric growth
; 2026 :         const size_type _Oldcapacity = capacity();
; 2027 :         const auto _Max              = max_size();
; 2028 : 
; 2029 :         if (_Oldcapacity > _Max - _Oldcapacity / 2) {

	mov	rcx, rax

; 1942 :         return static_cast<size_type>(_My_data._Myend - _My_data._Myfirst);

	sar	r8, 3

; 2025 :         // given _Oldcapacity and _Newsize, calculate geometric growth
; 2026 :         const size_type _Oldcapacity = capacity();
; 2027 :         const auto _Max              = max_size();
; 2028 : 
; 2029 :         if (_Oldcapacity > _Max - _Oldcapacity / 2) {

	mov	r9, r8
	shr	r9, 1
	sub	rcx, r9
	cmp	r8, rcx
	ja	SHORT $LN1@Calculate_

; 2030 :             return _Max; // geometric growth would overflow
; 2031 :         }
; 2032 : 
; 2033 :         const size_type _Geometric = _Oldcapacity + _Oldcapacity / 2;

	lea	rax, QWORD PTR [r9+r8]

; 2034 : 
; 2035 :         if (_Geometric < _Newsize) {

	cmp	rax, rdx
	cmovb	rax, rdx
$LN1@Calculate_:

; 2036 :             return _Newsize; // geometric growth would be insufficient
; 2037 :         }
; 2038 : 
; 2039 :         return _Geometric; // geometric growth is sufficient
; 2040 :     }

	ret	0
?_Calculate_growth@?$vector@PEAUSect@CInifile@@V?$xalloc@PEAUSect@CInifile@@@@@std@@AEBA_K_K@Z ENDP ; std::vector<CInifile::Sect *,xalloc<CInifile::Sect *> >::_Calculate_growth
_TEXT	ENDS
; Function compile flags: /Ogtpy
; File C:\Users\Mahito\Desktop\Night outing\Night-outing\src\xrCore\_stl_extensions.h
;	COMDAT ?destroy@?$xalloc@PEAUSect@CInifile@@@@QEAAXPEAPEAUSect@CInifile@@@Z
_TEXT	SEGMENT
this$dead$ = 8
p$dead$ = 16
?destroy@?$xalloc@PEAUSect@CInifile@@@@QEAAXPEAPEAUSect@CInifile@@@Z PROC ; xalloc<CInifile::Sect *>::destroy, COMDAT

; 86   : 							void					destroy			(pointer p)								{	p->~T();			}

	ret	0
?destroy@?$xalloc@PEAUSect@CInifile@@@@QEAAXPEAPEAUSect@CInifile@@@Z ENDP ; xalloc<CInifile::Sect *>::destroy
_TEXT	ENDS
; Function compile flags: /Ogtpy
; File C:\Users\Mahito\Desktop\Night outing\Night-outing\src\xrCore\_stl_extensions.h
;	COMDAT ?construct@?$xalloc@PEAUSect@CInifile@@@@QEAAXPEAPEAUSect@CInifile@@AEBQEAU23@@Z
_TEXT	SEGMENT
this$dead$ = 8
p$ = 16
_Val$ = 24
?construct@?$xalloc@PEAUSect@CInifile@@@@QEAAXPEAPEAUSect@CInifile@@AEBQEAU23@@Z PROC ; xalloc<CInifile::Sect *>::construct, COMDAT

; 85   : 							void					construct		(pointer p, const T& _Val)				{	::new(p) T(_Val);	}

	mov	rax, QWORD PTR [r8]
	mov	QWORD PTR [rdx], rax
	ret	0
?construct@?$xalloc@PEAUSect@CInifile@@@@QEAAXPEAPEAUSect@CInifile@@AEBQEAU23@@Z ENDP ; xalloc<CInifile::Sect *>::construct
_TEXT	ENDS
; Function compile flags: /Ogtpy
; File C:\Program Files\Microsoft Visual Studio\2022\Community\VC\Tools\MSVC\14.35.32215\include\vector
;	COMDAT ??0?$_Vector_val@U?$_Simple_types@UItem@CInifile@@@std@@@std@@QEAA@XZ
_TEXT	SEGMENT
this$ = 8
??0?$_Vector_val@U?$_Simple_types@UItem@CInifile@@@std@@@std@@QEAA@XZ PROC ; std::_Vector_val<std::_Simple_types<CInifile::Item> >::_Vector_val<std::_Simple_types<CInifile::Item> >, COMDAT

; 390  :     _CONSTEXPR20 _Vector_val() noexcept : _Myfirst(), _Mylast(), _Myend() {}

	xor	eax, eax
	mov	QWORD PTR [rcx], rax
	mov	QWORD PTR [rcx+8], rax
	mov	QWORD PTR [rcx+16], rax
	mov	rax, rcx
	ret	0
??0?$_Vector_val@U?$_Simple_types@UItem@CInifile@@@std@@@std@@QEAA@XZ ENDP ; std::_Vector_val<std::_Simple_types<CInifile::Item> >::_Vector_val<std::_Simple_types<CInifile::Item> >
_TEXT	ENDS
; Function compile flags: /Ogtpy
; File C:\Program Files\Microsoft Visual Studio\2022\Community\VC\Tools\MSVC\14.35.32215\include\vector
;	COMDAT ?_Calculate_growth@?$vector@UItem@CInifile@@V?$xalloc@UItem@CInifile@@@@@std@@AEBA_K_K@Z
_TEXT	SEGMENT
this$ = 8
_Newsize$ = 16
?_Calculate_growth@?$vector@UItem@CInifile@@V?$xalloc@UItem@CInifile@@@@@std@@AEBA_K_K@Z PROC ; std::vector<CInifile::Item,xalloc<CInifile::Item> >::_Calculate_growth, COMDAT

; 1942 :         return static_cast<size_type>(_My_data._Myend - _My_data._Myfirst);

	mov	r8, QWORD PTR [rcx+16]
	mov	rax, -6148914691236517205		; aaaaaaaaaaaaaaabH
	sub	r8, QWORD PTR [rcx]
	sar	r8, 3
	imul	r8, rax

; 2025 :         // given _Oldcapacity and _Newsize, calculate geometric growth
; 2026 :         const size_type _Oldcapacity = capacity();
; 2027 :         const auto _Max              = max_size();
; 2028 : 
; 2029 :         if (_Oldcapacity > _Max - _Oldcapacity / 2) {

	mov	rax, 768614336404564650			; 0aaaaaaaaaaaaaaaH
	mov	r9, r8
	mov	rcx, rax
	shr	r9, 1
	sub	rcx, r9
	cmp	r8, rcx
	ja	SHORT $LN1@Calculate_

; 2030 :             return _Max; // geometric growth would overflow
; 2031 :         }
; 2032 : 
; 2033 :         const size_type _Geometric = _Oldcapacity + _Oldcapacity / 2;

	lea	rax, QWORD PTR [r9+r8]

; 2034 : 
; 2035 :         if (_Geometric < _Newsize) {

	cmp	rax, rdx
	cmovb	rax, rdx
$LN1@Calculate_:

; 2036 :             return _Newsize; // geometric growth would be insufficient
; 2037 :         }
; 2038 : 
; 2039 :         return _Geometric; // geometric growth is sufficient
; 2040 :     }

	ret	0
?_Calculate_growth@?$vector@UItem@CInifile@@V?$xalloc@UItem@CInifile@@@@@std@@AEBA_K_K@Z ENDP ; std::vector<CInifile::Item,xalloc<CInifile::Item> >::_Calculate_growth
_TEXT	ENDS
; Function compile flags: /Ogtpy
; File C:\Users\Mahito\Desktop\Night outing\Night-outing\src\xrCore\_stl_extensions.h
; File C:\Users\Mahito\Desktop\Night outing\Night-outing\src\xrCore\xrstring.h
; File C:\Users\Mahito\Desktop\Night outing\Night-outing\src\xrCore\_stl_extensions.h
;	COMDAT ?construct@?$xalloc@UItem@CInifile@@@@QEAAXPEAUItem@CInifile@@AEBU23@@Z
_TEXT	SEGMENT
this$dead$ = 8
p$ = 16
_Val$ = 24
?construct@?$xalloc@UItem@CInifile@@@@QEAAXPEAUItem@CInifile@@AEBU23@@Z PROC ; xalloc<CInifile::Item>::construct, COMDAT
; File C:\Users\Mahito\Desktop\Night outing\Night-outing\src\xrCore\xrstring.h

; 74   : 						shared_str	(shared_str const &rhs)			{	p_ = 0;	_set(rhs);								}

	xor	r9d, r9d
	mov	QWORD PTR [rdx], r9

; 64   : 	void				_set		(shared_str const &rhs)			{	str_value* v = rhs.p_; if (0!=v) v->dwReference++; _dec(); p_ = v;							}

	mov	rax, QWORD PTR [r8]
	test	rax, rax
	je	SHORT $LN8@construct
	inc	DWORD PTR [rax]
$LN8@construct:

; 61   : 	void				_dec		()								{	if (0==p_) return;	p_->dwReference--; 	if (0==p_->dwReference)	p_=0;						}

	mov	rcx, QWORD PTR [rdx]
	test	rcx, rcx
	je	SHORT $LN12@construct
	dec	DWORD PTR [rcx]
$LN12@construct:

; 64   : 	void				_set		(shared_str const &rhs)			{	str_value* v = rhs.p_; if (0!=v) v->dwReference++; _dec(); p_ = v;							}

	mov	QWORD PTR [rdx], rax

; 74   : 						shared_str	(shared_str const &rhs)			{	p_ = 0;	_set(rhs);								}

	mov	QWORD PTR [rdx+8], r9

; 64   : 	void				_set		(shared_str const &rhs)			{	str_value* v = rhs.p_; if (0!=v) v->dwReference++; _dec(); p_ = v;							}

	mov	rax, QWORD PTR [r8+8]
	test	rax, rax
	je	SHORT $LN17@construct
	inc	DWORD PTR [rax]
$LN17@construct:

; 61   : 	void				_dec		()								{	if (0==p_) return;	p_->dwReference--; 	if (0==p_->dwReference)	p_=0;						}

	mov	rcx, QWORD PTR [rdx+8]
	test	rcx, rcx
	je	SHORT $LN21@construct
	dec	DWORD PTR [rcx]
$LN21@construct:

; 64   : 	void				_set		(shared_str const &rhs)			{	str_value* v = rhs.p_; if (0!=v) v->dwReference++; _dec(); p_ = v;							}

	mov	QWORD PTR [rdx+8], rax

; 74   : 						shared_str	(shared_str const &rhs)			{	p_ = 0;	_set(rhs);								}

	mov	QWORD PTR [rdx+16], r9

; 64   : 	void				_set		(shared_str const &rhs)			{	str_value* v = rhs.p_; if (0!=v) v->dwReference++; _dec(); p_ = v;							}

	mov	rax, QWORD PTR [r8+16]
	test	rax, rax
	je	SHORT $LN26@construct
	inc	DWORD PTR [rax]
$LN26@construct:

; 61   : 	void				_dec		()								{	if (0==p_) return;	p_->dwReference--; 	if (0==p_->dwReference)	p_=0;						}

	mov	rcx, QWORD PTR [rdx+16]
	test	rcx, rcx
	je	SHORT $LN32@construct
	dec	DWORD PTR [rcx]
$LN32@construct:
; File C:\Users\Mahito\Desktop\Night outing\Night-outing\src\xrCore\_stl_extensions.h

; 85   : 							void					construct		(pointer p, const T& _Val)				{	::new(p) T(_Val);	}

	mov	QWORD PTR [rdx+16], rax
	ret	0
?construct@?$xalloc@UItem@CInifile@@@@QEAAXPEAUItem@CInifile@@AEBU23@@Z ENDP ; xalloc<CInifile::Item>::construct
_TEXT	ENDS
; Function compile flags: /Ogtpy
; File C:\Users\Mahito\Desktop\Night outing\Night-outing\src\xrCore\_stl_extensions.h
;	COMDAT ??0?$xalloc@UItem@CInifile@@@@QEAA@XZ
_TEXT	SEGMENT
this$ = 8
??0?$xalloc@UItem@CInifile@@@@QEAA@XZ PROC		; xalloc<CInifile::Item>::xalloc<CInifile::Item>, COMDAT

; 77   : 													xalloc			()										{	}

	mov	rax, rcx
	ret	0
??0?$xalloc@UItem@CInifile@@@@QEAA@XZ ENDP		; xalloc<CInifile::Item>::xalloc<CInifile::Item>
_TEXT	ENDS
; Function compile flags: /Ogtpy
; File C:\Users\Mahito\Desktop\Night outing\Night-outing\src\xrCore\xrstring.h
;	COMDAT ??0Item@CInifile@@QEAA@AEBU01@@Z
_TEXT	SEGMENT
this$ = 8
__that$ = 16
??0Item@CInifile@@QEAA@AEBU01@@Z PROC			; CInifile::Item::Item, COMDAT

; 74   : 						shared_str	(shared_str const &rhs)			{	p_ = 0;	_set(rhs);								}

	xor	r10d, r10d
	mov	r9, rdx
	mov	QWORD PTR [rcx], r10

; 64   : 	void				_set		(shared_str const &rhs)			{	str_value* v = rhs.p_; if (0!=v) v->dwReference++; _dec(); p_ = v;							}

	mov	rax, QWORD PTR [rdx]
	test	rax, rax
	je	SHORT $LN6@Item
	inc	DWORD PTR [rax]
$LN6@Item:

; 61   : 	void				_dec		()								{	if (0==p_) return;	p_->dwReference--; 	if (0==p_->dwReference)	p_=0;						}

	mov	r8, QWORD PTR [rcx]
	test	r8, r8
	je	SHORT $LN10@Item
	dec	DWORD PTR [r8]
$LN10@Item:

; 64   : 	void				_set		(shared_str const &rhs)			{	str_value* v = rhs.p_; if (0!=v) v->dwReference++; _dec(); p_ = v;							}

	mov	QWORD PTR [rcx], rax

; 74   : 						shared_str	(shared_str const &rhs)			{	p_ = 0;	_set(rhs);								}

	mov	QWORD PTR [rcx+8], r10

; 64   : 	void				_set		(shared_str const &rhs)			{	str_value* v = rhs.p_; if (0!=v) v->dwReference++; _dec(); p_ = v;							}

	mov	rax, QWORD PTR [rdx+8]
	test	rax, rax
	je	SHORT $LN15@Item
	inc	DWORD PTR [rax]
$LN15@Item:

; 61   : 	void				_dec		()								{	if (0==p_) return;	p_->dwReference--; 	if (0==p_->dwReference)	p_=0;						}

	mov	rdx, QWORD PTR [rcx+8]
	test	rdx, rdx
	je	SHORT $LN19@Item
	dec	DWORD PTR [rdx]
$LN19@Item:

; 64   : 	void				_set		(shared_str const &rhs)			{	str_value* v = rhs.p_; if (0!=v) v->dwReference++; _dec(); p_ = v;							}

	mov	QWORD PTR [rcx+8], rax

; 74   : 						shared_str	(shared_str const &rhs)			{	p_ = 0;	_set(rhs);								}

	mov	QWORD PTR [rcx+16], r10

; 64   : 	void				_set		(shared_str const &rhs)			{	str_value* v = rhs.p_; if (0!=v) v->dwReference++; _dec(); p_ = v;							}

	mov	rax, QWORD PTR [r9+16]
	test	rax, rax
	je	SHORT $LN24@Item
	inc	DWORD PTR [rax]
$LN24@Item:

; 61   : 	void				_dec		()								{	if (0==p_) return;	p_->dwReference--; 	if (0==p_->dwReference)	p_=0;						}

	mov	rdx, QWORD PTR [rcx+16]
	test	rdx, rdx
	je	SHORT $LN30@Item
	dec	DWORD PTR [rdx]
$LN30@Item:

; 64   : 	void				_set		(shared_str const &rhs)			{	str_value* v = rhs.p_; if (0!=v) v->dwReference++; _dec(); p_ = v;							}

	mov	QWORD PTR [rcx+16], rax
	mov	rax, rcx
	ret	0
??0Item@CInifile@@QEAA@AEBU01@@Z ENDP			; CInifile::Item::Item
_TEXT	ENDS
; Function compile flags: /Ogtpy
; File C:\Program Files\Microsoft Visual Studio\2022\Community\VC\Tools\MSVC\14.35.32215\include\xmemory
;	COMDAT ??$construct@PEAUSect@CInifile@@AEBQEAU12@@?$_Normal_allocator_traits@V?$xalloc@PEAUSect@CInifile@@@@@std@@SAXAEAV?$xalloc@PEAUSect@CInifile@@@@PEAPEAUSect@CInifile@@AEBQEAU34@@Z
_TEXT	SEGMENT
_Al$dead$ = 8
_Ptr$ = 16
<_Args_0>$ = 24
??$construct@PEAUSect@CInifile@@AEBQEAU12@@?$_Normal_allocator_traits@V?$xalloc@PEAUSect@CInifile@@@@@std@@SAXAEAV?$xalloc@PEAUSect@CInifile@@@@PEAPEAUSect@CInifile@@AEBQEAU34@@Z PROC ; std::_Normal_allocator_traits<xalloc<CInifile::Sect *> >::construct<CInifile::Sect *,CInifile::Sect * const &>, COMDAT

; 565  :         if constexpr (_Uses_default_construct<_Alloc, _Ty*, _Types...>::value) {
; 566  : #if _HAS_CXX20
; 567  :             _STD construct_at(_Ptr, _STD forward<_Types>(_Args)...);
; 568  : #else // _HAS_CXX20
; 569  :             ::new (static_cast<void*>(_Ptr)) _Ty(_STD forward<_Types>(_Args)...);
; 570  : #endif // _HAS_CXX20
; 571  :         } else {
; 572  :             _Al.construct(_Ptr, _STD forward<_Types>(_Args)...);

	mov	rax, QWORD PTR [r8]
	mov	QWORD PTR [rdx], rax

; 573  :         }
; 574  :     }

	ret	0
??$construct@PEAUSect@CInifile@@AEBQEAU12@@?$_Normal_allocator_traits@V?$xalloc@PEAUSect@CInifile@@@@@std@@SAXAEAV?$xalloc@PEAUSect@CInifile@@@@PEAPEAUSect@CInifile@@AEBQEAU34@@Z ENDP ; std::_Normal_allocator_traits<xalloc<CInifile::Sect *> >::construct<CInifile::Sect *,CInifile::Sect * const &>
_TEXT	ENDS
; Function compile flags: /Ogtpy
; File C:\Program Files\Microsoft Visual Studio\2022\Community\VC\Tools\MSVC\14.35.32215\include\xmemory
; File C:\Users\Mahito\Desktop\Night outing\Night-outing\src\xrCore\xrstring.h
; File C:\Program Files\Microsoft Visual Studio\2022\Community\VC\Tools\MSVC\14.35.32215\include\xmemory
;	COMDAT ??$construct@UItem@CInifile@@AEBU12@@?$_Normal_allocator_traits@V?$xalloc@UItem@CInifile@@@@@std@@SAXAEAV?$xalloc@UItem@CInifile@@@@PEAUItem@CInifile@@AEBU34@@Z
_TEXT	SEGMENT
_Al$dead$ = 8
_Ptr$ = 16
<_Args_0>$ = 24
??$construct@UItem@CInifile@@AEBU12@@?$_Normal_allocator_traits@V?$xalloc@UItem@CInifile@@@@@std@@SAXAEAV?$xalloc@UItem@CInifile@@@@PEAUItem@CInifile@@AEBU34@@Z PROC ; std::_Normal_allocator_traits<xalloc<CInifile::Item> >::construct<CInifile::Item,CInifile::Item const &>, COMDAT
; File C:\Users\Mahito\Desktop\Night outing\Night-outing\src\xrCore\xrstring.h

; 74   : 						shared_str	(shared_str const &rhs)			{	p_ = 0;	_set(rhs);								}

	xor	r9d, r9d
	mov	QWORD PTR [rdx], r9

; 64   : 	void				_set		(shared_str const &rhs)			{	str_value* v = rhs.p_; if (0!=v) v->dwReference++; _dec(); p_ = v;							}

	mov	rax, QWORD PTR [r8]
	test	rax, rax
	je	SHORT $LN10@construct
	inc	DWORD PTR [rax]
$LN10@construct:

; 61   : 	void				_dec		()								{	if (0==p_) return;	p_->dwReference--; 	if (0==p_->dwReference)	p_=0;						}

	mov	rcx, QWORD PTR [rdx]
	test	rcx, rcx
	je	SHORT $LN14@construct
	dec	DWORD PTR [rcx]
$LN14@construct:

; 64   : 	void				_set		(shared_str const &rhs)			{	str_value* v = rhs.p_; if (0!=v) v->dwReference++; _dec(); p_ = v;							}

	mov	QWORD PTR [rdx], rax

; 74   : 						shared_str	(shared_str const &rhs)			{	p_ = 0;	_set(rhs);								}

	mov	QWORD PTR [rdx+8], r9

; 64   : 	void				_set		(shared_str const &rhs)			{	str_value* v = rhs.p_; if (0!=v) v->dwReference++; _dec(); p_ = v;							}

	mov	rax, QWORD PTR [r8+8]
	test	rax, rax
	je	SHORT $LN19@construct
	inc	DWORD PTR [rax]
$LN19@construct:

; 61   : 	void				_dec		()								{	if (0==p_) return;	p_->dwReference--; 	if (0==p_->dwReference)	p_=0;						}

	mov	rcx, QWORD PTR [rdx+8]
	test	rcx, rcx
	je	SHORT $LN23@construct
	dec	DWORD PTR [rcx]
$LN23@construct:

; 64   : 	void				_set		(shared_str const &rhs)			{	str_value* v = rhs.p_; if (0!=v) v->dwReference++; _dec(); p_ = v;							}

	mov	QWORD PTR [rdx+8], rax

; 74   : 						shared_str	(shared_str const &rhs)			{	p_ = 0;	_set(rhs);								}

	mov	QWORD PTR [rdx+16], r9

; 64   : 	void				_set		(shared_str const &rhs)			{	str_value* v = rhs.p_; if (0!=v) v->dwReference++; _dec(); p_ = v;							}

	mov	rax, QWORD PTR [r8+16]
	test	rax, rax
	je	SHORT $LN28@construct
	inc	DWORD PTR [rax]
$LN28@construct:

; 61   : 	void				_dec		()								{	if (0==p_) return;	p_->dwReference--; 	if (0==p_->dwReference)	p_=0;						}

	mov	rcx, QWORD PTR [rdx+16]
	test	rcx, rcx
	je	SHORT $LN34@construct
	dec	DWORD PTR [rcx]
$LN34@construct:
; File C:\Program Files\Microsoft Visual Studio\2022\Community\VC\Tools\MSVC\14.35.32215\include\xmemory

; 574  :     }

	mov	QWORD PTR [rdx+16], rax
	ret	0
??$construct@UItem@CInifile@@AEBU12@@?$_Normal_allocator_traits@V?$xalloc@UItem@CInifile@@@@@std@@SAXAEAV?$xalloc@UItem@CInifile@@@@PEAUItem@CInifile@@AEBU34@@Z ENDP ; std::_Normal_allocator_traits<xalloc<CInifile::Item> >::construct<CInifile::Item,CInifile::Item const &>
_TEXT	ENDS
; Function compile flags: /Ogtpy
; File C:\Program Files\Microsoft Visual Studio\2022\Community\VC\Tools\MSVC\14.35.32215\include\xutility
;	COMDAT ??$advance@PEAUItem@CInifile@@_J@std@@YAXAEAPEAUItem@CInifile@@_J@Z
_TEXT	SEGMENT
_Where$ = 8
_Off$ = 16
??$advance@PEAUItem@CInifile@@_J@std@@YAXAEAPEAUItem@CInifile@@_J@Z PROC ; std::advance<CInifile::Item *,__int64>, COMDAT

; 1178 :     if constexpr (_Is_ranges_random_iter_v<_InIt>) {
; 1179 :         _Where += _Off;

	lea	rax, QWORD PTR [rdx+rdx*2]
	shl	rax, 3
	add	QWORD PTR [rcx], rax

; 1180 :     } else {
; 1181 :         if constexpr (is_signed_v<_Diff> && !_Is_ranges_bidi_iter_v<_InIt>) {
; 1182 :             _STL_ASSERT(_Off >= 0, "negative advance of non-bidirectional iterator");
; 1183 :         }
; 1184 : 
; 1185 :         decltype(auto) _UWhere      = _Get_unwrapped_n(_STD move(_Where), _Off);
; 1186 :         constexpr bool _Need_rewrap = !is_reference_v<decltype(_Get_unwrapped_n(_STD move(_Where), _Off))>;
; 1187 : 
; 1188 :         if constexpr (is_signed_v<_Diff> && _Is_ranges_bidi_iter_v<_InIt>) {
; 1189 :             for (; _Off < 0; ++_Off) {
; 1190 :                 --_UWhere;
; 1191 :             }
; 1192 :         }
; 1193 : 
; 1194 :         for (; 0 < _Off; --_Off) {
; 1195 :             ++_UWhere;
; 1196 :         }
; 1197 : 
; 1198 :         if constexpr (_Need_rewrap) {
; 1199 :             _Seek_wrapped(_Where, _STD move(_UWhere));
; 1200 :         }
; 1201 :     }
; 1202 : }

	ret	0
??$advance@PEAUItem@CInifile@@_J@std@@YAXAEAPEAUItem@CInifile@@_J@Z ENDP ; std::advance<CInifile::Item *,__int64>
_TEXT	ENDS
; Function compile flags: /Ogtpy
; File C:\Program Files\Microsoft Visual Studio\2022\Community\VC\Tools\MSVC\14.35.32215\include\type_traits
;	COMDAT ??$forward@AEAPEAUItem@CInifile@@@std@@YAAEAPEAUItem@CInifile@@AEAPEAU12@@Z
_TEXT	SEGMENT
_Arg$ = 8
??$forward@AEAPEAUItem@CInifile@@@std@@YAAEAPEAUItem@CInifile@@AEAPEAU12@@Z PROC ; std::forward<CInifile::Item * &>, COMDAT

; 1427 :     return static_cast<_Ty&&>(_Arg);

	mov	rax, rcx

; 1428 : }

	ret	0
??$forward@AEAPEAUItem@CInifile@@@std@@YAAEAPEAUItem@CInifile@@AEAPEAU12@@Z ENDP ; std::forward<CInifile::Item * &>
_TEXT	ENDS
; Function compile flags: /Ogtpy
; File C:\Program Files\Microsoft Visual Studio\2022\Community\VC\Tools\MSVC\14.35.32215\include\xutility
;	COMDAT ??$advance@PEAPEAUSect@CInifile@@_J@std@@YAXAEAPEAPEAUSect@CInifile@@_J@Z
_TEXT	SEGMENT
_Where$ = 8
_Off$ = 16
??$advance@PEAPEAUSect@CInifile@@_J@std@@YAXAEAPEAPEAUSect@CInifile@@_J@Z PROC ; std::advance<CInifile::Sect * *,__int64>, COMDAT

; 1178 :     if constexpr (_Is_ranges_random_iter_v<_InIt>) {
; 1179 :         _Where += _Off;

	lea	rax, QWORD PTR [rdx*8]
	add	QWORD PTR [rcx], rax

; 1180 :     } else {
; 1181 :         if constexpr (is_signed_v<_Diff> && !_Is_ranges_bidi_iter_v<_InIt>) {
; 1182 :             _STL_ASSERT(_Off >= 0, "negative advance of non-bidirectional iterator");
; 1183 :         }
; 1184 : 
; 1185 :         decltype(auto) _UWhere      = _Get_unwrapped_n(_STD move(_Where), _Off);
; 1186 :         constexpr bool _Need_rewrap = !is_reference_v<decltype(_Get_unwrapped_n(_STD move(_Where), _Off))>;
; 1187 : 
; 1188 :         if constexpr (is_signed_v<_Diff> && _Is_ranges_bidi_iter_v<_InIt>) {
; 1189 :             for (; _Off < 0; ++_Off) {
; 1190 :                 --_UWhere;
; 1191 :             }
; 1192 :         }
; 1193 : 
; 1194 :         for (; 0 < _Off; --_Off) {
; 1195 :             ++_UWhere;
; 1196 :         }
; 1197 : 
; 1198 :         if constexpr (_Need_rewrap) {
; 1199 :             _Seek_wrapped(_Where, _STD move(_UWhere));
; 1200 :         }
; 1201 :     }
; 1202 : }

	ret	0
??$advance@PEAPEAUSect@CInifile@@_J@std@@YAXAEAPEAPEAUSect@CInifile@@_J@Z ENDP ; std::advance<CInifile::Sect * *,__int64>
_TEXT	ENDS
; Function compile flags: /Ogtpy
; File C:\Program Files\Microsoft Visual Studio\2022\Community\VC\Tools\MSVC\14.35.32215\include\type_traits
;	COMDAT ??$forward@AEAPEAPEAUSect@CInifile@@@std@@YAAEAPEAPEAUSect@CInifile@@AEAPEAPEAU12@@Z
_TEXT	SEGMENT
_Arg$ = 8
??$forward@AEAPEAPEAUSect@CInifile@@@std@@YAAEAPEAPEAUSect@CInifile@@AEAPEAPEAU12@@Z PROC ; std::forward<CInifile::Sect * * &>, COMDAT

; 1427 :     return static_cast<_Ty&&>(_Arg);

	mov	rax, rcx

; 1428 : }

	ret	0
??$forward@AEAPEAPEAUSect@CInifile@@@std@@YAAEAPEAPEAUSect@CInifile@@AEAPEAPEAU12@@Z ENDP ; std::forward<CInifile::Sect * * &>
_TEXT	ENDS
; Function compile flags: /Ogtpy
; File C:\Program Files\Microsoft Visual Studio\2022\Community\VC\Tools\MSVC\14.35.32215\include\xutility
;	COMDAT ??$advance@PEBQEAUSect@CInifile@@_J@std@@YAXAEAPEBQEAUSect@CInifile@@_J@Z
_TEXT	SEGMENT
_Where$ = 8
_Off$ = 16
??$advance@PEBQEAUSect@CInifile@@_J@std@@YAXAEAPEBQEAUSect@CInifile@@_J@Z PROC ; std::advance<CInifile::Sect * const *,__int64>, COMDAT

; 1178 :     if constexpr (_Is_ranges_random_iter_v<_InIt>) {
; 1179 :         _Where += _Off;

	lea	rax, QWORD PTR [rdx*8]
	add	QWORD PTR [rcx], rax

; 1180 :     } else {
; 1181 :         if constexpr (is_signed_v<_Diff> && !_Is_ranges_bidi_iter_v<_InIt>) {
; 1182 :             _STL_ASSERT(_Off >= 0, "negative advance of non-bidirectional iterator");
; 1183 :         }
; 1184 : 
; 1185 :         decltype(auto) _UWhere      = _Get_unwrapped_n(_STD move(_Where), _Off);
; 1186 :         constexpr bool _Need_rewrap = !is_reference_v<decltype(_Get_unwrapped_n(_STD move(_Where), _Off))>;
; 1187 : 
; 1188 :         if constexpr (is_signed_v<_Diff> && _Is_ranges_bidi_iter_v<_InIt>) {
; 1189 :             for (; _Off < 0; ++_Off) {
; 1190 :                 --_UWhere;
; 1191 :             }
; 1192 :         }
; 1193 : 
; 1194 :         for (; 0 < _Off; --_Off) {
; 1195 :             ++_UWhere;
; 1196 :         }
; 1197 : 
; 1198 :         if constexpr (_Need_rewrap) {
; 1199 :             _Seek_wrapped(_Where, _STD move(_UWhere));
; 1200 :         }
; 1201 :     }
; 1202 : }

	ret	0
??$advance@PEBQEAUSect@CInifile@@_J@std@@YAXAEAPEBQEAUSect@CInifile@@_J@Z ENDP ; std::advance<CInifile::Sect * const *,__int64>
_TEXT	ENDS
; Function compile flags: /Ogtpy
; File C:\Program Files\Microsoft Visual Studio\2022\Community\VC\Tools\MSVC\14.35.32215\include\type_traits
;	COMDAT ??$forward@AEAPEBQEAUSect@CInifile@@@std@@YAAEAPEBQEAUSect@CInifile@@AEAPEBQEAU12@@Z
_TEXT	SEGMENT
_Arg$ = 8
??$forward@AEAPEBQEAUSect@CInifile@@@std@@YAAEAPEBQEAUSect@CInifile@@AEAPEBQEAU12@@Z PROC ; std::forward<CInifile::Sect * const * &>, COMDAT

; 1427 :     return static_cast<_Ty&&>(_Arg);

	mov	rax, rcx

; 1428 : }

	ret	0
??$forward@AEAPEBQEAUSect@CInifile@@@std@@YAAEAPEBQEAUSect@CInifile@@AEAPEBQEAU12@@Z ENDP ; std::forward<CInifile::Sect * const * &>
_TEXT	ENDS
; Function compile flags: /Ogtpy
; File C:\Program Files\Microsoft Visual Studio\2022\Community\VC\Tools\MSVC\14.35.32215\include\xutility
;	COMDAT ??$advance@PEBUItem@CInifile@@_J@std@@YAXAEAPEBUItem@CInifile@@_J@Z
_TEXT	SEGMENT
_Where$ = 8
_Off$ = 16
??$advance@PEBUItem@CInifile@@_J@std@@YAXAEAPEBUItem@CInifile@@_J@Z PROC ; std::advance<CInifile::Item const *,__int64>, COMDAT

; 1178 :     if constexpr (_Is_ranges_random_iter_v<_InIt>) {
; 1179 :         _Where += _Off;

	lea	rax, QWORD PTR [rdx+rdx*2]
	shl	rax, 3
	add	QWORD PTR [rcx], rax

; 1180 :     } else {
; 1181 :         if constexpr (is_signed_v<_Diff> && !_Is_ranges_bidi_iter_v<_InIt>) {
; 1182 :             _STL_ASSERT(_Off >= 0, "negative advance of non-bidirectional iterator");
; 1183 :         }
; 1184 : 
; 1185 :         decltype(auto) _UWhere      = _Get_unwrapped_n(_STD move(_Where), _Off);
; 1186 :         constexpr bool _Need_rewrap = !is_reference_v<decltype(_Get_unwrapped_n(_STD move(_Where), _Off))>;
; 1187 : 
; 1188 :         if constexpr (is_signed_v<_Diff> && _Is_ranges_bidi_iter_v<_InIt>) {
; 1189 :             for (; _Off < 0; ++_Off) {
; 1190 :                 --_UWhere;
; 1191 :             }
; 1192 :         }
; 1193 : 
; 1194 :         for (; 0 < _Off; --_Off) {
; 1195 :             ++_UWhere;
; 1196 :         }
; 1197 : 
; 1198 :         if constexpr (_Need_rewrap) {
; 1199 :             _Seek_wrapped(_Where, _STD move(_UWhere));
; 1200 :         }
; 1201 :     }
; 1202 : }

	ret	0
??$advance@PEBUItem@CInifile@@_J@std@@YAXAEAPEBUItem@CInifile@@_J@Z ENDP ; std::advance<CInifile::Item const *,__int64>
_TEXT	ENDS
; Function compile flags: /Ogtpy
; File C:\Program Files\Microsoft Visual Studio\2022\Community\VC\Tools\MSVC\14.35.32215\include\type_traits
;	COMDAT ??$forward@AEAPEBUItem@CInifile@@@std@@YAAEAPEBUItem@CInifile@@AEAPEBU12@@Z
_TEXT	SEGMENT
_Arg$ = 8
??$forward@AEAPEBUItem@CInifile@@@std@@YAAEAPEBUItem@CInifile@@AEAPEBU12@@Z PROC ; std::forward<CInifile::Item const * &>, COMDAT

; 1427 :     return static_cast<_Ty&&>(_Arg);

	mov	rax, rcx

; 1428 : }

	ret	0
??$forward@AEAPEBUItem@CInifile@@@std@@YAAEAPEBUItem@CInifile@@AEAPEBU12@@Z ENDP ; std::forward<CInifile::Item const * &>
_TEXT	ENDS
; Function compile flags: /Ogtpy
; File C:\Program Files\Microsoft Visual Studio\2022\Community\VC\Tools\MSVC\14.35.32215\include\type_traits
;	COMDAT ??$forward@PEAUSect@CInifile@@@std@@YA$$QEAPEAUSect@CInifile@@AEAPEAU12@@Z
_TEXT	SEGMENT
_Arg$ = 8
??$forward@PEAUSect@CInifile@@@std@@YA$$QEAPEAUSect@CInifile@@AEAPEAU12@@Z PROC ; std::forward<CInifile::Sect *>, COMDAT

; 1427 :     return static_cast<_Ty&&>(_Arg);

	mov	rax, rcx

; 1428 : }

	ret	0
??$forward@PEAUSect@CInifile@@@std@@YA$$QEAPEAUSect@CInifile@@AEAPEAU12@@Z ENDP ; std::forward<CInifile::Sect *>
_TEXT	ENDS
; Function compile flags: /Ogtpy
; File C:\Program Files\Microsoft Visual Studio\2022\Community\VC\Tools\MSVC\14.35.32215\include\xutility
;	COMDAT ??$_Copy_backward_memmove@PEAPEAUSect@CInifile@@PEAPEAU12@@std@@YAPEAPEAUSect@CInifile@@PEAPEAU12@00@Z
_TEXT	SEGMENT
_First$ = 8
_Last$ = 16
_Dest$ = 24
??$_Copy_backward_memmove@PEAPEAUSect@CInifile@@PEAPEAU12@@std@@YAPEAPEAUSect@CInifile@@PEAPEAU12@00@Z PROC ; std::_Copy_backward_memmove<CInifile::Sect * *,CInifile::Sect * *>, COMDAT

; 4539 :     // implement copy_backward-like function as memmove
; 4540 :     auto _FirstPtr              = _To_address(_First);
; 4541 :     auto _LastPtr               = _To_address(_Last);
; 4542 :     auto _DestPtr               = _To_address(_Dest);
; 4543 :     const char* const _First_ch = const_cast<const char*>(reinterpret_cast<const volatile char*>(_FirstPtr));
; 4544 :     const char* const _Last_ch  = const_cast<const char*>(reinterpret_cast<const volatile char*>(_LastPtr));
; 4545 :     char* const _Dest_ch        = const_cast<char*>(reinterpret_cast<const volatile char*>(_DestPtr));
; 4546 :     const auto _Count           = static_cast<size_t>(_Last_ch - _First_ch);

	sub	rdx, rcx
	mov	rax, r8

; 4547 :     auto _Result                = _CSTD memmove(_Dest_ch - _Count, _First_ch, _Count);

	sub	rax, rdx
	mov	r8, rdx
	mov	rdx, rcx
	mov	rcx, rax
	jmp	memmove
??$_Copy_backward_memmove@PEAPEAUSect@CInifile@@PEAPEAU12@@std@@YAPEAPEAUSect@CInifile@@PEAPEAU12@00@Z ENDP ; std::_Copy_backward_memmove<CInifile::Sect * *,CInifile::Sect * *>
_TEXT	ENDS
; Function compile flags: /Ogtpy
; File C:\Program Files\Microsoft Visual Studio\2022\Community\VC\Tools\MSVC\14.35.32215\include\xutility
;	COMDAT ??$_To_address@PEAPEAUSect@CInifile@@@std@@YA?A_PAEBQEAPEAUSect@CInifile@@@Z
_TEXT	SEGMENT
_Val$ = 8
??$_To_address@PEAPEAUSect@CInifile@@@std@@YA?A_PAEBQEAPEAUSect@CInifile@@@Z PROC ; std::_To_address<CInifile::Sect * *>, COMDAT

; 4110 :     _STL_INTERNAL_STATIC_ASSERT(is_pointer_v<_Iter>);
; 4111 :     return _Val;

	mov	rax, QWORD PTR [rcx]

; 4112 : }

	ret	0
??$_To_address@PEAPEAUSect@CInifile@@@std@@YA?A_PAEBQEAPEAUSect@CInifile@@@Z ENDP ; std::_To_address<CInifile::Sect * *>
_TEXT	ENDS
; Function compile flags: /Ogtpy
; File C:\Program Files\Microsoft Visual Studio\2022\Community\VC\Tools\MSVC\14.35.32215\include\type_traits
;	COMDAT ??$forward@UItem@CInifile@@@std@@YA$$QEAUItem@CInifile@@AEAU12@@Z
_TEXT	SEGMENT
_Arg$ = 8
??$forward@UItem@CInifile@@@std@@YA$$QEAUItem@CInifile@@AEAU12@@Z PROC ; std::forward<CInifile::Item>, COMDAT

; 1427 :     return static_cast<_Ty&&>(_Arg);

	mov	rax, rcx

; 1428 : }

	ret	0
??$forward@UItem@CInifile@@@std@@YA$$QEAUItem@CInifile@@AEAU12@@Z ENDP ; std::forward<CInifile::Item>
_TEXT	ENDS
; Function compile flags: /Ogtpy
; File C:\Program Files\Microsoft Visual Studio\2022\Community\VC\Tools\MSVC\14.35.32215\include\xmemory
; File C:\Users\Mahito\Desktop\Night outing\Night-outing\src\xrCore\xrstring.h
; File C:\Program Files\Microsoft Visual Studio\2022\Community\VC\Tools\MSVC\14.35.32215\include\xmemory
;	COMDAT ??$_Uninitialized_move@PEAUItem@CInifile@@V?$xalloc@UItem@CInifile@@@@@std@@YAPEAUItem@CInifile@@QEAU12@0PEAU12@AEAV?$xalloc@UItem@CInifile@@@@@Z
_TEXT	SEGMENT
_First$ = 8
_Last$ = 16
_Dest$ = 24
_Al$dead$ = 32
??$_Uninitialized_move@PEAUItem@CInifile@@V?$xalloc@UItem@CInifile@@@@@std@@YAPEAUItem@CInifile@@QEAU12@0PEAU12@AEAV?$xalloc@UItem@CInifile@@@@@Z PROC ; std::_Uninitialized_move<CInifile::Item *,xalloc<CInifile::Item> >, COMDAT

; 1785 :     const _InIt _First, const _InIt _Last, _Alloc_ptr_t<_Alloc> _Dest, _Alloc& _Al) {

	mov	r9, rcx

; 1786 :     // move [_First, _Last) to raw _Dest, using _Al
; 1787 :     // note: only called internally from elsewhere in the STL
; 1788 :     using _Ptrval     = typename _Alloc::value_type*;
; 1789 :     auto _UFirst      = _Get_unwrapped(_First);
; 1790 :     const auto _ULast = _Get_unwrapped(_Last);
; 1791 :     if constexpr (conjunction_v<bool_constant<_Iter_move_cat<decltype(_UFirst), _Ptrval>::_Bitcopy_constructible>,
; 1792 :                       _Uses_default_construct<_Alloc, _Ptrval, decltype(_STD move(*_UFirst))>>) {
; 1793 : #if _HAS_CXX20
; 1794 :         if (!_STD is_constant_evaluated())
; 1795 : #endif // _HAS_CXX20
; 1796 :         {
; 1797 :             _Copy_memmove(_UFirst, _ULast, _Unfancy(_Dest));
; 1798 :             return _Dest + (_ULast - _UFirst);
; 1799 :         }
; 1800 :     }
; 1801 : 
; 1802 :     _Uninitialized_backout_al<_Alloc> _Backout{_Dest, _Al};
; 1803 :     for (; _UFirst != _ULast; ++_UFirst) {

	cmp	rcx, rdx
	je	SHORT $LN87@Uninitiali

; 1649 :     _CONSTEXPR20 _Uninitialized_backout_al(pointer _Dest, _Alloc& _Al_) : _First(_Dest), _Last(_Dest), _Al(_Al_) {}

	sub	r9, r8
	xor	r10d, r10d
	npad	2
$LL4@Uninitiali:
; File C:\Users\Mahito\Desktop\Night outing\Night-outing\src\xrCore\xrstring.h

; 74   : 						shared_str	(shared_str const &rhs)			{	p_ = 0;	_set(rhs);								}

	mov	QWORD PTR [r8], r10

; 64   : 	void				_set		(shared_str const &rhs)			{	str_value* v = rhs.p_; if (0!=v) v->dwReference++; _dec(); p_ = v;							}

	mov	rax, QWORD PTR [r9+r8]
	test	rax, rax
	je	SHORT $LN17@Uninitiali
	inc	DWORD PTR [rax]
$LN17@Uninitiali:

; 61   : 	void				_dec		()								{	if (0==p_) return;	p_->dwReference--; 	if (0==p_->dwReference)	p_=0;						}

	mov	rcx, QWORD PTR [r8]
	test	rcx, rcx
	je	SHORT $LN21@Uninitiali
	dec	DWORD PTR [rcx]
$LN21@Uninitiali:

; 64   : 	void				_set		(shared_str const &rhs)			{	str_value* v = rhs.p_; if (0!=v) v->dwReference++; _dec(); p_ = v;							}

	mov	QWORD PTR [r8], rax

; 74   : 						shared_str	(shared_str const &rhs)			{	p_ = 0;	_set(rhs);								}

	mov	QWORD PTR [r8+8], r10

; 64   : 	void				_set		(shared_str const &rhs)			{	str_value* v = rhs.p_; if (0!=v) v->dwReference++; _dec(); p_ = v;							}

	mov	rcx, QWORD PTR [r9+r8+8]
	test	rcx, rcx
	je	SHORT $LN26@Uninitiali
	inc	DWORD PTR [rcx]
$LN26@Uninitiali:

; 61   : 	void				_dec		()								{	if (0==p_) return;	p_->dwReference--; 	if (0==p_->dwReference)	p_=0;						}

	mov	rax, QWORD PTR [r8+8]
	test	rax, rax
	je	SHORT $LN30@Uninitiali
	dec	DWORD PTR [rax]
$LN30@Uninitiali:

; 64   : 	void				_set		(shared_str const &rhs)			{	str_value* v = rhs.p_; if (0!=v) v->dwReference++; _dec(); p_ = v;							}

	mov	QWORD PTR [r8+8], rcx

; 74   : 						shared_str	(shared_str const &rhs)			{	p_ = 0;	_set(rhs);								}

	mov	QWORD PTR [r8+16], r10

; 64   : 	void				_set		(shared_str const &rhs)			{	str_value* v = rhs.p_; if (0!=v) v->dwReference++; _dec(); p_ = v;							}

	mov	rax, QWORD PTR [r9+r8+16]
	test	rax, rax
	je	SHORT $LN35@Uninitiali
	inc	DWORD PTR [rax]
$LN35@Uninitiali:

; 61   : 	void				_dec		()								{	if (0==p_) return;	p_->dwReference--; 	if (0==p_->dwReference)	p_=0;						}

	mov	rcx, QWORD PTR [r8+16]
	test	rcx, rcx
	je	SHORT $LN39@Uninitiali
	dec	DWORD PTR [rcx]
$LN39@Uninitiali:

; 64   : 	void				_set		(shared_str const &rhs)			{	str_value* v = rhs.p_; if (0!=v) v->dwReference++; _dec(); p_ = v;							}

	mov	QWORD PTR [r8+16], rax
; File C:\Program Files\Microsoft Visual Studio\2022\Community\VC\Tools\MSVC\14.35.32215\include\xmemory

; 1661 :         ++_Last;

	add	r8, 24

; 1786 :     // move [_First, _Last) to raw _Dest, using _Al
; 1787 :     // note: only called internally from elsewhere in the STL
; 1788 :     using _Ptrval     = typename _Alloc::value_type*;
; 1789 :     auto _UFirst      = _Get_unwrapped(_First);
; 1790 :     const auto _ULast = _Get_unwrapped(_Last);
; 1791 :     if constexpr (conjunction_v<bool_constant<_Iter_move_cat<decltype(_UFirst), _Ptrval>::_Bitcopy_constructible>,
; 1792 :                       _Uses_default_construct<_Alloc, _Ptrval, decltype(_STD move(*_UFirst))>>) {
; 1793 : #if _HAS_CXX20
; 1794 :         if (!_STD is_constant_evaluated())
; 1795 : #endif // _HAS_CXX20
; 1796 :         {
; 1797 :             _Copy_memmove(_UFirst, _ULast, _Unfancy(_Dest));
; 1798 :             return _Dest + (_ULast - _UFirst);
; 1799 :         }
; 1800 :     }
; 1801 : 
; 1802 :     _Uninitialized_backout_al<_Alloc> _Backout{_Dest, _Al};
; 1803 :     for (; _UFirst != _ULast; ++_UFirst) {

	lea	rax, QWORD PTR [r9+r8]
	cmp	rax, rdx
	jne	SHORT $LL4@Uninitiali
$LN87@Uninitiali:

; 1804 :         _Backout._Emplace_back(_STD move(*_UFirst));
; 1805 :     }
; 1806 : 
; 1807 :     return _Backout._Release();
; 1808 : }

	mov	rax, r8
	ret	0
??$_Uninitialized_move@PEAUItem@CInifile@@V?$xalloc@UItem@CInifile@@@@@std@@YAPEAUItem@CInifile@@QEAU12@0PEAU12@AEAV?$xalloc@UItem@CInifile@@@@@Z ENDP ; std::_Uninitialized_move<CInifile::Item *,xalloc<CInifile::Item> >
_TEXT	ENDS
; Function compile flags: /Ogtpy
; File C:\Program Files\Microsoft Visual Studio\2022\Community\VC\Tools\MSVC\14.35.32215\include\xutility
;	COMDAT ??$_Get_unwrapped@AEBQEAUItem@CInifile@@@std@@YA?A_TAEBQEAUItem@CInifile@@@Z
_TEXT	SEGMENT
_It$ = 8
??$_Get_unwrapped@AEBQEAUItem@CInifile@@@std@@YA?A_TAEBQEAUItem@CInifile@@@Z PROC ; std::_Get_unwrapped<CInifile::Item * const &>, COMDAT

; 957  :     // unwrap an iterator previously subjected to _Adl_verify_range or otherwise validated
; 958  :     if constexpr (is_pointer_v<decay_t<_Iter>>) { // special-case pointers and arrays
; 959  :         return _It + 0;

	mov	rax, QWORD PTR [rcx]

; 960  :     } else if constexpr (_Unwrappable_v<_Iter>) {
; 961  :         return static_cast<_Iter&&>(_It)._Unwrapped();
; 962  :     } else {
; 963  :         return static_cast<_Iter&&>(_It);
; 964  :     }
; 965  : }

	ret	0
??$_Get_unwrapped@AEBQEAUItem@CInifile@@@std@@YA?A_TAEBQEAUItem@CInifile@@@Z ENDP ; std::_Get_unwrapped<CInifile::Item * const &>
_TEXT	ENDS
; Function compile flags: /Ogtpy
; File C:\Program Files\Microsoft Visual Studio\2022\Community\VC\Tools\MSVC\14.35.32215\include\type_traits
;	COMDAT ??$forward@AEAUItem@CInifile@@@std@@YAAEAUItem@CInifile@@AEAU12@@Z
_TEXT	SEGMENT
_Arg$ = 8
??$forward@AEAUItem@CInifile@@@std@@YAAEAUItem@CInifile@@AEAU12@@Z PROC ; std::forward<CInifile::Item &>, COMDAT

; 1427 :     return static_cast<_Ty&&>(_Arg);

	mov	rax, rcx

; 1428 : }

	ret	0
??$forward@AEAUItem@CInifile@@@std@@YAAEAUItem@CInifile@@AEAU12@@Z ENDP ; std::forward<CInifile::Item &>
_TEXT	ENDS
; Function compile flags: /Ogtpy
; File C:\Program Files\Microsoft Visual Studio\2022\Community\VC\Tools\MSVC\14.35.32215\include\xmemory
; File C:\Users\Mahito\Desktop\Night outing\Night-outing\src\xrCore\xrstring.h
; File C:\Program Files\Microsoft Visual Studio\2022\Community\VC\Tools\MSVC\14.35.32215\include\xmemory
;	COMDAT ??$construct@UItem@CInifile@@AEAU12@@?$_Normal_allocator_traits@V?$xalloc@UItem@CInifile@@@@@std@@SAXAEAV?$xalloc@UItem@CInifile@@@@PEAUItem@CInifile@@AEAU34@@Z
_TEXT	SEGMENT
_Al$dead$ = 8
_Ptr$ = 16
<_Args_0>$ = 24
??$construct@UItem@CInifile@@AEAU12@@?$_Normal_allocator_traits@V?$xalloc@UItem@CInifile@@@@@std@@SAXAEAV?$xalloc@UItem@CInifile@@@@PEAUItem@CInifile@@AEAU34@@Z PROC ; std::_Normal_allocator_traits<xalloc<CInifile::Item> >::construct<CInifile::Item,CInifile::Item &>, COMDAT
; File C:\Users\Mahito\Desktop\Night outing\Night-outing\src\xrCore\xrstring.h

; 74   : 						shared_str	(shared_str const &rhs)			{	p_ = 0;	_set(rhs);								}

	xor	r9d, r9d
	mov	QWORD PTR [rdx], r9

; 64   : 	void				_set		(shared_str const &rhs)			{	str_value* v = rhs.p_; if (0!=v) v->dwReference++; _dec(); p_ = v;							}

	mov	rax, QWORD PTR [r8]
	test	rax, rax
	je	SHORT $LN10@construct
	inc	DWORD PTR [rax]
$LN10@construct:

; 61   : 	void				_dec		()								{	if (0==p_) return;	p_->dwReference--; 	if (0==p_->dwReference)	p_=0;						}

	mov	rcx, QWORD PTR [rdx]
	test	rcx, rcx
	je	SHORT $LN14@construct
	dec	DWORD PTR [rcx]
$LN14@construct:

; 64   : 	void				_set		(shared_str const &rhs)			{	str_value* v = rhs.p_; if (0!=v) v->dwReference++; _dec(); p_ = v;							}

	mov	QWORD PTR [rdx], rax

; 74   : 						shared_str	(shared_str const &rhs)			{	p_ = 0;	_set(rhs);								}

	mov	QWORD PTR [rdx+8], r9

; 64   : 	void				_set		(shared_str const &rhs)			{	str_value* v = rhs.p_; if (0!=v) v->dwReference++; _dec(); p_ = v;							}

	mov	rax, QWORD PTR [r8+8]
	test	rax, rax
	je	SHORT $LN19@construct
	inc	DWORD PTR [rax]
$LN19@construct:

; 61   : 	void				_dec		()								{	if (0==p_) return;	p_->dwReference--; 	if (0==p_->dwReference)	p_=0;						}

	mov	rcx, QWORD PTR [rdx+8]
	test	rcx, rcx
	je	SHORT $LN23@construct
	dec	DWORD PTR [rcx]
$LN23@construct:

; 64   : 	void				_set		(shared_str const &rhs)			{	str_value* v = rhs.p_; if (0!=v) v->dwReference++; _dec(); p_ = v;							}

	mov	QWORD PTR [rdx+8], rax

; 74   : 						shared_str	(shared_str const &rhs)			{	p_ = 0;	_set(rhs);								}

	mov	QWORD PTR [rdx+16], r9

; 64   : 	void				_set		(shared_str const &rhs)			{	str_value* v = rhs.p_; if (0!=v) v->dwReference++; _dec(); p_ = v;							}

	mov	rax, QWORD PTR [r8+16]
	test	rax, rax
	je	SHORT $LN28@construct
	inc	DWORD PTR [rax]
$LN28@construct:

; 61   : 	void				_dec		()								{	if (0==p_) return;	p_->dwReference--; 	if (0==p_->dwReference)	p_=0;						}

	mov	rcx, QWORD PTR [rdx+16]
	test	rcx, rcx
	je	SHORT $LN34@construct
	dec	DWORD PTR [rcx]
$LN34@construct:
; File C:\Program Files\Microsoft Visual Studio\2022\Community\VC\Tools\MSVC\14.35.32215\include\xmemory

; 574  :     }

	mov	QWORD PTR [rdx+16], rax
	ret	0
??$construct@UItem@CInifile@@AEAU12@@?$_Normal_allocator_traits@V?$xalloc@UItem@CInifile@@@@@std@@SAXAEAV?$xalloc@UItem@CInifile@@@@PEAUItem@CInifile@@AEAU34@@Z ENDP ; std::_Normal_allocator_traits<xalloc<CInifile::Item> >::construct<CInifile::Item,CInifile::Item &>
_TEXT	ENDS
; Function compile flags: /Ogtpy
; File C:\Program Files\Microsoft Visual Studio\2022\Community\VC\Tools\MSVC\14.35.32215\include\xmemory
;	COMDAT ??$_Refancy@PEAPEAUSect@CInifile@@$0A@@std@@YAPEAPEAUSect@CInifile@@PEAPEAU12@@Z
_TEXT	SEGMENT
_Ptr$ = 8
??$_Refancy@PEAPEAUSect@CInifile@@$0A@@std@@YAPEAPEAUSect@CInifile@@PEAPEAU12@@Z PROC ; std::_Refancy<CInifile::Sect * *,0>, COMDAT

; 287  :     return _Ptr;

	mov	rax, rcx

; 288  : }

	ret	0
??$_Refancy@PEAPEAUSect@CInifile@@$0A@@std@@YAPEAPEAUSect@CInifile@@PEAPEAU12@@Z ENDP ; std::_Refancy<CInifile::Sect * *,0>
_TEXT	ENDS
; Function compile flags: /Ogtpy
; File C:\Program Files\Microsoft Visual Studio\2022\Community\VC\Tools\MSVC\14.35.32215\include\xmemory
;	COMDAT ??$_Refancy@PEAUItem@CInifile@@$0A@@std@@YAPEAUItem@CInifile@@PEAU12@@Z
_TEXT	SEGMENT
_Ptr$ = 8
??$_Refancy@PEAUItem@CInifile@@$0A@@std@@YAPEAUItem@CInifile@@PEAU12@@Z PROC ; std::_Refancy<CInifile::Item *,0>, COMDAT

; 287  :     return _Ptr;

	mov	rax, rcx

; 288  : }

	ret	0
??$_Refancy@PEAUItem@CInifile@@$0A@@std@@YAPEAUItem@CInifile@@PEAU12@@Z ENDP ; std::_Refancy<CInifile::Item *,0>
_TEXT	ENDS
; Function compile flags: /Ogtpy
; File C:\Program Files\Microsoft Visual Studio\2022\Community\VC\Tools\MSVC\14.35.32215\include\xmemory
; File C:\Users\Mahito\Desktop\Night outing\Night-outing\src\xrCore\_stl_extensions.h
; File C:\Users\Mahito\Desktop\Night outing\Night-outing\src\xrCore\xrstring.h
; File C:\Program Files\Microsoft Visual Studio\2022\Community\VC\Tools\MSVC\14.35.32215\include\xmemory
; File C:\Users\Mahito\Desktop\Night outing\Night-outing\src\xrCore\xrstring.h
; File C:\Program Files\Microsoft Visual Studio\2022\Community\VC\Tools\MSVC\14.35.32215\include\xmemory
;	COMDAT ??$_Emplace_back@UItem@CInifile@@@?$_Uninitialized_backout_al@V?$xalloc@UItem@CInifile@@@@@std@@QEAAX$$QEAUItem@CInifile@@@Z
_TEXT	SEGMENT
this$ = 8
<_Vals_0>$ = 16
??$_Emplace_back@UItem@CInifile@@@?$_Uninitialized_backout_al@V?$xalloc@UItem@CInifile@@@@@std@@QEAAX$$QEAUItem@CInifile@@@Z PROC ; std::_Uninitialized_backout_al<xalloc<CInifile::Item> >::_Emplace_back<CInifile::Item>, COMDAT
; File C:\Users\Mahito\Desktop\Night outing\Night-outing\src\xrCore\_stl_extensions.h

; 85   : 							void					construct		(pointer p, const T& _Val)				{	::new(p) T(_Val);	}

	mov	rax, QWORD PTR [rcx+8]
; File C:\Users\Mahito\Desktop\Night outing\Night-outing\src\xrCore\xrstring.h

; 74   : 						shared_str	(shared_str const &rhs)			{	p_ = 0;	_set(rhs);								}

	xor	r10d, r10d
; File C:\Program Files\Microsoft Visual Studio\2022\Community\VC\Tools\MSVC\14.35.32215\include\xmemory

; 1659 :     _CONSTEXPR20 void _Emplace_back(_Types&&... _Vals) { // construct a new element at *_Last and increment

	mov	r8, rcx
	mov	r9, rdx
; File C:\Users\Mahito\Desktop\Night outing\Night-outing\src\xrCore\xrstring.h

; 74   : 						shared_str	(shared_str const &rhs)			{	p_ = 0;	_set(rhs);								}

	mov	QWORD PTR [rax], r10

; 64   : 	void				_set		(shared_str const &rhs)			{	str_value* v = rhs.p_; if (0!=v) v->dwReference++; _dec(); p_ = v;							}

	mov	rcx, QWORD PTR [rdx]
	test	rcx, rcx
	je	SHORT $LN12@Emplace_ba
	inc	DWORD PTR [rcx]
$LN12@Emplace_ba:

; 61   : 	void				_dec		()								{	if (0==p_) return;	p_->dwReference--; 	if (0==p_->dwReference)	p_=0;						}

	mov	rdx, QWORD PTR [rax]
	test	rdx, rdx
	je	SHORT $LN16@Emplace_ba
	dec	DWORD PTR [rdx]
$LN16@Emplace_ba:

; 64   : 	void				_set		(shared_str const &rhs)			{	str_value* v = rhs.p_; if (0!=v) v->dwReference++; _dec(); p_ = v;							}

	mov	QWORD PTR [rax], rcx

; 74   : 						shared_str	(shared_str const &rhs)			{	p_ = 0;	_set(rhs);								}

	mov	QWORD PTR [rax+8], r10

; 64   : 	void				_set		(shared_str const &rhs)			{	str_value* v = rhs.p_; if (0!=v) v->dwReference++; _dec(); p_ = v;							}

	mov	rcx, QWORD PTR [r9+8]
	test	rcx, rcx
	je	SHORT $LN21@Emplace_ba
	inc	DWORD PTR [rcx]
$LN21@Emplace_ba:

; 61   : 	void				_dec		()								{	if (0==p_) return;	p_->dwReference--; 	if (0==p_->dwReference)	p_=0;						}

	mov	rdx, QWORD PTR [rax+8]
	test	rdx, rdx
	je	SHORT $LN25@Emplace_ba
	dec	DWORD PTR [rdx]
$LN25@Emplace_ba:

; 64   : 	void				_set		(shared_str const &rhs)			{	str_value* v = rhs.p_; if (0!=v) v->dwReference++; _dec(); p_ = v;							}

	mov	QWORD PTR [rax+8], rcx

; 74   : 						shared_str	(shared_str const &rhs)			{	p_ = 0;	_set(rhs);								}

	mov	QWORD PTR [rax+16], r10

; 64   : 	void				_set		(shared_str const &rhs)			{	str_value* v = rhs.p_; if (0!=v) v->dwReference++; _dec(); p_ = v;							}

	mov	rcx, QWORD PTR [r9+16]
	test	rcx, rcx
	je	SHORT $LN30@Emplace_ba
	inc	DWORD PTR [rcx]
$LN30@Emplace_ba:

; 61   : 	void				_dec		()								{	if (0==p_) return;	p_->dwReference--; 	if (0==p_->dwReference)	p_=0;						}

	mov	rdx, QWORD PTR [rax+16]
	test	rdx, rdx
	je	SHORT $LN36@Emplace_ba
	dec	DWORD PTR [rdx]
$LN36@Emplace_ba:
; File C:\Program Files\Microsoft Visual Studio\2022\Community\VC\Tools\MSVC\14.35.32215\include\xmemory

; 1662 :     }

	mov	QWORD PTR [rax+16], rcx
	add	QWORD PTR [r8+8], 24
	ret	0
??$_Emplace_back@UItem@CInifile@@@?$_Uninitialized_backout_al@V?$xalloc@UItem@CInifile@@@@@std@@QEAAX$$QEAUItem@CInifile@@@Z ENDP ; std::_Uninitialized_backout_al<xalloc<CInifile::Item> >::_Emplace_back<CInifile::Item>
_TEXT	ENDS
; Function compile flags: /Ogtpy
; File C:\Users\Mahito\Desktop\Night outing\Night-outing\src\xrCore\fastdelegate.h
;	COMDAT ?SetMementoFrom@DelegateMemento@fastdelegate@@IEAAXAEBV12@@Z
_TEXT	SEGMENT
this$ = 8
right$ = 16
?SetMementoFrom@DelegateMemento@fastdelegate@@IEAAXAEBV12@@Z PROC ; fastdelegate::DelegateMemento::SetMementoFrom, COMDAT

; 646  : 		m_pFunction = right.m_pFunction;

	mov	rax, QWORD PTR [rdx+8]
	mov	QWORD PTR [rcx+8], rax

; 647  : 		m_pthis = right.m_pthis;

	mov	rax, QWORD PTR [rdx]
	mov	QWORD PTR [rcx], rax

; 648  : #if !defined(FASTDELEGATE_USESTATICFUNCTIONHACK)
; 649  : 		m_pStaticFunction = right.m_pStaticFunction;
; 650  : #endif
; 651  : 	}

	ret	0
?SetMementoFrom@DelegateMemento@fastdelegate@@IEAAXAEBV12@@Z ENDP ; fastdelegate::DelegateMemento::SetMementoFrom
_TEXT	ENDS
; Function compile flags: /Ogtpy
; File C:\Users\Mahito\Desktop\Night outing\Night-outing\src\xrCore\fastdelegate.h
;	COMDAT ??7DelegateMemento@fastdelegate@@QEBA_NXZ
_TEXT	SEGMENT
this$ = 8
??7DelegateMemento@fastdelegate@@QEBA_NXZ PROC		; fastdelegate::DelegateMemento::operator!, COMDAT

; 624  : 	{ return m_pthis==0 && m_pFunction==0; }

	cmp	QWORD PTR [rcx], 0
	jne	SHORT $LN3@operator
	cmp	QWORD PTR [rcx+8], 0
	jne	SHORT $LN3@operator
	mov	al, 1
	ret	0
$LN3@operator:
	xor	al, al
	ret	0
??7DelegateMemento@fastdelegate@@QEBA_NXZ ENDP		; fastdelegate::DelegateMemento::operator!
_TEXT	ENDS
; Function compile flags: /Ogtpy
; File C:\Users\Mahito\Desktop\Night outing\Night-outing\src\xrCore\LocatorAPI.h
;	COMDAT ?w_open_ex@CLocatorAPI@@QEAAPEAVIWriter@@PEBD@Z
_TEXT	SEGMENT
this$dead$ = 8
N$ = 16
?w_open_ex@CLocatorAPI@@QEAAPEAVIWriter@@PEBD@Z PROC	; CLocatorAPI::w_open_ex, COMDAT

; 140  : 	IC IWriter*					w_open_ex			(LPCSTR N){return w_open_ex(0,N);}

	mov	r8, rdx
	jmp	?w_open_ex@CLocatorAPI@@QEAAPEAVIWriter@@PEBD0@Z ; CLocatorAPI::w_open_ex
?w_open_ex@CLocatorAPI@@QEAAPEAVIWriter@@PEBD@Z ENDP	; CLocatorAPI::w_open_ex
_TEXT	ENDS
; Function compile flags: /Ogtpy
; File C:\Users\Mahito\Desktop\Night outing\Night-outing\src\xrCore\xrstring.h
;	COMDAT ??9@YA_NAEBVshared_str@@0@Z
_TEXT	SEGMENT
a$ = 8
b$ = 16
??9@YA_NAEBVshared_str@@0@Z PROC			; operator!=, COMDAT

; 110  : IC bool operator	!=	(shared_str const & a, shared_str const & b)		{ return a._get() != b._get();					}

	mov	rax, QWORD PTR [rdx]
	cmp	QWORD PTR [rcx], rax
	setne	al
	ret	0
??9@YA_NAEBVshared_str@@0@Z ENDP			; operator!=
_TEXT	ENDS
; Function compile flags: /Ogtpy
; File C:\Users\Mahito\Desktop\Night outing\Night-outing\src\xrCore\xr_ini.h
;	COMDAT ??0Item@CInifile@@QEAA@XZ
_TEXT	SEGMENT
this$ = 48
??0Item@CInifile@@QEAA@XZ PROC				; CInifile::Item::Item, COMDAT

; 25   : 		{};

$LN5:
	push	rbx
	sub	rsp, 32					; 00000020H

; 21   : 		Item() : first(0), second(0)

	xor	edx, edx

; 25   : 		{};

	mov	rbx, rcx
	call	??0shared_str@@QEAA@PEBD@Z		; shared_str::shared_str
	lea	rcx, QWORD PTR [rbx+8]
	xor	edx, edx
	call	??0shared_str@@QEAA@PEBD@Z		; shared_str::shared_str
	lea	rcx, QWORD PTR [rbx+16]
	xor	edx, edx
	call	??0shared_str@@QEAA@PEBD@Z		; shared_str::shared_str
	mov	rax, rbx
	add	rsp, 32					; 00000020H
	pop	rbx
	ret	0
??0Item@CInifile@@QEAA@XZ ENDP				; CInifile::Item::Item
_TEXT	ENDS
; Function compile flags: /Ogtpy
; File C:\Users\Mahito\Desktop\Night outing\Night-outing\src\xrCore\xrstring.h
;	COMDAT ?equal@shared_str@@QEBA_NAEBV1@@Z
_TEXT	SEGMENT
this$ = 8
rhs$ = 16
?equal@shared_str@@QEBA_NAEBV1@@Z PROC			; shared_str::equal, COMDAT

; 89   : 	bool				equal		(const shared_str & rhs) const	{	return (p_ == rhs.p_);							}

	mov	rax, QWORD PTR [rdx]
	cmp	QWORD PTR [rcx], rax
	sete	al
	ret	0
?equal@shared_str@@QEBA_NAEBV1@@Z ENDP			; shared_str::equal
_TEXT	ENDS
; Function compile flags: /Ogtpy
; File C:\Users\Mahito\Desktop\Night outing\Night-outing\src\xrCore\_flags.h
;	COMDAT ?set@?$_flags@E@@QEAAAEAU1@EH@Z
_TEXT	SEGMENT
this$ = 8
mask$ = 16
value$ = 24
?set@?$_flags@E@@QEAAAEAU1@EH@Z PROC			; _flags<unsigned char>::set, COMDAT

; 22   : 	IC	SelfRef	set		(const T mask,	BOOL value)					{ if (value) flags|=mask; else flags&=~mask; return *this; }

	movzx	eax, BYTE PTR [rcx]
	test	r8d, r8d
	je	SHORT $LN2@set
	or	al, dl
	mov	BYTE PTR [rcx], al
	mov	rax, rcx
	ret	0
$LN2@set:
	not	dl
	and	dl, al
	mov	rax, rcx
	mov	BYTE PTR [rcx], dl
	ret	0
?set@?$_flags@E@@QEAAAEAU1@EH@Z ENDP			; _flags<unsigned char>::set
_TEXT	ENDS
; Function compile flags: /Ogtpy
; File C:\Users\Mahito\Desktop\Night outing\Night-outing\src\xrCore\_flags.h
;	COMDAT ?zero@?$_flags@E@@QEAAAEAU1@XZ
_TEXT	SEGMENT
this$ = 8
?zero@?$_flags@E@@QEAAAEAU1@XZ PROC			; _flags<unsigned char>::zero, COMDAT

; 15   :     IC	SelfRef	zero	()											{ flags=T(0);	return *this;	}

	mov	BYTE PTR [rcx], 0
	mov	rax, rcx
	ret	0
?zero@?$_flags@E@@QEAAAEAU1@XZ ENDP			; _flags<unsigned char>::zero
_TEXT	ENDS
; Function compile flags: /Ogtpy
; File C:\Users\Mahito\Desktop\Night outing\Night-outing\src\xrCore\xrstring.h
;	COMDAT ??M@YA_NAEBVshared_str@@0@Z
_TEXT	SEGMENT
a$ = 8
b$ = 16
??M@YA_NAEBVshared_str@@0@Z PROC			; operator<, COMDAT

; 111  : IC bool operator	<	(shared_str const & a, shared_str const & b)		{ return a._get() <  b._get();					}

	mov	rax, QWORD PTR [rdx]
	cmp	QWORD PTR [rcx], rax
	setb	al
	ret	0
??M@YA_NAEBVshared_str@@0@Z ENDP			; operator<
_TEXT	ENDS
; Function compile flags: /Ogtpy
; File C:\Users\Mahito\Desktop\Night outing\Night-outing\src\xrCore\xrstring.h
;	COMDAT ??7shared_str@@QEBA_NXZ
_TEXT	SEGMENT
this$ = 8
??7shared_str@@QEBA_NXZ PROC				; shared_str::operator!, COMDAT

; 81   : 	bool				operator!	() const						{	return p_ == 0;									}

	cmp	QWORD PTR [rcx], 0
	sete	al
	ret	0
??7shared_str@@QEBA_NXZ ENDP				; shared_str::operator!
_TEXT	ENDS
END
