; Listing generated by Microsoft (R) Optimizing Compiler Version 19.35.32217.1 

include listing.inc

INCLUDELIB OLDNAMES

PUBLIC	??1?$_Uninitialized_backout_al@V?$xalloc@V?$basic_string@DU?$char_traits@D@std@@V?$xalloc@D@@@std@@@@@std@@QEAA@XZ ; std::_Uninitialized_backout_al<xalloc<std::basic_string<char,std::char_traits<char>,xalloc<char> > > >::~_Uninitialized_backout_al<xalloc<std::basic_string<char,std::char_traits<char>,xalloc<char> > > >
PUBLIC	?_CopyVal@@YAPEBDPEBDPEADD@Z			; _CopyVal
PUBLIC	?_SetPos@@YAPEBDPEBDID@Z			; _SetPos
PUBLIC	?_TrimLeft@@YAPEADPEAD@Z			; _TrimLeft
PUBLIC	?_Trim@@YAPEADPEAD@Z				; _Trim
PUBLIC	?_TrimRight@@YAPEADPEAD@Z			; _TrimRight
PUBLIC	?_GetItemCount@@YAHPEBDD@Z			; _GetItemCount
PUBLIC	?_GetItem@@YAPEADPEBDHPEADID0_N@Z		; _GetItem
;	COMDAT ?out@?1??_ListToSequence@@YA?AV?$basic_string@DU?$char_traits@D@std@@V?$xalloc@D@@@std@@AEBV?$xr_vector@V?$basic_string@DU?$char_traits@D@std@@V?$xalloc@D@@@std@@V?$xalloc@V?$basic_string@DU?$char_traits@D@std@@V?$xalloc@D@@@std@@@@@@@Z@4V23@A
_BSS	SEGMENT
?out@?1??_ListToSequence@@YA?AV?$basic_string@DU?$char_traits@D@std@@V?$xalloc@D@@@std@@AEBV?$xr_vector@V?$basic_string@DU?$char_traits@D@std@@V?$xalloc@D@@@std@@V?$xalloc@V?$basic_string@DU?$char_traits@D@std@@V?$xalloc@D@@@std@@@@@@@Z@4V23@A DB 020H DUP (?) ; `_ListToSequence'::`2'::out
_BSS	ENDS
;	COMDAT pdata
pdata	SEGMENT
$pdata$??1?$_Uninitialized_backout_al@V?$xalloc@V?$basic_string@DU?$char_traits@D@std@@V?$xalloc@D@@@std@@@@@std@@QEAA@XZ DD imagerel $LN52
	DD	imagerel $LN52+22
	DD	imagerel $unwind$??1?$_Uninitialized_backout_al@V?$xalloc@V?$basic_string@DU?$char_traits@D@std@@V?$xalloc@D@@@std@@@@@std@@QEAA@XZ
pdata	ENDS
;	COMDAT pdata
pdata	SEGMENT
$pdata$0$??1?$_Uninitialized_backout_al@V?$xalloc@V?$basic_string@DU?$char_traits@D@std@@V?$xalloc@D@@@std@@@@@std@@QEAA@XZ DD imagerel $LN52+22
	DD	imagerel $LN52+88
	DD	imagerel $chain$0$??1?$_Uninitialized_backout_al@V?$xalloc@V?$basic_string@DU?$char_traits@D@std@@V?$xalloc@D@@@std@@@@@std@@QEAA@XZ
pdata	ENDS
;	COMDAT pdata
pdata	SEGMENT
$pdata$1$??1?$_Uninitialized_backout_al@V?$xalloc@V?$basic_string@DU?$char_traits@D@std@@V?$xalloc@D@@@std@@@@@std@@QEAA@XZ DD imagerel $LN52+88
	DD	imagerel $LN52+99
	DD	imagerel $chain$1$??1?$_Uninitialized_backout_al@V?$xalloc@V?$basic_string@DU?$char_traits@D@std@@V?$xalloc@D@@@std@@@@@std@@QEAA@XZ
pdata	ENDS
;	COMDAT pdata
pdata	SEGMENT
$pdata$??__Fout@?1??_ListToSequence@@YA?AV?$basic_string@DU?$char_traits@D@std@@V?$xalloc@D@@@std@@AEBV?$xr_vector@V?$basic_string@DU?$char_traits@D@std@@V?$xalloc@D@@@std@@V?$xalloc@V?$basic_string@DU?$char_traits@D@std@@V?$xalloc@D@@@std@@@@@@@Z@YAXXZ DD imagerel ??__Fout@?1??_ListToSequence@@YA?AV?$basic_string@DU?$char_traits@D@std@@V?$xalloc@D@@@std@@AEBV?$xr_vector@V?$basic_string@DU?$char_traits@D@std@@V?$xalloc@D@@@std@@V?$xalloc@V?$basic_string@DU?$char_traits@D@std@@V?$xalloc@D@@@std@@@@@@@Z@YAXXZ
	DD	imagerel ??__Fout@?1??_ListToSequence@@YA?AV?$basic_string@DU?$char_traits@D@std@@V?$xalloc@D@@@std@@AEBV?$xr_vector@V?$basic_string@DU?$char_traits@D@std@@V?$xalloc@D@@@std@@V?$xalloc@V?$basic_string@DU?$char_traits@D@std@@V?$xalloc@D@@@std@@@@@@@Z@YAXXZ+66
	DD	imagerel $unwind$??__Fout@?1??_ListToSequence@@YA?AV?$basic_string@DU?$char_traits@D@std@@V?$xalloc@D@@@std@@AEBV?$xr_vector@V?$basic_string@DU?$char_traits@D@std@@V?$xalloc@D@@@std@@V?$xalloc@V?$basic_string@DU?$char_traits@D@std@@V?$xalloc@D@@@std@@@@@@@Z@YAXXZ
pdata	ENDS
pdata	SEGMENT
$pdata$?_CopyVal@@YAPEBDPEBDPEADD@Z DD imagerel $LN9
	DD	imagerel $LN9+100
	DD	imagerel $unwind$?_CopyVal@@YAPEBDPEBDPEADD@Z
$pdata$?_SetPos@@YAPEBDPEBDID@Z DD imagerel $LN13
	DD	imagerel $LN13+18
	DD	imagerel $unwind$?_SetPos@@YAPEBDPEBDID@Z
$pdata$0$?_SetPos@@YAPEBDPEBDID@Z DD imagerel $LN13+18
	DD	imagerel $LN13+76
	DD	imagerel $chain$0$?_SetPos@@YAPEBDPEBDID@Z
$pdata$1$?_SetPos@@YAPEBDPEBDID@Z DD imagerel $LN13+76
	DD	imagerel $LN13+90
	DD	imagerel $chain$1$?_SetPos@@YAPEBDPEBDID@Z
$pdata$?_GetItemCount@@YAHPEBDD@Z DD imagerel $LN21
	DD	imagerel $LN21+116
	DD	imagerel $unwind$?_GetItemCount@@YAHPEBDD@Z
$pdata$?_GetItem@@YAPEADPEBDHPEADID0_N@Z DD imagerel $LN27
	DD	imagerel $LN27+15
	DD	imagerel $unwind$?_GetItem@@YAPEADPEBDHPEADID0_N@Z
$pdata$0$?_GetItem@@YAPEADPEBDHPEADID0_N@Z DD imagerel $LN27+15
	DD	imagerel $LN27+35
	DD	imagerel $chain$0$?_GetItem@@YAPEADPEBDHPEADID0_N@Z
$pdata$1$?_GetItem@@YAPEADPEBDHPEADID0_N@Z DD imagerel $LN27+35
	DD	imagerel $LN27+82
	DD	imagerel $chain$1$?_GetItem@@YAPEADPEBDHPEADID0_N@Z
$pdata$2$?_GetItem@@YAPEADPEBDHPEADID0_N@Z DD imagerel $LN27+82
	DD	imagerel $LN27+92
	DD	imagerel $chain$2$?_GetItem@@YAPEADPEBDHPEADID0_N@Z
$pdata$3$?_GetItem@@YAPEADPEBDHPEADID0_N@Z DD imagerel $LN27+92
	DD	imagerel $LN27+207
	DD	imagerel $chain$3$?_GetItem@@YAPEADPEBDHPEADID0_N@Z
xdata	SEGMENT
$unwind$?_CopyVal@@YAPEBDPEBDPEADD@Z DD 060f01H
	DD	07640fH
	DD	06340fH
	DD	0700b320fH
$unwind$?_SetPos@@YAPEBDPEBDID@Z DD 040a01H
	DD	07340aH
	DD	07006320aH
$chain$0$?_SetPos@@YAPEBDPEBDID@Z DD 020521H
	DD	066405H
	DD	imagerel $LN13
	DD	imagerel $LN13+18
	DD	imagerel $unwind$?_SetPos@@YAPEBDPEBDID@Z
$chain$1$?_SetPos@@YAPEBDPEBDID@Z DD 021H
	DD	imagerel $LN13
	DD	imagerel $LN13+18
	DD	imagerel $unwind$?_SetPos@@YAPEBDPEBDID@Z
$unwind$?_GetItemCount@@YAHPEBDD@Z DD 040a01H
	DD	06340aH
	DD	07006320aH
$unwind$?_GetItem@@YAPEADPEBDHPEADID0_N@Z DD 060d01H
	DD	0a340dH
	DD	0c009320dH
	DD	060067007H
$chain$0$?_GetItem@@YAPEADPEBDHPEADID0_N@Z DD 020521H
	DD	085405H
	DD	imagerel $LN27
	DD	imagerel $LN27+15
	DD	imagerel $unwind$?_GetItem@@YAPEADPEBDHPEADID0_N@Z
$chain$1$?_GetItem@@YAPEADPEBDHPEADID0_N@Z DD 020521H
	DD	09e405H
	DD	imagerel $LN27+15
	DD	imagerel $LN27+35
	DD	imagerel $chain$0$?_GetItem@@YAPEADPEBDHPEADID0_N@Z
$chain$2$?_GetItem@@YAPEADPEBDHPEADID0_N@Z DD 021H
	DD	imagerel $LN27+15
	DD	imagerel $LN27+35
	DD	imagerel $chain$0$?_GetItem@@YAPEADPEBDHPEADID0_N@Z
$chain$3$?_GetItem@@YAPEADPEBDHPEADID0_N@Z DD 021H
	DD	imagerel $LN27
	DD	imagerel $LN27+15
	DD	imagerel $unwind$?_GetItem@@YAPEADPEBDHPEADID0_N@Z
xdata	ENDS
;	COMDAT xdata
xdata	SEGMENT
$unwind$??__Fout@?1??_ListToSequence@@YA?AV?$basic_string@DU?$char_traits@D@std@@V?$xalloc@D@@@std@@AEBV?$xr_vector@V?$basic_string@DU?$char_traits@D@std@@V?$xalloc@D@@@std@@V?$xalloc@V?$basic_string@DU?$char_traits@D@std@@V?$xalloc@D@@@std@@@@@@@Z@YAXXZ DD 010401H
	DD	04204H
xdata	ENDS
;	COMDAT xdata
xdata	SEGMENT
$chain$1$??1?$_Uninitialized_backout_al@V?$xalloc@V?$basic_string@DU?$char_traits@D@std@@V?$xalloc@D@@@std@@@@@std@@QEAA@XZ DD 021H
	DD	imagerel $LN52
	DD	imagerel $LN52+22
	DD	imagerel $unwind$??1?$_Uninitialized_backout_al@V?$xalloc@V?$basic_string@DU?$char_traits@D@std@@V?$xalloc@D@@@std@@@@@std@@QEAA@XZ
xdata	ENDS
;	COMDAT xdata
xdata	SEGMENT
$chain$0$??1?$_Uninitialized_backout_al@V?$xalloc@V?$basic_string@DU?$char_traits@D@std@@V?$xalloc@D@@@std@@@@@std@@QEAA@XZ DD 020521H
	DD	066405H
	DD	imagerel $LN52
	DD	imagerel $LN52+22
	DD	imagerel $unwind$??1?$_Uninitialized_backout_al@V?$xalloc@V?$basic_string@DU?$char_traits@D@std@@V?$xalloc@D@@@std@@@@@std@@QEAA@XZ
xdata	ENDS
;	COMDAT xdata
xdata	SEGMENT
$unwind$??1?$_Uninitialized_backout_al@V?$xalloc@V?$basic_string@DU?$char_traits@D@std@@V?$xalloc@D@@@std@@@@@std@@QEAA@XZ DD 040a01H
	DD	07340aH
	DD	07006320aH
; Function compile flags: /Ogtpy
; File C:\Users\Mahito\Desktop\Night outing\Night-outing\src\xrCore\xr_trims.cpp
; File C:\Users\Mahito\Desktop\Night outing\Night-outing\src\xrCore\_std_extensions.h
; File C:\Users\Mahito\Desktop\Night outing\Night-outing\src\xrCore\xr_trims.cpp
; File C:\Users\Mahito\Desktop\Night outing\Night-outing\src\xrCore\_std_extensions.h
; File C:\Users\Mahito\Desktop\Night outing\Night-outing\src\xrCore\xr_trims.cpp
_TEXT	SEGMENT
src$ = 64
index$ = 72
dst$ = 80
dst_size$ = 88
separator$ = 96
def$dead$ = 104
trim$dead$ = 112
?_GetItem@@YAPEADPEBDHPEADID0_N@Z PROC			; _GetItem

; 72   : {

$LN27:
	mov	QWORD PTR [rsp+24], rbx
	push	rsi
	push	rdi
	push	r12
	sub	rsp, 32					; 00000020H

; 33   : 	u32		p			= 0;

	xor	edi, edi

; 72   : {

	mov	QWORD PTR [rsp+64], rbp
	mov	r12d, r9d
	mov	rsi, r8
	mov	ebp, edx
	mov	rbx, rcx

; 34   : 	while( (p<pos) && (0!=(res=strchr(res,separator))) )

	test	edx, edx
	je	SHORT $LN24@GetItem
	mov	QWORD PTR [rsp+72], r14
	movsx	r14d, BYTE PTR separator$[rsp]
	npad	2
$LL7@GetItem:
	mov	edx, r14d
	mov	rcx, rbx
	call	QWORD PTR __imp_strchr
	mov	rbx, rax
	test	rax, rax
	je	SHORT $LN25@GetItem

; 35   : 	{
; 36   : 		res		++;

	inc	rbx

; 37   : 		p		++;

	inc	edi
	cmp	edi, ebp
	jb	SHORT $LL7@GetItem
$LN25@GetItem:
	mov	r14, QWORD PTR [rsp+72]
$LN24@GetItem:
	mov	rbp, QWORD PTR [rsp+64]

; 73   : 	LPCSTR	ptr;
; 74   : 	ptr			= _SetPos	( src, index, separator );
; 75   : 	if( ptr )	_CopyVal	( ptr, dst, separator );

	test	rbx, rbx
	je	SHORT $LN2@GetItem

; 46   : 	p			= strchr	( src, separator );

	movsx	edx, BYTE PTR separator$[rsp]
	mov	rcx, rbx
	call	QWORD PTR __imp_strchr
	mov	rdi, rax

; 47   : 	n			= (p>0) ? (p-src) : xr_strlen(src);

	test	rax, rax
	je	SHORT $LN12@GetItem
	sub	rdi, rbx
	jmp	SHORT $LN13@GetItem
$LN12@GetItem:
; File C:\Users\Mahito\Desktop\Night outing\Night-outing\src\xrCore\_std_extensions.h

; 186  : {	return (u32)strlen(S);			}

	mov	rax, -1
	npad	2
$LL23@GetItem:
	inc	rax
	cmp	BYTE PTR [rbx+rax], 0
	jne	SHORT $LL23@GetItem
	mov	edi, eax
$LN13@GetItem:
; File C:\Users\Mahito\Desktop\Night outing\Night-outing\src\xrCore\xr_trims.cpp

; 48   : 	strncpy		( dst, src, n );

	mov	r8, rdi
	mov	rdx, rbx
	mov	rcx, rsi
	call	QWORD PTR __imp_strncpy

; 49   : 	dst[n]		= 0;

	mov	BYTE PTR [rdi+rsi], 0

; 73   : 	LPCSTR	ptr;
; 74   : 	ptr			= _SetPos	( src, index, separator );
; 75   : 	if( ptr )	_CopyVal	( ptr, dst, separator );

	jmp	SHORT $LN22@GetItem
$LN2@GetItem:

; 76   : 		else	xr_strcpy	( dst, dst_size, def );

	mov	rdx, r12
; File C:\Users\Mahito\Desktop\Night outing\Night-outing\src\xrCore\_std_extensions.h

; 229  : 	return						strncpy_s( destination, destination_size, source, destination_size );

	lea	r8, OFFSET FLAT:??_C@_00CNPNBAHC@@
	mov	r9, r12
	mov	rcx, rsi
	call	QWORD PTR __imp_strncpy_s
$LN22@GetItem:
; File C:\Users\Mahito\Desktop\Night outing\Night-outing\src\xrCore\xr_trims.cpp

; 77   : 	if (trim)	_Trim		( dst );

	mov	rcx, rsi
	call	?_Trim@@YAPEADPEAD@Z			; _Trim

; 78   : 	return		dst;
; 79   : }

	mov	rbx, QWORD PTR [rsp+80]
	mov	rax, rsi
	add	rsp, 32					; 00000020H
	pop	r12
	pop	rdi
	pop	rsi
	ret	0
?_GetItem@@YAPEADPEBDHPEADID0_N@Z ENDP			; _GetItem
_TEXT	ENDS
; Function compile flags: /Ogtpy
; File C:\Users\Mahito\Desktop\Night outing\Night-outing\src\xrCore\xr_trims.cpp
; File C:\Users\Mahito\Desktop\Night outing\Night-outing\src\xrCore\_std_extensions.h
; File C:\Users\Mahito\Desktop\Night outing\Night-outing\src\xrCore\xr_trims.cpp
_TEXT	SEGMENT
src$ = 48
separator$dead$ = 56
?_GetItemCount@@YAHPEBDD@Z PROC				; _GetItemCount

; 54   : {

$LN21:
	mov	QWORD PTR [rsp+8], rbx
	push	rdi
	sub	rsp, 32					; 00000020H

; 55   : 	u32		cnt			= 0;

	xor	ebx, ebx
	mov	rdi, rcx

; 56   : 	if (src&&src[0]){

	test	rcx, rcx
	je	SHORT $LN16@GetItemCou
	cmp	BYTE PTR [rcx], bl
	je	SHORT $LN16@GetItemCou

; 57   : 		LPCSTR	res			= src;
; 58   : 		LPCSTR	last_res	= res;
; 59   : 		while( 0!=(res=strchr(res,separator)) )

	lea	edx, QWORD PTR [rbx+44]
	call	QWORD PTR __imp_strchr
	test	rax, rax
	je	SHORT $LN18@GetItemCou
	npad	10
$LL2@GetItemCou:

; 60   : 		{
; 61   : 			res		++;
; 62   : 			last_res=res;
; 63   : 			cnt		++;

	inc	ebx
	lea	rdi, QWORD PTR [rax+1]

; 64   : 			if (res[0]==separator) break;

	cmp	BYTE PTR [rax+1], 44			; 0000002cH
	je	SHORT $LN18@GetItemCou

; 57   : 		LPCSTR	res			= src;
; 58   : 		LPCSTR	last_res	= res;
; 59   : 		while( 0!=(res=strchr(res,separator)) )

	mov	edx, 44					; 0000002cH
	lea	rcx, QWORD PTR [rax+1]
	call	QWORD PTR __imp_strchr
	test	rax, rax
	jne	SHORT $LL2@GetItemCou
$LN18@GetItemCou:
; File C:\Users\Mahito\Desktop\Night outing\Night-outing\src\xrCore\_std_extensions.h

; 186  : {	return (u32)strlen(S);			}

	mov	rax, -1
$LL14@GetItemCou:
	inc	rax
	cmp	BYTE PTR [rdi+rax], 0
	jne	SHORT $LL14@GetItemCou
; File C:\Users\Mahito\Desktop\Night outing\Night-outing\src\xrCore\xr_trims.cpp

; 66   : 		if (xr_strlen(last_res)) cnt++;

	test	eax, eax
	lea	eax, DWORD PTR [rbx+1]
	jne	SHORT $LN6@GetItemCou
$LN16@GetItemCou:

; 67   : 	}
; 68   : 	return		cnt;
; 69   : }

	mov	eax, ebx
$LN6@GetItemCou:
	mov	rbx, QWORD PTR [rsp+48]
	add	rsp, 32					; 00000020H
	pop	rdi
	ret	0
?_GetItemCount@@YAHPEBDD@Z ENDP				; _GetItemCount
_TEXT	ENDS
; Function compile flags: /Ogtpy
; File C:\Users\Mahito\Desktop\Night outing\Night-outing\src\xrCore\xr_trims.cpp
; File C:\Users\Mahito\Desktop\Night outing\Night-outing\src\xrCore\_std_extensions.h
; File C:\Users\Mahito\Desktop\Night outing\Night-outing\src\xrCore\xr_trims.cpp
_TEXT	SEGMENT
str$ = 8
?_TrimRight@@YAPEADPEAD@Z PROC				; _TrimRight

; 16   : {

	mov	rdx, rcx
; File C:\Users\Mahito\Desktop\Night outing\Night-outing\src\xrCore\_std_extensions.h

; 186  : {	return (u32)strlen(S);			}

	mov	rax, -1
	npad	6
$LL11@TrimRight:
	inc	rax
	cmp	BYTE PTR [rcx+rax], 0
	jne	SHORT $LL11@TrimRight
; File C:\Users\Mahito\Desktop\Night outing\Night-outing\src\xrCore\xr_trims.cpp

; 17   : 	LPSTR p 	= str+xr_strlen(str);

	mov	ecx, eax
	lea	rax, QWORD PTR [rcx+rdx]

; 18   : 	while( (p!=str) && (u8(*p)<=u8(' ')) ) p--;

	test	rcx, rcx
	je	SHORT $LN12@TrimRight
$LL2@TrimRight:
	cmp	BYTE PTR [rax], 32			; 00000020H
	ja	SHORT $LN12@TrimRight
	dec	rax
	cmp	rax, rdx
	jne	SHORT $LL2@TrimRight
$LN12@TrimRight:

; 19   :     *(++p) 		= 0;
; 20   : 	return str;
; 21   : }

	mov	BYTE PTR [rax+1], 0
	mov	rax, rdx
	ret	0
?_TrimRight@@YAPEADPEAD@Z ENDP				; _TrimRight
_TEXT	ENDS
; Function compile flags: /Ogtpy
; File C:\Users\Mahito\Desktop\Night outing\Night-outing\src\xrCore\xr_trims.cpp
; File C:\Users\Mahito\Desktop\Night outing\Night-outing\src\xrCore\_std_extensions.h
; File C:\Users\Mahito\Desktop\Night outing\Night-outing\src\xrCore\xr_trims.cpp
_TEXT	SEGMENT
str$ = 8
?_Trim@@YAPEADPEAD@Z PROC				; _Trim

; 24   : {

	mov	rdx, rcx

; 6    : 	LPSTR p 	= str;

	mov	rax, rcx

; 7    : 	while( *p && (u8(*p)<=u8(' ')) ) p++;

	movzx	ecx, BYTE PTR [rcx]
	test	cl, cl
	je	SHORT $LN9@Trim
	npad	3
$LL4@Trim:
	cmp	cl, 32					; 00000020H
	ja	SHORT $LN5@Trim
	movzx	ecx, BYTE PTR [rax+1]
	inc	rax
	test	cl, cl
	jne	SHORT $LL4@Trim
$LN5@Trim:

; 8    :     if (p!=str){

	cmp	rax, rdx
	je	SHORT $LN9@Trim

; 9    :         for (LPSTR t=str; *p; t++,p++) *t=*p;

	movzx	r8d, BYTE PTR [rax]
	mov	rcx, rdx
	test	r8b, r8b
	je	SHORT $LN7@Trim
	sub	rax, rdx
	npad	12
$LL8@Trim:
	mov	BYTE PTR [rcx], r8b
	inc	rcx
	movzx	r8d, BYTE PTR [rax+rcx]
	test	r8b, r8b
	jne	SHORT $LL8@Trim
$LN7@Trim:

; 10   :         *t = 0;

	mov	BYTE PTR [rcx], 0
$LN9@Trim:
; File C:\Users\Mahito\Desktop\Night outing\Night-outing\src\xrCore\_std_extensions.h

; 186  : {	return (u32)strlen(S);			}

	mov	rax, -1
	npad	6
$LL29@Trim:
	inc	rax
	cmp	BYTE PTR [rdx+rax], 0
	jne	SHORT $LL29@Trim
; File C:\Users\Mahito\Desktop\Night outing\Night-outing\src\xrCore\xr_trims.cpp

; 17   : 	LPSTR p 	= str+xr_strlen(str);

	mov	eax, eax
	lea	rcx, QWORD PTR [rax+rdx]

; 18   : 	while( (p!=str) && (u8(*p)<=u8(' ')) ) p--;

	test	rax, rax
	je	SHORT $LN30@Trim
$LL12@Trim:
	cmp	BYTE PTR [rcx], 32			; 00000020H
	ja	SHORT $LN30@Trim
	dec	rcx
	cmp	rcx, rdx
	jne	SHORT $LL12@Trim
$LN30@Trim:

; 25   : 	_TrimLeft( str );
; 26   : 	_TrimRight( str );
; 27   : 	return str;
; 28   : }

	mov	BYTE PTR [rcx+1], 0
	mov	rax, rdx
	ret	0
?_Trim@@YAPEADPEAD@Z ENDP				; _Trim
_TEXT	ENDS
; Function compile flags: /Ogtpy
; File C:\Users\Mahito\Desktop\Night outing\Night-outing\src\xrCore\xr_trims.cpp
_TEXT	SEGMENT
str$ = 8
?_TrimLeft@@YAPEADPEAD@Z PROC				; _TrimLeft

; 6    : 	LPSTR p 	= str;
; 7    : 	while( *p && (u8(*p)<=u8(' ')) ) p++;

	movzx	edx, BYTE PTR [rcx]
	mov	r8, rcx
	mov	rax, rcx
	test	dl, dl
	je	SHORT $LN7@TrimLeft
	npad	3
$LL2@TrimLeft:
	cmp	dl, 32					; 00000020H
	ja	SHORT $LN3@TrimLeft
	movzx	edx, BYTE PTR [rax+1]
	inc	rax
	test	dl, dl
	jne	SHORT $LL2@TrimLeft
$LN3@TrimLeft:

; 8    :     if (p!=str){

	cmp	rax, r8
	je	SHORT $LN17@TrimLeft

; 9    :         for (LPSTR t=str; *p; t++,p++) *t=*p;

	movzx	edx, BYTE PTR [rax]
	test	dl, dl
	je	SHORT $LN5@TrimLeft
	sub	rax, r8
	npad	1
$LL6@TrimLeft:
	mov	BYTE PTR [rcx], dl
	inc	rcx
	movzx	edx, BYTE PTR [rax+rcx]
	test	dl, dl
	jne	SHORT $LL6@TrimLeft
$LN5@TrimLeft:

; 10   :         *t = 0;

	mov	BYTE PTR [rcx], 0
$LN17@TrimLeft:

; 11   :     }
; 12   : 	return str;
; 13   : }

	mov	rax, r8
$LN7@TrimLeft:
	ret	0
?_TrimLeft@@YAPEADPEAD@Z ENDP				; _TrimLeft
_TEXT	ENDS
; Function compile flags: /Ogtpy
; File C:\Users\Mahito\Desktop\Night outing\Night-outing\src\xrCore\xr_trims.cpp
_TEXT	SEGMENT
src$ = 48
pos$ = 56
separator$ = 64
?_SetPos@@YAPEBDPEBDID@Z PROC				; _SetPos

; 31   : {

$LN13:
	mov	QWORD PTR [rsp+16], rbx
	push	rdi
	sub	rsp, 32					; 00000020H

; 32   : 	LPCSTR	res			= src;
; 33   : 	u32		p			= 0;

	xor	ebx, ebx
	mov	edi, edx

; 34   : 	while( (p<pos) && (0!=(res=strchr(res,separator))) )

	test	edx, edx
	je	SHORT $LN9@SetPos
	mov	QWORD PTR [rsp+48], rsi
	movsx	esi, r8b
	npad	5
$LL2@SetPos:
	mov	edx, esi
	call	QWORD PTR __imp_strchr
	mov	rcx, rax
	test	rax, rax
	je	SHORT $LN11@SetPos

; 35   : 	{
; 36   : 		res		++;

	inc	rcx

; 37   : 		p		++;

	inc	ebx
	cmp	ebx, edi
	jb	SHORT $LL2@SetPos

; 38   : 	}
; 39   : 	return		res;

	mov	rax, rcx
$LN11@SetPos:
	mov	rsi, QWORD PTR [rsp+48]

; 40   : }

	mov	rbx, QWORD PTR [rsp+56]
	add	rsp, 32					; 00000020H
	pop	rdi
	ret	0
$LN9@SetPos:
	mov	rbx, QWORD PTR [rsp+56]
	mov	rax, rcx
	add	rsp, 32					; 00000020H
	pop	rdi
	ret	0
?_SetPos@@YAPEBDPEBDID@Z ENDP				; _SetPos
_TEXT	ENDS
; Function compile flags: /Ogtpy
; File C:\Users\Mahito\Desktop\Night outing\Night-outing\src\xrCore\xr_trims.cpp
; File C:\Users\Mahito\Desktop\Night outing\Night-outing\src\xrCore\_std_extensions.h
; File C:\Users\Mahito\Desktop\Night outing\Night-outing\src\xrCore\xr_trims.cpp
_TEXT	SEGMENT
src$ = 48
dst$ = 56
separator$ = 64
?_CopyVal@@YAPEBDPEBDPEADD@Z PROC			; _CopyVal

; 43   : {

$LN9:
	mov	QWORD PTR [rsp+8], rbx
	mov	QWORD PTR [rsp+16], rsi
	push	rdi
	sub	rsp, 32					; 00000020H
	mov	rsi, rdx
	mov	rbx, rcx

; 44   : 	LPCSTR	p;
; 45   : 	size_t	n;
; 46   : 	p			= strchr	( src, separator );

	movsx	edx, r8b
	call	QWORD PTR __imp_strchr
	mov	rdi, rax

; 47   : 	n			= (p>0) ? (p-src) : xr_strlen(src);

	test	rax, rax
	je	SHORT $LN3@CopyVal
	sub	rdi, rbx
	jmp	SHORT $LN4@CopyVal
$LN3@CopyVal:
; File C:\Users\Mahito\Desktop\Night outing\Night-outing\src\xrCore\_std_extensions.h

; 186  : {	return (u32)strlen(S);			}

	mov	rax, -1
$LL7@CopyVal:
	inc	rax
	cmp	BYTE PTR [rbx+rax], 0
	jne	SHORT $LL7@CopyVal
	mov	edi, eax
$LN4@CopyVal:
; File C:\Users\Mahito\Desktop\Night outing\Night-outing\src\xrCore\xr_trims.cpp

; 48   : 	strncpy		( dst, src, n );

	mov	r8, rdi
	mov	rdx, rbx
	mov	rcx, rsi
	call	QWORD PTR __imp_strncpy

; 49   : 	dst[n]		= 0;
; 50   : 	return		dst;
; 51   : }

	mov	rbx, QWORD PTR [rsp+48]
	mov	rax, rsi
	mov	BYTE PTR [rdi+rsi], 0
	mov	rsi, QWORD PTR [rsp+56]
	add	rsp, 32					; 00000020H
	pop	rdi
	ret	0
?_CopyVal@@YAPEBDPEBDPEADD@Z ENDP			; _CopyVal
_TEXT	ENDS
; Function compile flags: /Ogtpy
; File C:\Program Files\Microsoft Visual Studio\2022\Community\VC\Tools\MSVC\14.35.32215\include\xstring
; File C:\Users\Mahito\Desktop\Night outing\Night-outing\src\xrCore\xrMemory.h
; File C:\Users\Mahito\Desktop\Night outing\Night-outing\src\xrCore\xrMemory_subst_msvc.cpp
; File C:\Program Files\Microsoft Visual Studio\2022\Community\VC\Tools\MSVC\14.35.32215\include\xstring
;	COMDAT ??__Fout@?1??_ListToSequence@@YA?AV?$basic_string@DU?$char_traits@D@std@@V?$xalloc@D@@@std@@AEBV?$xr_vector@V?$basic_string@DU?$char_traits@D@std@@V?$xalloc@D@@@std@@V?$xalloc@V?$basic_string@DU?$char_traits@D@std@@V?$xalloc@D@@@std@@@@@@@Z@YAXXZ
text$yd	SEGMENT
??__Fout@?1??_ListToSequence@@YA?AV?$basic_string@DU?$char_traits@D@std@@V?$xalloc@D@@@std@@AEBV?$xr_vector@V?$basic_string@DU?$char_traits@D@std@@V?$xalloc@D@@@std@@V?$xalloc@V?$basic_string@DU?$char_traits@D@std@@V?$xalloc@D@@@std@@@@@@@Z@YAXXZ PROC ; `_ListToSequence'::`2'::`dynamic atexit destructor for 'out'', COMDAT
	sub	rsp, 40					; 00000028H

; 2300 :         return _BUF_SIZE <= _Myres;

	cmp	QWORD PTR ?out@?1??_ListToSequence@@YA?AV?$basic_string@DU?$char_traits@D@std@@V?$xalloc@D@@@std@@AEBV?$xr_vector@V?$basic_string@DU?$char_traits@D@std@@V?$xalloc@D@@@std@@V?$xalloc@V?$basic_string@DU?$char_traits@D@std@@V?$xalloc@D@@@std@@@@@@@Z@4V23@A+24, 16

; 5014 :         if (_My_data._Large_string_engaged()) {

	jb	SHORT $LN13@dynamic
; File C:\Users\Mahito\Desktop\Night outing\Night-outing\src\xrCore\xrMemory.h

; 69   : 	if (P)

	mov	rcx, QWORD PTR ?out@?1??_ListToSequence@@YA?AV?$basic_string@DU?$char_traits@D@std@@V?$xalloc@D@@@std@@AEBV?$xr_vector@V?$basic_string@DU?$char_traits@D@std@@V?$xalloc@D@@@std@@V?$xalloc@V?$basic_string@DU?$char_traits@D@std@@V?$xalloc@D@@@std@@@@@@@Z@4V23@A
	test	rcx, rcx
	je	SHORT $LN13@dynamic
; File C:\Users\Mahito\Desktop\Night outing\Night-outing\src\xrCore\xrMemory_subst_msvc.cpp

; 99   : 	stat_calls++;

	inc	DWORD PTR ?Memory@@3VxrMemory@@A

; 100  : 
; 101  : #ifdef PURE_ALLOC
; 102  : 	if (g_use_pure_alloc)
; 103  : 	{
; 104  : 		//free(P);
; 105  : 		_aligned_free(P);

	call	QWORD PTR __imp__aligned_free
$LN13@dynamic:
; File C:\Program Files\Microsoft Visual Studio\2022\Community\VC\Tools\MSVC\14.35.32215\include\xstring

; 5022 :         _My_data._Mysize = 0;

	vmovdqu	xmm0, XMMWORD PTR __xmm@000000000000000f0000000000000000
	vmovdqu	XMMWORD PTR ?out@?1??_ListToSequence@@YA?AV?$basic_string@DU?$char_traits@D@std@@V?$xalloc@D@@@std@@AEBV?$xr_vector@V?$basic_string@DU?$char_traits@D@std@@V?$xalloc@D@@@std@@V?$xalloc@V?$basic_string@DU?$char_traits@D@std@@V?$xalloc@D@@@std@@@@@@@Z@4V23@A+16, xmm0

; 5023 :         _My_data._Myres  = _BUF_SIZE - 1;
; 5024 :         // the _Traits::assign is last so the codegen doesn't think the char write can alias this
; 5025 :         _Traits::assign(_My_data._Bx._Buf[0], _Elem());

	mov	BYTE PTR ?out@?1??_ListToSequence@@YA?AV?$basic_string@DU?$char_traits@D@std@@V?$xalloc@D@@@std@@AEBV?$xr_vector@V?$basic_string@DU?$char_traits@D@std@@V?$xalloc@D@@@std@@V?$xalloc@V?$basic_string@DU?$char_traits@D@std@@V?$xalloc@D@@@std@@@@@@@Z@4V23@A, 0
	add	rsp, 40					; 00000028H
	ret	0
??__Fout@?1??_ListToSequence@@YA?AV?$basic_string@DU?$char_traits@D@std@@V?$xalloc@D@@@std@@AEBV?$xr_vector@V?$basic_string@DU?$char_traits@D@std@@V?$xalloc@D@@@std@@V?$xalloc@V?$basic_string@DU?$char_traits@D@std@@V?$xalloc@D@@@std@@@@@@@Z@YAXXZ ENDP ; `_ListToSequence'::`2'::`dynamic atexit destructor for 'out''
text$yd	ENDS
; Function compile flags: /Ogtpy
; File C:\Program Files\Microsoft Visual Studio\2022\Community\VC\Tools\MSVC\14.35.32215\include\xmemory
; File C:\Program Files\Microsoft Visual Studio\2022\Community\VC\Tools\MSVC\14.35.32215\include\xstring
; File C:\Users\Mahito\Desktop\Night outing\Night-outing\src\xrCore\xrMemory.h
; File C:\Users\Mahito\Desktop\Night outing\Night-outing\src\xrCore\xrMemory_subst_msvc.cpp
; File C:\Program Files\Microsoft Visual Studio\2022\Community\VC\Tools\MSVC\14.35.32215\include\xstring
; File C:\Program Files\Microsoft Visual Studio\2022\Community\VC\Tools\MSVC\14.35.32215\include\xmemory
;	COMDAT ??1?$_Uninitialized_backout_al@V?$xalloc@V?$basic_string@DU?$char_traits@D@std@@V?$xalloc@D@@@std@@@@@std@@QEAA@XZ
_TEXT	SEGMENT
this$ = 48
??1?$_Uninitialized_backout_al@V?$xalloc@V?$basic_string@DU?$char_traits@D@std@@V?$xalloc@D@@@std@@@@@std@@QEAA@XZ PROC ; std::_Uninitialized_backout_al<xalloc<std::basic_string<char,std::char_traits<char>,xalloc<char> > > >::~_Uninitialized_backout_al<xalloc<std::basic_string<char,std::char_traits<char>,xalloc<char> > > >, COMDAT

; 1654 :     _CONSTEXPR20 ~_Uninitialized_backout_al() {

$LN52:
	mov	QWORD PTR [rsp+16], rbx
	push	rdi
	sub	rsp, 32					; 00000020H

; 1655 :         _Destroy_range(_First, _Last, _Al);

	mov	rdi, QWORD PTR [rcx+8]
	mov	rbx, QWORD PTR [rcx]

; 946  :         for (; _First != _Last; ++_First) {

	cmp	rbx, rdi
	je	SHORT $LN5@Uninitiali
	mov	QWORD PTR [rsp+48], rsi
	xor	esi, esi
	npad	3
$LL6@Uninitiali:
; File C:\Program Files\Microsoft Visual Studio\2022\Community\VC\Tools\MSVC\14.35.32215\include\xstring

; 2300 :         return _BUF_SIZE <= _Myres;

	cmp	QWORD PTR [rbx+24], 16

; 5014 :         if (_My_data._Large_string_engaged()) {

	jb	SHORT $LN25@Uninitiali

; 5015 :             const pointer _Ptr = _My_data._Bx._Ptr;
; 5016 :             auto& _Al          = _Getal();
; 5017 :             _Destroy_in_place(_My_data._Bx._Ptr);
; 5018 :             _My_data._Activate_SSO_buffer();
; 5019 :             _Al.deallocate(_Ptr, _My_data._Myres + 1);

	mov	rcx, QWORD PTR [rbx]
; File C:\Users\Mahito\Desktop\Night outing\Night-outing\src\xrCore\xrMemory.h

; 69   : 	if (P)

	test	rcx, rcx
	je	SHORT $LN25@Uninitiali
; File C:\Users\Mahito\Desktop\Night outing\Night-outing\src\xrCore\xrMemory_subst_msvc.cpp

; 99   : 	stat_calls++;

	inc	DWORD PTR ?Memory@@3VxrMemory@@A

; 100  : 
; 101  : #ifdef PURE_ALLOC
; 102  : 	if (g_use_pure_alloc)
; 103  : 	{
; 104  : 		//free(P);
; 105  : 		_aligned_free(P);

	call	QWORD PTR __imp__aligned_free
$LN25@Uninitiali:
; File C:\Program Files\Microsoft Visual Studio\2022\Community\VC\Tools\MSVC\14.35.32215\include\xstring

; 5022 :         _My_data._Mysize = 0;

	mov	QWORD PTR [rbx+16], rsi

; 5023 :         _My_data._Myres  = _BUF_SIZE - 1;

	mov	QWORD PTR [rbx+24], 15

; 5024 :         // the _Traits::assign is last so the codegen doesn't think the char write can alias this
; 5025 :         _Traits::assign(_My_data._Bx._Buf[0], _Elem());

	mov	BYTE PTR [rbx], sil
; File C:\Program Files\Microsoft Visual Studio\2022\Community\VC\Tools\MSVC\14.35.32215\include\xmemory

; 946  :         for (; _First != _Last; ++_First) {

	add	rbx, 32					; 00000020H
	cmp	rbx, rdi
	jne	SHORT $LL6@Uninitiali
	mov	rsi, QWORD PTR [rsp+48]
$LN5@Uninitiali:

; 1656 :     }

	mov	rbx, QWORD PTR [rsp+56]
	add	rsp, 32					; 00000020H
	pop	rdi
	ret	0
??1?$_Uninitialized_backout_al@V?$xalloc@V?$basic_string@DU?$char_traits@D@std@@V?$xalloc@D@@@std@@@@@std@@QEAA@XZ ENDP ; std::_Uninitialized_backout_al<xalloc<std::basic_string<char,std::char_traits<char>,xalloc<char> > > >::~_Uninitialized_backout_al<xalloc<std::basic_string<char,std::char_traits<char>,xalloc<char> > > >
_TEXT	ENDS
END
