; Listing generated by Microsoft (R) Optimizing Compiler Version 19.35.32217.1 

include listing.inc

INCLUDELIB OLDNAMES

PUBLIC	?Debug@@3VxrDebug@@A				; Debug
PUBLIC	??_C@_0BA@GDNONNGA@?$DMno?5expression?$DO@	; `string'
PUBLIC	??_C@_07LFMCMLFD@?$FLerror?$FN@			; `string'
PUBLIC	??_C@_0BC@HPNOMGOM@?$CFsFATAL?5ERROR?$CFs?$CFs@	; `string'
PUBLIC	??_C@_0BH@GALINIK@?$CFsExpression?5?5?5?5?3?5?$CFs?$CFs@ ; `string'
PUBLIC	??_C@_0BH@CIBMKEDG@?$CFsFunction?5?5?5?5?5?5?3?5?$CFs?$CFs@ ; `string'
PUBLIC	??_C@_0BH@LPGPLBHP@?$CFsFile?5?5?5?5?5?5?5?5?5?5?3?5?$CFs?$CFs@ ; `string'
PUBLIC	??_C@_0BH@MHCDNAKD@?$CFsLine?5?5?5?5?5?5?5?5?5?5?3?5?$CFd?$CFs@ ; `string'
PUBLIC	??_C@_06DIJPEION@?$CFs?$CFs?$CFs@		; `string'
PUBLIC	??_C@_0BH@PHPNCJFN@?$CFsDescription?5?5?5?3?5?$CFs?$CFs@ ; `string'
PUBLIC	??_C@_0BH@IOIAOHDG@?$CFsArgument?50?5?5?5?5?3?5?$CFs?$CFs@ ; `string'
PUBLIC	??_C@_0BH@BFCFKLFJ@?$CFsArgument?51?5?5?5?5?3?5?$CFs?$CFs@ ; `string'
PUBLIC	??_C@_0BH@DGNIFBHF@?$CFsArguments?5?5?5?5?5?3?5?$CFs?$CFs@ ; `string'
PUBLIC	??_C@_02PCIJFNDE@?$AN?6@			; `string'
PUBLIC	??_C@_0BG@BFABOLIM@?9no_call_stack_assert@	; `string'
PUBLIC	??_C@_0O@ICAMKLDJ@stack?5trace?3?6@		; `string'
PUBLIC	??_C@_0BB@GPHAOOAN@stack?5trace?3?$CFs?$CFs@	; `string'
PUBLIC	??_C@_0CA@CFHGHAJC@?$CFsPress?5OK?5to?5abort?5execution?$CFs@ ; `string'
PUBLIC	??_C@_0M@HFFOIJBL@Fatal?5Error@			; `string'
PUBLIC	??_C@_0BB@DBHFCHNO@assertion?5failed@		; `string'
PUBLIC	??_C@_0CB@KEHPPPLJ@?$CB?5VERIFY_FAILED?3?5?$CFs?$FL?$CFd?$FN?5?$HL?$CFs?$HN?5?5?$CF@ ; `string'
PUBLIC	??_C@_0CE@DLHFFOE@?$CB?5VERIFY_FAILED?3?5?$CFs?$FL?$CFd?$FN?5?$HL?$CFs?$HN?5?5?$CF@ ; `string'
PUBLIC	??_C@_0CH@KGIEPGEB@?$CB?5VERIFY_FAILED?3?5?$CFs?$FL?$CFd?$FN?5?$HL?$CFs?$HN?5?5?$CF@ ; `string'
PUBLIC	??_C@_0CK@EDMNOHFD@?$CB?5VERIFY_FAILED?3?5?$CFs?$FL?$CFd?$FN?5?$HL?$CFs?$HN?5?5?$CF@ ; `string'
PUBLIC	??_C@_0CN@LGEKIM@?$CB?5VERIFY_FAILED?3?5?$CFs?$FL?$CFd?$FN?5?$HL?$CFs?$HN?5?5?$CF@ ; `string'
PUBLIC	??_C@_0M@GKMDFHNF@fatal?5error@			; `string'
PUBLIC	??_C@_0CF@PMCOGMBN@?$CK?5?$FLx?9ray?$FN?3?5OOM?5requesting?5?$CFlld?5@ ; `string'
PUBLIC	??_C@_0CA@POIPJOOP@?$CK?5?$FLx?9ray?$FN?3?5process?5heap?$FL?$CFllu?5K?$FN@ ; `string'
PUBLIC	??_C@_0DC@LGBNOODF@?$CK?5?$FLx?9ray?$FN?3?5economy?3?5strings?$FL?$CFll@ ; `string'
PUBLIC	??_C@_0CG@JNMPBKLN@Out?5of?5memory?4?5Memory?5request?3?5@ ; `string'
PUBLIC	??_C@_0BG@IFJHIFJP@out_of_memory_handler@	; `string'
PUBLIC	??_C@_0EM@BLODLGLA@C?3?2Users?2Mahito?2Desktop?2Night?5o@ ; `string'
PUBLIC	??_C@_0M@IBNEFJCG@DBGHELP?4DLL@			; `string'
PUBLIC	??_C@_0BC@MNIKNFKD@MiniDumpWriteDump@		; `string'
PUBLIC	??_C@_05MJENMIDH@?4mdmp@			; `string'
PUBLIC	??_C@_05MIDDFADP@logs?1@			; `string'
PUBLIC	??_C@_0BI@LIBKOBMP@Saved?5dump?5file?5to?5?8?$CFs?8@ ; `string'
PUBLIC	??_C@_0CM@IDCCJAOB@Failed?5to?5save?5dump?5file?5to?5?8?$CFs@ ; `string'
PUBLIC	??_C@_0CL@KMCGFKEK@Failed?5to?5create?5dump?5file?5?8?$CFs?8@ ; `string'
PUBLIC	??_C@_0BE@EABCMIFC@DBGHELP?4DLL?5too?5old@	; `string'
PUBLIC	??_C@_0BG@MHLNFKHB@DBGHELP?4DLL?5not?5found@	; `string'
PUBLIC	??_C@_0BC@CFEFPCIK@?$FLerror?$FN?$FL?$CF8d?$FN?5?3?5?$CFs@ ; `string'
PUBLIC	??_C@_0BB@EAFFLADJ@stack?5trace?3?$AN?6?$AN?6@	; `string'
PUBLIC	??_C@_03ILJCGOLJ@?6?$CFs@			; `string'
PUBLIC	??_C@_0BA@NPLNNLAI@at?5address?50x?$CFp@	; `string'
PUBLIC	??_C@_0DB@HJLHCPAB@Unhandled?5exception?5occured?4?5Se@ ; `string'
PUBLIC	??_C@_0N@EHAENDPC@handler_base@			; `string'
PUBLIC	??_C@_0BK@NBNIIJLH@invalid_parameter_handler@	; `string'
PUBLIC	??_C@_0BC@GMEMBNHN@invalid?5parameter@		; `string'
PUBLIC	??_C@_0BL@LHEKPGNM@pure?5virtual?5function?5call@ ; `string'
PUBLIC	??_C@_0BI@OHJGHNOI@application?5is?5aborting@	; `string'
PUBLIC	??_C@_0BF@MPPFDAJ@floating?5point?5error@	; `string'
PUBLIC	??_C@_0BE@NBCBCANC@illegal?5instruction@	; `string'
PUBLIC	??_C@_0BN@OOLFPALA@termination?5with?5exit?5code?53@ ; `string'
PUBLIC	?g_full_memory_stats_callback@@3P6AXXZEA	; g_full_memory_stats_callback
PUBLIC	?enabled@crash_saving@@3_NA			; crash_saving::enabled
PUBLIC	?save_impl@crash_saving@@3P6AXXZEA		; crash_saving::save_impl
EXTRN	__imp_SetUnhandledExceptionFilter:PROC
EXTRN	__imp__set_purecall_handler:PROC
EXTRN	__imp__set_new_handler:PROC
EXTRN	__imp__set_new_mode:PROC
EXTRN	__imp__set_invalid_parameter_handler:PROC
EXTRN	__imp__set_abort_behavior:PROC
EXTRN	__imp_wcstombs_s:PROC
EXTRN	__imp_quick_exit:PROC
EXTRN	__imp_GetTopWindow:PROC
EXTRN	__imp_LocalFree:PROC
EXTRN	__imp_CloseHandle:PROC
EXTRN	__imp_GetCurrentProcessId:PROC
EXTRN	__imp_GetCurrentThreadId:PROC
EXTRN	__imp_CreateFileA:PROC
EXTRN	__imp_LoadLibraryA:PROC
EXTRN	__imp_strncpy_s:PROC
EXTRN	__imp_GetActiveWindow:PROC
EXTRN	__imp_ShowWindow:PROC
EXTRN	_Init_thread_footer:PROC
EXTRN	__imp_ShowCursor:PROC
EXTRN	_Init_thread_header:PROC
EXTRN	_Init_thread_epoch:DWORD
EXTRN	__imp_GetCurrentProcess:PROC
EXTRN	__imp_TerminateProcess:PROC
EXTRN	__imp_GetCommandLineA:PROC
EXTRN	__imp_IsDebuggerPresent:PROC
EXTRN	__imp___C_specific_handler:PROC
?Debug@@3VxrDebug@@A DB 010H DUP (?)			; Debug
?g_full_memory_stats_callback@@3P6AXXZEA DQ 01H DUP (?)	; g_full_memory_stats_callback
?save_impl@crash_saving@@3P6AXXZEA DQ 01H DUP (?)	; crash_saving::save_impl
_BSS	ENDS
;	COMDAT ??_C@_0BN@OOLFPALA@termination?5with?5exit?5code?53@
CONST	SEGMENT
??_C@_0BN@OOLFPALA@termination?5with?5exit?5code?53@ DB 'termination with'
	DB	' exit code 3', 00H				; `string'
CONST	ENDS
;	COMDAT ??_C@_0BE@NBCBCANC@illegal?5instruction@
CONST	SEGMENT
??_C@_0BE@NBCBCANC@illegal?5instruction@ DB 'illegal instruction', 00H ; `string'
CONST	ENDS
;	COMDAT ??_C@_0BF@MPPFDAJ@floating?5point?5error@
CONST	SEGMENT
??_C@_0BF@MPPFDAJ@floating?5point?5error@ DB 'floating point error', 00H ; `string'
CONST	ENDS
;	COMDAT ??_C@_0BI@OHJGHNOI@application?5is?5aborting@
CONST	SEGMENT
??_C@_0BI@OHJGHNOI@application?5is?5aborting@ DB 'application is aborting'
	DB	00H						; `string'
CONST	ENDS
;	COMDAT ??_C@_0BL@LHEKPGNM@pure?5virtual?5function?5call@
CONST	SEGMENT
??_C@_0BL@LHEKPGNM@pure?5virtual?5function?5call@ DB 'pure virtual functi'
	DB	'on call', 00H				; `string'
CONST	ENDS
;	COMDAT ??_C@_0BC@GMEMBNHN@invalid?5parameter@
CONST	SEGMENT
??_C@_0BC@GMEMBNHN@invalid?5parameter@ DB 'invalid parameter', 00H ; `string'
CONST	ENDS
;	COMDAT ??_C@_0BK@NBNIIJLH@invalid_parameter_handler@
CONST	SEGMENT
??_C@_0BK@NBNIIJLH@invalid_parameter_handler@ DB 'invalid_parameter_handl'
	DB	'er', 00H					; `string'
CONST	ENDS
;	COMDAT ??_C@_0N@EHAENDPC@handler_base@
CONST	SEGMENT
??_C@_0N@EHAENDPC@handler_base@ DB 'handler_base', 00H	; `string'
CONST	ENDS
;	COMDAT ??_C@_0DB@HJLHCPAB@Unhandled?5exception?5occured?4?5Se@
CONST	SEGMENT
??_C@_0DB@HJLHCPAB@Unhandled?5exception?5occured?4?5Se@ DB 'Unhandled exc'
	DB	'eption occured. See log for details', 00H	; `string'
CONST	ENDS
;	COMDAT ??_C@_0BA@NPLNNLAI@at?5address?50x?$CFp@
CONST	SEGMENT
??_C@_0BA@NPLNNLAI@at?5address?50x?$CFp@ DB 'at address 0x%p', 00H ; `string'
CONST	ENDS
;	COMDAT ??_C@_03ILJCGOLJ@?6?$CFs@
CONST	SEGMENT
??_C@_03ILJCGOLJ@?6?$CFs@ DB 0aH, '%s', 00H		; `string'
CONST	ENDS
;	COMDAT ??_C@_0BB@EAFFLADJ@stack?5trace?3?$AN?6?$AN?6@
CONST	SEGMENT
??_C@_0BB@EAFFLADJ@stack?5trace?3?$AN?6?$AN?6@ DB 'stack trace:', 0dH, 0aH
	DB	0dH, 0aH, 00H				; `string'
CONST	ENDS
;	COMDAT ??_C@_0BC@CFEFPCIK@?$FLerror?$FN?$FL?$CF8d?$FN?5?3?5?$CFs@
CONST	SEGMENT
??_C@_0BC@CFEFPCIK@?$FLerror?$FN?$FL?$CF8d?$FN?5?3?5?$CFs@ DB '[error][%8'
	DB	'd] : %s', 00H				; `string'
CONST	ENDS
;	COMDAT ??_C@_0BG@MHLNFKHB@DBGHELP?4DLL?5not?5found@
CONST	SEGMENT
??_C@_0BG@MHLNFKHB@DBGHELP?4DLL?5not?5found@ DB 'DBGHELP.DLL not found', 00H ; `string'
CONST	ENDS
;	COMDAT ??_C@_0BE@EABCMIFC@DBGHELP?4DLL?5too?5old@
CONST	SEGMENT
??_C@_0BE@EABCMIFC@DBGHELP?4DLL?5too?5old@ DB 'DBGHELP.DLL too old', 00H ; `string'
CONST	ENDS
;	COMDAT ??_C@_0CL@KMCGFKEK@Failed?5to?5create?5dump?5file?5?8?$CFs?8@
CONST	SEGMENT
??_C@_0CL@KMCGFKEK@Failed?5to?5create?5dump?5file?5?8?$CFs?8@ DB 'Failed '
	DB	'to create dump file ''%s'' (error %d)', 00H	; `string'
CONST	ENDS
;	COMDAT ??_C@_0CM@IDCCJAOB@Failed?5to?5save?5dump?5file?5to?5?8?$CFs@
CONST	SEGMENT
??_C@_0CM@IDCCJAOB@Failed?5to?5save?5dump?5file?5to?5?8?$CFs@ DB 'Failed '
	DB	'to save dump file to ''%s'' (error %d)', 00H ; `string'
CONST	ENDS
;	COMDAT ??_C@_0BI@LIBKOBMP@Saved?5dump?5file?5to?5?8?$CFs?8@
CONST	SEGMENT
??_C@_0BI@LIBKOBMP@Saved?5dump?5file?5to?5?8?$CFs?8@ DB 'Saved dump file '
	DB	'to ''%s''', 00H				; `string'
CONST	ENDS
;	COMDAT ??_C@_05MIDDFADP@logs?1@
CONST	SEGMENT
??_C@_05MIDDFADP@logs?1@ DB 'logs/', 00H		; `string'
CONST	ENDS
;	COMDAT ??_C@_05MJENMIDH@?4mdmp@
CONST	SEGMENT
??_C@_05MJENMIDH@?4mdmp@ DB '.mdmp', 00H		; `string'
CONST	ENDS
;	COMDAT ??_C@_0BC@MNIKNFKD@MiniDumpWriteDump@
CONST	SEGMENT
??_C@_0BC@MNIKNFKD@MiniDumpWriteDump@ DB 'MiniDumpWriteDump', 00H ; `string'
CONST	ENDS
;	COMDAT ??_C@_0M@IBNEFJCG@DBGHELP?4DLL@
CONST	SEGMENT
??_C@_0M@IBNEFJCG@DBGHELP?4DLL@ DB 'DBGHELP.DLL', 00H	; `string'
CONST	ENDS
;	COMDAT ??_C@_0EM@BLODLGLA@C?3?2Users?2Mahito?2Desktop?2Night?5o@
CONST	SEGMENT
??_C@_0EM@BLODLGLA@C?3?2Users?2Mahito?2Desktop?2Night?5o@ DB 'C:\Users\Ma'
	DB	'hito\Desktop\Night outing\Night-outing\src\xrCore\xrDebugNew.'
	DB	'cpp', 00H					; `string'
CONST	ENDS
;	COMDAT ??_C@_0BG@IFJHIFJP@out_of_memory_handler@
CONST	SEGMENT
??_C@_0BG@IFJHIFJP@out_of_memory_handler@ DB 'out_of_memory_handler', 00H ; `string'
CONST	ENDS
;	COMDAT ??_C@_0CG@JNMPBKLN@Out?5of?5memory?4?5Memory?5request?3?5@
CONST	SEGMENT
??_C@_0CG@JNMPBKLN@Out?5of?5memory?4?5Memory?5request?3?5@ DB 'Out of mem'
	DB	'ory. Memory request: %lld K', 00H		; `string'
CONST	ENDS
;	COMDAT ??_C@_0DC@LGBNOODF@?$CK?5?$FLx?9ray?$FN?3?5economy?3?5strings?$FL?$CFll@
CONST	SEGMENT
??_C@_0DC@LGBNOODF@?$CK?5?$FLx?9ray?$FN?3?5economy?3?5strings?$FL?$CFll@ DB '*'
	DB	' [x-ray]: economy: strings[%lld K], smem[%lld K]', 00H ; `string'
CONST	ENDS
;	COMDAT ??_C@_0CA@POIPJOOP@?$CK?5?$FLx?9ray?$FN?3?5process?5heap?$FL?$CFllu?5K?$FN@
CONST	SEGMENT
??_C@_0CA@POIPJOOP@?$CK?5?$FLx?9ray?$FN?3?5process?5heap?$FL?$CFllu?5K?$FN@ DB '*'
	DB	' [x-ray]: process heap[%llu K]', 00H	; `string'
CONST	ENDS
;	COMDAT ??_C@_0CF@PMCOGMBN@?$CK?5?$FLx?9ray?$FN?3?5OOM?5requesting?5?$CFlld?5@
CONST	SEGMENT
??_C@_0CF@PMCOGMBN@?$CK?5?$FLx?9ray?$FN?3?5OOM?5requesting?5?$CFlld?5@ DB '*'
	DB	' [x-ray]: OOM requesting %lld bytes', 00H	; `string'
CONST	ENDS
;	COMDAT ??_C@_0M@GKMDFHNF@fatal?5error@
CONST	SEGMENT
??_C@_0M@GKMDFHNF@fatal?5error@ DB 'fatal error', 00H	; `string'
CONST	ENDS
;	COMDAT ??_C@_0CN@LGEKIM@?$CB?5VERIFY_FAILED?3?5?$CFs?$FL?$CFd?$FN?5?$HL?$CFs?$HN?5?5?$CF@
CONST	SEGMENT
??_C@_0CN@LGEKIM@?$CB?5VERIFY_FAILED?3?5?$CFs?$FL?$CFd?$FN?5?$HL?$CFs?$HN?5?5?$CF@ DB '!'
	DB	' VERIFY_FAILED: %s[%d] {%s}  %s %s %s %s %s', 00H ; `string'
CONST	ENDS
;	COMDAT ??_C@_0CK@EDMNOHFD@?$CB?5VERIFY_FAILED?3?5?$CFs?$FL?$CFd?$FN?5?$HL?$CFs?$HN?5?5?$CF@
CONST	SEGMENT
??_C@_0CK@EDMNOHFD@?$CB?5VERIFY_FAILED?3?5?$CFs?$FL?$CFd?$FN?5?$HL?$CFs?$HN?5?5?$CF@ DB '!'
	DB	' VERIFY_FAILED: %s[%d] {%s}  %s %s %s %s', 00H ; `string'
CONST	ENDS
;	COMDAT ??_C@_0CH@KGIEPGEB@?$CB?5VERIFY_FAILED?3?5?$CFs?$FL?$CFd?$FN?5?$HL?$CFs?$HN?5?5?$CF@
CONST	SEGMENT
??_C@_0CH@KGIEPGEB@?$CB?5VERIFY_FAILED?3?5?$CFs?$FL?$CFd?$FN?5?$HL?$CFs?$HN?5?5?$CF@ DB '!'
	DB	' VERIFY_FAILED: %s[%d] {%s}  %s %s %s', 00H	; `string'
CONST	ENDS
;	COMDAT ??_C@_0CE@DLHFFOE@?$CB?5VERIFY_FAILED?3?5?$CFs?$FL?$CFd?$FN?5?$HL?$CFs?$HN?5?5?$CF@
CONST	SEGMENT
??_C@_0CE@DLHFFOE@?$CB?5VERIFY_FAILED?3?5?$CFs?$FL?$CFd?$FN?5?$HL?$CFs?$HN?5?5?$CF@ DB '!'
	DB	' VERIFY_FAILED: %s[%d] {%s}  %s %s', 00H	; `string'
CONST	ENDS
;	COMDAT ??_C@_0CB@KEHPPPLJ@?$CB?5VERIFY_FAILED?3?5?$CFs?$FL?$CFd?$FN?5?$HL?$CFs?$HN?5?5?$CF@
CONST	SEGMENT
??_C@_0CB@KEHPPPLJ@?$CB?5VERIFY_FAILED?3?5?$CFs?$FL?$CFd?$FN?5?$HL?$CFs?$HN?5?5?$CF@ DB '!'
	DB	' VERIFY_FAILED: %s[%d] {%s}  %s', 00H	; `string'
CONST	ENDS
;	COMDAT ??_C@_0BB@DBHFCHNO@assertion?5failed@
CONST	SEGMENT
??_C@_0BB@DBHFCHNO@assertion?5failed@ DB 'assertion failed', 00H ; `string'
CONST	ENDS
;	COMDAT ??_C@_0M@HFFOIJBL@Fatal?5Error@
CONST	SEGMENT
??_C@_0M@HFFOIJBL@Fatal?5Error@ DB 'Fatal Error', 00H	; `string'
CONST	ENDS
;	COMDAT ??_C@_0CA@CFHGHAJC@?$CFsPress?5OK?5to?5abort?5execution?$CFs@
CONST	SEGMENT
??_C@_0CA@CFHGHAJC@?$CFsPress?5OK?5to?5abort?5execution?$CFs@ DB '%sPress'
	DB	' OK to abort execution%s', 00H		; `string'
CONST	ENDS
;	COMDAT ??_C@_0BB@GPHAOOAN@stack?5trace?3?$CFs?$CFs@
CONST	SEGMENT
??_C@_0BB@GPHAOOAN@stack?5trace?3?$CFs?$CFs@ DB 'stack trace:%s%s', 00H ; `string'
CONST	ENDS
;	COMDAT ??_C@_0O@ICAMKLDJ@stack?5trace?3?6@
CONST	SEGMENT
??_C@_0O@ICAMKLDJ@stack?5trace?3?6@ DB 'stack trace:', 0aH, 00H ; `string'
CONST	ENDS
;	COMDAT ??_C@_0BG@BFABOLIM@?9no_call_stack_assert@
CONST	SEGMENT
??_C@_0BG@BFABOLIM@?9no_call_stack_assert@ DB '-no_call_stack_assert', 00H ; `string'
CONST	ENDS
;	COMDAT ??_C@_02PCIJFNDE@?$AN?6@
CONST	SEGMENT
??_C@_02PCIJFNDE@?$AN?6@ DB 0dH, 0aH, 00H		; `string'
CONST	ENDS
;	COMDAT ??_C@_0BH@DGNIFBHF@?$CFsArguments?5?5?5?5?5?3?5?$CFs?$CFs@
CONST	SEGMENT
??_C@_0BH@DGNIFBHF@?$CFsArguments?5?5?5?5?5?3?5?$CFs?$CFs@ DB '%sArgument'
	DB	's     : %s%s', 00H				; `string'
CONST	ENDS
;	COMDAT ??_C@_0BH@BFCFKLFJ@?$CFsArgument?51?5?5?5?5?3?5?$CFs?$CFs@
CONST	SEGMENT
??_C@_0BH@BFCFKLFJ@?$CFsArgument?51?5?5?5?5?3?5?$CFs?$CFs@ DB '%sArgument'
	DB	' 1    : %s%s', 00H				; `string'
CONST	ENDS
;	COMDAT ??_C@_0BH@IOIAOHDG@?$CFsArgument?50?5?5?5?5?3?5?$CFs?$CFs@
CONST	SEGMENT
??_C@_0BH@IOIAOHDG@?$CFsArgument?50?5?5?5?5?3?5?$CFs?$CFs@ DB '%sArgument'
	DB	' 0    : %s%s', 00H				; `string'
CONST	ENDS
;	COMDAT ??_C@_0BH@PHPNCJFN@?$CFsDescription?5?5?5?3?5?$CFs?$CFs@
CONST	SEGMENT
??_C@_0BH@PHPNCJFN@?$CFsDescription?5?5?5?3?5?$CFs?$CFs@ DB '%sDescriptio'
	DB	'n   : %s%s', 00H				; `string'
CONST	ENDS
;	COMDAT ??_C@_06DIJPEION@?$CFs?$CFs?$CFs@
CONST	SEGMENT
??_C@_06DIJPEION@?$CFs?$CFs?$CFs@ DB '%s%s%s', 00H	; `string'
CONST	ENDS
;	COMDAT ??_C@_0BH@MHCDNAKD@?$CFsLine?5?5?5?5?5?5?5?5?5?5?3?5?$CFd?$CFs@
CONST	SEGMENT
??_C@_0BH@MHCDNAKD@?$CFsLine?5?5?5?5?5?5?5?5?5?5?3?5?$CFd?$CFs@ DB '%sLin'
	DB	'e          : %d%s', 00H			; `string'
CONST	ENDS
;	COMDAT ??_C@_0BH@LPGPLBHP@?$CFsFile?5?5?5?5?5?5?5?5?5?5?3?5?$CFs?$CFs@
CONST	SEGMENT
??_C@_0BH@LPGPLBHP@?$CFsFile?5?5?5?5?5?5?5?5?5?5?3?5?$CFs?$CFs@ DB '%sFil'
	DB	'e          : %s%s', 00H			; `string'
CONST	ENDS
;	COMDAT ??_C@_0BH@CIBMKEDG@?$CFsFunction?5?5?5?5?5?5?3?5?$CFs?$CFs@
CONST	SEGMENT
??_C@_0BH@CIBMKEDG@?$CFsFunction?5?5?5?5?5?5?3?5?$CFs?$CFs@ DB '%sFunctio'
	DB	'n      : %s%s', 00H				; `string'
CONST	ENDS
;	COMDAT ??_C@_0BH@GALINIK@?$CFsExpression?5?5?5?5?3?5?$CFs?$CFs@
CONST	SEGMENT
??_C@_0BH@GALINIK@?$CFsExpression?5?5?5?5?3?5?$CFs?$CFs@ DB '%sExpression'
	DB	'    : %s%s', 00H				; `string'
CONST	ENDS
;	COMDAT ??_C@_0BC@HPNOMGOM@?$CFsFATAL?5ERROR?$CFs?$CFs@
CONST	SEGMENT
??_C@_0BC@HPNOMGOM@?$CFsFATAL?5ERROR?$CFs?$CFs@ DB '%sFATAL ERROR%s%s', 00H ; `string'
CONST	ENDS
;	COMDAT ??_C@_07LFMCMLFD@?$FLerror?$FN@
CONST	SEGMENT
??_C@_07LFMCMLFD@?$FLerror?$FN@ DB '[error]', 00H	; `string'
CONST	ENDS
;	COMDAT ??_C@_0BA@GDNONNGA@?$DMno?5expression?$DO@
CONST	SEGMENT
??_C@_0BA@GDNONNGA@?$DMno?5expression?$DO@ DB '<no expression>', 00H ; `string'
	ORG $+586
?enabled@crash_saving@@3_NA DB 01H			; crash_saving::enabled
PUBLIC	?c_str@?$basic_string@DU?$char_traits@D@std@@V?$allocator@D@2@@std@@QEBAPEBDXZ ; std::basic_string<char,std::char_traits<char>,std::allocator<char> >::c_str
PUBLIC	vsprintf
PUBLIC	?strchr@@YAPEADQEADH@Z				; strchr
PUBLIC	?xr_strcpy@@YAHPEAD_KPEBD@Z			; xr_strcpy
PUBLIC	?xr_strcat@@YAHPEAD_KPEBD@Z			; xr_strcat
PUBLIC	??$xr_strcpy@$0BAAA@@@YAHAEAY0BAAA@DPEBD@Z	; xr_strcpy<4096>
PUBLIC	??$xr_sprintf@$0CAI@@@YAHAEAY0CAI@DPEBDZZ	; xr_sprintf<520>
PUBLIC	??$xr_strcat@$0CAI@@@YAHAEAY0CAI@DPEBD@Z	; xr_strcat<520>
PUBLIC	??$xr_strcpy@$0CAI@@@YAHAEAY0CAI@DPEBD@Z	; xr_strcpy<520>
PUBLIC	?debug_on_thread_spawn@@YAXXZ			; debug_on_thread_spawn
PUBLIC	?UnhandledFilter@@YAJPEAU_EXCEPTION_POINTERS@@@Z ; UnhandledFilter
PUBLIC	?format_message@@YAXPEADAEBI@Z			; format_message
PUBLIC	?save_mini_dump@@YAXPEAU_EXCEPTION_POINTERS@@@Z	; save_mini_dump
PUBLIC	?out_of_memory_handler@@YAH_K@Z			; out_of_memory_handler
PUBLIC	?fatal@xrDebug@@QEAAXPEBDH00ZZ			; xrDebug::fatal
PUBLIC	?fail@xrDebug@@QEAAXPEBD000H0AEA_N@Z		; xrDebug::fail
PUBLIC	?fail@xrDebug@@QEAAXPEBDAEBV?$basic_string@DU?$char_traits@D@std@@V?$allocator@D@2@@std@@0H0AEA_N@Z ; xrDebug::fail
PUBLIC	?backend@xrDebug@@QEAAXPEBD0000H0AEA_N@Z	; xrDebug::backend
PUBLIC	?gather_info@xrDebug@@QEAAXPEBD0000H0PEADI@Z	; xrDebug::gather_info
PUBLIC	?save@crash_saving@@YAXXZ			; crash_saving::save
PUBLIC	?error2string@xrDebug@@QEAAPEBDJ@Z		; xrDebug::error2string
PUBLIC	?fail@xrDebug@@QEAAXPEBD0H0AEA_N@Z		; xrDebug::fail
PUBLIC	?fail@xrDebug@@QEAAXPEBD00H0AEA_N@Z		; xrDebug::fail
;	COMDAT ?$TSS0@?1??backend@xrDebug@@QEAAXPEBD0000H0AEA_N@Z@4HA
_BSS	SEGMENT
?$TSS0@?1??backend@xrDebug@@QEAAXPEBD0000H0AEA_N@Z@4HA DD 01H DUP (?) ; `xrDebug::backend'::`2'::$TSS0
_BSS	ENDS
;	COMDAT ?CS@?1??backend@xrDebug@@QEAAXPEBD0000H0AEA_N@Z@4VxrCriticalSection@@A
_BSS	SEGMENT
?CS@?1??backend@xrDebug@@QEAAXPEBD0000H0AEA_N@Z@4VxrCriticalSection@@A DQ 01H DUP (?) ; `xrDebug::backend'::`2'::CS
_BSS	ENDS
;	COMDAT ?desc_storage@?1??error2string@xrDebug@@QEAAPEBDJ@Z@4PADA
_BSS	SEGMENT
?desc_storage@?1??error2string@xrDebug@@QEAAPEBDJ@Z@4PADA DB 0400H DUP (?) ; `xrDebug::error2string'::`2'::desc_storage
_BSS	ENDS
;	COMDAT pdata
pdata	SEGMENT
$pdata$vsprintf DD imagerel $LN6
	DD	imagerel $LN6+93
	DD	imagerel $unwind$vsprintf
pdata	ENDS
;	COMDAT pdata
pdata	SEGMENT
$pdata$??$xr_sprintf@$0CAI@@@YAHAEAY0CAI@DPEBDZZ DD imagerel $LN8
	DD	imagerel $LN8+97
	DD	imagerel $unwind$??$xr_sprintf@$0CAI@@@YAHAEAY0CAI@DPEBDZZ
pdata	ENDS
pdata	SEGMENT
$pdata$?debug_on_thread_spawn@@YAXXZ DD imagerel $LN4
	DD	imagerel $LN4+173
	DD	imagerel $unwind$?debug_on_thread_spawn@@YAXXZ
$pdata$?termination_handler@@YAXH@Z DD imagerel ?termination_handler@@YAXH@Z
	DD	imagerel ?termination_handler@@YAXH@Z+65
	DD	imagerel $unwind$?termination_handler@@YAXH@Z
$pdata$?illegal_instruction_handler@@YAXH@Z DD imagerel ?illegal_instruction_handler@@YAXH@Z
	DD	imagerel ?illegal_instruction_handler@@YAXH@Z+65
	DD	imagerel $unwind$?illegal_instruction_handler@@YAXH@Z
$pdata$?floating_point_handler@@YAXH@Z DD imagerel ?floating_point_handler@@YAXH@Z
	DD	imagerel ?floating_point_handler@@YAXH@Z+65
	DD	imagerel $unwind$?floating_point_handler@@YAXH@Z
$pdata$?abort_handler@@YAXH@Z DD imagerel ?abort_handler@@YAXH@Z
	DD	imagerel ?abort_handler@@YAXH@Z+65
	DD	imagerel $unwind$?abort_handler@@YAXH@Z
$pdata$?pure_call_handler@@YAXXZ DD imagerel ?pure_call_handler@@YAXXZ
	DD	imagerel ?pure_call_handler@@YAXXZ+65
	DD	imagerel $unwind$?pure_call_handler@@YAXXZ
$pdata$?invalid_parameter_handler@@YAXPEB_W00I_K@Z DD imagerel ?invalid_parameter_handler@@YAXPEB_W00I_K@Z
	DD	imagerel ?invalid_parameter_handler@@YAXPEB_W00I_K@Z+431
	DD	imagerel $unwind$?invalid_parameter_handler@@YAXPEB_W00I_K@Z
$pdata$?handler_base@@YAXPEBD@Z DD imagerel ?handler_base@@YAXPEBD@Z
	DD	imagerel ?handler_base@@YAXPEBD@Z+61
	DD	imagerel $unwind$?handler_base@@YAXPEBD@Z
$pdata$?UnhandledFilter@@YAJPEAU_EXCEPTION_POINTERS@@@Z DD imagerel $LN11
	DD	imagerel $LN11+505
	DD	imagerel $unwind$?UnhandledFilter@@YAJPEAU_EXCEPTION_POINTERS@@@Z
$pdata$?format_message@@YAXPEADAEBI@Z DD imagerel $LN5
	DD	imagerel $LN5+151
	DD	imagerel $unwind$?format_message@@YAXPEADAEBI@Z
$pdata$?save_mini_dump@@YAXPEAU_EXCEPTION_POINTERS@@@Z DD imagerel $LN137
	DD	imagerel $LN137+1276
	DD	imagerel $unwind$?save_mini_dump@@YAXPEAU_EXCEPTION_POINTERS@@@Z
$pdata$?out_of_memory_handler@@YAH_K@Z DD imagerel $LN60
	DD	imagerel $LN60+43
	DD	imagerel $unwind$?out_of_memory_handler@@YAH_K@Z
$pdata$2$?out_of_memory_handler@@YAH_K@Z DD imagerel $LN60+43
	DD	imagerel $LN60+337
	DD	imagerel $chain$2$?out_of_memory_handler@@YAH_K@Z
$pdata$3$?out_of_memory_handler@@YAH_K@Z DD imagerel $LN60+337
	DD	imagerel $LN60+401
	DD	imagerel $chain$3$?out_of_memory_handler@@YAH_K@Z
$pdata$?fatal@xrDebug@@QEAAXPEBDH00ZZ DD imagerel $LN8
	DD	imagerel $LN8+136
	DD	imagerel $unwind$?fatal@xrDebug@@QEAAXPEBDH00ZZ
$pdata$?fail@xrDebug@@QEAAXPEBD000H0AEA_N@Z DD imagerel $LN4
	DD	imagerel $LN4+58
	DD	imagerel $unwind$?fail@xrDebug@@QEAAXPEBD000H0AEA_N@Z
$pdata$?fail@xrDebug@@QEAAXPEBDAEBV?$basic_string@DU?$char_traits@D@std@@V?$allocator@D@2@@std@@0H0AEA_N@Z DD imagerel $LN11
	DD	imagerel $LN11+73
	DD	imagerel $unwind$?fail@xrDebug@@QEAAXPEBDAEBV?$basic_string@DU?$char_traits@D@std@@V?$allocator@D@2@@std@@0H0AEA_N@Z
pdata	ENDS
;	COMDAT pdata
pdata	SEGMENT
$pdata$??__FCS@?1??backend@xrDebug@@QEAAXPEBD0000H0AEA_N@Z@YAXXZ DD imagerel ??__FCS@?1??backend@xrDebug@@QEAAXPEBD0000H0AEA_N@Z@YAXXZ
	DD	imagerel ??__FCS@?1??backend@xrDebug@@QEAAXPEBD0000H0AEA_N@Z@YAXXZ+57
	DD	imagerel $unwind$??__FCS@?1??backend@xrDebug@@QEAAXPEBD0000H0AEA_N@Z@YAXXZ
pdata	ENDS
pdata	SEGMENT
$pdata$?backend@xrDebug@@QEAAXPEBD0000H0AEA_N@Z DD imagerel $LN88
	DD	imagerel $LN88+1229
	DD	imagerel $unwind$?backend@xrDebug@@QEAAXPEBD0000H0AEA_N@Z
$pdata$?gather_info@xrDebug@@QEAAXPEBD0000H0PEADI@Z DD imagerel $LN33
	DD	imagerel $LN33+880
	DD	imagerel $unwind$?gather_info@xrDebug@@QEAAXPEBD0000H0PEADI@Z
$pdata$?error2string@xrDebug@@QEAAPEBDJ@Z DD imagerel $LN5
	DD	imagerel $LN5+63
	DD	imagerel $unwind$?error2string@xrDebug@@QEAAPEBDJ@Z
$pdata$?fail@xrDebug@@QEAAXPEBD0H0AEA_N@Z DD imagerel $LN4
	DD	imagerel $LN4+54
	DD	imagerel $unwind$?fail@xrDebug@@QEAAXPEBD0H0AEA_N@Z
$pdata$?fail@xrDebug@@QEAAXPEBD00H0AEA_N@Z DD imagerel $LN4
	DD	imagerel $LN4+53
	DD	imagerel $unwind$?fail@xrDebug@@QEAAXPEBD00H0AEA_N@Z
;	COMDAT xdata
xdata	SEGMENT
$unwind$??__FCS@?1??backend@xrDebug@@QEAAXPEBD0000H0AEA_N@Z@YAXXZ DD 010401H
	DD	04204H
xdata	ENDS
xdata	SEGMENT
$unwind$?debug_on_thread_spawn@@YAXXZ DD 010401H
	DD	04204H
$unwind$?termination_handler@@YAXH@Z DD 010401H
	DD	0a204H
$unwind$?illegal_instruction_handler@@YAXH@Z DD 010401H
	DD	0a204H
$unwind$?floating_point_handler@@YAXH@Z DD 010401H
	DD	0a204H
$unwind$?abort_handler@@YAXH@Z DD 010401H
	DD	0a204H
$unwind$?pure_call_handler@@YAXXZ DD 010401H
	DD	0a204H
$unwind$?invalid_parameter_handler@@YAXPEB_W00I_K@Z DD 091d01H
	DD	060f641dH
	DD	060e541dH
	DD	060d341dH
	DD	060a011dH
	DD	07010H
$unwind$?handler_base@@YAXPEBD@Z DD 010401H
	DD	0a204H
$unwind$?UnhandledFilter@@YAJPEAU_EXCEPTION_POINTERS@@@Z DD 030b01H
	DD	0be010bH
	DD	03004H
$unwind$?format_message@@YAXPEADAEBI@Z DD 060f01H
	DD	0b640fH
	DD	0a340fH
	DD	0700b720fH
$unwind$?save_mini_dump@@YAXPEAU_EXCEPTION_POINTERS@@@Z DD 091b09H
	DD	0121641bH
	DD	0120341bH
	DD	011a011bH
	DD	0e012f014H
	DD	07010H
	DD	imagerel __C_specific_handler
	DD	01H
	DD	imagerel $LN137+704
	DD	imagerel $LN137+742
	DD	01H
	DD	imagerel $LN137+742
$unwind$?out_of_memory_handler@@YAH_K@Z DD 020601H
	DD	070025206H
$chain$2$?out_of_memory_handler@@YAH_K@Z DD 060f21H
	DD	0a640fH
	DD	09540aH
	DD	083405H
	DD	imagerel $LN60
	DD	imagerel $LN60+43
	DD	imagerel $unwind$?out_of_memory_handler@@YAH_K@Z
$chain$3$?out_of_memory_handler@@YAH_K@Z DD 021H
	DD	imagerel $LN60
	DD	imagerel $LN60+43
	DD	imagerel $unwind$?out_of_memory_handler@@YAH_K@Z
$unwind$?fatal@xrDebug@@QEAAXPEBDH00ZZ DD 070e01H
	DD	08a010eH
	DD	07005e007H
	DD	050036004H
	DD	03002H
$unwind$?fail@xrDebug@@QEAAXPEBD000H0AEA_N@Z DD 010401H
	DD	0a204H
$unwind$?fail@xrDebug@@QEAAXPEBDAEBV?$basic_string@DU?$char_traits@D@std@@V?$allocator@D@2@@std@@0H0AEA_N@Z DD 010401H
	DD	0a204H
$unwind$?backend@xrDebug@@QEAAXPEBD0000H0AEA_N@Z DD 0b2701H
	DD	02113427H
	DD	02060127H
	DD	0e018f01aH
	DD	0c014d016H
	DD	060117012H
	DD	05010H
$unwind$?gather_info@xrDebug@@QEAAXPEBD0000H0PEADI@Z DD 0a1e01H
	DD	0f341eH
	DD	0f01a521eH
	DD	0d016e018H
	DD	07012c014H
	DD	050106011H
$unwind$?error2string@xrDebug@@QEAAPEBDJ@Z DD 020601H
	DD	030027206H
$unwind$?fail@xrDebug@@QEAAXPEBD0H0AEA_N@Z DD 010401H
	DD	0a204H
$unwind$?fail@xrDebug@@QEAAXPEBD00H0AEA_N@Z DD 010401H
	DD	0a204H
xdata	ENDS
;	COMDAT xdata
xdata	SEGMENT
$unwind$??$xr_sprintf@$0CAI@@@YAHAEAY0CAI@DPEBDZZ DD 041601H
	DD	070127216H
	DD	030106011H
xdata	ENDS
;	COMDAT xdata
xdata	SEGMENT
$unwind$vsprintf DD 060f01H
	DD	09640fH
	DD	08340fH
	DD	0700b520fH
; Function compile flags: /Ogtpy
; File C:\Users\Mahito\Desktop\Night outing\Night-outing\src\xrCore\xrDebugNew.cpp
_TEXT	SEGMENT
this$dead$ = 96
e1$ = 104
e2$ = 112
file$ = 120
line$ = 128
function$ = 136
ignore_always$dead$ = 144
?fail@xrDebug@@QEAAXPEBD00H0AEA_N@Z PROC		; xrDebug::fail

; 399  : {

$LN4:
	sub	rsp, 88					; 00000058H

; 400  :     backend(e1, e2, 0, 0, file, line, function, ignore_always);

	mov	rax, QWORD PTR function$[rsp]
	lea	rcx, OFFSET FLAT:?Debug@@3VxrDebug@@A	; Debug
	mov	QWORD PTR [rsp+56], rax
	mov	eax, DWORD PTR line$[rsp]
	mov	DWORD PTR [rsp+48], eax
	mov	QWORD PTR [rsp+40], r9
	xor	r9d, r9d
	call	?backend@xrDebug@@QEAAXPEBD0000H0AEA_N@Z ; xrDebug::backend

; 401  : }

	add	rsp, 88					; 00000058H
	ret	0
?fail@xrDebug@@QEAAXPEBD00H0AEA_N@Z ENDP		; xrDebug::fail
_TEXT	ENDS
; Function compile flags: /Ogtpy
; File C:\Users\Mahito\Desktop\Night outing\Night-outing\src\xrCore\xrDebugNew.cpp
_TEXT	SEGMENT
this$dead$ = 96
e1$ = 104
file$ = 112
line$ = 120
function$ = 128
ignore_always$dead$ = 136
?fail@xrDebug@@QEAAXPEBD0H0AEA_N@Z PROC			; xrDebug::fail

; 387  : {

$LN4:
	sub	rsp, 88					; 00000058H

; 388  :     backend(e1, "assertion failed", 0, 0, file, line, function, ignore_always);

	mov	rax, QWORD PTR function$[rsp]
	lea	rcx, OFFSET FLAT:?Debug@@3VxrDebug@@A	; Debug
	mov	QWORD PTR [rsp+56], rax
	mov	DWORD PTR [rsp+48], r9d
	xor	r9d, r9d
	mov	QWORD PTR [rsp+40], r8
	lea	r8, OFFSET FLAT:??_C@_0BB@DBHFCHNO@assertion?5failed@
	call	?backend@xrDebug@@QEAAXPEBD0000H0AEA_N@Z ; xrDebug::backend

; 389  : }

	add	rsp, 88					; 00000058H
	ret	0
?fail@xrDebug@@QEAAXPEBD0H0AEA_N@Z ENDP			; xrDebug::fail
_TEXT	ENDS
; Function compile flags: /Ogtpy
; File C:\Users\Mahito\Desktop\Night outing\Night-outing\src\xrCore\xrDebugNew.cpp
_TEXT	SEGMENT
this$dead$ = 80
code$ = 88
?error2string@xrDebug@@QEAAPEBDJ@Z PROC			; xrDebug::error2string

; 357  : {

$LN5:
	push	rbx
	sub	rsp, 64					; 00000040H

; 358  :     char* result = 0;
; 359  :     static string1024 desc_storage;
; 360  : 
; 361  : #ifdef _M_AMD64
; 362  : #else
; 363  :     WCHAR err_result[1024];
; 364  :     DXGetErrorDescription(code, err_result, sizeof(err_result));
; 365  :     wcstombs(result, err_result, sizeof(err_result));
; 366  : #endif
; 367  :     if (0 == result)
; 368  :     {
; 369  :         FormatMessage(FORMAT_MESSAGE_FROM_SYSTEM, 0, code, 0, desc_storage, sizeof(desc_storage) - 1, 0);

	mov	QWORD PTR [rsp+48], 0
	lea	rbx, OFFSET FLAT:?desc_storage@?1??error2string@xrDebug@@QEAAPEBDJ@Z@4PADA
	mov	r8d, edx
	mov	DWORD PTR [rsp+40], 1023		; 000003ffH
	xor	edx, edx
	mov	QWORD PTR [rsp+32], rbx
	xor	r9d, r9d
	mov	ecx, 4096				; 00001000H
	call	QWORD PTR __imp_FormatMessageA

; 370  :         result = desc_storage;
; 371  :     }
; 372  :     return result;

	mov	rax, rbx

; 373  : }

	add	rsp, 64					; 00000040H
	pop	rbx
	ret	0
?error2string@xrDebug@@QEAAPEBDJ@Z ENDP			; xrDebug::error2string
_TEXT	ENDS
; Function compile flags: /Ogtpy
; File C:\Users\Mahito\Desktop\Night outing\Night-outing\src\xrCore\xrDebugNew.cpp
_TEXT	SEGMENT
?save@crash_saving@@YAXXZ PROC				; crash_saving::save

; 77   :         if (enabled && save_impl != nullptr)

	mov	rax, QWORD PTR ?save_impl@crash_saving@@3P6AXXZEA ; crash_saving::save_impl
	test	rax, rax
	je	SHORT $LN2@save

; 78   :         {
; 79   :             (*save_impl)();

	rex_jmp	rax
$LN2@save:

; 80   :         }
; 81   :     }

	ret	0
?save@crash_saving@@YAXXZ ENDP				; crash_saving::save
_TEXT	ENDS
; Function compile flags: /Ogtpy
; File C:\Users\Mahito\Desktop\Night outing\Night-outing\src\xrCore\xrDebugNew.cpp
; File C:\Program Files (x86)\Windows Kits\10\Include\10.0.26100.0\ucrt\string.h
; File C:\Users\Mahito\Desktop\Night outing\Night-outing\src\xrCore\xrDebugNew.cpp
_TEXT	SEGMENT
tv554 = 112
this$dead$ = 112
expression$ = 120
description$ = 128
argument0$ = 136
argument1$ = 144
file$ = 152
line$ = 160
function$ = 168
assertion_info$ = 176
extended_description$1$ = 184
assertion_info_size$dead$ = 184
?gather_info@xrDebug@@QEAAXPEBD0000H0PEADI@Z PROC	; xrDebug::gather_info

; 104  : {

$LN33:
	mov	QWORD PTR [rsp+16], rbx
	mov	QWORD PTR [rsp+24], r8
	mov	QWORD PTR [rsp+8], rcx
	push	rbp
	push	rsi
	push	rdi
	push	r12
	push	r13
	push	r14
	push	r15
	sub	rsp, 48					; 00000030H

; 105  :     if (!expression)
; 106  :         expression = "<no expression>";
; 107  :     LPSTR buffer_base = assertion_info;
; 108  :     LPSTR buffer = assertion_info;

	mov	rsi, QWORD PTR assertion_info$[rsp]
	lea	rcx, OFFSET FLAT:??_C@_0BA@GDNONNGA@?$DMno?5expression?$DO@
	test	rdx, rdx

; 109  :     int assertion_size = (int)assertion_info_size;
; 110  :     LPCSTR endline = "\n";

	lea	rdi, OFFSET FLAT:??_C@_01EEMJAFIK@?6@
	mov	r15, r9

; 111  :     LPCSTR prefix = "[error]";

	lea	r14, OFFSET FLAT:??_C@_07LFMCMLFD@?$FLerror?$FN@
	cmovne	rcx, rdx
	mov	rbx, rsi
	mov	QWORD PTR tv554[rsp], rcx

; 112  :     bool extended_description = (description && !argument0 && strchr(description, '\n'));

	test	r8, r8
	je	SHORT $LN21@gather_inf
	test	r9, r9
	jne	SHORT $LN21@gather_inf
	lea	edx, QWORD PTR [r9+10]
	mov	rcx, r8
	call	QWORD PTR __imp_strchr
	mov	BYTE PTR extended_description$1$[rsp], 1
	test	rax, rax
	jne	SHORT $LN22@gather_inf
$LN21@gather_inf:
	mov	BYTE PTR extended_description$1$[rsp], 0
$LN22@gather_inf:

; 113  :     for (int i = 0; i < 2; ++i)

	mov	r12, QWORD PTR argument1$[rsp]
	xor	ebp, ebp
$LL4@gather_inf:

; 114  :     {
; 115  :         if (!i)

	test	ebp, ebp
	jne	SHORT $LN6@gather_inf

; 116  :             buffer += xr_sprintf(buffer, assertion_size - u32(buffer - buffer_base), "%sFATAL ERROR%s%s", endline,

	mov	edx, esi
	mov	QWORD PTR [rsp+40], rdi
	sub	edx, ebx
	mov	QWORD PTR [rsp+32], rdi
	add	edx, 4096				; 00001000H
	lea	r8, OFFSET FLAT:??_C@_0BC@HPNOMGOM@?$CFsFATAL?5ERROR?$CFs?$CFs@
	mov	r9, rdi
	mov	rcx, rbx
	call	?xr_sprintf@@YAHPEAD_KPEBDZZ		; xr_sprintf
	movsxd	rcx, eax
	add	rbx, rcx
$LN6@gather_inf:

; 117  :                 endline, endline);
; 118  :         buffer += xr_sprintf(buffer, assertion_size - u32(buffer - buffer_base), "%sExpression    : %s%s", prefix,

	mov	rax, QWORD PTR tv554[rsp]
	lea	r8, OFFSET FLAT:??_C@_0BH@GALINIK@?$CFsExpression?5?5?5?5?3?5?$CFs?$CFs@
	mov	edx, esi
	mov	QWORD PTR [rsp+40], rdi
	sub	edx, ebx
	mov	QWORD PTR [rsp+32], rax
	add	edx, 4096				; 00001000H
	mov	r9, r14
	mov	rcx, rbx
	call	?xr_sprintf@@YAHPEAD_KPEBDZZ		; xr_sprintf
	movsxd	rcx, eax

; 119  :             expression, endline);
; 120  :         buffer += xr_sprintf(buffer, assertion_size - u32(buffer - buffer_base), "%sFunction      : %s%s", prefix,

	lea	r8, OFFSET FLAT:??_C@_0BH@CIBMKEDG@?$CFsFunction?5?5?5?5?5?5?3?5?$CFs?$CFs@
	mov	rax, QWORD PTR function$[rsp]
	add	rbx, rcx
	mov	edx, esi
	mov	QWORD PTR [rsp+40], rdi
	sub	edx, ebx
	mov	QWORD PTR [rsp+32], rax
	add	edx, 4096				; 00001000H
	mov	r9, r14
	mov	rcx, rbx
	call	?xr_sprintf@@YAHPEAD_KPEBDZZ		; xr_sprintf
	movsxd	rcx, eax

; 121  :             function, endline);
; 122  :         buffer += xr_sprintf(buffer, assertion_size - u32(buffer - buffer_base), "%sFile          : %s%s", prefix, file,

	lea	r8, OFFSET FLAT:??_C@_0BH@LPGPLBHP@?$CFsFile?5?5?5?5?5?5?5?5?5?5?3?5?$CFs?$CFs@
	mov	rax, QWORD PTR file$[rsp]
	add	rbx, rcx
	mov	edx, esi
	mov	QWORD PTR [rsp+40], rdi
	sub	edx, ebx
	mov	QWORD PTR [rsp+32], rax
	add	edx, 4096				; 00001000H
	mov	r9, r14
	mov	rcx, rbx
	call	?xr_sprintf@@YAHPEAD_KPEBDZZ		; xr_sprintf
	movsxd	rcx, eax

; 123  :             endline);
; 124  :         buffer += xr_sprintf(buffer, assertion_size - u32(buffer - buffer_base), "%sLine          : %d%s", prefix, line,

	lea	r8, OFFSET FLAT:??_C@_0BH@MHCDNAKD@?$CFsLine?5?5?5?5?5?5?5?5?5?5?3?5?$CFd?$CFs@
	mov	eax, DWORD PTR line$[rsp]
	add	rbx, rcx
	mov	edx, esi
	mov	QWORD PTR [rsp+40], rdi
	sub	edx, ebx
	mov	DWORD PTR [rsp+32], eax
	add	edx, 4096				; 00001000H
	mov	r9, r14
	mov	rcx, rbx
	call	?xr_sprintf@@YAHPEAD_KPEBDZZ		; xr_sprintf
	movsxd	rcx, eax
	mov	edx, esi

; 125  :             endline);
; 126  : 
; 127  :         if (extended_description)

	mov	rax, QWORD PTR description$[rsp]
	add	rbx, rcx
	sub	edx, ebx
	mov	QWORD PTR [rsp+40], rdi
	add	edx, 4096				; 00001000H
	mov	QWORD PTR [rsp+32], rax
	cmp	BYTE PTR extended_description$1$[rsp], 0
	mov	rcx, rbx
	je	SHORT $LN7@gather_inf

; 128  :         {
; 129  :             buffer += xr_sprintf(buffer, assertion_size - u32(buffer - buffer_base), "%s%s%s", endline, description,

	mov	r9, rdi
	lea	r8, OFFSET FLAT:??_C@_06DIJPEION@?$CFs?$CFs?$CFs@
	call	?xr_sprintf@@YAHPEAD_KPEBDZZ		; xr_sprintf
	movsxd	rcx, eax
	add	rbx, rcx

; 130  :                 endline);
; 131  :             if (argument0)

	test	r15, r15
	je	$LN14@gather_inf

; 132  :             {
; 133  :                 if (argument1)

	mov	edx, esi
	mov	QWORD PTR [rsp+32], rdi
	sub	edx, ebx
	lea	r8, OFFSET FLAT:??_C@_04HDOCAJNK@?$CFs?$CFs@
	add	edx, 4096				; 00001000H
	mov	r9, r15
	mov	rcx, rbx
	call	?xr_sprintf@@YAHPEAD_KPEBDZZ		; xr_sprintf
	movsxd	rcx, eax
	add	rbx, rcx
	test	r12, r12
	je	$LN14@gather_inf

; 134  :                 {
; 135  :                     buffer += xr_sprintf(buffer, assertion_size - u32(buffer - buffer_base), "%s%s", argument0,
; 136  :                         endline);
; 137  :                     buffer += xr_sprintf(buffer, assertion_size - u32(buffer - buffer_base), "%s%s", argument1,

	mov	edx, esi
	mov	QWORD PTR [rsp+32], rdi
	sub	edx, ebx
	lea	r8, OFFSET FLAT:??_C@_04HDOCAJNK@?$CFs?$CFs@
	add	edx, 4096				; 00001000H
	mov	r9, r12
	mov	rcx, rbx
	call	?xr_sprintf@@YAHPEAD_KPEBDZZ		; xr_sprintf

; 138  :                         endline);
; 139  :                 }

	jmp	SHORT $LN30@gather_inf
$LN7@gather_inf:

; 140  :                 else
; 141  :                     buffer += xr_sprintf(buffer, assertion_size - u32(buffer - buffer_base), "%s%s", argument0,
; 142  :                         endline);
; 143  :             }
; 144  :         }
; 145  :         else
; 146  :         {
; 147  :             buffer += xr_sprintf(buffer, assertion_size - u32(buffer - buffer_base), "%sDescription   : %s%s", prefix,

	mov	r9, r14
	lea	r8, OFFSET FLAT:??_C@_0BH@PHPNCJFN@?$CFsDescription?5?5?5?3?5?$CFs?$CFs@
	call	?xr_sprintf@@YAHPEAD_KPEBDZZ		; xr_sprintf
	movsxd	rcx, eax
	add	rbx, rcx

; 148  :                 description, endline);
; 149  :             if (argument0)

	test	r15, r15
	je	SHORT $LN14@gather_inf

; 150  :             {
; 151  :                 if (argument1)

	mov	edx, esi
	mov	QWORD PTR [rsp+40], rdi
	sub	edx, ebx
	mov	QWORD PTR [rsp+32], r15
	add	edx, 4096				; 00001000H
	mov	r9, r14
	mov	rcx, rbx
	test	r12, r12
	je	SHORT $LN13@gather_inf

; 152  :                 {
; 153  :                     buffer += xr_sprintf(buffer, assertion_size - u32(buffer - buffer_base), "%sArgument 0    : %s%s",

	lea	r8, OFFSET FLAT:??_C@_0BH@IOIAOHDG@?$CFsArgument?50?5?5?5?5?3?5?$CFs?$CFs@
	call	?xr_sprintf@@YAHPEAD_KPEBDZZ		; xr_sprintf
	movsxd	rcx, eax

; 154  :                         prefix, argument0, endline);
; 155  :                     buffer += xr_sprintf(buffer, assertion_size - u32(buffer - buffer_base), "%sArgument 1    : %s%s",

	lea	r8, OFFSET FLAT:??_C@_0BH@BFCFKLFJ@?$CFsArgument?51?5?5?5?5?3?5?$CFs?$CFs@
	add	rbx, rcx
	mov	QWORD PTR [rsp+40], rdi
	mov	edx, esi
	mov	QWORD PTR [rsp+32], r12
	sub	edx, ebx
	mov	r9, r14
	add	edx, 4096				; 00001000H
	mov	rcx, rbx

; 156  :                         prefix, argument1, endline);
; 157  :                 }

	jmp	SHORT $LN31@gather_inf
$LN13@gather_inf:

; 158  :                 else
; 159  :                     buffer += xr_sprintf(buffer, assertion_size - u32(buffer - buffer_base), "%sArguments     : %s%s",

	lea	r8, OFFSET FLAT:??_C@_0BH@DGNIFBHF@?$CFsArguments?5?5?5?5?5?3?5?$CFs?$CFs@
$LN31@gather_inf:

; 160  :                         prefix, argument0, endline);
; 161  :             }
; 162  :         }
; 163  : 
; 164  :         buffer += xr_sprintf(buffer, assertion_size - u32(buffer - buffer_base), "%s", endline);

	call	?xr_sprintf@@YAHPEAD_KPEBDZZ		; xr_sprintf
$LN30@gather_inf:
	movsxd	rcx, eax
	add	rbx, rcx
$LN14@gather_inf:
	mov	edx, esi
	lea	r8, OFFSET FLAT:??_C@_02DKCKIIND@?$CFs@
	sub	edx, ebx
	mov	r9, rdi
	add	edx, 4096				; 00001000H
	mov	rcx, rbx
	call	?xr_sprintf@@YAHPEAD_KPEBDZZ		; xr_sprintf
	movsxd	rcx, eax
	add	rbx, rcx

; 165  :         if (!i)

	test	ebp, ebp
	jne	SHORT $LN2@gather_inf

; 166  :         {
; 167  :             if (shared_str_initialized)

	cmp	BYTE PTR ?shared_str_initialized@@3_NA, bpl ; shared_str_initialized
	je	SHORT $LN16@gather_inf

; 168  :             {
; 169  :                 Msg("%s", assertion_info);

	mov	rdx, rsi
	lea	rcx, OFFSET FLAT:??_C@_02DKCKIIND@?$CFs@
	call	?Msg@@YAXPEBDZZ				; Msg
$LN16@gather_inf:

; 170  :                 FlushLog();
; 171  :             }
; 172  :             buffer = assertion_info;

	mov	rbx, rsi

; 173  :             endline = "\r\n";

	lea	rdi, OFFSET FLAT:??_C@_02PCIJFNDE@?$AN?6@

; 174  :             prefix = "";

	lea	r14, OFFSET FLAT:??_C@_00CNPNBAHC@@
	inc	ebp
	jmp	$LL4@gather_inf
$LN2@gather_inf:

; 113  :     for (int i = 0; i < 2; ++i)

	inc	ebp
	cmp	ebp, 2
	jl	$LL4@gather_inf

; 183  :     if (!IsDebuggerPresent() && !strstr(GetCommandLine(), "-no_call_stack_assert"))

	call	QWORD PTR __imp_IsDebuggerPresent
	test	eax, eax
	jne	SHORT $LN17@gather_inf
	call	QWORD PTR __imp_GetCommandLineA
; File C:\Program Files (x86)\Windows Kits\10\Include\10.0.26100.0\ucrt\string.h

; 520  :         return const_cast<char*>(strstr(static_cast<char const*>(_String), _SubString));

	mov	rcx, rax
	lea	rdx, OFFSET FLAT:??_C@_0BG@BFABOLIM@?9no_call_stack_assert@
	call	QWORD PTR __imp_strstr
; File C:\Users\Mahito\Desktop\Night outing\Night-outing\src\xrCore\xrDebugNew.cpp

; 183  :     if (!IsDebuggerPresent() && !strstr(GetCommandLine(), "-no_call_stack_assert"))

	test	rax, rax
	jne	SHORT $LN17@gather_inf

; 184  :     {
; 185  :         if (shared_str_initialized)

	cmp	BYTE PTR ?shared_str_initialized@@3_NA, al ; shared_str_initialized
	je	SHORT $LN18@gather_inf

; 186  :             Msg("stack trace:\n");

	lea	rcx, OFFSET FLAT:??_C@_0O@ICAMKLDJ@stack?5trace?3?6@
	call	?Msg@@YAXPEBDZZ				; Msg
$LN18@gather_inf:

; 187  : 
; 188  : #ifdef USE_OWN_ERROR_MESSAGE_WINDOW
; 189  :         buffer += xr_sprintf(buffer, assertion_size - u32(buffer - buffer_base), "stack trace:%s%s", endline, endline);

	mov	edx, esi
	mov	QWORD PTR [rsp+32], rdi
	sub	edx, ebx
	lea	r8, OFFSET FLAT:??_C@_0BB@GPHAOOAN@stack?5trace?3?$CFs?$CFs@
	add	edx, 4096				; 00001000H
	mov	r9, rdi
	mov	rcx, rbx
	call	?xr_sprintf@@YAHPEAD_KPEBDZZ		; xr_sprintf

; 190  : #endif //-USE_OWN_ERROR_MESSAGE_WINDOW
; 191  : 
; 192  :         //        BuildStackTrace();
; 193  : 
; 194  :         //        for (int i = 2; i < g_stackTraceCount; ++i)
; 195  :         //        {
; 196  :         //            if (shared_str_initialized)
; 197  :         //                Msg("%s", g_stackTrace[i]);
; 198  :         //
; 199  :         //#ifdef USE_OWN_ERROR_MESSAGE_WINDOW
; 200  :         //            buffer += xr_sprintf(buffer, assertion_size - u32(buffer - buffer_base), "%s%s", g_stackTrace[i], endline);
; 201  :         //#endif //-USE_OWN_ERROR_MESSAGE_WINDOW
; 202  :         //        }
; 203  : 
; 204  :         if (shared_str_initialized)
; 205  :             FlushLog();
; 206  : 
; 207  :         os_clipboard::copy_to_clipboard(assertion_info);

	mov	rcx, rsi
	call	?copy_to_clipboard@os_clipboard@@YAXPEBD@Z ; os_clipboard::copy_to_clipboard
$LN17@gather_inf:

; 208  :     }
; 209  : }

	mov	rbx, QWORD PTR [rsp+120]
	add	rsp, 48					; 00000030H
	pop	r15
	pop	r14
	pop	r13
	pop	r12
	pop	rdi
	pop	rsi
	pop	rbp
	ret	0
?gather_info@xrDebug@@QEAAXPEBD0000H0PEADI@Z ENDP	; xrDebug::gather_info
_TEXT	ENDS
; Function compile flags: /Ogtpy
; File C:\Users\Mahito\Desktop\Night outing\Night-outing\src\xrCore\xrDebugNew.cpp
; File C:\Users\Mahito\Desktop\Night outing\Night-outing\src\xrCore\xrSyncronize.cpp
; File C:\Users\Mahito\Desktop\Night outing\Night-outing\src\xrCore\xrDebugNew.cpp
; File C:\Program Files (x86)\Windows Kits\10\Include\10.0.26100.0\ucrt\string.h
; File C:\Users\Mahito\Desktop\Night outing\Night-outing\src\xrCore\xrDebugNew.cpp
; File C:\Users\Mahito\Desktop\Night outing\Night-outing\src\xrCore\os_clipboard.cpp
; File C:\Users\Mahito\Desktop\Night outing\Night-outing\src\xrCore\_std_extensions.h
; File C:\Users\Mahito\Desktop\Night outing\Night-outing\src\xrCore\os_clipboard.cpp
; File C:\Users\Mahito\Desktop\Night outing\Night-outing\src\xrCore\_std_extensions.h
; File C:\Users\Mahito\Desktop\Night outing\Night-outing\src\xrCore\os_clipboard.cpp
; File C:\Users\Mahito\Desktop\Night outing\Night-outing\src\xrCore\_std_extensions.h
; File C:\Users\Mahito\Desktop\Night outing\Night-outing\src\xrCore\xrDebugNew.cpp
; File C:\Users\Mahito\Desktop\Night outing\Night-outing\src\xrCore\xrSyncronize.cpp
; File C:\Users\Mahito\Desktop\Night outing\Night-outing\src\xrCore\xrDebugNew.cpp
; File C:\Users\Mahito\Desktop\Night outing\Night-outing\src\xrCore\xrMemory.h
; File C:\Users\Mahito\Desktop\Night outing\Night-outing\src\xrCore\xrSyncronize.cpp
; File C:\Users\Mahito\Desktop\Night outing\Night-outing\src\xrCore\xrMemory.h
; File C:\Users\Mahito\Desktop\Night outing\Night-outing\src\xrCore\xrSyncronize.cpp
; File C:\Users\Mahito\Desktop\Night outing\Night-outing\src\xrCore\xrDebugNew.cpp
_TEXT	SEGMENT
assertion_info$ = 48
this$ = 4208
extended_description$1$ = 4216
expression$ = 4216
description$ = 4224
argument0$ = 4232
tv781 = 4240
argument1$dead$ = 4240
file$ = 4248
line$ = 4256
function$ = 4264
ignore_always$dead$ = 4272
?backend@xrDebug@@QEAAXPEBD0000H0AEA_N@Z PROC		; xrDebug::backend

; 222  : {

$LN88:
	mov	QWORD PTR [rsp+32], rbx
	mov	QWORD PTR [rsp+24], r8
	mov	QWORD PTR [rsp+8], rcx
	push	rbp
	push	rsi
	push	rdi
	push	r12
	push	r13
	push	r14
	push	r15
	mov	eax, 4144				; 00001030H
	call	__chkstk
	sub	rsp, rax

; 77   :         if (enabled && save_impl != nullptr)

	mov	rax, QWORD PTR ?save_impl@crash_saving@@3P6AXXZEA ; crash_saving::save_impl

; 222  : {

	mov	r12, r9
	mov	rsi, r8
	mov	rbx, rdx

; 77   :         if (enabled && save_impl != nullptr)

	test	rax, rax
	je	SHORT $LN6@backend

; 78   :         {
; 79   :             (*save_impl)();

	call	rax
$LN6@backend:

; 226  :     static xrCriticalSection CS

	mov	eax, DWORD PTR _tls_index
	mov	r9, QWORD PTR gs:88
	mov	ecx, OFFSET FLAT:_Init_thread_epoch
	mov	r9, QWORD PTR [r9+rax*8]
	mov	eax, DWORD PTR [rcx+r9]
	cmp	DWORD PTR ?$TSS0@?1??backend@xrDebug@@QEAAXPEBD0000H0AEA_N@Z@4HA, eax
	jg	$LN87@backend
$LN2@backend:
; File C:\Users\Mahito\Desktop\Night outing\Night-outing\src\xrCore\xrSyncronize.cpp

; 64   : 	EnterCriticalSection			( (CRITICAL_SECTION*)pmutex );

	mov	rcx, QWORD PTR ?CS@?1??backend@xrDebug@@QEAAXPEBD0000H0AEA_N@Z@4VxrCriticalSection@@A
	call	QWORD PTR __imp_EnterCriticalSection
; File C:\Users\Mahito\Desktop\Night outing\Night-outing\src\xrCore\xrDebugNew.cpp

; 107  :     LPSTR buffer_base = assertion_info;

	test	rbx, rbx
	lea	rax, OFFSET FLAT:??_C@_0BA@GDNONNGA@?$DMno?5expression?$DO@

; 108  :     LPSTR buffer = assertion_info;
; 109  :     int assertion_size = (int)assertion_info_size;
; 110  :     LPCSTR endline = "\n";

	lea	rdi, OFFSET FLAT:??_C@_01EEMJAFIK@?6@
	cmovne	rax, rbx

; 111  :     LPCSTR prefix = "[error]";

	lea	r14, OFFSET FLAT:??_C@_07LFMCMLFD@?$FLerror?$FN@
	mov	QWORD PTR tv781[rsp], rax
	lea	rbx, QWORD PTR assertion_info$[rsp]

; 112  :     bool extended_description = (description && !argument0 && strchr(description, '\n'));

	test	rsi, rsi
	je	SHORT $LN30@backend
	test	r12, r12
	jne	SHORT $LN30@backend
	lea	edx, QWORD PTR [r12+10]
	mov	rcx, rsi
	call	QWORD PTR __imp_strchr
	mov	BYTE PTR extended_description$1$[rsp], 1
	test	rax, rax
	jne	SHORT $LN31@backend
$LN30@backend:
	mov	BYTE PTR extended_description$1$[rsp], 0
$LN31@backend:

; 113  :     for (int i = 0; i < 2; ++i)

	xor	esi, esi
	lea	rbp, QWORD PTR assertion_info$[rsp]
	mov	r15d, 4096				; 00001000H
$LL13@backend:

; 114  :     {
; 115  :         if (!i)

	mov	r13, rdi
	test	esi, esi
	jne	SHORT $LN15@backend

; 116  :             buffer += xr_sprintf(buffer, assertion_size - u32(buffer - buffer_base), "%sFATAL ERROR%s%s", endline,

	mov	edx, ebp
	mov	QWORD PTR [rsp+40], rdi
	sub	edx, ebx
	mov	QWORD PTR [rsp+32], rdi
	add	edx, r15d
	lea	r8, OFFSET FLAT:??_C@_0BC@HPNOMGOM@?$CFsFATAL?5ERROR?$CFs?$CFs@
	mov	r9, rdi
	mov	rcx, rbx
	call	?xr_sprintf@@YAHPEAD_KPEBDZZ		; xr_sprintf
	movsxd	rcx, eax
	add	rbx, rcx
$LN15@backend:

; 117  :                 endline, endline);
; 118  :         buffer += xr_sprintf(buffer, assertion_size - u32(buffer - buffer_base), "%sExpression    : %s%s", prefix,

	mov	rax, QWORD PTR tv781[rsp]
	lea	r8, OFFSET FLAT:??_C@_0BH@GALINIK@?$CFsExpression?5?5?5?5?3?5?$CFs?$CFs@
	mov	edx, ebp
	mov	QWORD PTR [rsp+40], rdi
	sub	edx, ebx
	mov	QWORD PTR [rsp+32], rax
	add	edx, r15d
	mov	r9, r14
	mov	rcx, rbx
	call	?xr_sprintf@@YAHPEAD_KPEBDZZ		; xr_sprintf
	movsxd	rcx, eax

; 119  :             expression, endline);
; 120  :         buffer += xr_sprintf(buffer, assertion_size - u32(buffer - buffer_base), "%sFunction      : %s%s", prefix,

	lea	r8, OFFSET FLAT:??_C@_0BH@CIBMKEDG@?$CFsFunction?5?5?5?5?5?5?3?5?$CFs?$CFs@
	mov	rax, QWORD PTR function$[rsp]
	add	rbx, rcx
	mov	edx, ebp
	mov	QWORD PTR [rsp+40], rdi
	sub	edx, ebx
	mov	QWORD PTR [rsp+32], rax
	add	edx, r15d
	mov	r9, r14
	mov	rcx, rbx
	call	?xr_sprintf@@YAHPEAD_KPEBDZZ		; xr_sprintf
	movsxd	rcx, eax

; 121  :             function, endline);
; 122  :         buffer += xr_sprintf(buffer, assertion_size - u32(buffer - buffer_base), "%sFile          : %s%s", prefix, file,

	lea	r8, OFFSET FLAT:??_C@_0BH@LPGPLBHP@?$CFsFile?5?5?5?5?5?5?5?5?5?5?3?5?$CFs?$CFs@
	mov	rax, QWORD PTR file$[rsp]
	add	rbx, rcx
	mov	edx, ebp
	mov	QWORD PTR [rsp+40], rdi
	sub	edx, ebx
	mov	QWORD PTR [rsp+32], rax
	add	edx, r15d
	mov	r9, r14
	mov	rcx, rbx
	call	?xr_sprintf@@YAHPEAD_KPEBDZZ		; xr_sprintf
	movsxd	rcx, eax

; 123  :             endline);
; 124  :         buffer += xr_sprintf(buffer, assertion_size - u32(buffer - buffer_base), "%sLine          : %d%s", prefix, line,

	lea	r8, OFFSET FLAT:??_C@_0BH@MHCDNAKD@?$CFsLine?5?5?5?5?5?5?5?5?5?5?3?5?$CFd?$CFs@
	mov	eax, DWORD PTR line$[rsp]
	add	rbx, rcx
	mov	edx, ebp
	mov	QWORD PTR [rsp+40], rdi
	sub	edx, ebx
	mov	DWORD PTR [rsp+32], eax
	add	edx, r15d
	mov	r9, r14
	mov	rcx, rbx
	call	?xr_sprintf@@YAHPEAD_KPEBDZZ		; xr_sprintf
	movsxd	rcx, eax
	mov	edx, ebp

; 125  :             endline);
; 126  : 
; 127  :         if (extended_description)

	mov	rax, QWORD PTR description$[rsp]
	add	rbx, rcx
	sub	edx, ebx
	mov	QWORD PTR [rsp+40], rdi
	add	edx, r15d
	mov	QWORD PTR [rsp+32], rax
	cmp	BYTE PTR extended_description$1$[rsp], 0
	mov	rcx, rbx
	je	SHORT $LN16@backend

; 128  :         {
; 129  :             buffer += xr_sprintf(buffer, assertion_size - u32(buffer - buffer_base), "%s%s%s", endline, description,

	mov	r9, rdi
	lea	r8, OFFSET FLAT:??_C@_06DIJPEION@?$CFs?$CFs?$CFs@
	call	?xr_sprintf@@YAHPEAD_KPEBDZZ		; xr_sprintf
	movsxd	rcx, eax
	add	rbx, rcx

; 130  :                 endline);
; 131  :             if (argument0)

	test	r12, r12
	je	SHORT $LN23@backend

; 132  :             {
; 133  :                 if (argument1)
; 134  :                 {
; 135  :                     buffer += xr_sprintf(buffer, assertion_size - u32(buffer - buffer_base), "%s%s", argument0,
; 136  :                         endline);
; 137  :                     buffer += xr_sprintf(buffer, assertion_size - u32(buffer - buffer_base), "%s%s", argument1,
; 138  :                         endline);
; 139  :                 }
; 140  :                 else
; 141  :                     buffer += xr_sprintf(buffer, assertion_size - u32(buffer - buffer_base), "%s%s", argument0,

	mov	edx, ebp
	mov	QWORD PTR [rsp+32], rdi
	sub	edx, ebx
	lea	r8, OFFSET FLAT:??_C@_04HDOCAJNK@?$CFs?$CFs@
	add	edx, r15d
	mov	r9, r12
	mov	rcx, rbx
	call	?xr_sprintf@@YAHPEAD_KPEBDZZ		; xr_sprintf

; 142  :                         endline);
; 143  :             }
; 144  :         }

	jmp	SHORT $LN84@backend
$LN16@backend:

; 145  :         else
; 146  :         {
; 147  :             buffer += xr_sprintf(buffer, assertion_size - u32(buffer - buffer_base), "%sDescription   : %s%s", prefix,

	mov	r9, r14
	lea	r8, OFFSET FLAT:??_C@_0BH@PHPNCJFN@?$CFsDescription?5?5?5?3?5?$CFs?$CFs@
	call	?xr_sprintf@@YAHPEAD_KPEBDZZ		; xr_sprintf
	movsxd	rcx, eax
	add	rbx, rcx

; 148  :                 description, endline);
; 149  :             if (argument0)

	test	r12, r12
	je	SHORT $LN23@backend

; 150  :             {
; 151  :                 if (argument1)
; 152  :                 {
; 153  :                     buffer += xr_sprintf(buffer, assertion_size - u32(buffer - buffer_base), "%sArgument 0    : %s%s",
; 154  :                         prefix, argument0, endline);
; 155  :                     buffer += xr_sprintf(buffer, assertion_size - u32(buffer - buffer_base), "%sArgument 1    : %s%s",
; 156  :                         prefix, argument1, endline);
; 157  :                 }
; 158  :                 else
; 159  :                     buffer += xr_sprintf(buffer, assertion_size - u32(buffer - buffer_base), "%sArguments     : %s%s",

	mov	edx, ebp
	mov	QWORD PTR [rsp+40], rdi
	sub	edx, ebx
	mov	QWORD PTR [rsp+32], r12
	add	edx, r15d
	lea	r8, OFFSET FLAT:??_C@_0BH@DGNIFBHF@?$CFsArguments?5?5?5?5?5?3?5?$CFs?$CFs@
	mov	r9, r14
	mov	rcx, rbx
	call	?xr_sprintf@@YAHPEAD_KPEBDZZ		; xr_sprintf
$LN84@backend:

; 160  :                         prefix, argument0, endline);
; 161  :             }
; 162  :         }
; 163  : 
; 164  :         buffer += xr_sprintf(buffer, assertion_size - u32(buffer - buffer_base), "%s", endline);

	movsxd	rcx, eax
	add	rbx, rcx
$LN23@backend:
	mov	edx, ebp
	lea	r8, OFFSET FLAT:??_C@_02DKCKIIND@?$CFs@
	sub	edx, ebx
	mov	r9, rdi
	add	edx, r15d
	mov	rcx, rbx
	call	?xr_sprintf@@YAHPEAD_KPEBDZZ		; xr_sprintf
	movsxd	rcx, eax
	add	rbx, rcx

; 165  :         if (!i)

	test	esi, esi
	jne	SHORT $LN11@backend

; 166  :         {
; 167  :             if (shared_str_initialized)

	cmp	BYTE PTR ?shared_str_initialized@@3_NA, sil ; shared_str_initialized
	je	SHORT $LN25@backend

; 168  :             {
; 169  :                 Msg("%s", assertion_info);

	lea	rdx, QWORD PTR assertion_info$[rsp]
	lea	rcx, OFFSET FLAT:??_C@_02DKCKIIND@?$CFs@
	call	?Msg@@YAXPEBDZZ				; Msg
$LN25@backend:

; 170  :                 FlushLog();
; 171  :             }
; 172  :             buffer = assertion_info;

	lea	rbx, QWORD PTR assertion_info$[rsp]

; 173  :             endline = "\r\n";
; 174  :             prefix = "";

	inc	esi
	lea	rdi, OFFSET FLAT:??_C@_02PCIJFNDE@?$AN?6@
	lea	r14, OFFSET FLAT:??_C@_00CNPNBAHC@@
	jmp	$LL13@backend
$LN11@backend:

; 113  :     for (int i = 0; i < 2; ++i)

	inc	esi
	cmp	esi, 2
	jl	$LL13@backend

; 183  :     if (!IsDebuggerPresent() && !strstr(GetCommandLine(), "-no_call_stack_assert"))

	call	QWORD PTR __imp_IsDebuggerPresent
	mov	rdi, -1
	test	eax, eax
	jne	$LN34@backend
	call	QWORD PTR __imp_GetCommandLineA
; File C:\Program Files (x86)\Windows Kits\10\Include\10.0.26100.0\ucrt\string.h

; 520  :         return const_cast<char*>(strstr(static_cast<char const*>(_String), _SubString));

	mov	rcx, rax
	lea	rdx, OFFSET FLAT:??_C@_0BG@BFABOLIM@?9no_call_stack_assert@
	call	QWORD PTR __imp_strstr
; File C:\Users\Mahito\Desktop\Night outing\Night-outing\src\xrCore\xrDebugNew.cpp

; 183  :     if (!IsDebuggerPresent() && !strstr(GetCommandLine(), "-no_call_stack_assert"))

	test	rax, rax
	jne	$LN34@backend

; 184  :     {
; 185  :         if (shared_str_initialized)

	cmp	BYTE PTR ?shared_str_initialized@@3_NA, al ; shared_str_initialized
	je	SHORT $LN27@backend

; 186  :             Msg("stack trace:\n");

	lea	rcx, OFFSET FLAT:??_C@_0O@ICAMKLDJ@stack?5trace?3?6@
	call	?Msg@@YAXPEBDZZ				; Msg
$LN27@backend:

; 187  : 
; 188  : #ifdef USE_OWN_ERROR_MESSAGE_WINDOW
; 189  :         buffer += xr_sprintf(buffer, assertion_size - u32(buffer - buffer_base), "stack trace:%s%s", endline, endline);

	sub	ebp, ebx
	mov	QWORD PTR [rsp+32], r13
	mov	r9, r13
	lea	r8, OFFSET FLAT:??_C@_0BB@GPHAOOAN@stack?5trace?3?$CFs?$CFs@
	mov	rcx, rbx
	lea	edx, DWORD PTR [r15+rbp]
	call	?xr_sprintf@@YAHPEAD_KPEBDZZ		; xr_sprintf
; File C:\Users\Mahito\Desktop\Night outing\Night-outing\src\xrCore\os_clipboard.cpp

; 14   : 	if ( !OpenClipboard(0) )

	xor	ecx, ecx
	call	QWORD PTR __imp_OpenClipboard
	test	eax, eax
	je	SHORT $LN34@backend
; File C:\Users\Mahito\Desktop\Night outing\Night-outing\src\xrCore\_std_extensions.h

; 186  : {	return (u32)strlen(S);			}

	lea	rcx, QWORD PTR assertion_info$[rsp]
	mov	rax, rdi
$LL83@backend:
	inc	rax
	cmp	BYTE PTR [rcx+rax], 0
	jne	SHORT $LL83@backend
; File C:\Users\Mahito\Desktop\Night outing\Night-outing\src\xrCore\os_clipboard.cpp

; 17   : 	HGLOBAL handle = GlobalAlloc( GHND, handle_size );

	inc	eax
	mov	ecx, 66					; 00000042H
	mov	edx, eax
	mov	esi, eax
	call	QWORD PTR __imp_GlobalAlloc
	mov	rbx, rax

; 18   : 	if ( !handle )

	test	rax, rax
	je	SHORT $LN85@backend

; 19   : 	{
; 20   : 		CloseClipboard		();
; 21   : 		return;
; 22   : 	}
; 23   : 
; 24   : 	char* memory			= (char*)GlobalLock( handle );

	mov	rcx, rax
	call	QWORD PTR __imp_GlobalLock
; File C:\Users\Mahito\Desktop\Night outing\Night-outing\src\xrCore\_std_extensions.h

; 229  : 	return						strncpy_s( destination, destination_size, source, destination_size );

	mov	r9d, esi
	lea	r8, QWORD PTR assertion_info$[rsp]
	mov	rcx, rax
	mov	edx, esi
	call	QWORD PTR __imp_strncpy_s
; File C:\Users\Mahito\Desktop\Night outing\Night-outing\src\xrCore\os_clipboard.cpp

; 26   : 	GlobalUnlock			( handle );

	mov	rcx, rbx
	call	QWORD PTR __imp_GlobalUnlock

; 27   : 	EmptyClipboard			();

	call	QWORD PTR __imp_EmptyClipboard

; 28   : 	SetClipboardData		( CF_TEXT, handle );

	mov	rdx, rbx
	mov	ecx, 1
	call	QWORD PTR __imp_SetClipboardData
$LN85@backend:
; File C:\Users\Mahito\Desktop\Night outing\Night-outing\src\xrCore\_std_extensions.h

; 186  : {	return (u32)strlen(S);			}

	call	QWORD PTR __imp_CloseClipboard
$LN34@backend:
	lea	rax, QWORD PTR assertion_info$[rsp]
	npad	4
$LL82@backend:
	inc	rdi
	cmp	BYTE PTR [rax+rdi], 0
	jne	SHORT $LL82@backend
; File C:\Users\Mahito\Desktop\Night outing\Night-outing\src\xrCore\xrDebugNew.cpp

; 241  :     buffer += xr_sprintf(buffer, sizeof(assertion_info) - u32(buffer - &assertion_info[0]),

	mov	eax, edi
	lea	rdx, QWORD PTR assertion_info$[rsp]
	lea	rcx, QWORD PTR assertion_info$[rsp]
	add	rcx, rax
	lea	rax, OFFSET FLAT:??_C@_02PCIJFNDE@?$AN?6@
	mov	r8d, ecx
	mov	QWORD PTR [rsp+32], rax
	sub	r8d, edx
	mov	r9, rax
	sub	r15, r8
	lea	r8, OFFSET FLAT:??_C@_0CA@CFHGHAJC@?$CFsPress?5OK?5to?5abort?5execution?$CFs@
	mov	rdx, r15
	call	?xr_sprintf@@YAHPEAD_KPEBDZZ		; xr_sprintf

; 242  :         "%sPress OK to abort execution%s", endline, endline);
; 243  : 
; 244  :     if (handler)

	mov	rcx, QWORD PTR this$[rsp]
	mov	rax, QWORD PTR [rcx]
	test	rax, rax
	je	SHORT $LN3@backend

; 245  :         handler();

	call	rax
$LN3@backend:

; 246  : 
; 247  :     FlushLog();
; 248  : 
; 249  :     ShowCursor(true);

	mov	ecx, 1
	call	QWORD PTR __imp_ShowCursor

; 250  :     ShowWindow(GetActiveWindow(), SW_FORCEMINIMIZE);

	call	QWORD PTR __imp_GetActiveWindow
	mov	rcx, rax
	mov	edx, 11
	call	QWORD PTR __imp_ShowWindow

; 251  :     MessageBox(

	mov	r9d, 4112				; 00001010H
	lea	r8, OFFSET FLAT:??_C@_0M@HFFOIJBL@Fatal?5Error@
	lea	rdx, QWORD PTR assertion_info$[rsp]
	xor	ecx, ecx
	call	QWORD PTR __imp_MessageBoxA
; File C:\Users\Mahito\Desktop\Night outing\Night-outing\src\xrCore\xrSyncronize.cpp

; 69   : 	LeaveCriticalSection			( (CRITICAL_SECTION*)pmutex );

	mov	rcx, QWORD PTR ?CS@?1??backend@xrDebug@@QEAAXPEBD0000H0AEA_N@Z@4VxrCriticalSection@@A
	call	QWORD PTR __imp_LeaveCriticalSection
; File C:\Users\Mahito\Desktop\Night outing\Night-outing\src\xrCore\xrDebugNew.cpp

; 260  :     TerminateProcess(GetCurrentProcess(), 1);

	call	QWORD PTR __imp_GetCurrentProcess
	mov	rcx, rax
	mov	edx, 1
	call	QWORD PTR __imp_TerminateProcess

; 261  : }

	mov	rbx, QWORD PTR [rsp+4232]
	add	rsp, 4144				; 00001030H
	pop	r15
	pop	r14
	pop	r13
	pop	r12
	pop	rdi
	pop	rsi
	pop	rbp
	ret	0
$LN87@backend:

; 226  :     static xrCriticalSection CS

	lea	rcx, OFFSET FLAT:?$TSS0@?1??backend@xrDebug@@QEAAXPEBD0000H0AEA_N@Z@4HA
	call	_Init_thread_header
	cmp	DWORD PTR ?$TSS0@?1??backend@xrDebug@@QEAAXPEBD0000H0AEA_N@Z@4HA, -1
	jne	$LN2@backend
; File C:\Users\Mahito\Desktop\Night outing\Night-outing\src\xrCore\xrMemory.h

; 64   : IC T* xr_alloc(u32 count) { return (T*)Memory.mem_alloc(count * sizeof(T)); }

	mov	edx, 40					; 00000028H
	lea	rcx, OFFSET FLAT:?Memory@@3VxrMemory@@A	; Memory
	call	?mem_alloc@xrMemory@@QEAAPEAX_K@Z	; xrMemory::mem_alloc
; File C:\Users\Mahito\Desktop\Night outing\Night-outing\src\xrCore\xrSyncronize.cpp

; 41   : 	InitializeCriticalSection		( (CRITICAL_SECTION*)pmutex	);

	mov	rcx, rax
; File C:\Users\Mahito\Desktop\Night outing\Night-outing\src\xrCore\xrMemory.h

; 64   : IC T* xr_alloc(u32 count) { return (T*)Memory.mem_alloc(count * sizeof(T)); }

	mov	QWORD PTR ?CS@?1??backend@xrDebug@@QEAAXPEBD0000H0AEA_N@Z@4VxrCriticalSection@@A, rax
; File C:\Users\Mahito\Desktop\Night outing\Night-outing\src\xrCore\xrSyncronize.cpp

; 41   : 	InitializeCriticalSection		( (CRITICAL_SECTION*)pmutex	);

	call	QWORD PTR __imp_InitializeCriticalSection
; File C:\Users\Mahito\Desktop\Night outing\Night-outing\src\xrCore\xrDebugNew.cpp

; 226  :     static xrCriticalSection CS

	lea	rcx, OFFSET FLAT:??__FCS@?1??backend@xrDebug@@QEAAXPEBD0000H0AEA_N@Z@YAXXZ ; `xrDebug::backend'::`2'::`dynamic atexit destructor for 'CS''
	call	atexit
	lea	rcx, OFFSET FLAT:?$TSS0@?1??backend@xrDebug@@QEAAXPEBD0000H0AEA_N@Z@4HA
	call	_Init_thread_footer
	jmp	$LN2@backend
?backend@xrDebug@@QEAAXPEBD0000H0AEA_N@Z ENDP		; xrDebug::backend
_TEXT	ENDS
; Function compile flags: /Ogtpy
; File C:\Users\Mahito\Desktop\Night outing\Night-outing\src\xrCore\xrSyncronize.cpp
; File C:\Users\Mahito\Desktop\Night outing\Night-outing\src\xrCore\xrMemory.h
; File C:\Users\Mahito\Desktop\Night outing\Night-outing\src\xrCore\xrMemory_subst_msvc.cpp
; File C:\Users\Mahito\Desktop\Night outing\Night-outing\src\xrCore\xrMemory.h
;	COMDAT ??__FCS@?1??backend@xrDebug@@QEAAXPEBD0000H0AEA_N@Z@YAXXZ
text$yd	SEGMENT
??__FCS@?1??backend@xrDebug@@QEAAXPEBD0000H0AEA_N@Z@YAXXZ PROC ; `xrDebug::backend'::`2'::`dynamic atexit destructor for 'CS'', COMDAT
	sub	rsp, 40					; 00000028H
; File C:\Users\Mahito\Desktop\Night outing\Night-outing\src\xrCore\xrSyncronize.cpp

; 46   : 	DeleteCriticalSection			( (CRITICAL_SECTION*)pmutex	);

	mov	rcx, QWORD PTR ?CS@?1??backend@xrDebug@@QEAAXPEBD0000H0AEA_N@Z@4VxrCriticalSection@@A
	call	QWORD PTR __imp_DeleteCriticalSection
; File C:\Users\Mahito\Desktop\Night outing\Night-outing\src\xrCore\xrMemory.h

; 69   : 	if (P)

	mov	rcx, QWORD PTR ?CS@?1??backend@xrDebug@@QEAAXPEBD0000H0AEA_N@Z@4VxrCriticalSection@@A
	test	rcx, rcx
	je	SHORT $LN6@dynamic
; File C:\Users\Mahito\Desktop\Night outing\Night-outing\src\xrCore\xrMemory_subst_msvc.cpp

; 99   : 	stat_calls++;

	inc	DWORD PTR ?Memory@@3VxrMemory@@A

; 100  : 
; 101  : #ifdef PURE_ALLOC
; 102  : 	if (g_use_pure_alloc)
; 103  : 	{
; 104  : 		//free(P);
; 105  : 		_aligned_free(P);

	call	QWORD PTR __imp__aligned_free
; File C:\Users\Mahito\Desktop\Night outing\Night-outing\src\xrCore\xrMemory.h

; 72   : 		P = NULL;

	mov	QWORD PTR ?CS@?1??backend@xrDebug@@QEAAXPEBD0000H0AEA_N@Z@4VxrCriticalSection@@A, 0
$LN6@dynamic:
	add	rsp, 40					; 00000028H
	ret	0
??__FCS@?1??backend@xrDebug@@QEAAXPEBD0000H0AEA_N@Z@YAXXZ ENDP ; `xrDebug::backend'::`2'::`dynamic atexit destructor for 'CS''
text$yd	ENDS
; Function compile flags: /Ogtpy
; File C:\Users\Mahito\Desktop\Night outing\Night-outing\src\xrCore\xrDebugNew.cpp
; File C:\Program Files\Microsoft Visual Studio\2022\Community\VC\Tools\MSVC\14.35.32215\include\xstring
; File C:\Users\Mahito\Desktop\Night outing\Night-outing\src\xrCore\xrDebugNew.cpp
_TEXT	SEGMENT
this$dead$ = 96
e1$dead$ = 104
e2$ = 112
file$dead$ = 120
line$dead$ = 128
function$dead$ = 136
ignore_always$dead$ = 144
?fail@xrDebug@@QEAAXPEBDAEBV?$basic_string@DU?$char_traits@D@std@@V?$allocator@D@2@@std@@0H0AEA_N@Z PROC ; xrDebug::fail

; 393  : {

$LN11:
	sub	rsp, 88					; 00000058H
; File C:\Program Files\Microsoft Visual Studio\2022\Community\VC\Tools\MSVC\14.35.32215\include\xstring

; 2300 :         return _BUF_SIZE <= _Myres;

	cmp	QWORD PTR [r8+24], 16

; 2292 :         if (_Large_string_engaged()) {

	jb	SHORT $LN6@fail

; 2293 :             _Result = _Unfancy(_Bx._Ptr);

	mov	r8, QWORD PTR [r8]
$LN6@fail:
; File C:\Users\Mahito\Desktop\Night outing\Night-outing\src\xrCore\xrDebugNew.cpp

; 394  :     backend(e1, e2.c_str(), 0, 0, file, line, function, ignore_always);

	lea	rax, OFFSET FLAT:??_C@_0P@PFFEEJAK@CInifile?3?3Load@
	xor	r9d, r9d
	mov	QWORD PTR [rsp+56], rax
	lea	rdx, OFFSET FLAT:??_C@_0EC@IDCOAPHE@xr_strlen?$CIvalue_raw?$CJ?5?$CL?5xr_strle@
	lea	rax, OFFSET FLAT:??_C@_0EI@OLNNDBE@C?3?2Users?2Mahito?2Desktop?2Night?5o@
	mov	DWORD PTR [rsp+48], 338			; 00000152H
	lea	rcx, OFFSET FLAT:?Debug@@3VxrDebug@@A	; Debug
	mov	QWORD PTR [rsp+40], rax
	call	?backend@xrDebug@@QEAAXPEBD0000H0AEA_N@Z ; xrDebug::backend

; 395  : }

	add	rsp, 88					; 00000058H
	ret	0
?fail@xrDebug@@QEAAXPEBDAEBV?$basic_string@DU?$char_traits@D@std@@V?$allocator@D@2@@std@@0H0AEA_N@Z ENDP ; xrDebug::fail
_TEXT	ENDS
; Function compile flags: /Ogtpy
; File C:\Users\Mahito\Desktop\Night outing\Night-outing\src\xrCore\xrDebugNew.cpp
_TEXT	SEGMENT
this$dead$ = 96
e1$ = 104
e2$ = 112
e3$ = 120
file$ = 128
line$ = 136
function$ = 144
ignore_always$dead$ = 152
?fail@xrDebug@@QEAAXPEBD000H0AEA_N@Z PROC		; xrDebug::fail

; 405  : {

$LN4:
	sub	rsp, 88					; 00000058H

; 406  :     backend(e1, e2, e3, 0, file, line, function, ignore_always);

	mov	rax, QWORD PTR function$[rsp]
	lea	rcx, OFFSET FLAT:?Debug@@3VxrDebug@@A	; Debug
	mov	QWORD PTR [rsp+56], rax
	mov	eax, DWORD PTR line$[rsp]
	mov	DWORD PTR [rsp+48], eax
	mov	rax, QWORD PTR file$[rsp]
	mov	QWORD PTR [rsp+40], rax
	call	?backend@xrDebug@@QEAAXPEBD0000H0AEA_N@Z ; xrDebug::backend

; 407  : }

	add	rsp, 88					; 00000058H
	ret	0
?fail@xrDebug@@QEAAXPEBD000H0AEA_N@Z ENDP		; xrDebug::fail
_TEXT	ENDS
; Function compile flags: /Ogtpy
; File C:\Users\Mahito\Desktop\Night outing\Night-outing\src\xrCore\xrDebugNew.cpp
; File C:\Program Files (x86)\Windows Kits\10\Include\10.0.26100.0\ucrt\stdio.h
; File C:\Users\Mahito\Desktop\Night outing\Night-outing\src\xrCore\xrDebugNew.cpp
_TEXT	SEGMENT
buffer$ = 80
this$ = 1152
file$ = 1160
line$ = 1168
function$ = 1176
F$ = 1184
?fatal@xrDebug@@QEAAXPEBDH00ZZ PROC			; xrDebug::fatal

; 457  : {

$LN8:
	push	rbx
	push	rbp
	push	rsi
	push	rdi
	push	r14
	sub	rsp, 1104				; 00000450H
	mov	rbx, r9

; 458  :     string1024 buffer;
; 459  : 
; 460  :     va_list p;
; 461  :     va_start(p, F);

	lea	r14, QWORD PTR F$[rsp+8]
	mov	edi, r8d
	mov	rsi, rdx
	mov	rbp, rcx
; File C:\Program Files (x86)\Windows Kits\10\Include\10.0.26100.0\ucrt\stdio.h

; 1392 :         int const _Result = __stdio_common_vsprintf(

	call	__local_stdio_printf_options
	mov	r9, QWORD PTR F$[rsp]
	lea	rdx, QWORD PTR buffer$[rsp]
	mov	QWORD PTR [rsp+40], r14
	mov	r8, -1
	mov	QWORD PTR [rsp+32], 0
	mov	rcx, QWORD PTR [rax]
	or	rcx, 1
	call	QWORD PTR __imp___stdio_common_vsprintf
; File C:\Users\Mahito\Desktop\Night outing\Night-outing\src\xrCore\xrDebugNew.cpp

; 467  :     backend(nullptr, "fatal error", buffer, 0, file, line, function, ignore_always);

	mov	QWORD PTR [rsp+56], rbx
	lea	r9, QWORD PTR buffer$[rsp]
	mov	DWORD PTR [rsp+48], edi
	lea	r8, OFFSET FLAT:??_C@_0M@GKMDFHNF@fatal?5error@
	xor	edx, edx
	mov	QWORD PTR [rsp+40], rsi
	mov	rcx, rbp
	call	?backend@xrDebug@@QEAAXPEBD0000H0AEA_N@Z ; xrDebug::backend

; 468  : }

	add	rsp, 1104				; 00000450H
	pop	r14
	pop	rdi
	pop	rsi
	pop	rbp
	pop	rbx
	ret	0
?fatal@xrDebug@@QEAAXPEBDH00ZZ ENDP			; xrDebug::fatal
_TEXT	ENDS
; Function compile flags: /Ogtpy
; File C:\Users\Mahito\Desktop\Night outing\Night-outing\src\xrCore\xrDebugNew.cpp
; File C:\Users\Mahito\Desktop\Night outing\Night-outing\src\xrCore\xrSyncronize.cpp
; File C:\Users\Mahito\Desktop\Night outing\Night-outing\src\xrCore\xrDebugNew.cpp
; File C:\Users\Mahito\Desktop\Night outing\Night-outing\src\xrCore\xrSyncronize.cpp
; File C:\Users\Mahito\Desktop\Night outing\Night-outing\src\xrCore\xrDebugNew.cpp
; File C:\Users\Mahito\Desktop\Night outing\Night-outing\src\xrCore\xrstring.cpp
; File C:\Users\Mahito\Desktop\Night outing\Night-outing\src\xrCore\xrDebugNew.cpp
; File C:\Users\Mahito\Desktop\Night outing\Night-outing\src\xrCore\xrstring.cpp
; File C:\Users\Mahito\Desktop\Night outing\Night-outing\src\xrCore\xrSyncronize.cpp
; File C:\Users\Mahito\Desktop\Night outing\Night-outing\src\xrCore\xrstring.cpp
; File C:\Users\Mahito\Desktop\Night outing\Night-outing\src\xrCore\xrSyncronize.cpp
; File C:\Program Files\Microsoft Visual Studio\2022\Community\VC\Tools\MSVC\14.35.32215\include\vector
; File C:\Users\Mahito\Desktop\Night outing\Night-outing\src\xrCore\xrsharedmem.cpp
; File C:\Program Files\Microsoft Visual Studio\2022\Community\VC\Tools\MSVC\14.35.32215\include\vector
; File C:\Users\Mahito\Desktop\Night outing\Night-outing\src\xrCore\xrsharedmem.cpp
; File C:\Users\Mahito\Desktop\Night outing\Night-outing\src\xrCore\xrSyncronize.cpp
; File C:\Users\Mahito\Desktop\Night outing\Night-outing\src\xrCore\xrDebugNew.cpp
; File C:\Users\Mahito\Desktop\Night outing\Night-outing\src\xrCore\xrsharedmem.cpp
; File C:\Users\Mahito\Desktop\Night outing\Night-outing\src\xrCore\xrDebugNew.cpp
; File C:\Users\Mahito\Desktop\Night outing\Night-outing\src\xrCore\xrsharedmem.cpp
; File C:\Users\Mahito\Desktop\Night outing\Night-outing\src\xrCore\xrDebugNew.cpp
; File C:\Users\Mahito\Desktop\Night outing\Night-outing\src\xrCore\xrsharedmem.cpp
; File C:\Users\Mahito\Desktop\Night outing\Night-outing\src\xrCore\xrDebugNew.cpp
_TEXT	SEGMENT
size$ = 64
?out_of_memory_handler@@YAH_K@Z PROC			; out_of_memory_handler

; 474  : {

$LN60:
	push	rdi
	sub	rsp, 48					; 00000030H
	mov	rdi, rcx

; 475  :     Msg("* [x-ray]: OOM requesting %lld bytes", size);

	mov	rdx, rcx
	lea	rcx, OFFSET FLAT:??_C@_0CF@PMCOGMBN@?$CK?5?$FLx?9ray?$FN?3?5OOM?5requesting?5?$CFlld?5@
	call	?Msg@@YAXPEBDZZ				; Msg

; 476  : 
; 477  :     if (g_full_memory_stats_callback)

	mov	rax, QWORD PTR ?g_full_memory_stats_callback@@3P6AXXZEA ; g_full_memory_stats_callback
	test	rax, rax
	je	SHORT $LN2@out_of_mem

; 478  :         g_full_memory_stats_callback();

	call	rax
	jmp	$LN3@out_of_mem
$LN2@out_of_mem:
	mov	QWORD PTR [rsp+64], rbx
	mov	QWORD PTR [rsp+72], rbp
	mov	QWORD PTR [rsp+80], rsi

; 482  :         size_t process_heap = Memory.mem_usage();

	call	?mem_usage@xrMemory@@QEAA_KXZ		; xrMemory::mem_usage
; File C:\Users\Mahito\Desktop\Night outing\Night-outing\src\xrCore\xrSyncronize.cpp

; 64   : 	EnterCriticalSection			( (CRITICAL_SECTION*)pmutex );

	mov	rcx, QWORD PTR ds:0
; File C:\Users\Mahito\Desktop\Night outing\Night-outing\src\xrCore\xrDebugNew.cpp

; 482  :         size_t process_heap = Memory.mem_usage();

	mov	rbp, rax
; File C:\Users\Mahito\Desktop\Night outing\Night-outing\src\xrCore\xrSyncronize.cpp

; 64   : 	EnterCriticalSection			( (CRITICAL_SECTION*)pmutex );

	call	QWORD PTR __imp_EnterCriticalSection
; File C:\Users\Mahito\Desktop\Night outing\Night-outing\src\xrCore\xrDebugNew.cpp

; 482  :         size_t process_heap = Memory.mem_usage();

	mov	r8, QWORD PTR ds:8
; File C:\Users\Mahito\Desktop\Night outing\Night-outing\src\xrCore\xrstring.cpp

; 120  : 		int				counter	  = 0;

	xor	ebx, ebx
; File C:\Users\Mahito\Desktop\Night outing\Night-outing\src\xrCore\xrDebugNew.cpp

; 482  :         size_t process_heap = Memory.mem_usage();

	mov	r9d, 262144				; 00040000H
$LL12@out_of_mem:
; File C:\Users\Mahito\Desktop\Night outing\Night-outing\src\xrCore\xrstring.cpp

; 123  : 			str_value* value = buffer[i];

	mov	rcx, QWORD PTR [r8]

; 124  : 			while ( value )

	test	rcx, rcx
	je	SHORT $LN10@out_of_mem
	npad	8
$LL13@out_of_mem:

; 125  : 			{
; 126  : 				counter -= sizeof(str_value);
; 127  : 				counter += (value->dwReference-1)*(value->dwLength+1);

	mov	edx, DWORD PTR [rcx+4]
	add	ebx, -20
	mov	eax, DWORD PTR [rcx]
	inc	edx

; 128  : 				value = value->next;

	mov	rcx, QWORD PTR [rcx+12]
	dec	eax
	imul	edx, eax
	add	ebx, edx
	test	rcx, rcx
	jne	SHORT $LL13@out_of_mem
$LN10@out_of_mem:

; 121  : 		for ( u32 i=0; i<buffer_size; ++i )

	add	r8, 8
	sub	r9, 1
	jne	SHORT $LL12@out_of_mem
; File C:\Users\Mahito\Desktop\Night outing\Night-outing\src\xrCore\xrSyncronize.cpp

; 69   : 	LeaveCriticalSection			( (CRITICAL_SECTION*)pmutex );

	mov	rcx, QWORD PTR ds:0
	call	QWORD PTR __imp_LeaveCriticalSection

; 64   : 	EnterCriticalSection			( (CRITICAL_SECTION*)pmutex );

	mov	rcx, QWORD PTR ds:0
; File C:\Users\Mahito\Desktop\Night outing\Night-outing\src\xrCore\xrstring.cpp

; 241  : 	counter			+= impl->stat_economy();

	lea	esi, DWORD PTR [rbx-16]
; File C:\Users\Mahito\Desktop\Night outing\Night-outing\src\xrCore\xrSyncronize.cpp

; 64   : 	EnterCriticalSection			( (CRITICAL_SECTION*)pmutex );

	call	QWORD PTR __imp_EnterCriticalSection
; File C:\Program Files\Microsoft Visual Studio\2022\Community\VC\Tools\MSVC\14.35.32215\include\vector

; 41   :     _CONSTEXPR20 _Vector_const_iterator(_Tptr _Parg, const _Container_base* _Pvector) noexcept : _Ptr(_Parg) {

	mov	rdx, QWORD PTR ds:16
; File C:\Users\Mahito\Desktop\Night outing\Night-outing\src\xrCore\xrsharedmem.cpp

; 88   : 	counter			-= sizeof(cdb::allocator_type);

	mov	rbx, -33				; ffffffffffffffdfH

; 89   : 	const int		node_size = 20;
; 90   : 	for (; it!=end; it++)	{

	mov	rcx, QWORD PTR ds:8
	cmp	rcx, rdx
	je	SHORT $LN20@out_of_mem
	npad	1
$LL21@out_of_mem:

; 93   : 		counter		+= s64((s64((*it)->dwReference) - 1)*s64((*it)->dwLength));

	mov	rax, QWORD PTR [rcx]
	add	rbx, -36				; ffffffffffffffdcH
; File C:\Program Files\Microsoft Visual Studio\2022\Community\VC\Tools\MSVC\14.35.32215\include\vector

; 74   :         ++_Ptr;

	add	rcx, 8
; File C:\Users\Mahito\Desktop\Night outing\Night-outing\src\xrCore\xrsharedmem.cpp

; 93   : 		counter		+= s64((s64((*it)->dwReference) - 1)*s64((*it)->dwLength));

	mov	r8d, DWORD PTR [rax]
	mov	r9d, DWORD PTR [rax+8]
	dec	r8
	imul	r9, r8
	add	rbx, r9
	cmp	rcx, rdx
	jne	SHORT $LL21@out_of_mem
$LN20@out_of_mem:
; File C:\Users\Mahito\Desktop\Night outing\Night-outing\src\xrCore\xrSyncronize.cpp

; 69   : 	LeaveCriticalSection			( (CRITICAL_SECTION*)pmutex );

	mov	rcx, QWORD PTR ds:0
	call	QWORD PTR __imp_LeaveCriticalSection
; File C:\Users\Mahito\Desktop\Night outing\Night-outing\src\xrCore\xrDebugNew.cpp

; 485  :         Msg("* [x-ray]: process heap[%llu K]", process_heap / 1024, process_heap / 1024);

	shr	rbp, 10
	lea	rcx, OFFSET FLAT:??_C@_0CA@POIPJOOP@?$CK?5?$FLx?9ray?$FN?3?5process?5heap?$FL?$CFllu?5K?$FN@
	mov	r8, rbp
	mov	rdx, rbp
	call	?Msg@@YAXPEBDZZ				; Msg
; File C:\Users\Mahito\Desktop\Night outing\Night-outing\src\xrCore\xrsharedmem.cpp

; 97   : 	return			u32(s64(counter)/s64(1024));

	mov	rax, rbx
; File C:\Users\Mahito\Desktop\Night outing\Night-outing\src\xrCore\xrDebugNew.cpp

; 486  :         Msg("* [x-ray]: economy: strings[%lld K], smem[%lld K]", eco_strings / 1024, eco_smem);

	lea	rcx, OFFSET FLAT:??_C@_0DC@LGBNOODF@?$CK?5?$FLx?9ray?$FN?3?5economy?3?5strings?$FL?$CFll@
; File C:\Users\Mahito\Desktop\Night outing\Night-outing\src\xrCore\xrsharedmem.cpp

; 97   : 	return			u32(s64(counter)/s64(1024));

	cdq
	and	edx, 1023				; 000003ffH
	lea	r8, QWORD PTR [rdx+rax]
; File C:\Users\Mahito\Desktop\Night outing\Night-outing\src\xrCore\xrDebugNew.cpp

; 486  :         Msg("* [x-ray]: economy: strings[%lld K], smem[%lld K]", eco_strings / 1024, eco_smem);

	mov	eax, esi
	cdq
; File C:\Users\Mahito\Desktop\Night outing\Night-outing\src\xrCore\xrsharedmem.cpp

; 97   : 	return			u32(s64(counter)/s64(1024));

	sar	r8, 10
; File C:\Users\Mahito\Desktop\Night outing\Night-outing\src\xrCore\xrDebugNew.cpp

; 486  :         Msg("* [x-ray]: economy: strings[%lld K], smem[%lld K]", eco_strings / 1024, eco_smem);

	and	edx, 1023				; 000003ffH
	add	edx, eax
	sar	edx, 10
	call	?Msg@@YAXPEBDZZ				; Msg
	mov	rsi, QWORD PTR [rsp+80]
	mov	rbp, QWORD PTR [rsp+72]
	mov	rbx, QWORD PTR [rsp+64]
$LN3@out_of_mem:

; 487  :     }
; 488  : 
; 489  :     Debug.fatal(DEBUG_INFO, "Out of memory. Memory request: %lld K", size / 1024);

	shr	rdi, 10
	lea	rax, OFFSET FLAT:??_C@_0CG@JNMPBKLN@Out?5of?5memory?4?5Memory?5request?3?5@
	mov	QWORD PTR [rsp+40], rdi
	lea	r9, OFFSET FLAT:??_C@_0BG@IFJHIFJP@out_of_memory_handler@
	mov	r8d, 489				; 000001e9H
	mov	QWORD PTR [rsp+32], rax
	lea	rdx, OFFSET FLAT:??_C@_0EM@BLODLGLA@C?3?2Users?2Mahito?2Desktop?2Night?5o@
	lea	rcx, OFFSET FLAT:?Debug@@3VxrDebug@@A	; Debug
	call	?fatal@xrDebug@@QEAAXPEBDH00ZZ		; xrDebug::fatal

; 490  :     return 1;

	mov	eax, 1

; 491  : }

	add	rsp, 48					; 00000030H
	pop	rdi
	ret	0
?out_of_memory_handler@@YAH_K@Z ENDP			; out_of_memory_handler
_TEXT	ENDS
; Function compile flags: /Ogtpy
; File C:\Users\Mahito\Desktop\Night outing\Night-outing\src\xrCore\xrDebugNew.cpp
; File C:\Program Files (x86)\Windows Kits\10\Include\10.0.26100.0\ucrt\string.h
; File C:\Users\Mahito\Desktop\Night outing\Night-outing\src\xrCore\xrDebugNew.cpp
; File C:\Users\Mahito\Desktop\Night outing\Night-outing\src\xrCore\_std_extensions.h
; File C:\Users\Mahito\Desktop\Night outing\Night-outing\src\xrCore\xrDebugNew.cpp
; File C:\Users\Mahito\Desktop\Night outing\Night-outing\src\xrCore\_std_extensions.h
; File C:\Users\Mahito\Desktop\Night outing\Night-outing\src\xrCore\xrDebugNew.cpp
; File C:\Users\Mahito\Desktop\Night outing\Night-outing\src\xrCore\_std_extensions.h
; File C:\Users\Mahito\Desktop\Night outing\Night-outing\src\xrCore\xrDebugNew.cpp
_TEXT	SEGMENT
ExInfo$1 = 64
szDumpPath$2 = 80
t_stemp$3 = 608
szDbgHelpPath$ = 672
temp$4 = 1200
szScratch$5 = 1728
pExceptionInfo$ = 2288
pDump$6 = 2296
?save_mini_dump@@YAXPEAU_EXCEPTION_POINTERS@@@Z PROC	; save_mini_dump

; 630  : {

$LN137:
	mov	QWORD PTR [rsp+24], rbx
	mov	QWORD PTR [rsp+32], rsi
	mov	QWORD PTR [rsp+8], rcx
	push	rdi
	push	r14
	push	r15
	sub	rsp, 2256				; 000008d0H
	mov	r15, rcx

; 631  :     // firstly see if dbghelp.dll is around and has the function we need
; 632  : // look next to the EXE first, as the one in System32 might be old
; 633  :     // (e.g. Windows 2000)
; 634  :     HMODULE hDll = NULL;

	xor	esi, esi
	mov	ebx, esi

; 635  :     string_path szDbgHelpPath;
; 636  : 
; 637  :     if (GetModuleFileName(NULL, szDbgHelpPath, _MAX_PATH))

	mov	r8d, 260				; 00000104H
	lea	rdx, QWORD PTR szDbgHelpPath$[rsp]
	xor	ecx, ecx
	call	QWORD PTR __imp_GetModuleFileNameA
	test	eax, eax
	je	SHORT $LN3@save_mini_
; File C:\Program Files (x86)\Windows Kits\10\Include\10.0.26100.0\ucrt\string.h

; 502  :         return const_cast<char*>(strchr(static_cast<char const*>(_String), _Ch));

	lea	edx, QWORD PTR [rsi+92]
	lea	rcx, QWORD PTR szDbgHelpPath$[rsp]
	call	QWORD PTR __imp_strchr
; File C:\Users\Mahito\Desktop\Night outing\Night-outing\src\xrCore\xrDebugNew.cpp

; 640  :         if (pSlash)

	test	rax, rax
	je	SHORT $LN3@save_mini_

; 641  :         {
; 642  :             xr_strcpy(pSlash + 1, sizeof(szDbgHelpPath) - (pSlash - szDbgHelpPath), "DBGHELP.DLL");

	lea	rdx, QWORD PTR szDbgHelpPath$[rsp+520]
	sub	rdx, rax
	lea	rcx, QWORD PTR [rax+1]
; File C:\Users\Mahito\Desktop\Night outing\Night-outing\src\xrCore\_std_extensions.h

; 229  : 	return						strncpy_s( destination, destination_size, source, destination_size );

	mov	r9, rdx
	lea	r8, OFFSET FLAT:??_C@_0M@IBNEFJCG@DBGHELP?4DLL@
	call	QWORD PTR __imp_strncpy_s
; File C:\Users\Mahito\Desktop\Night outing\Night-outing\src\xrCore\xrDebugNew.cpp

; 643  :             hDll = ::LoadLibrary(szDbgHelpPath);

	lea	rcx, QWORD PTR szDbgHelpPath$[rsp]
	call	QWORD PTR __imp_LoadLibraryA
	mov	rbx, rax
$LN3@save_mini_:

; 644  :         }
; 645  :     }
; 646  : 
; 647  :     if (hDll == NULL)

	test	rbx, rbx
	jne	SHORT $LN135@save_mini_

; 648  :     {
; 649  :         // load any version we can
; 650  :         hDll = ::LoadLibrary("DBGHELP.DLL");

	lea	rcx, OFFSET FLAT:??_C@_0M@IBNEFJCG@DBGHELP?4DLL@
	call	QWORD PTR __imp_LoadLibraryA
	mov	rbx, rax

; 651  :     }
; 652  : 
; 653  :     LPCTSTR szResult = NULL;
; 654  : 
; 655  :     if (hDll)

	test	rax, rax
	je	$LN13@save_mini_
$LN135@save_mini_:

; 656  :     {
; 657  :         MINIDUMPWRITEDUMP pDump = (MINIDUMPWRITEDUMP)::GetProcAddress(hDll, "MiniDumpWriteDump");

	lea	rdx, OFFSET FLAT:??_C@_0BC@MNIKNFKD@MiniDumpWriteDump@
	mov	rcx, rbx
	call	QWORD PTR __imp_GetProcAddress
	mov	r14, rax
	mov	QWORD PTR pDump$6[rsp], rax

; 658  :         if (pDump)

	test	rax, rax
	je	$LN13@save_mini_

; 659  :         {
; 660  :             string_path szDumpPath;
; 661  :             string_path szScratch;
; 662  :             string64 t_stemp;
; 663  : 
; 664  :             timestamp(t_stemp);

	lea	rcx, QWORD PTR t_stemp$3[rsp]
	call	?timestamp@@YAPEADAEAY0EA@D@Z		; timestamp
; File C:\Users\Mahito\Desktop\Night outing\Night-outing\src\xrCore\_std_extensions.h

; 229  : 	return						strncpy_s( destination, destination_size, source, destination_size );

	mov	r9d, 520				; 00000208H
	lea	r8, OFFSET FLAT:?Core@@3VxrCore@@A	; Core
	mov	edx, r9d
	lea	rcx, QWORD PTR szDumpPath$2[rsp]
	call	QWORD PTR __imp_strncpy_s

; 186  : {	return (u32)strlen(S);			}

	lea	rcx, QWORD PTR szDumpPath$2[rsp]
	mov	rbx, -1
	mov	rax, rbx
	npad	5
$LL128@save_mini_:
	inc	rax
	cmp	BYTE PTR [rcx+rax], sil
	jne	SHORT $LL128@save_mini_

; 234  : 	size_t const destination_length	= xr_strlen(destination);

	mov	eax, eax

; 235  : 	LPSTR i						= destination + destination_length;

	lea	rcx, QWORD PTR szDumpPath$2[rsp]
	add	rcx, rax

; 236  : 	LPSTR const e				= destination + buffer_size - 1;
; 237  : 	if ( i > e )

	lea	rax, QWORD PTR szDumpPath$2[rsp+519]
	lea	r8, OFFSET FLAT:??_C@_01IDAFKMJL@_@
	cmp	rcx, rax
	ja	SHORT $LN32@save_mini_

; 238  : 		return					0;
; 239  : 
; 240  : 	for ( LPCSTR j = source; *j && (i != e); ++i, ++j )

	mov	rdx, r8
	sub	rdx, rcx
	npad	3
$LL35@save_mini_:
	lea	rax, QWORD PTR szDumpPath$2[rsp+519]
	cmp	rcx, rax
	je	SHORT $LN34@save_mini_

; 241  : 		*i						= *j;

	movzx	eax, BYTE PTR [rdx+rcx]
	mov	BYTE PTR [rcx], al

; 238  : 		return					0;
; 239  : 
; 240  : 	for ( LPCSTR j = source; *j && (i != e); ++i, ++j )

	inc	rcx
	cmp	BYTE PTR [rdx+rcx], sil
	jne	SHORT $LL35@save_mini_
$LN34@save_mini_:

; 242  : 
; 243  : 	*i							= 0;

	mov	BYTE PTR [rcx], sil
$LN32@save_mini_:

; 186  : {	return (u32)strlen(S);			}

	lea	rcx, QWORD PTR szDumpPath$2[rsp]
	mov	rax, rbx
$LL127@save_mini_:
	inc	rax
	cmp	BYTE PTR [rcx+rax], sil
	jne	SHORT $LL127@save_mini_

; 234  : 	size_t const destination_length	= xr_strlen(destination);

	mov	eax, eax

; 235  : 	LPSTR i						= destination + destination_length;

	lea	rcx, QWORD PTR szDumpPath$2[rsp]
	add	rcx, rax

; 236  : 	LPSTR const e				= destination + buffer_size - 1;
; 237  : 	if ( i > e )

	lea	rax, QWORD PTR szDumpPath$2[rsp+519]
	cmp	rcx, rax
	ja	SHORT $LN42@save_mini_

; 238  : 		return					0;
; 239  : 
; 240  : 	for ( LPCSTR j = source; *j && (i != e); ++i, ++j )

	cmp	BYTE PTR ?Core@@3VxrCore@@A+1104, sil
	je	SHORT $LN44@save_mini_
	lea	rdx, OFFSET FLAT:?Core@@3VxrCore@@A+1104
	sub	rdx, rcx
	npad	6
$LL45@save_mini_:
	lea	rax, QWORD PTR szDumpPath$2[rsp+519]
	cmp	rcx, rax
	je	SHORT $LN44@save_mini_

; 241  : 		*i						= *j;

	movzx	eax, BYTE PTR [rdx+rcx]
	mov	BYTE PTR [rcx], al

; 238  : 		return					0;
; 239  : 
; 240  : 	for ( LPCSTR j = source; *j && (i != e); ++i, ++j )

	inc	rcx
	cmp	BYTE PTR [rdx+rcx], sil
	jne	SHORT $LL45@save_mini_
$LN44@save_mini_:

; 242  : 
; 243  : 	*i							= 0;

	mov	BYTE PTR [rcx], sil
$LN42@save_mini_:

; 186  : {	return (u32)strlen(S);			}

	lea	rcx, QWORD PTR szDumpPath$2[rsp]
	mov	rax, rbx
$LL126@save_mini_:
	inc	rax
	cmp	BYTE PTR [rcx+rax], sil
	jne	SHORT $LL126@save_mini_

; 234  : 	size_t const destination_length	= xr_strlen(destination);

	mov	eax, eax

; 235  : 	LPSTR i						= destination + destination_length;

	lea	rcx, QWORD PTR szDumpPath$2[rsp]
	add	rcx, rax

; 236  : 	LPSTR const e				= destination + buffer_size - 1;
; 237  : 	if ( i > e )

	lea	rax, QWORD PTR szDumpPath$2[rsp+519]
	cmp	rcx, rax
	ja	SHORT $LN52@save_mini_

; 238  : 		return					0;
; 239  : 
; 240  : 	for ( LPCSTR j = source; *j && (i != e); ++i, ++j )

	sub	r8, rcx
	npad	6
$LL55@save_mini_:
	lea	rax, QWORD PTR szDumpPath$2[rsp+519]
	cmp	rcx, rax
	je	SHORT $LN54@save_mini_

; 241  : 		*i						= *j;

	movzx	eax, BYTE PTR [r8+rcx]
	mov	BYTE PTR [rcx], al

; 238  : 		return					0;
; 239  : 
; 240  : 	for ( LPCSTR j = source; *j && (i != e); ++i, ++j )

	inc	rcx
	cmp	BYTE PTR [r8+rcx], sil
	jne	SHORT $LL55@save_mini_
$LN54@save_mini_:

; 242  : 
; 243  : 	*i							= 0;

	mov	BYTE PTR [rcx], sil
$LN52@save_mini_:

; 186  : {	return (u32)strlen(S);			}

	lea	rcx, QWORD PTR szDumpPath$2[rsp]
	mov	rax, rbx
	npad	8
$LL125@save_mini_:
	inc	rax
	cmp	BYTE PTR [rcx+rax], sil
	jne	SHORT $LL125@save_mini_

; 234  : 	size_t const destination_length	= xr_strlen(destination);

	mov	eax, eax

; 235  : 	LPSTR i						= destination + destination_length;

	lea	rcx, QWORD PTR szDumpPath$2[rsp]
	add	rcx, rax

; 236  : 	LPSTR const e				= destination + buffer_size - 1;
; 237  : 	if ( i > e )

	lea	rax, QWORD PTR szDumpPath$2[rsp+519]
	cmp	rcx, rax
	ja	SHORT $LN62@save_mini_

; 238  : 		return					0;
; 239  : 
; 240  : 	for ( LPCSTR j = source; *j && (i != e); ++i, ++j )

	cmp	BYTE PTR t_stemp$3[rsp], sil
	je	SHORT $LN64@save_mini_
	lea	rdx, QWORD PTR t_stemp$3[rsp]
	sub	rdx, rcx
	npad	11
$LL65@save_mini_:
	lea	rax, QWORD PTR szDumpPath$2[rsp+519]
	cmp	rcx, rax
	je	SHORT $LN64@save_mini_

; 241  : 		*i						= *j;

	movzx	eax, BYTE PTR [rdx+rcx]
	mov	BYTE PTR [rcx], al

; 238  : 		return					0;
; 239  : 
; 240  : 	for ( LPCSTR j = source; *j && (i != e); ++i, ++j )

	inc	rcx
	cmp	BYTE PTR [rdx+rcx], sil
	jne	SHORT $LL65@save_mini_
$LN64@save_mini_:

; 242  : 
; 243  : 	*i							= 0;

	mov	BYTE PTR [rcx], sil
$LN62@save_mini_:

; 186  : {	return (u32)strlen(S);			}

	lea	rcx, QWORD PTR szDumpPath$2[rsp]
	mov	rax, rbx
$LL124@save_mini_:
	inc	rax
	cmp	BYTE PTR [rcx+rax], sil
	jne	SHORT $LL124@save_mini_

; 234  : 	size_t const destination_length	= xr_strlen(destination);

	mov	eax, eax

; 235  : 	LPSTR i						= destination + destination_length;

	lea	rcx, QWORD PTR szDumpPath$2[rsp]
	add	rcx, rax

; 236  : 	LPSTR const e				= destination + buffer_size - 1;
; 237  : 	if ( i > e )

	lea	rax, QWORD PTR szDumpPath$2[rsp+519]
	cmp	rcx, rax
	ja	SHORT $LN72@save_mini_

; 238  : 		return					0;
; 239  : 
; 240  : 	for ( LPCSTR j = source; *j && (i != e); ++i, ++j )

	lea	rdx, OFFSET FLAT:??_C@_05MJENMIDH@?4mdmp@
	sub	rdx, rcx
$LL75@save_mini_:
	lea	rax, QWORD PTR szDumpPath$2[rsp+519]
	cmp	rcx, rax
	je	SHORT $LN74@save_mini_

; 241  : 		*i						= *j;

	movzx	eax, BYTE PTR [rdx+rcx]
	mov	BYTE PTR [rcx], al

; 238  : 		return					0;
; 239  : 
; 240  : 	for ( LPCSTR j = source; *j && (i != e); ++i, ++j )

	inc	rcx
	cmp	BYTE PTR [rdx+rcx], sil
	jne	SHORT $LL75@save_mini_
$LN74@save_mini_:

; 242  : 
; 243  : 	*i							= 0;

	mov	BYTE PTR [rcx], sil
$LN72@save_mini_:
; File C:\Users\Mahito\Desktop\Night outing\Night-outing\src\xrCore\xrDebugNew.cpp

; 674  :                 if (FS.path_exist("$logs$"))

	call	?path_exist@CLocatorAPI@@QEAA_NPEBD@Z	; CLocatorAPI::path_exist
	test	al, al
	je	SHORT $LN10@save_mini_

; 675  :                     FS.update_path(szDumpPath, "$logs$", szDumpPath);

	lea	r9, QWORD PTR szDumpPath$2[rsp]
	lea	r8, OFFSET FLAT:??_C@_06DMJLOKKG@$logs$@
	lea	rdx, QWORD PTR szDumpPath$2[rsp]
	xor	ecx, ecx
	call	?update_path@CLocatorAPI@@QEAAPEBDAEAY0CAI@DPEBD1@Z ; CLocatorAPI::update_path
$LN10@save_mini_:

; 676  :             }

	jmp	$LN21@save_mini_
$LN19@save_mini_:
; File C:\Users\Mahito\Desktop\Night outing\Night-outing\src\xrCore\_std_extensions.h

; 229  : 	return						strncpy_s( destination, destination_size, source, destination_size );

	mov	r9d, 520				; 00000208H
	lea	r8, QWORD PTR szDumpPath$2[rsp]
	mov	edx, r9d
	lea	rcx, QWORD PTR temp$4[rsp]
	call	QWORD PTR __imp_strncpy_s
	mov	r9d, 520				; 00000208H
	lea	r8, OFFSET FLAT:??_C@_05MIDDFADP@logs?1@
	mov	edx, r9d
	lea	rcx, QWORD PTR szDumpPath$2[rsp]
	call	QWORD PTR __imp_strncpy_s

; 186  : {	return (u32)strlen(S);			}

	lea	rcx, QWORD PTR szDumpPath$2[rsp]
	mov	rax, -1
	npad	7
$LL123@save_mini_:
	inc	rax
	cmp	BYTE PTR [rcx+rax], 0
	jne	SHORT $LL123@save_mini_

; 235  : 	LPSTR i						= destination + destination_length;

	mov	eax, eax
	lea	rcx, QWORD PTR szDumpPath$2[rsp]
	add	rcx, rax

; 236  : 	LPSTR const e				= destination + buffer_size - 1;
; 237  : 	if ( i > e )

	lea	rax, QWORD PTR szDumpPath$2[rsp+519]
	cmp	rcx, rax
	ja	SHORT $LN90@save_mini_

; 238  : 		return					0;
; 239  : 
; 240  : 	for ( LPCSTR j = source; *j && (i != e); ++i, ++j )

	lea	rdx, QWORD PTR temp$4[rsp]
	cmp	BYTE PTR temp$4[rsp], 0
	je	SHORT $LN92@save_mini_
$LL93@save_mini_:
	lea	rax, QWORD PTR szDumpPath$2[rsp+519]
	cmp	rcx, rax
	je	SHORT $LN92@save_mini_

; 241  : 		*i						= *j;

	movzx	eax, BYTE PTR [rdx]
	mov	BYTE PTR [rcx], al

; 238  : 		return					0;
; 239  : 
; 240  : 	for ( LPCSTR j = source; *j && (i != e); ++i, ++j )

	inc	rcx
	inc	rdx
	cmp	BYTE PTR [rdx], 0
	jne	SHORT $LL93@save_mini_
$LN92@save_mini_:

; 242  : 
; 243  : 	*i							= 0;

	mov	BYTE PTR [rcx], 0
$LN90@save_mini_:
; File C:\Users\Mahito\Desktop\Night outing\Night-outing\src\xrCore\xrDebugNew.cpp

; 676  :             }

	xor	esi, esi
	lea	rbx, QWORD PTR [rsi-1]
	mov	r15, QWORD PTR pExceptionInfo$[rsp]
	mov	r14, QWORD PTR pDump$6[rsp]
$LN21@save_mini_:

; 677  :             __except (EXCEPTION_EXECUTE_HANDLER)
; 678  :             {
; 679  :                 string_path temp;
; 680  :                 xr_strcpy(temp, szDumpPath);
; 681  :                 xr_strcpy(szDumpPath, "logs/");
; 682  :                 xr_strcat(szDumpPath, temp);
; 683  :             }
; 684  : 
; 685  :             // create the file
; 686  :             HANDLE hFile = ::CreateFile(szDumpPath, GENERIC_WRITE, FILE_SHARE_WRITE, NULL, CREATE_ALWAYS, FILE_ATTRIBUTE_NORMAL, NULL);

	mov	QWORD PTR [rsp+48], rsi
	mov	DWORD PTR [rsp+40], 128			; 00000080H
	mov	DWORD PTR [rsp+32], 2
	xor	r9d, r9d
	mov	edx, 1073741824				; 40000000H
	lea	r8d, QWORD PTR [r9+2]
	lea	rcx, QWORD PTR szDumpPath$2[rsp]
	call	QWORD PTR __imp_CreateFileA
	mov	rdi, rax

; 687  :             if (INVALID_HANDLE_VALUE == hFile)

	cmp	rax, -1
	jne	SHORT $LN11@save_mini_

; 688  :             {
; 689  :                 // try to place into current directory
; 690  :                 MoveMemory(szDumpPath, szDumpPath + 5, strlen(szDumpPath));

	lea	rax, QWORD PTR szDumpPath$2[rsp]
$LL122@save_mini_:
	inc	rbx
	cmp	BYTE PTR [rax+rbx], 0
	jne	SHORT $LL122@save_mini_
	mov	r8, rbx
	lea	rdx, QWORD PTR szDumpPath$2[rsp+5]
	lea	rcx, QWORD PTR szDumpPath$2[rsp]
	call	memmove

; 691  :                 hFile = ::CreateFile(szDumpPath, GENERIC_WRITE, FILE_SHARE_WRITE, NULL, CREATE_ALWAYS, FILE_ATTRIBUTE_NORMAL, NULL);

	mov	QWORD PTR [rsp+48], rsi
	mov	DWORD PTR [rsp+40], 128			; 00000080H
	mov	DWORD PTR [rsp+32], 2
	xor	r9d, r9d
	mov	edx, 1073741824				; 40000000H
	lea	r8d, QWORD PTR [r9+2]
	lea	rcx, QWORD PTR szDumpPath$2[rsp]
	call	QWORD PTR __imp_CreateFileA
	mov	rdi, rax
$LN11@save_mini_:

; 692  :             }
; 693  :             if (hFile != INVALID_HANDLE_VALUE)

	cmp	rdi, -1
	je	$LN12@save_mini_

; 694  :             {
; 695  :                 _MINIDUMP_EXCEPTION_INFORMATION ExInfo;
; 696  : 
; 697  :                 ExInfo.ThreadId = ::GetCurrentThreadId();

	call	QWORD PTR __imp_GetCurrentThreadId
	mov	DWORD PTR ExInfo$1[rsp], eax

; 698  :                 ExInfo.ExceptionPointers = pExceptionInfo;

	mov	QWORD PTR ExInfo$1[rsp+4], r15

; 699  :                 ExInfo.ClientPointers = NULL;

	mov	DWORD PTR ExInfo$1[rsp+12], esi

; 700  : 
; 701  :                 // write the dump
; 702  :                 MINIDUMP_TYPE dump_flags = MINIDUMP_TYPE(MiniDumpNormal | MiniDumpFilterMemory | MiniDumpScanMemory);
; 703  : 
; 704  :                 BOOL bOK = pDump(GetCurrentProcess(), GetCurrentProcessId(), hFile, dump_flags, &ExInfo, NULL, NULL);

	call	QWORD PTR __imp_GetCurrentProcessId
	mov	ebx, eax
	call	QWORD PTR __imp_GetCurrentProcess
	mov	QWORD PTR [rsp+48], rsi
	mov	QWORD PTR [rsp+40], rsi
	lea	rcx, QWORD PTR ExInfo$1[rsp]
	mov	QWORD PTR [rsp+32], rcx
	mov	r9d, 24
	mov	r8, rdi
	mov	edx, ebx
	mov	rcx, rax
	call	r14

; 705  :                 if (bOK)

	test	eax, eax
	je	SHORT $LN14@save_mini_

; 706  :                 {
; 707  :                     xr_sprintf(szScratch, "Saved dump file to '%s'", szDumpPath);

	lea	r8, QWORD PTR szDumpPath$2[rsp]
	lea	rdx, OFFSET FLAT:??_C@_0BI@LIBKOBMP@Saved?5dump?5file?5to?5?8?$CFs?8@
	lea	rcx, QWORD PTR szScratch$5[rsp]
	call	??$xr_sprintf@$0CAI@@@YAHAEAY0CAI@DPEBDZZ ; xr_sprintf<520>

; 714  :                     szResult = szScratch;
; 715  :                 }
; 716  :                 ::CloseHandle(hFile);

	mov	rcx, rdi
	call	QWORD PTR __imp_CloseHandle

; 717  :             }

	jmp	SHORT $LN13@save_mini_
$LN14@save_mini_:

; 708  :                     szResult = szScratch;
; 709  :                     // retval = EXCEPTION_EXECUTE_HANDLER;
; 710  :                 }
; 711  :                 else
; 712  :                 {
; 713  :                     xr_sprintf(szScratch, "Failed to save dump file to '%s' (error %d)", szDumpPath, GetLastError());

	call	QWORD PTR __imp_GetLastError
	mov	r9d, eax
	lea	r8, QWORD PTR szDumpPath$2[rsp]
	lea	rdx, OFFSET FLAT:??_C@_0CM@IDCCJAOB@Failed?5to?5save?5dump?5file?5to?5?8?$CFs@
	lea	rcx, QWORD PTR szScratch$5[rsp]
	call	??$xr_sprintf@$0CAI@@@YAHAEAY0CAI@DPEBDZZ ; xr_sprintf<520>

; 714  :                     szResult = szScratch;
; 715  :                 }
; 716  :                 ::CloseHandle(hFile);

	mov	rcx, rdi
	call	QWORD PTR __imp_CloseHandle

; 717  :             }

	jmp	SHORT $LN13@save_mini_
$LN12@save_mini_:

; 718  :             else
; 719  :             {
; 720  :                 xr_sprintf(szScratch, "Failed to create dump file '%s' (error %d)", szDumpPath, GetLastError());

	call	QWORD PTR __imp_GetLastError
	mov	r9d, eax
	lea	r8, QWORD PTR szDumpPath$2[rsp]
	lea	rdx, OFFSET FLAT:??_C@_0CL@KMCGFKEK@Failed?5to?5create?5dump?5file?5?8?$CFs?8@
	lea	rcx, QWORD PTR szScratch$5[rsp]
	call	??$xr_sprintf@$0CAI@@@YAHAEAY0CAI@DPEBDZZ ; xr_sprintf<520>
$LN13@save_mini_:

; 721  :                 szResult = szScratch;
; 722  :             }
; 723  :         }
; 724  :         else
; 725  :         {
; 726  :             szResult = "DBGHELP.DLL too old";
; 727  :         }
; 728  :     }
; 729  :     else
; 730  :     {
; 731  :         szResult = "DBGHELP.DLL not found";
; 732  :     }
; 733  : }

	lea	r11, QWORD PTR [rsp+2256]
	mov	rbx, QWORD PTR [r11+48]
	mov	rsi, QWORD PTR [r11+56]
	mov	rsp, r11
	pop	r15
	pop	r14
	pop	rdi
	ret	0
?save_mini_dump@@YAXPEAU_EXCEPTION_POINTERS@@@Z ENDP	; save_mini_dump
_TEXT	ENDS
; Function compile flags: /Ogtpy
; File C:\Users\Mahito\Desktop\Night outing\Night-outing\src\xrCore\xrDebugNew.cpp
_TEXT	SEGMENT
buffer$ = 80
buffer_size$ = 88
message$ = 96
?format_message@@YAXPEADAEBI@Z PROC			; format_message

; 737  : {

$LN5:
	mov	QWORD PTR [rsp+8], rbx
	mov	QWORD PTR [rsp+16], rsi
	push	rdi
	sub	rsp, 64					; 00000040H
	mov	rsi, rdx
	mov	rbx, rcx

; 738  :     LPVOID message;
; 739  :     DWORD error_code = GetLastError();

	call	QWORD PTR __imp_GetLastError
	mov	edi, eax

; 740  : 
; 741  :     if (!error_code)

	test	eax, eax
	jne	SHORT $LN2@format_mes

; 742  :     {
; 743  :         *buffer = 0;

	mov	BYTE PTR [rbx], al

; 760  : }

	mov	rbx, QWORD PTR [rsp+80]
	mov	rsi, QWORD PTR [rsp+88]
	add	rsp, 64					; 00000040H
	pop	rdi
	ret	0
$LN2@format_mes:

; 744  :         return;
; 745  :     }
; 746  : 
; 747  :     FormatMessage(

	xor	eax, eax
	mov	r9d, 1024				; 00000400H
	mov	QWORD PTR [rsp+48], rax
	mov	r8d, edi
	mov	DWORD PTR [rsp+40], eax
	xor	edx, edx
	lea	rax, QWORD PTR message$[rsp]
	mov	ecx, 4352				; 00001100H
	mov	QWORD PTR [rsp+32], rax
	call	QWORD PTR __imp_FormatMessageA

; 748  :         FORMAT_MESSAGE_ALLOCATE_BUFFER |
; 749  :         FORMAT_MESSAGE_FROM_SYSTEM,
; 750  :         NULL,
; 751  :         error_code,
; 752  :         MAKELANGID(LANG_NEUTRAL, SUBLANG_DEFAULT),
; 753  :         (LPSTR)&message,
; 754  :         0,
; 755  :         NULL
; 756  :     );
; 757  : 
; 758  :     xr_sprintf(buffer, buffer_size, "[error][%8d] : %s", error_code, message);

	mov	rax, QWORD PTR message$[rsp]
	lea	r8, OFFSET FLAT:??_C@_0BC@CFEFPCIK@?$FLerror?$FN?$FL?$CF8d?$FN?5?3?5?$CFs@
	mov	edx, DWORD PTR [rsi]
	mov	r9d, edi
	mov	rcx, rbx
	mov	QWORD PTR [rsp+32], rax
	call	?xr_sprintf@@YAHPEAD_KPEBDZZ		; xr_sprintf

; 759  :     LocalFree(message);

	mov	rcx, QWORD PTR message$[rsp]
	call	QWORD PTR __imp_LocalFree

; 760  : }

	mov	rbx, QWORD PTR [rsp+80]
	mov	rsi, QWORD PTR [rsp+88]
	add	rsp, 64					; 00000040H
	pop	rdi
	ret	0
?format_message@@YAXPEADAEBI@Z ENDP			; format_message
_TEXT	ENDS
; Function compile flags: /Ogtpy
; File C:\Users\Mahito\Desktop\Night outing\Night-outing\src\xrCore\xrDebugNew.cpp
_TEXT	SEGMENT
error_message$ = 32
save$ = 288
pExceptionInfo$ = 1536
?UnhandledFilter@@YAJPEAU_EXCEPTION_POINTERS@@@Z PROC	; UnhandledFilter

; 770  : {

$LN11:
	mov	rax, rsp
	push	rbx
	sub	rsp, 1520				; 000005f0H
	mov	rbx, rcx

; 771  :     string256 error_message;
; 772  :     format_message(error_message, sizeof(error_message));

	mov	DWORD PTR [rax+8], 256			; 00000100H
	lea	rcx, QWORD PTR error_message$[rsp]
	lea	rdx, QWORD PTR [rax+8]
	call	?format_message@@YAXPEADAEBI@Z		; format_message

; 773  : 
; 774  :     CONTEXT save = *pExceptionInfo->ContextRecord;

	mov	rax, QWORD PTR [rbx+8]
	lea	r8, QWORD PTR save$[rsp]
	mov	r9d, 9
	mov	rdx, rax
	mov	r10d, r9d
	npad	5
$LL9@UnhandledF:
	lea	r8, QWORD PTR [r8+128]
	vmovups	ymm0, YMMWORD PTR [rdx]
	vmovups	xmm1, XMMWORD PTR [rdx+112]
	lea	rdx, QWORD PTR [rdx+128]
	vmovups	YMMWORD PTR [r8-128], ymm0
	vmovups	ymm0, YMMWORD PTR [rdx-96]
	vmovups	YMMWORD PTR [r8-96], ymm0
	vmovups	ymm0, YMMWORD PTR [rdx-64]
	vmovups	YMMWORD PTR [r8-64], ymm0
	vmovups	xmm0, XMMWORD PTR [rdx-32]
	vmovups	XMMWORD PTR [r8-32], xmm0
	vmovups	XMMWORD PTR [r8-16], xmm1
	sub	r10, 1
	jne	SHORT $LL9@UnhandledF
	vmovups	ymm0, YMMWORD PTR [rdx]
	vmovups	YMMWORD PTR [r8], ymm0
	vmovups	ymm0, YMMWORD PTR [rdx+32]
	vmovups	YMMWORD PTR [r8+32], ymm0
	vmovups	xmm0, XMMWORD PTR [rdx+64]
	vmovups	XMMWORD PTR [r8+64], xmm0

; 775  :     //    BuildStackTrace(pExceptionInfo);
; 776  :     *pExceptionInfo->ContextRecord = save;

	lea	rcx, QWORD PTR save$[rsp]
	npad	15
$LL8@UnhandledF:
	lea	rax, QWORD PTR [rax+128]
	vmovups	ymm0, YMMWORD PTR [rcx]
	vmovups	xmm1, XMMWORD PTR [rcx+112]
	lea	rcx, QWORD PTR [rcx+128]
	vmovups	YMMWORD PTR [rax-128], ymm0
	vmovups	ymm0, YMMWORD PTR [rcx-96]
	vmovups	YMMWORD PTR [rax-96], ymm0
	vmovups	ymm0, YMMWORD PTR [rcx-64]
	vmovups	YMMWORD PTR [rax-64], ymm0
	vmovups	xmm0, XMMWORD PTR [rcx-32]
	vmovups	XMMWORD PTR [rax-32], xmm0
	vmovups	XMMWORD PTR [rax-16], xmm1
	sub	r9, 1
	jne	SHORT $LL8@UnhandledF

; 777  : 
; 778  :     if (shared_str_initialized)

	cmp	BYTE PTR ?shared_str_initialized@@3_NA, r9b ; shared_str_initialized
	vmovups	ymm0, YMMWORD PTR [rcx]
	vmovups	YMMWORD PTR [rax], ymm0
	vmovups	ymm0, YMMWORD PTR [rcx+32]
	vmovups	YMMWORD PTR [rax+32], ymm0
	vmovups	xmm0, XMMWORD PTR [rcx+64]
	vmovups	XMMWORD PTR [rax+64], xmm0
	je	SHORT $LN2@UnhandledF

; 779  :         Msg("stack trace:\n");

	lea	rcx, OFFSET FLAT:??_C@_0O@ICAMKLDJ@stack?5trace?3?6@
	vzeroupper
	call	?Msg@@YAXPEBDZZ				; Msg
$LN2@UnhandledF:

; 780  : 
; 781  :     if (!IsDebuggerPresent())

	vzeroupper
	call	QWORD PTR __imp_IsDebuggerPresent
	test	eax, eax
	jne	SHORT $LN3@UnhandledF

; 782  :     {
; 783  :         os_clipboard::copy_to_clipboard("stack trace:\r\n\r\n");

	lea	rcx, OFFSET FLAT:??_C@_0BB@EAFFLADJ@stack?5trace?3?$AN?6?$AN?6@
	call	?copy_to_clipboard@os_clipboard@@YAXPEBD@Z ; os_clipboard::copy_to_clipboard
$LN3@UnhandledF:

; 784  :     }
; 785  : 
; 786  :     //    string4096 buffer;
; 787  :     //    for (int i = 0; i < g_stackTraceCount; ++i)
; 788  :     //    {
; 789  :     //        if (shared_str_initialized)
; 790  :     //            Msg("%s", g_stackTrace[i]);
; 791  :     //        xr_sprintf(buffer, sizeof(buffer), "%s\r\n", g_stackTrace[i]);
; 792  :     //#ifdef DEBUG
; 793  :     //        if (!IsDebuggerPresent())
; 794  :     //            os_clipboard::update_clipboard(buffer);
; 795  :     //#endif //-DEBUG
; 796  :     //    }
; 797  : 
; 798  :     if (*error_message)

	cmp	BYTE PTR error_message$[rsp], 0
	je	SHORT $LN4@UnhandledF

; 799  :     {
; 800  :         if (shared_str_initialized)

	cmp	BYTE PTR ?shared_str_initialized@@3_NA, 0 ; shared_str_initialized
	je	SHORT $LN5@UnhandledF

; 801  :             Msg("\n%s", error_message);

	lea	rdx, QWORD PTR error_message$[rsp]
	lea	rcx, OFFSET FLAT:??_C@_03ILJCGOLJ@?6?$CFs@
	call	?Msg@@YAXPEBDZZ				; Msg
$LN5@UnhandledF:

; 802  : 
; 803  :         xr_strcat(error_message, sizeof(error_message), "\r\n");

	lea	r8, OFFSET FLAT:??_C@_02PCIJFNDE@?$AN?6@
	mov	edx, 256				; 00000100H
	lea	rcx, QWORD PTR error_message$[rsp]
	call	?xr_strcat@@YAHPEAD_KPEBD@Z		; xr_strcat
$LN4@UnhandledF:

; 804  : #ifdef DEBUG
; 805  :         if (!IsDebuggerPresent())
; 806  :             os_clipboard::update_clipboard(buffer);
; 807  : #endif //-DEBUG
; 808  :     }
; 809  : 
; 810  :     if (pExceptionInfo->ExceptionRecord)

	mov	rdx, QWORD PTR [rbx]
	test	rdx, rdx
	je	SHORT $LN6@UnhandledF

; 811  :     {
; 812  :         Msg("at address 0x%p", pExceptionInfo->ExceptionRecord->ExceptionAddress);

	mov	rdx, QWORD PTR [rdx+16]
	lea	rcx, OFFSET FLAT:??_C@_0BA@NPLNNLAI@at?5address?50x?$CFp@
	call	?Msg@@YAXPEBDZZ				; Msg
$LN6@UnhandledF:

; 813  :     }
; 814  :     //return EXCEPTION_CONTINUE_EXECUTION;
; 815  : 
; 816  :     FlushLog();
; 817  : 
; 818  : # ifdef USE_OWN_MINI_DUMP
; 819  :     save_mini_dump(pExceptionInfo);

	mov	rcx, rbx
	call	?save_mini_dump@@YAXPEAU_EXCEPTION_POINTERS@@@Z ; save_mini_dump

; 820  : # endif // USE_OWN_MINI_DUMP
; 821  : 
; 822  :     ShowCursor(true);

	mov	ecx, 1
	call	QWORD PTR __imp_ShowCursor

; 823  :     ShowWindow(GetActiveWindow(), SW_FORCEMINIMIZE);

	call	QWORD PTR __imp_GetActiveWindow
	mov	rcx, rax
	mov	edx, 11
	call	QWORD PTR __imp_ShowWindow

; 824  :     MessageBox(

	xor	ecx, ecx
	call	QWORD PTR __imp_GetTopWindow
	mov	r9d, 4112				; 00001010H
	lea	r8, OFFSET FLAT:??_C@_0M@HFFOIJBL@Fatal?5Error@
	mov	rcx, rax
	lea	rdx, OFFSET FLAT:??_C@_0DB@HJLHCPAB@Unhandled?5exception?5occured?4?5Se@
	call	QWORD PTR __imp_MessageBoxA

; 825  :         GetTopWindow(NULL),
; 826  :         "Unhandled exception occured. See log for details",
; 827  :         "Fatal Error",
; 828  :         MB_OK | MB_ICONERROR | MB_SYSTEMMODAL
; 829  :     );
; 830  :     //    TerminateProcess(GetCurrentProcess(), 1);
; 831  : 
; 832  :     quick_exit(-1);

	mov	ecx, -1
	call	QWORD PTR __imp_quick_exit
	int	3
$LN10@UnhandledF:
?UnhandledFilter@@YAJPEAU_EXCEPTION_POINTERS@@@Z ENDP	; UnhandledFilter
_TEXT	ENDS
; Function compile flags: /Ogtpy
; File C:\Users\Mahito\Desktop\Night outing\Night-outing\src\xrCore\xrDebugNew.cpp
_TEXT	SEGMENT
reason_string$ = 96
?handler_base@@YAXPEBD@Z PROC				; handler_base

; 1000 : {

	sub	rsp, 88					; 00000058H

; 1001 :     bool ignore_always = false;
; 1002 :     Debug.backend(

	lea	rax, OFFSET FLAT:??_C@_0N@EHAENDPC@handler_base@
	mov	r8, rcx
	mov	QWORD PTR [rsp+56], rax
	lea	rcx, OFFSET FLAT:?Debug@@3VxrDebug@@A	; Debug
	lea	rax, OFFSET FLAT:??_C@_0EM@BLODLGLA@C?3?2Users?2Mahito?2Desktop?2Night?5o@
	mov	DWORD PTR [rsp+48], 1007		; 000003efH
	xor	r9d, r9d
	mov	QWORD PTR [rsp+40], rax
	xor	edx, edx
	call	?backend@xrDebug@@QEAAXPEBD0000H0AEA_N@Z ; xrDebug::backend

; 1003 :         nullptr,
; 1004 :         reason_string,
; 1005 :         0,
; 1006 :         0,
; 1007 :         DEBUG_INFO,
; 1008 :         ignore_always
; 1009 :     );
; 1010 : }

	add	rsp, 88					; 00000058H
	ret	0
?handler_base@@YAXPEBD@Z ENDP				; handler_base
_TEXT	ENDS
; Function compile flags: /Ogtpy
; File C:\Users\Mahito\Desktop\Night outing\Night-outing\src\xrCore\xrDebugNew.cpp
; File C:\Users\Mahito\Desktop\Night outing\Night-outing\src\xrCore\_std_extensions.h
; File C:\Users\Mahito\Desktop\Night outing\Night-outing\src\xrCore\xrDebugNew.cpp
; File C:\Users\Mahito\Desktop\Night outing\Night-outing\src\xrCore\_std_extensions.h
; File C:\Users\Mahito\Desktop\Night outing\Night-outing\src\xrCore\xrDebugNew.cpp
; File C:\Users\Mahito\Desktop\Night outing\Night-outing\src\xrCore\_std_extensions.h
; File C:\Users\Mahito\Desktop\Night outing\Night-outing\src\xrCore\xrDebugNew.cpp
; File C:\Users\Mahito\Desktop\Night outing\Night-outing\src\xrCore\_std_extensions.h
; File C:\Users\Mahito\Desktop\Night outing\Night-outing\src\xrCore\xrDebugNew.cpp
_TEXT	SEGMENT
function_$ = 80
file_$ = 4176
expression_$ = 8272
converted_chars$ = 12384
expression$ = 12384
function$ = 12392
file$ = 12400
line$ = 12408
reserved$ = 12416
?invalid_parameter_handler@@YAXPEB_W00I_K@Z PROC	; invalid_parameter_handler

; 1019 : {

	mov	QWORD PTR [rsp+16], rbx
	mov	QWORD PTR [rsp+24], rbp
	mov	QWORD PTR [rsp+32], rsi
	push	rdi
	mov	eax, 12368				; 00003050H
	call	__chkstk
	sub	rsp, rax

; 1020 :     bool ignore_always = false;
; 1021 : 
; 1022 :     string4096 expression_;
; 1023 :     string4096 function_;
; 1024 :     string4096 file_;
; 1025 :     size_t converted_chars = 0;

	mov	QWORD PTR converted_chars$[rsp], 0
	mov	ebp, r9d
	mov	rdi, r8
	mov	rsi, rdx

; 1026 :     // errno_t err =
; 1027 :     if (expression)

	mov	rbx, -1
	test	rcx, rcx
	je	SHORT $LN2@invalid_pa

; 1028 :         wcstombs_s(

	mov	rax, rbx
$LL23@invalid_pa:
	cmp	WORD PTR [rcx+rax*2+2], 0
	lea	rax, QWORD PTR [rax+1]
	jne	SHORT $LL23@invalid_pa
	lea	rax, QWORD PTR [rax*2+2]
	mov	r9, rcx
	lea	rcx, QWORD PTR converted_chars$[rsp]
	mov	QWORD PTR [rsp+32], rax
	mov	r8d, 4096				; 00001000H
	lea	rdx, QWORD PTR expression_$[rsp]
	call	QWORD PTR __imp_wcstombs_s
	jmp	SHORT $LN3@invalid_pa
$LN2@invalid_pa:
; File C:\Users\Mahito\Desktop\Night outing\Night-outing\src\xrCore\_std_extensions.h

; 229  : 	return						strncpy_s( destination, destination_size, source, destination_size );

	mov	r9d, 4096				; 00001000H
	lea	r8, OFFSET FLAT:??_C@_00CNPNBAHC@@
	mov	edx, r9d
	lea	rcx, QWORD PTR expression_$[rsp]
	call	QWORD PTR __imp_strncpy_s
$LN3@invalid_pa:
; File C:\Users\Mahito\Desktop\Night outing\Night-outing\src\xrCore\xrDebugNew.cpp

; 1038 :     if (function)

	test	rsi, rsi
	je	SHORT $LN4@invalid_pa

; 1039 :         wcstombs_s(

	mov	rax, rbx
$LL22@invalid_pa:
	cmp	WORD PTR [rsi+rax*2+2], 0
	lea	rax, QWORD PTR [rax+1]
	jne	SHORT $LL22@invalid_pa
	lea	rax, QWORD PTR [rax*2+2]
	mov	r9, rsi
	mov	r8d, 4096				; 00001000H
	mov	QWORD PTR [rsp+32], rax
	lea	rdx, QWORD PTR function_$[rsp]
	lea	rcx, QWORD PTR converted_chars$[rsp]
	call	QWORD PTR __imp_wcstombs_s
	jmp	SHORT $LN5@invalid_pa
$LN4@invalid_pa:
; File C:\Users\Mahito\Desktop\Night outing\Night-outing\src\xrCore\_std_extensions.h

; 229  : 	return						strncpy_s( destination, destination_size, source, destination_size );

	mov	r9d, 4096				; 00001000H
	lea	r8, OFFSET FLAT:??_C@_0BK@NBNIIJLH@invalid_parameter_handler@
	mov	edx, r9d
	lea	rcx, QWORD PTR function_$[rsp]
	call	QWORD PTR __imp_strncpy_s
$LN5@invalid_pa:
; File C:\Users\Mahito\Desktop\Night outing\Night-outing\src\xrCore\xrDebugNew.cpp

; 1049 :     if (file)

	test	rdi, rdi
	je	SHORT $LN6@invalid_pa
	npad	8
$LL21@invalid_pa:

; 1050 :         wcstombs_s(

	cmp	WORD PTR [rdi+rbx*2+2], 0
	lea	rbx, QWORD PTR [rbx+1]
	jne	SHORT $LL21@invalid_pa
	lea	rax, QWORD PTR [rbx*2+2]
	mov	r9, rdi
	mov	r8d, 4096				; 00001000H
	mov	QWORD PTR [rsp+32], rax
	lea	rdx, QWORD PTR file_$[rsp]
	lea	rcx, QWORD PTR converted_chars$[rsp]
	call	QWORD PTR __imp_wcstombs_s
	jmp	SHORT $LN7@invalid_pa
$LN6@invalid_pa:
; File C:\Users\Mahito\Desktop\Night outing\Night-outing\src\xrCore\_std_extensions.h

; 229  : 	return						strncpy_s( destination, destination_size, source, destination_size );

	mov	r9d, 4096				; 00001000H
	lea	r8, OFFSET FLAT:??_C@_0EM@BLODLGLA@C?3?2Users?2Mahito?2Desktop?2Night?5o@
	mov	edx, r9d
	lea	rcx, QWORD PTR file_$[rsp]
; File C:\Users\Mahito\Desktop\Night outing\Night-outing\src\xrCore\xrDebugNew.cpp

; 1059 :         line = __LINE__;

	mov	ebp, 1059				; 00000423H
; File C:\Users\Mahito\Desktop\Night outing\Night-outing\src\xrCore\_std_extensions.h

; 229  : 	return						strncpy_s( destination, destination_size, source, destination_size );

	call	QWORD PTR __imp_strncpy_s
$LN7@invalid_pa:
; File C:\Users\Mahito\Desktop\Night outing\Night-outing\src\xrCore\xrDebugNew.cpp

; 1063 :     Debug.backend(

	lea	rax, QWORD PTR function_$[rsp]
	xor	r9d, r9d
	mov	QWORD PTR [rsp+56], rax
	lea	r8, OFFSET FLAT:??_C@_0BC@GMEMBNHN@invalid?5parameter@
	lea	rax, QWORD PTR file_$[rsp]
	mov	DWORD PTR [rsp+48], ebp
	lea	rdx, QWORD PTR expression_$[rsp]
	mov	QWORD PTR [rsp+40], rax
	lea	rcx, OFFSET FLAT:?Debug@@3VxrDebug@@A	; Debug
	call	?backend@xrDebug@@QEAAXPEBD0000H0AEA_N@Z ; xrDebug::backend

; 1064 :         expression_,
; 1065 :         "invalid parameter",
; 1066 :         0,
; 1067 :         0,
; 1068 :         file_,
; 1069 :         line,
; 1070 :         function_,
; 1071 :         ignore_always
; 1072 :     );
; 1073 : }

	lea	r11, QWORD PTR [rsp+12368]
	mov	rbx, QWORD PTR [r11+24]
	mov	rbp, QWORD PTR [r11+32]
	mov	rsi, QWORD PTR [r11+40]
	mov	rsp, r11
	pop	rdi
	ret	0
?invalid_parameter_handler@@YAXPEB_W00I_K@Z ENDP	; invalid_parameter_handler
_TEXT	ENDS
; Function compile flags: /Ogtpy
; File C:\Users\Mahito\Desktop\Night outing\Night-outing\src\xrCore\xrDebugNew.cpp
_TEXT	SEGMENT
?pure_call_handler@@YAXXZ PROC				; pure_call_handler

; 1076 : {

	sub	rsp, 88					; 00000058H

; 1002 :     Debug.backend(

	lea	rax, OFFSET FLAT:??_C@_0N@EHAENDPC@handler_base@
	xor	r9d, r9d
	mov	QWORD PTR [rsp+56], rax
	lea	r8, OFFSET FLAT:??_C@_0BL@LHEKPGNM@pure?5virtual?5function?5call@
	lea	rax, OFFSET FLAT:??_C@_0EM@BLODLGLA@C?3?2Users?2Mahito?2Desktop?2Night?5o@
	mov	DWORD PTR [rsp+48], 1007		; 000003efH
	xor	edx, edx
	mov	QWORD PTR [rsp+40], rax
	lea	rcx, OFFSET FLAT:?Debug@@3VxrDebug@@A	; Debug
	call	?backend@xrDebug@@QEAAXPEBD0000H0AEA_N@Z ; xrDebug::backend

; 1077 :     handler_base("pure virtual function call");
; 1078 : }

	add	rsp, 88					; 00000058H
	ret	0
?pure_call_handler@@YAXXZ ENDP				; pure_call_handler
_TEXT	ENDS
; Function compile flags: /Ogtpy
; File C:\Users\Mahito\Desktop\Night outing\Night-outing\src\xrCore\xrDebugNew.cpp
_TEXT	SEGMENT
signal$ = 96
?abort_handler@@YAXH@Z PROC				; abort_handler

; 1088 : {

	sub	rsp, 88					; 00000058H

; 1002 :     Debug.backend(

	lea	rax, OFFSET FLAT:??_C@_0N@EHAENDPC@handler_base@
	xor	r9d, r9d
	mov	QWORD PTR [rsp+56], rax
	lea	r8, OFFSET FLAT:??_C@_0BI@OHJGHNOI@application?5is?5aborting@
	lea	rax, OFFSET FLAT:??_C@_0EM@BLODLGLA@C?3?2Users?2Mahito?2Desktop?2Night?5o@
	mov	DWORD PTR [rsp+48], 1007		; 000003efH
	xor	edx, edx
	mov	QWORD PTR [rsp+40], rax
	lea	rcx, OFFSET FLAT:?Debug@@3VxrDebug@@A	; Debug
	call	?backend@xrDebug@@QEAAXPEBD0000H0AEA_N@Z ; xrDebug::backend

; 1089 :     handler_base("application is aborting");
; 1090 : }

	add	rsp, 88					; 00000058H
	ret	0
?abort_handler@@YAXH@Z ENDP				; abort_handler
_TEXT	ENDS
; Function compile flags: /Ogtpy
; File C:\Users\Mahito\Desktop\Night outing\Night-outing\src\xrCore\xrDebugNew.cpp
_TEXT	SEGMENT
signal$ = 96
?floating_point_handler@@YAXH@Z PROC			; floating_point_handler

; 1093 : {

	sub	rsp, 88					; 00000058H

; 1002 :     Debug.backend(

	lea	rax, OFFSET FLAT:??_C@_0N@EHAENDPC@handler_base@
	xor	r9d, r9d
	mov	QWORD PTR [rsp+56], rax
	lea	r8, OFFSET FLAT:??_C@_0BF@MPPFDAJ@floating?5point?5error@
	lea	rax, OFFSET FLAT:??_C@_0EM@BLODLGLA@C?3?2Users?2Mahito?2Desktop?2Night?5o@
	mov	DWORD PTR [rsp+48], 1007		; 000003efH
	xor	edx, edx
	mov	QWORD PTR [rsp+40], rax
	lea	rcx, OFFSET FLAT:?Debug@@3VxrDebug@@A	; Debug
	call	?backend@xrDebug@@QEAAXPEBD0000H0AEA_N@Z ; xrDebug::backend

; 1094 :     handler_base("floating point error");
; 1095 : }

	add	rsp, 88					; 00000058H
	ret	0
?floating_point_handler@@YAXH@Z ENDP			; floating_point_handler
_TEXT	ENDS
; Function compile flags: /Ogtpy
; File C:\Users\Mahito\Desktop\Night outing\Night-outing\src\xrCore\xrDebugNew.cpp
_TEXT	SEGMENT
signal$ = 96
?illegal_instruction_handler@@YAXH@Z PROC		; illegal_instruction_handler

; 1098 : {

	sub	rsp, 88					; 00000058H

; 1002 :     Debug.backend(

	lea	rax, OFFSET FLAT:??_C@_0N@EHAENDPC@handler_base@
	xor	r9d, r9d
	mov	QWORD PTR [rsp+56], rax
	lea	r8, OFFSET FLAT:??_C@_0BE@NBCBCANC@illegal?5instruction@
	lea	rax, OFFSET FLAT:??_C@_0EM@BLODLGLA@C?3?2Users?2Mahito?2Desktop?2Night?5o@
	mov	DWORD PTR [rsp+48], 1007		; 000003efH
	xor	edx, edx
	mov	QWORD PTR [rsp+40], rax
	lea	rcx, OFFSET FLAT:?Debug@@3VxrDebug@@A	; Debug
	call	?backend@xrDebug@@QEAAXPEBD0000H0AEA_N@Z ; xrDebug::backend

; 1099 :     handler_base("illegal instruction");
; 1100 : }

	add	rsp, 88					; 00000058H
	ret	0
?illegal_instruction_handler@@YAXH@Z ENDP		; illegal_instruction_handler
_TEXT	ENDS
; Function compile flags: /Ogtpy
; File C:\Users\Mahito\Desktop\Night outing\Night-outing\src\xrCore\xrDebugNew.cpp
_TEXT	SEGMENT
signal$ = 96
?termination_handler@@YAXH@Z PROC			; termination_handler

; 1108 : {

	sub	rsp, 88					; 00000058H

; 1002 :     Debug.backend(

	lea	rax, OFFSET FLAT:??_C@_0N@EHAENDPC@handler_base@
	xor	r9d, r9d
	mov	QWORD PTR [rsp+56], rax
	lea	r8, OFFSET FLAT:??_C@_0BN@OOLFPALA@termination?5with?5exit?5code?53@
	lea	rax, OFFSET FLAT:??_C@_0EM@BLODLGLA@C?3?2Users?2Mahito?2Desktop?2Night?5o@
	mov	DWORD PTR [rsp+48], 1007		; 000003efH
	xor	edx, edx
	mov	QWORD PTR [rsp+40], rax
	lea	rcx, OFFSET FLAT:?Debug@@3VxrDebug@@A	; Debug
	call	?backend@xrDebug@@QEAAXPEBD0000H0AEA_N@Z ; xrDebug::backend

; 1109 :     handler_base("termination with exit code 3");
; 1110 : }

	add	rsp, 88					; 00000058H
	ret	0
?termination_handler@@YAXH@Z ENDP			; termination_handler
_TEXT	ENDS
; Function compile flags: /Ogtpy
; File C:\Users\Mahito\Desktop\Night outing\Night-outing\src\xrCore\xrDebugNew.cpp
_TEXT	SEGMENT
?debug_on_thread_spawn@@YAXXZ PROC			; debug_on_thread_spawn

; 1113 : {

$LN4:
	sub	rsp, 40					; 00000028H

; 1114 : #ifdef USE_BUG_TRAP
; 1115 :     BT_SetTerminate();
; 1116 : #else // USE_BUG_TRAP
; 1117 :     //std::set_terminate (_terminate);
; 1118 : #endif // USE_BUG_TRAP
; 1119 : 
; 1120 :     _set_abort_behavior(0, _WRITE_ABORT_MSG | _CALL_REPORTFAULT);

	mov	edx, 3
	xor	ecx, ecx
	call	QWORD PTR __imp__set_abort_behavior

; 1121 :     signal(SIGABRT, abort_handler);

	lea	rdx, OFFSET FLAT:?abort_handler@@YAXH@Z	; abort_handler
	mov	ecx, 22
	call	QWORD PTR __imp_signal

; 1122 :     signal(SIGABRT_COMPAT, abort_handler);

	lea	rdx, OFFSET FLAT:?abort_handler@@YAXH@Z	; abort_handler
	mov	ecx, 6
	call	QWORD PTR __imp_signal

; 1123 :     signal(SIGFPE, floating_point_handler);

	lea	rdx, OFFSET FLAT:?floating_point_handler@@YAXH@Z ; floating_point_handler
	mov	ecx, 8
	call	QWORD PTR __imp_signal

; 1124 :     signal(SIGILL, illegal_instruction_handler);

	lea	rdx, OFFSET FLAT:?illegal_instruction_handler@@YAXH@Z ; illegal_instruction_handler
	mov	ecx, 4
	call	QWORD PTR __imp_signal

; 1125 :     signal(SIGINT, 0);

	xor	edx, edx
	lea	ecx, QWORD PTR [rdx+2]
	call	QWORD PTR __imp_signal

; 1126 :     // signal (SIGSEGV, storage_access_handler);
; 1127 :     signal(SIGTERM, termination_handler);

	lea	rdx, OFFSET FLAT:?termination_handler@@YAXH@Z ; termination_handler
	mov	ecx, 15
	call	QWORD PTR __imp_signal

; 1128 : 
; 1129 :     _set_invalid_parameter_handler(&invalid_parameter_handler);

	lea	rcx, OFFSET FLAT:?invalid_parameter_handler@@YAXPEB_W00I_K@Z ; invalid_parameter_handler
	call	QWORD PTR __imp__set_invalid_parameter_handler

; 1130 : 
; 1131 :     _set_new_mode(1);

	mov	ecx, 1
	call	QWORD PTR __imp__set_new_mode

; 1132 :     _set_new_handler(&out_of_memory_handler);

	lea	rcx, OFFSET FLAT:?out_of_memory_handler@@YAH_K@Z ; out_of_memory_handler
	call	QWORD PTR __imp__set_new_handler

; 1133 :     // std::set_new_handler (&std_out_of_memory_handler);
; 1134 : 
; 1135 :     _set_purecall_handler(&pure_call_handler);

	lea	rcx, OFFSET FLAT:?pure_call_handler@@YAXXZ ; pure_call_handler

; 1136 : 
; 1137 : #if 0// should be if we use exceptions
; 1138 :     std::set_unexpected(_terminate);
; 1139 : #endif
; 1140 : }

	add	rsp, 40					; 00000028H

; 1133 :     // std::set_new_handler (&std_out_of_memory_handler);
; 1134 : 
; 1135 :     _set_purecall_handler(&pure_call_handler);

	rex_jmp	QWORD PTR __imp__set_purecall_handler
?debug_on_thread_spawn@@YAXXZ ENDP			; debug_on_thread_spawn
_TEXT	ENDS
; Function compile flags: /Ogtpy
; File C:\Users\Mahito\Desktop\Night outing\Night-outing\src\xrCore\_std_extensions.h
;	COMDAT ??$xr_strcpy@$0CAI@@@YAHAEAY0CAI@DPEBD@Z
_TEXT	SEGMENT
destination$ = 8
source$ = 16
??$xr_strcpy@$0CAI@@@YAHAEAY0CAI@DPEBD@Z PROC		; xr_strcpy<520>, COMDAT

; 229  : 	return						strncpy_s( destination, destination_size, source, destination_size );

	mov	r9d, 520				; 00000208H
	mov	r8, rdx
	mov	edx, r9d
	rex_jmp	QWORD PTR __imp_strncpy_s
??$xr_strcpy@$0CAI@@@YAHAEAY0CAI@DPEBD@Z ENDP		; xr_strcpy<520>
_TEXT	ENDS
; Function compile flags: /Ogtpy
; File C:\Users\Mahito\Desktop\Night outing\Night-outing\src\xrCore\_std_extensions.h
;	COMDAT ??$xr_strcat@$0CAI@@@YAHAEAY0CAI@DPEBD@Z
_TEXT	SEGMENT
destination$ = 8
source$ = 16
??$xr_strcat@$0CAI@@@YAHAEAY0CAI@DPEBD@Z PROC		; xr_strcat<520>, COMDAT

; 186  : {	return (u32)strlen(S);			}

	mov	rax, -1
$LL15@xr_strcat:
	inc	rax
	cmp	BYTE PTR [rcx+rax], 0
	jne	SHORT $LL15@xr_strcat

; 236  : 	LPSTR const e				= destination + buffer_size - 1;

	mov	eax, eax
	lea	r8, QWORD PTR [rcx+519]
	add	rax, rcx

; 237  : 	if ( i > e )

	cmp	rax, r8
	ja	SHORT $LN16@xr_strcat

; 238  : 		return					0;
; 239  : 
; 240  : 	for ( LPCSTR j = source; *j && (i != e); ++i, ++j )

	cmp	BYTE PTR [rdx], 0
	je	SHORT $LN5@xr_strcat
	sub	rdx, rax
	npad	7
$LL6@xr_strcat:
	cmp	rax, r8
	je	SHORT $LN5@xr_strcat

; 241  : 		*i						= *j;

	movzx	ecx, BYTE PTR [rdx+rax]
	mov	BYTE PTR [rax], cl
	inc	rax
	cmp	BYTE PTR [rdx+rax], 0
	jne	SHORT $LL6@xr_strcat
$LN5@xr_strcat:

; 242  : 
; 243  : 	*i							= 0;

	mov	BYTE PTR [rax], 0
$LN16@xr_strcat:

; 274  : 	return						xr_strcat( destination, count, source );
; 275  : }

	xor	eax, eax
	ret	0
??$xr_strcat@$0CAI@@@YAHAEAY0CAI@DPEBD@Z ENDP		; xr_strcat<520>
_TEXT	ENDS
; Function compile flags: /Ogtpy
; File C:\Users\Mahito\Desktop\Night outing\Night-outing\src\xrCore\_std_extensions.h
; File C:\Program Files (x86)\Windows Kits\10\Include\10.0.26100.0\ucrt\stdio.h
; File C:\Users\Mahito\Desktop\Night outing\Night-outing\src\xrCore\_std_extensions.h
;	COMDAT ??$xr_sprintf@$0CAI@@@YAHAEAY0CAI@DPEBDZZ
_TEXT	SEGMENT
destination$ = 96
format_string$ = 104
??$xr_sprintf@$0CAI@@@YAHAEAY0CAI@DPEBDZZ PROC		; xr_sprintf<520>, COMDAT

; 256  : {

$LN8:
	mov	QWORD PTR [rsp+16], rdx
	mov	QWORD PTR [rsp+24], r8
	mov	QWORD PTR [rsp+32], r9
	push	rbx
	push	rsi
	push	rdi
	sub	rsp, 64					; 00000040H
	mov	rbx, rdx

; 257  : 	va_list args;
; 258  : 	va_start					( args, format_string);

	lea	rsi, QWORD PTR format_string$[rsp+8]
	mov	rdi, rcx
; File C:\Program Files (x86)\Windows Kits\10\Include\10.0.26100.0\ucrt\stdio.h

; 1578 :         int const _Result = __stdio_common_vsnprintf_s(

	call	__local_stdio_printf_options
	mov	r9d, 519				; 00000207H
	mov	QWORD PTR [rsp+48], rsi
	mov	QWORD PTR [rsp+40], 0
	mov	rdx, rdi
	mov	QWORD PTR [rsp+32], rbx
	mov	rcx, QWORD PTR [rax]
	lea	r8d, QWORD PTR [r9+1]
	call	QWORD PTR __imp___stdio_common_vsnprintf_s

; 1579 :             _CRT_INTERNAL_LOCAL_PRINTF_OPTIONS,
; 1580 :             _Buffer, _BufferCount, _MaxCount, _Format, _Locale, _ArgList);
; 1581 : 
; 1582 :         return _Result < 0 ? -1 : _Result;

	test	eax, eax
	mov	ecx, -1
	cmovs	eax, ecx
; File C:\Users\Mahito\Desktop\Night outing\Night-outing\src\xrCore\_std_extensions.h

; 260  : }

	add	rsp, 64					; 00000040H
	pop	rdi
	pop	rsi
	pop	rbx
	ret	0
??$xr_sprintf@$0CAI@@@YAHAEAY0CAI@DPEBDZZ ENDP		; xr_sprintf<520>
_TEXT	ENDS
; Function compile flags: /Ogtpy
; File C:\Users\Mahito\Desktop\Night outing\Night-outing\src\xrCore\_std_extensions.h
;	COMDAT ??$xr_strcpy@$0BAAA@@@YAHAEAY0BAAA@DPEBD@Z
_TEXT	SEGMENT
destination$ = 8
source$ = 16
??$xr_strcpy@$0BAAA@@@YAHAEAY0BAAA@DPEBD@Z PROC		; xr_strcpy<4096>, COMDAT

; 229  : 	return						strncpy_s( destination, destination_size, source, destination_size );

	mov	r9d, 4096				; 00001000H
	mov	r8, rdx
	mov	edx, r9d
	rex_jmp	QWORD PTR __imp_strncpy_s
??$xr_strcpy@$0BAAA@@@YAHAEAY0BAAA@DPEBD@Z ENDP		; xr_strcpy<4096>
_TEXT	ENDS
; Function compile flags: /Ogtpy
; File C:\Users\Mahito\Desktop\Night outing\Night-outing\src\xrCore\_std_extensions.h
;	COMDAT ?xr_strcat@@YAHPEAD_KPEBD@Z
_TEXT	SEGMENT
destination$ = 8
buffer_size$ = 16
source$ = 24
?xr_strcat@@YAHPEAD_KPEBD@Z PROC			; xr_strcat, COMDAT

; 186  : {	return (u32)strlen(S);			}

	mov	rax, -1
$LL13@xr_strcat:
	inc	rax
	cmp	BYTE PTR [rcx+rax], 0
	jne	SHORT $LL13@xr_strcat

; 234  : 	size_t const destination_length	= xr_strlen(destination);
; 235  : 	LPSTR i						= destination + destination_length;

	dec	rdx
	mov	eax, eax
	add	rax, rcx

; 236  : 	LPSTR const e				= destination + buffer_size - 1;

	add	rdx, rcx

; 237  : 	if ( i > e )

	cmp	rax, rdx
	ja	SHORT $LN15@xr_strcat

; 238  : 		return					0;
; 239  : 
; 240  : 	for ( LPCSTR j = source; *j && (i != e); ++i, ++j )

	cmp	BYTE PTR [r8], 0
	je	SHORT $LN3@xr_strcat
	sub	r8, rax
	npad	7
$LL4@xr_strcat:
	cmp	rax, rdx
	je	SHORT $LN3@xr_strcat

; 241  : 		*i						= *j;

	movzx	ecx, BYTE PTR [r8+rax]
	mov	BYTE PTR [rax], cl
	inc	rax
	cmp	BYTE PTR [r8+rax], 0
	jne	SHORT $LL4@xr_strcat
$LN3@xr_strcat:

; 242  : 
; 243  : 	*i							= 0;

	mov	BYTE PTR [rax], 0
$LN15@xr_strcat:

; 244  : 	return						0;
; 245  : }

	xor	eax, eax
	ret	0
?xr_strcat@@YAHPEAD_KPEBD@Z ENDP			; xr_strcat
_TEXT	ENDS
; Function compile flags: /Ogtpy
; File C:\Users\Mahito\Desktop\Night outing\Night-outing\src\xrCore\_std_extensions.h
;	COMDAT ?xr_strcpy@@YAHPEAD_KPEBD@Z
_TEXT	SEGMENT
destination$ = 8
destination_size$ = 16
source$ = 24
?xr_strcpy@@YAHPEAD_KPEBD@Z PROC			; xr_strcpy, COMDAT

; 229  : 	return						strncpy_s( destination, destination_size, source, destination_size );

	mov	r9, rdx
	rex_jmp	QWORD PTR __imp_strncpy_s
?xr_strcpy@@YAHPEAD_KPEBD@Z ENDP			; xr_strcpy
_TEXT	ENDS
; Function compile flags: /Ogtpy
; File C:\Program Files (x86)\Windows Kits\10\Include\10.0.26100.0\ucrt\string.h
;	COMDAT ?strchr@@YAPEADQEADH@Z
_TEXT	SEGMENT
_String$ = 8
_Ch$ = 16
?strchr@@YAPEADQEADH@Z PROC				; strchr, COMDAT

; 502  :         return const_cast<char*>(strchr(static_cast<char const*>(_String), _Ch));

	rex_jmp	QWORD PTR __imp_strchr
?strchr@@YAPEADQEADH@Z ENDP				; strchr
_TEXT	ENDS
; Function compile flags: /Ogtpy
; File C:\Program Files (x86)\Windows Kits\10\Include\10.0.26100.0\ucrt\stdio.h
;	COMDAT vsprintf
_TEXT	SEGMENT
_Buffer$ = 64
_Format$ = 72
_ArgList$ = 80
vsprintf PROC						; COMDAT

; 1473 :     {

$LN6:
	mov	QWORD PTR [rsp+8], rbx
	mov	QWORD PTR [rsp+16], rsi
	push	rdi
	sub	rsp, 48					; 00000030H
	mov	rbx, r8
	mov	rdi, rdx
	mov	rsi, rcx

; 1392 :         int const _Result = __stdio_common_vsprintf(

	call	__local_stdio_printf_options
	mov	QWORD PTR [rsp+40], rbx
	mov	r9, rdi
	mov	rbx, -1
	mov	QWORD PTR [rsp+32], 0
	mov	r8, rbx
	mov	rdx, rsi
	mov	rcx, QWORD PTR [rax]
	or	rcx, 1
	call	QWORD PTR __imp___stdio_common_vsprintf

; 1474 :         return _vsnprintf_l(_Buffer, (size_t)-1, _Format, NULL, _ArgList);
; 1475 :     }

	mov	rsi, QWORD PTR [rsp+72]

; 1396 :         return _Result < 0 ? -1 : _Result;

	test	eax, eax
	cmovs	eax, ebx

; 1474 :         return _vsnprintf_l(_Buffer, (size_t)-1, _Format, NULL, _ArgList);
; 1475 :     }

	mov	rbx, QWORD PTR [rsp+64]
	add	rsp, 48					; 00000030H
	pop	rdi
	ret	0
vsprintf ENDP
_TEXT	ENDS
; Function compile flags: /Ogtpy
; File C:\Program Files\Microsoft Visual Studio\2022\Community\VC\Tools\MSVC\14.35.32215\include\xstring
;	COMDAT ?c_str@?$basic_string@DU?$char_traits@D@std@@V?$allocator@D@2@@std@@QEBAPEBDXZ
_TEXT	SEGMENT
this$ = 8
?c_str@?$basic_string@DU?$char_traits@D@std@@V?$allocator@D@2@@std@@QEBAPEBDXZ PROC ; std::basic_string<char,std::char_traits<char>,std::allocator<char> >::c_str, COMDAT

; 2300 :         return _BUF_SIZE <= _Myres;

	cmp	QWORD PTR [rcx+24], 16

; 2292 :         if (_Large_string_engaged()) {

	jb	SHORT $LN8@c_str

; 4258 :         return _Mypair._Myval2._Myptr();

	mov	rax, QWORD PTR [rcx]

; 4259 :     }

	ret	0
$LN8@c_str:

; 4258 :         return _Mypair._Myval2._Myptr();

	mov	rax, rcx

; 4259 :     }

	ret	0
?c_str@?$basic_string@DU?$char_traits@D@std@@V?$allocator@D@2@@std@@QEBAPEBDXZ ENDP ; std::basic_string<char,std::char_traits<char>,std::allocator<char> >::c_str
_TEXT	ENDS
END
