; Listing generated by Microsoft (R) Optimizing Compiler Version 19.35.32217.1 

include listing.inc

INCLUDELIB OLDNAMES

PUBLIC	??_C@_0BG@BIILGNAF@xrMemory?3?3mem_realloc@	; `string'
PUBLIC	??_C@_0FF@HLJDNGGG@C?3?2Users?2Mahito?2Desktop?2Night?5o@ ; `string'
PUBLIC	??_C@_0BC@MAGELDOC@Memory?5corruption@		; `string'
PUBLIC	??_C@_0BM@LDNIPMEK@p_current?5?$DM?5mem_pools_count@ ; `string'
EXTRN	__imp__aligned_realloc:PROC
EXTRN	__imp__aligned_msize:PROC
EXTRN	__imp__aligned_free:PROC
EXTRN	__imp__aligned_malloc:PROC
EXTRN	atexit:PROC
;	COMDAT ?ignore_always@?BK@??mem_realloc@xrMemory@@QEAAPEAXPEAX_K@Z@4_NA
_BSS	SEGMENT
?ignore_always@?BK@??mem_realloc@xrMemory@@QEAAPEAXPEAX_K@Z@4_NA DB 01H DUP (?) ; `xrMemory::mem_realloc'::`26'::ignore_always
_BSS	ENDS
;	COMDAT ??_C@_0BM@LDNIPMEK@p_current?5?$DM?5mem_pools_count@
CONST	SEGMENT
??_C@_0BM@LDNIPMEK@p_current?5?$DM?5mem_pools_count@ DB 'p_current < mem_'
	DB	'pools_count', 00H				; `string'
CONST	ENDS
;	COMDAT ??_C@_0BC@MAGELDOC@Memory?5corruption@
CONST	SEGMENT
??_C@_0BC@MAGELDOC@Memory?5corruption@ DB 'Memory corruption', 00H ; `string'
CONST	ENDS
;	COMDAT ??_C@_0FF@HLJDNGGG@C?3?2Users?2Mahito?2Desktop?2Night?5o@
CONST	SEGMENT
??_C@_0FF@HLJDNGGG@C?3?2Users?2Mahito?2Desktop?2Night?5o@ DB 'C:\Users\Ma'
	DB	'hito\Desktop\Night outing\Night-outing\src\xrCore\xrMemory_su'
	DB	'bst_msvc.cpp', 00H				; `string'
CONST	ENDS
;	COMDAT ??_C@_0BG@BIILGNAF@xrMemory?3?3mem_realloc@
CONST	SEGMENT
??_C@_0BG@BIILGNAF@xrMemory?3?3mem_realloc@ DB 'xrMemory::mem_realloc', 00H ; `string'
CONST	ENDS
PUBLIC	?create@MEMPOOL@@QEAAPEAXXZ			; MEMPOOL::create
PUBLIC	?access@MEMPOOL@@AEAAPEAPEAXPEAX@Z		; MEMPOOL::access
PUBLIC	?destroy@MEMPOOL@@QEAAXAEAPEAX@Z		; MEMPOOL::destroy
PUBLIC	?get_element@MEMPOOL@@QEAAIXZ			; MEMPOOL::get_element
PUBLIC	??$_min@I@@YAIII@Z				; _min<unsigned int>
PUBLIC	?mem_realloc@xrMemory@@QEAAPEAXPEAX_K@Z		; xrMemory::mem_realloc
PUBLIC	?get_pool@@YAI_K@Z				; get_pool
PUBLIC	?get_header@@YAIPEAX@Z				; get_header
PUBLIC	?acc_header@@YAPEAEPEAX@Z			; acc_header
PUBLIC	??1MEMPOOL@@QEAA@XZ				; MEMPOOL::~MEMPOOL
PUBLIC	??0MEMPOOL@@QEAA@XZ				; MEMPOOL::MEMPOOL
PUBLIC	?mem_free@xrMemory@@QEAAXPEAX@Z			; xrMemory::mem_free
PUBLIC	?mem_alloc@xrMemory@@QEAAPEAX_K@Z		; xrMemory::mem_alloc
PUBLIC	?mem_pools@@3PAVMEMPOOL@@A			; mem_pools
?mem_pools@@3PAVMEMPOOL@@A DB 0a00H DUP (?)		; mem_pools
_BSS	ENDS
;	COMDAT pdata
pdata	SEGMENT
$pdata$?create@MEMPOOL@@QEAAPEAXXZ DD imagerel $LN9
	DD	imagerel $LN9+71
	DD	imagerel $unwind$?create@MEMPOOL@@QEAAPEAXXZ
pdata	ENDS
;	COMDAT pdata
pdata	SEGMENT
$pdata$?destroy@MEMPOOL@@QEAAXAEAPEAX@Z DD imagerel $LN8
	DD	imagerel $LN8+59
	DD	imagerel $unwind$?destroy@MEMPOOL@@QEAAXAEAPEAX@Z
pdata	ENDS
pdata	SEGMENT
$pdata$?mem_realloc@xrMemory@@QEAAPEAXPEAX_K@Z DD imagerel $LN128
	DD	imagerel $LN128+184
	DD	imagerel $unwind$?mem_realloc@xrMemory@@QEAAPEAXPEAX_K@Z
pdata	ENDS
;	COMDAT pdata
pdata	SEGMENT
$pdata$??1MEMPOOL@@QEAA@XZ DD imagerel $LN29
	DD	imagerel $LN29+51
	DD	imagerel $unwind$??1MEMPOOL@@QEAA@XZ
pdata	ENDS
;	COMDAT pdata
pdata	SEGMENT
$pdata$??0MEMPOOL@@QEAA@XZ DD imagerel $LN46
	DD	imagerel $LN46+47
	DD	imagerel $unwind$??0MEMPOOL@@QEAA@XZ
pdata	ENDS
;	COMDAT pdata
pdata	SEGMENT
$pdata$??__Fmem_pools@@YAXXZ DD imagerel ??__Fmem_pools@@YAXXZ
	DD	imagerel ??__Fmem_pools@@YAXXZ+93
	DD	imagerel $unwind$??__Fmem_pools@@YAXXZ
pdata	ENDS
;	COMDAT pdata
pdata	SEGMENT
$pdata$??__Emem_pools@@YAXXZ DD imagerel ??__Emem_pools@@YAXXZ
	DD	imagerel ??__Emem_pools@@YAXXZ+120
	DD	imagerel $unwind$??__Emem_pools@@YAXXZ
pdata	ENDS
pdata	SEGMENT
$pdata$?mem_alloc@xrMemory@@QEAAPEAX_K@Z DD imagerel $LN32
	DD	imagerel $LN32+64
	DD	imagerel $unwind$?mem_alloc@xrMemory@@QEAAPEAX_K@Z
;	COMDAT xdata
xdata	SEGMENT
$unwind$??__Emem_pools@@YAXXZ DD 040a01H
	DD	06340aH
	DD	07006320aH
xdata	ENDS
;	COMDAT xdata
xdata	SEGMENT
$unwind$??__Fmem_pools@@YAXXZ DD 060f01H
	DD	07640fH
	DD	06340fH
	DD	0700b320fH
xdata	ENDS
;	COMDAT xdata
xdata	SEGMENT
$unwind$??0MEMPOOL@@QEAA@XZ DD 020601H
	DD	030023206H
xdata	ENDS
;	COMDAT xdata
xdata	SEGMENT
$unwind$??1MEMPOOL@@QEAA@XZ DD 020601H
	DD	030023206H
xdata	ENDS
xdata	SEGMENT
$unwind$?mem_realloc@xrMemory@@QEAAPEAXPEAX_K@Z DD 060f01H
	DD	07640fH
	DD	06340fH
	DD	0700b320fH
$unwind$?mem_alloc@xrMemory@@QEAAPEAX_K@Z DD 040a01H
	DD	06340aH
	DD	07006320aH
xdata	ENDS
;	COMDAT xdata
xdata	SEGMENT
$unwind$?destroy@MEMPOOL@@QEAAXAEAPEAX@Z DD 040a01H
	DD	06340aH
	DD	07006320aH
xdata	ENDS
;	COMDAT xdata
xdata	SEGMENT
$unwind$?create@MEMPOOL@@QEAAPEAXXZ DD 040a01H
	DD	06340aH
	DD	07006320aH
_DATA	ENDS
CRT$XCU	SEGMENT
?mem_pools$initializer$@@3P6AXXZEA DQ FLAT:??__Emem_pools@@YAXXZ ; mem_pools$initializer$
CRT$XCU	ENDS
CRT$XCU	ENDS
CRT$XCU	ENDS
CRT$XCU	ENDS
CRT$XCU	ENDS
CRT$XCU	ENDS
; Function compile flags: /Ogtpy
; File C:\Users\Mahito\Desktop\Night outing\Night-outing\src\xrCore\xrMemory_subst_msvc.cpp
_TEXT	SEGMENT
this$ = 48
size$ = 56
?mem_alloc@xrMemory@@QEAAPEAX_K@Z PROC			; xrMemory::mem_alloc

; 38   : {

$LN32:
	mov	QWORD PTR [rsp+8], rbx
	push	rdi
	sub	rsp, 32					; 00000020H

; 39   : 	stat_calls++;

	inc	DWORD PTR [rcx]
	mov	rdi, rdx

; 40   : 
; 41   : #ifdef PURE_ALLOC
; 42   : 	if (g_use_pure_alloc)
; 43   : 	{
; 44   : 		//void* result = malloc(size);
; 45   : 		void* result = _aligned_malloc(size, PURE_MEMORY_ALIGNMENT);

	mov	rcx, rdi
	mov	edx, 16
	call	QWORD PTR __imp__aligned_malloc
	mov	rbx, rax

; 46   : #ifdef PURE_MEMORY_FILL_ZERO
; 47   : 		if (result)

	test	rax, rax
	je	SHORT $LN3@mem_alloc

; 48   : 			memset(result, 0, size);

	mov	r8, rdi
	xor	edx, edx
	mov	rcx, rax
	call	memset

; 49   : #endif // PURE_MEMORY_FILL_ZERO
; 50   : 		return (result);

	mov	rax, rbx
$LN3@mem_alloc:

; 51   : 	}
; 52   : #endif // PURE_ALLOC
; 53   : 
; 54   : 	u32 _footer = debug_mode ? 4 : 0;
; 55   : 	void* _ptr = 0;
; 56   : 
; 57   : 	//
; 58   : 	if (!mem_initialized /*|| debug_mode*/)
; 59   : 	{
; 60   : 		// generic
; 61   : 		// Igor: Reserve 1 byte for xrMemory header
; 62   : 		void* _real = xr_aligned_offset_malloc(1 + size + _footer, 16, 0x1);
; 63   : 		//void* _real = xr_aligned_offset_malloc (size + _footer, 16, 0x1);
; 64   : 		_ptr = (void*)(((u8*)_real) + 1);
; 65   : 		*acc_header(_ptr) = mem_generic;
; 66   : 	}
; 67   : 	else
; 68   : 	{
; 69   : 		// accelerated
; 70   : 		// Igor: Reserve 1 byte for xrMemory header
; 71   : 		u32 pool = get_pool(1 + size + _footer);
; 72   : 		//u32 pool = get_pool (size+_footer);
; 73   : 		if (mem_generic == pool)
; 74   : 		{
; 75   : 			// generic
; 76   : 			// Igor: Reserve 1 byte for xrMemory header
; 77   : 			void* _real = xr_aligned_offset_malloc(1 + size + _footer, 16, 0x1);
; 78   : 			//void* _real = xr_aligned_offset_malloc (size + _footer,16,0x1);
; 79   : 			_ptr = (void*)(((u8*)_real) + 1);
; 80   : 			*acc_header(_ptr) = mem_generic;
; 81   : 		}
; 82   : 		else
; 83   : 		{
; 84   : 			// pooled
; 85   : 			// Igor: Reserve 1 byte for xrMemory header
; 86   : 			// Already reserved when getting pool id
; 87   : 			void* _real = mem_pools[pool].create();
; 88   : 			_ptr = (void*)(((u8*)_real) + 1);
; 89   : 			*acc_header(_ptr) = (u8)pool;
; 90   : 		}
; 91   : 	}
; 92   : 
; 93   : 	memset(_ptr, 0, size);
; 94   : 	return _ptr;
; 95   : }

	mov	rbx, QWORD PTR [rsp+48]
	add	rsp, 32					; 00000020H
	pop	rdi
	ret	0
?mem_alloc@xrMemory@@QEAAPEAX_K@Z ENDP			; xrMemory::mem_alloc
_TEXT	ENDS
; Function compile flags: /Ogtpy
; File C:\Users\Mahito\Desktop\Night outing\Night-outing\src\xrCore\xrMemory_subst_msvc.cpp
_TEXT	SEGMENT
this$dead$ = 8
P$ = 16
?mem_free@xrMemory@@QEAAXPEAX@Z PROC			; xrMemory::mem_free

; 99   : 	stat_calls++;

	inc	DWORD PTR ?Memory@@3VxrMemory@@A

; 100  : 
; 101  : #ifdef PURE_ALLOC
; 102  : 	if (g_use_pure_alloc)
; 103  : 	{
; 104  : 		//free(P);
; 105  : 		_aligned_free(P);

	mov	rcx, rdx
	rex_jmp	QWORD PTR __imp__aligned_free
?mem_free@xrMemory@@QEAAXPEAX@Z ENDP			; xrMemory::mem_free
_TEXT	ENDS
; Function compile flags: /Ogtpy
; File C:\Users\Mahito\Desktop\Night outing\Night-outing\src\xrCore\xrMemory_subst_msvc.cpp
; File C:\Users\Mahito\Desktop\Night outing\Night-outing\src\xrCore\xrSyncronize.cpp
; File C:\Users\Mahito\Desktop\Night outing\Night-outing\src\xrCore\xrMemory_subst_msvc.cpp
;	COMDAT ??__Emem_pools@@YAXXZ
text$di	SEGMENT
??__Emem_pools@@YAXXZ PROC				; `dynamic initializer for 'mem_pools'', COMDAT

; 13   : MEMPOOL mem_pools[mem_pools_count];

	mov	QWORD PTR [rsp+8], rbx
	push	rdi
	sub	rsp, 32					; 00000020H
	lea	rbx, OFFSET FLAT:?mem_pools@@3PAVMEMPOOL@@A ; mem_pools
	mov	edi, 64					; 00000040H
	npad	10
$LL47@dynamic:

; 39   : 	stat_calls++;

	inc	DWORD PTR ?Memory@@3VxrMemory@@A

; 40   : 
; 41   : #ifdef PURE_ALLOC
; 42   : 	if (g_use_pure_alloc)
; 43   : 	{
; 44   : 		//void* result = malloc(size);
; 45   : 		void* result = _aligned_malloc(size, PURE_MEMORY_ALIGNMENT);

	mov	edx, 16
	dec	rdi
	lea	ecx, QWORD PTR [rdx+24]
	call	QWORD PTR __imp__aligned_malloc

; 46   : #ifdef PURE_MEMORY_FILL_ZERO
; 47   : 		if (result)

	test	rax, rax
	je	SHORT $LN17@dynamic
	vpxor	xmm0, xmm0, xmm0

; 48   : 			memset(result, 0, size);

	xor	ecx, ecx
	vmovups	YMMWORD PTR [rax], ymm0
	mov	QWORD PTR [rax+32], rcx
$LN17@dynamic:
; File C:\Users\Mahito\Desktop\Night outing\Night-outing\src\xrCore\xrSyncronize.cpp

; 40   : 	pmutex							= xr_alloc<CRITICAL_SECTION>(1);

	mov	QWORD PTR [rbx], rax

; 41   : 	InitializeCriticalSection		( (CRITICAL_SECTION*)pmutex	);

	mov	rcx, rax
	vzeroupper
	call	QWORD PTR __imp_InitializeCriticalSection
	add	rbx, 40					; 00000028H
	test	rdi, rdi
	jne	SHORT $LL47@dynamic
; File C:\Users\Mahito\Desktop\Night outing\Night-outing\src\xrCore\xrMemory_subst_msvc.cpp

; 13   : MEMPOOL mem_pools[mem_pools_count];

	lea	rcx, OFFSET FLAT:??__Fmem_pools@@YAXXZ	; `dynamic atexit destructor for 'mem_pools''
	mov	rbx, QWORD PTR [rsp+48]
	add	rsp, 32					; 00000020H
	pop	rdi
	jmp	atexit
??__Emem_pools@@YAXXZ ENDP				; `dynamic initializer for 'mem_pools''
text$di	ENDS
; Function compile flags: /Ogtpy
; File C:\Users\Mahito\Desktop\Night outing\Night-outing\src\xrCore\xrSyncronize.cpp
; File C:\Users\Mahito\Desktop\Night outing\Night-outing\src\xrCore\xrMemory.h
; File C:\Users\Mahito\Desktop\Night outing\Night-outing\src\xrCore\xrMemory_subst_msvc.cpp
; File C:\Users\Mahito\Desktop\Night outing\Night-outing\src\xrCore\xrMemory.h
;	COMDAT ??__Fmem_pools@@YAXXZ
text$yd	SEGMENT
??__Fmem_pools@@YAXXZ PROC				; `dynamic atexit destructor for 'mem_pools'', COMDAT
	mov	QWORD PTR [rsp+8], rbx
	mov	QWORD PTR [rsp+16], rsi
	push	rdi
	sub	rsp, 32					; 00000020H
	mov	edi, 64					; 00000040H
	lea	rbx, OFFSET FLAT:?mem_pools@@3PAVMEMPOOL@@A+2560
	xor	esi, esi
	npad	3
$LL37@dynamic:
; File C:\Users\Mahito\Desktop\Night outing\Night-outing\src\xrCore\xrSyncronize.cpp

; 46   : 	DeleteCriticalSection			( (CRITICAL_SECTION*)pmutex	);

	mov	rcx, QWORD PTR [rbx-40]
	lea	rbx, QWORD PTR [rbx-40]
	dec	rdi
	call	QWORD PTR __imp_DeleteCriticalSection
; File C:\Users\Mahito\Desktop\Night outing\Night-outing\src\xrCore\xrMemory.h

; 69   : 	if (P)

	mov	rcx, QWORD PTR [rbx]
	test	rcx, rcx
	je	SHORT $LN14@dynamic
; File C:\Users\Mahito\Desktop\Night outing\Night-outing\src\xrCore\xrMemory_subst_msvc.cpp

; 99   : 	stat_calls++;

	inc	DWORD PTR ?Memory@@3VxrMemory@@A

; 100  : 
; 101  : #ifdef PURE_ALLOC
; 102  : 	if (g_use_pure_alloc)
; 103  : 	{
; 104  : 		//free(P);
; 105  : 		_aligned_free(P);

	call	QWORD PTR __imp__aligned_free
; File C:\Users\Mahito\Desktop\Night outing\Night-outing\src\xrCore\xrMemory.h

; 72   : 		P = NULL;

	mov	QWORD PTR [rbx], rsi
$LN14@dynamic:
	test	rdi, rdi
	jne	SHORT $LL37@dynamic
	mov	rbx, QWORD PTR [rsp+48]
	mov	rsi, QWORD PTR [rsp+56]
	add	rsp, 32					; 00000020H
	pop	rdi
	ret	0
??__Fmem_pools@@YAXXZ ENDP				; `dynamic atexit destructor for 'mem_pools''
text$yd	ENDS
; Function compile flags: /Ogtpy
; File C:\Users\Mahito\Desktop\Night outing\Night-outing\src\xrCore\xrMemory.h
; File C:\Users\Mahito\Desktop\Night outing\Night-outing\src\xrCore\xrSyncronize.cpp
;	COMDAT ??0MEMPOOL@@QEAA@XZ
_TEXT	SEGMENT
this$ = 48
??0MEMPOOL@@QEAA@XZ PROC				; MEMPOOL::MEMPOOL, COMDAT
$LN46:
	push	rbx
	sub	rsp, 32					; 00000020H
	mov	rbx, rcx
; File C:\Users\Mahito\Desktop\Night outing\Night-outing\src\xrCore\xrMemory.h

; 64   : IC T* xr_alloc(u32 count) { return (T*)Memory.mem_alloc(count * sizeof(T)); }

	mov	edx, 40					; 00000028H
	lea	rcx, OFFSET FLAT:?Memory@@3VxrMemory@@A	; Memory
	call	?mem_alloc@xrMemory@@QEAAPEAX_K@Z	; xrMemory::mem_alloc
; File C:\Users\Mahito\Desktop\Night outing\Night-outing\src\xrCore\xrSyncronize.cpp

; 41   : 	InitializeCriticalSection		( (CRITICAL_SECTION*)pmutex	);

	mov	rcx, rax
	mov	QWORD PTR [rbx], rax
	call	QWORD PTR __imp_InitializeCriticalSection
	mov	rax, rbx
	add	rsp, 32					; 00000020H
	pop	rbx
	ret	0
??0MEMPOOL@@QEAA@XZ ENDP				; MEMPOOL::MEMPOOL
_TEXT	ENDS
; Function compile flags: /Ogtpy
; File C:\Users\Mahito\Desktop\Night outing\Night-outing\src\xrCore\xrSyncronize.cpp
; File C:\Users\Mahito\Desktop\Night outing\Night-outing\src\xrCore\xrMemory.h
; File C:\Users\Mahito\Desktop\Night outing\Night-outing\src\xrCore\xrMemory_subst_msvc.cpp
; File C:\Users\Mahito\Desktop\Night outing\Night-outing\src\xrCore\xrMemory.h
;	COMDAT ??1MEMPOOL@@QEAA@XZ
_TEXT	SEGMENT
this$ = 48
??1MEMPOOL@@QEAA@XZ PROC				; MEMPOOL::~MEMPOOL, COMDAT
$LN29:
	push	rbx
	sub	rsp, 32					; 00000020H
	mov	rbx, rcx
; File C:\Users\Mahito\Desktop\Night outing\Night-outing\src\xrCore\xrSyncronize.cpp

; 46   : 	DeleteCriticalSection			( (CRITICAL_SECTION*)pmutex	);

	mov	rcx, QWORD PTR [rcx]
	call	QWORD PTR __imp_DeleteCriticalSection
; File C:\Users\Mahito\Desktop\Night outing\Night-outing\src\xrCore\xrMemory.h

; 69   : 	if (P)

	mov	rcx, QWORD PTR [rbx]
	test	rcx, rcx
	je	SHORT $LN6@MEMPOOL
; File C:\Users\Mahito\Desktop\Night outing\Night-outing\src\xrCore\xrMemory_subst_msvc.cpp

; 99   : 	stat_calls++;

	inc	DWORD PTR ?Memory@@3VxrMemory@@A

; 100  : 
; 101  : #ifdef PURE_ALLOC
; 102  : 	if (g_use_pure_alloc)
; 103  : 	{
; 104  : 		//free(P);
; 105  : 		_aligned_free(P);

	call	QWORD PTR __imp__aligned_free
; File C:\Users\Mahito\Desktop\Night outing\Night-outing\src\xrCore\xrMemory.h

; 72   : 		P = NULL;

	mov	QWORD PTR [rbx], 0
$LN6@MEMPOOL:
	add	rsp, 32					; 00000020H
	pop	rbx
	ret	0
??1MEMPOOL@@QEAA@XZ ENDP				; MEMPOOL::~MEMPOOL
_TEXT	ENDS
; Function compile flags: /Ogtpy
; File C:\Users\Mahito\Desktop\Night outing\Night-outing\src\xrCore\xrMemory_subst_msvc.cpp
;	COMDAT ?acc_header@@YAPEAEPEAX@Z
_TEXT	SEGMENT
P$ = 8
?acc_header@@YAPEAEPEAX@Z PROC				; acc_header, COMDAT

; 18   : 	u8* _P = (u8*)P;
; 19   : 	return _P - 1;

	lea	rax, QWORD PTR [rcx-1]

; 20   : }

	ret	0
?acc_header@@YAPEAEPEAX@Z ENDP				; acc_header
_TEXT	ENDS
; Function compile flags: /Ogtpy
; File C:\Users\Mahito\Desktop\Night outing\Night-outing\src\xrCore\xrMemory_subst_msvc.cpp
;	COMDAT ?get_header@@YAIPEAX@Z
_TEXT	SEGMENT
P$ = 8
?get_header@@YAIPEAX@Z PROC				; get_header, COMDAT

; 22   : ICF u32 get_header(void* P) { return (u32)*acc_header(P); }

	movzx	eax, BYTE PTR [rcx-1]
	ret	0
?get_header@@YAIPEAX@Z ENDP				; get_header
_TEXT	ENDS
; Function compile flags: /Ogtpy
; File C:\Users\Mahito\Desktop\Night outing\Night-outing\src\xrCore\xrMemory_subst_msvc.cpp
;	COMDAT ?get_pool@@YAI_K@Z
_TEXT	SEGMENT
size$ = 8
?get_pool@@YAI_K@Z PROC					; get_pool, COMDAT

; 25   : 	u32 pid = u32(size / mem_pools_ebase);

	shr	rcx, 5

; 26   : 	if (pid >= mem_pools_count) return mem_generic;

	mov	eax, 65					; 00000041H
	cmp	ecx, 64					; 00000040H
	cmovae	ecx, eax
	mov	eax, ecx

; 27   : 	else return pid;
; 28   : }

	ret	0
?get_pool@@YAI_K@Z ENDP					; get_pool
_TEXT	ENDS
; Function compile flags: /Ogtpy
; File C:\Users\Mahito\Desktop\Night outing\Night-outing\src\xrCore\xrMemory_subst_msvc.cpp
_TEXT	SEGMENT
this$dead$ = 48
P$ = 56
size$ = 64
?mem_realloc@xrMemory@@QEAAPEAXPEAX_K@Z PROC		; xrMemory::mem_realloc

; 127  : {

$LN128:
	mov	QWORD PTR [rsp+8], rbx
	mov	QWORD PTR [rsp+16], rsi
	push	rdi
	sub	rsp, 32					; 00000020H

; 128  : 	stat_calls++;

	mov	eax, DWORD PTR ?Memory@@3VxrMemory@@A
	mov	rsi, rdx
	inc	eax
	mov	rbx, r8

; 129  : 
; 130  : 	if (0 == P)

	test	rdx, rdx
	mov	DWORD PTR ?Memory@@3VxrMemory@@A, eax
	mov	edx, 16
	jne	SHORT $LN5@mem_reallo

; 39   : 	stat_calls++;

	inc	eax

; 40   : 
; 41   : #ifdef PURE_ALLOC
; 42   : 	if (g_use_pure_alloc)
; 43   : 	{
; 44   : 		//void* result = malloc(size);
; 45   : 		void* result = _aligned_malloc(size, PURE_MEMORY_ALIGNMENT);

	mov	rcx, rbx
	mov	DWORD PTR ?Memory@@3VxrMemory@@A, eax
	call	QWORD PTR __imp__aligned_malloc
	mov	rdi, rax

; 46   : #ifdef PURE_MEMORY_FILL_ZERO
; 47   : 		if (result)

	test	rax, rax
	je	SHORT $LN23@mem_reallo

; 48   : 			memset(result, 0, size);

	mov	r8, rbx
	xor	edx, edx
	mov	rcx, rax
	call	memset
$LN23@mem_reallo:

; 131  : 	{
; 132  : 		return mem_alloc(size

	mov	rax, rdi

; 152  : #endif // PURE_MEMORY_FILL_ZERO
; 153  : 
; 154  : 		return (result);
; 155  : 	}
; 156  : #endif // PURE_ALLOC
; 157  : 
; 158  : 	u32 p_current = get_header(P);
; 159  : 	// Igor: Reserve 1 byte for xrMemory header
; 160  : 	u32 p_new = get_pool(1 + size + (debug_mode ? 4 : 0));
; 161  : 	//u32 p_new = get_pool (size+(debug_mode?4:0));
; 162  : 	u32 p_mode;
; 163  : 
; 164  : 	if (mem_generic == p_current)
; 165  : 	{
; 166  : 		if (p_new < p_current) p_mode = 2;
; 167  : 		else p_mode = 0;
; 168  : 	}
; 169  : 	else p_mode = 1;
; 170  : 
; 171  : 	void* _real = (void*)(((u8*)P) - 1);
; 172  : 	void* _ptr = NULL;
; 173  : 	if (0 == p_mode)
; 174  : 	{
; 175  : 		u32 _footer = debug_mode ? 4 : 0;
; 176  : 		// Igor: Reserve 1 byte for xrMemory header
; 177  : 		void* _real2 = xr_aligned_offset_realloc(_real, 1 + size + _footer, 16, 0x1);
; 178  : 		//void* _real2 = xr_aligned_offset_realloc (_real,size+_footer,16,0x1);
; 179  : 		_ptr = (void*)(((u8*)_real2) + 1);
; 180  : 		*acc_header(_ptr) = mem_generic;
; 181  : 	}
; 182  : 	else if (1 == p_mode)
; 183  : 	{
; 184  : 		// pooled realloc
; 185  : 		R_ASSERT2(p_current < mem_pools_count, "Memory corruption");
; 186  : 		u32 s_current = mem_pools[p_current].get_element();
; 187  : 		u32 s_dest = (u32)size;
; 188  : 		void* p_old = P;
; 189  : 
; 190  : 		void* p_new = mem_alloc(size);
; 191  : 		// Igor: Reserve 1 byte for xrMemory header
; 192  : 		// Don't bother in this case?
; 193  : 		mem_copy(p_new, p_old, _min(s_current - 1, s_dest));
; 194  : 		//mem_copy (p_new,p_old,_min(s_current,s_dest));
; 195  : 		mem_free(p_old);
; 196  : 		_ptr = p_new;
; 197  : 	}
; 198  : 	else if (2 == p_mode)
; 199  : 	{
; 200  : 		// relocate into another mmgr(pooled) from real
; 201  : 		void* p_old = P;
; 202  : 		void* p_new = mem_alloc(size);
; 203  : 		mem_copy(p_new, p_old, (u32)size);
; 204  : 		mem_free(p_old);
; 205  : 		_ptr = p_new;
; 206  : 	}
; 207  : 
; 208  : 	return _ptr;
; 209  : }

	mov	rbx, QWORD PTR [rsp+48]
	mov	rsi, QWORD PTR [rsp+56]
	add	rsp, 32					; 00000020H
	pop	rdi
	ret	0
$LN5@mem_reallo:

; 133  : # ifdef DEBUG_MEMORY_NAME
; 134  : 			, _name
; 135  : # endif // DEBUG_MEMORY_NAME
; 136  : 		);
; 137  : 	}
; 138  : 
; 139  : #ifdef PURE_ALLOC
; 140  : 	if (g_use_pure_alloc)
; 141  : 	{
; 142  : #ifdef PURE_MEMORY_FILL_ZERO
; 143  : 		size_t old_size = P ? _aligned_msize(P, PURE_MEMORY_ALIGNMENT, 0) : 0;

	xor	r8d, r8d
	mov	rcx, rsi
	call	QWORD PTR __imp__aligned_msize

; 144  : #endif // PURE_MEMORY_FILL_ZERO
; 145  : 
; 146  : 		//void* result = realloc(P, size);
; 147  : 		void* result = _aligned_realloc(P, size, PURE_MEMORY_ALIGNMENT);

	mov	r8d, 16
	mov	rdx, rbx
	mov	rcx, rsi
	mov	rdi, rax
	call	QWORD PTR __imp__aligned_realloc
	mov	rsi, rax

; 148  : 
; 149  : #ifdef PURE_MEMORY_FILL_ZERO
; 150  : 		if (result && size > old_size)

	test	rax, rax
	je	SHORT $LN7@mem_reallo
	cmp	rbx, rdi
	jbe	SHORT $LN7@mem_reallo

; 151  : 			memset((u8*)result + old_size, 0, size - old_size);

	sub	rbx, rdi
	lea	rcx, QWORD PTR [rax+rdi]
	mov	r8, rbx
	xor	edx, edx
	call	memset
$LN7@mem_reallo:

; 152  : #endif // PURE_MEMORY_FILL_ZERO
; 153  : 
; 154  : 		return (result);
; 155  : 	}
; 156  : #endif // PURE_ALLOC
; 157  : 
; 158  : 	u32 p_current = get_header(P);
; 159  : 	// Igor: Reserve 1 byte for xrMemory header
; 160  : 	u32 p_new = get_pool(1 + size + (debug_mode ? 4 : 0));
; 161  : 	//u32 p_new = get_pool (size+(debug_mode?4:0));
; 162  : 	u32 p_mode;
; 163  : 
; 164  : 	if (mem_generic == p_current)
; 165  : 	{
; 166  : 		if (p_new < p_current) p_mode = 2;
; 167  : 		else p_mode = 0;
; 168  : 	}
; 169  : 	else p_mode = 1;
; 170  : 
; 171  : 	void* _real = (void*)(((u8*)P) - 1);
; 172  : 	void* _ptr = NULL;
; 173  : 	if (0 == p_mode)
; 174  : 	{
; 175  : 		u32 _footer = debug_mode ? 4 : 0;
; 176  : 		// Igor: Reserve 1 byte for xrMemory header
; 177  : 		void* _real2 = xr_aligned_offset_realloc(_real, 1 + size + _footer, 16, 0x1);
; 178  : 		//void* _real2 = xr_aligned_offset_realloc (_real,size+_footer,16,0x1);
; 179  : 		_ptr = (void*)(((u8*)_real2) + 1);
; 180  : 		*acc_header(_ptr) = mem_generic;
; 181  : 	}
; 182  : 	else if (1 == p_mode)
; 183  : 	{
; 184  : 		// pooled realloc
; 185  : 		R_ASSERT2(p_current < mem_pools_count, "Memory corruption");
; 186  : 		u32 s_current = mem_pools[p_current].get_element();
; 187  : 		u32 s_dest = (u32)size;
; 188  : 		void* p_old = P;
; 189  : 
; 190  : 		void* p_new = mem_alloc(size);
; 191  : 		// Igor: Reserve 1 byte for xrMemory header
; 192  : 		// Don't bother in this case?
; 193  : 		mem_copy(p_new, p_old, _min(s_current - 1, s_dest));
; 194  : 		//mem_copy (p_new,p_old,_min(s_current,s_dest));
; 195  : 		mem_free(p_old);
; 196  : 		_ptr = p_new;
; 197  : 	}
; 198  : 	else if (2 == p_mode)
; 199  : 	{
; 200  : 		// relocate into another mmgr(pooled) from real
; 201  : 		void* p_old = P;
; 202  : 		void* p_new = mem_alloc(size);
; 203  : 		mem_copy(p_new, p_old, (u32)size);
; 204  : 		mem_free(p_old);
; 205  : 		_ptr = p_new;
; 206  : 	}
; 207  : 
; 208  : 	return _ptr;
; 209  : }

	mov	rbx, QWORD PTR [rsp+48]
	mov	rax, rsi
	mov	rsi, QWORD PTR [rsp+56]
	add	rsp, 32					; 00000020H
	pop	rdi
	ret	0
?mem_realloc@xrMemory@@QEAAPEAXPEAX_K@Z ENDP		; xrMemory::mem_realloc
_TEXT	ENDS
; Function compile flags: /Ogtpy
; File C:\Users\Mahito\Desktop\Night outing\Night-outing\src\xrCore\_std_extensions.h
;	COMDAT ??$_min@I@@YAIII@Z
_TEXT	SEGMENT
a$ = 8
b$ = 16
??$_min@I@@YAIII@Z PROC					; _min<unsigned int>, COMDAT

; 104  : template <class T>	IC T		_min	(T a, T b)	{ return a<b?a:b;	}

	cmp	ecx, edx
	cmovb	edx, ecx
	mov	eax, edx
	ret	0
??$_min@I@@YAIII@Z ENDP					; _min<unsigned int>
_TEXT	ENDS
; Function compile flags: /Ogtpy
; File C:\Users\Mahito\Desktop\Night outing\Night-outing\src\xrCore\xrMemory_POOL.h
;	COMDAT ?get_element@MEMPOOL@@QEAAIXZ
_TEXT	SEGMENT
this$ = 8
?get_element@MEMPOOL@@QEAAIXZ PROC			; MEMPOOL::get_element, COMDAT

; 22   : 	ICF u32				get_element		()	{ return s_element; }

	mov	eax, DWORD PTR [rcx+12]
	ret	0
?get_element@MEMPOOL@@QEAAIXZ ENDP			; MEMPOOL::get_element
_TEXT	ENDS
; Function compile flags: /Ogtpy
; File C:\Users\Mahito\Desktop\Night outing\Night-outing\src\xrCore\xrMemory_POOL.h
; File C:\Users\Mahito\Desktop\Night outing\Night-outing\src\xrCore\xrSyncronize.cpp
; File C:\Users\Mahito\Desktop\Night outing\Night-outing\src\xrCore\xrMemory_POOL.h
; File C:\Users\Mahito\Desktop\Night outing\Night-outing\src\xrCore\xrSyncronize.cpp
; File C:\Users\Mahito\Desktop\Night outing\Night-outing\src\xrCore\xrMemory_POOL.h
; File C:\Users\Mahito\Desktop\Night outing\Night-outing\src\xrCore\xrSyncronize.cpp
; File C:\Users\Mahito\Desktop\Night outing\Night-outing\src\xrCore\xrMemory_POOL.h
;	COMDAT ?destroy@MEMPOOL@@QEAAXAEAPEAX@Z
_TEXT	SEGMENT
this$ = 48
P$ = 56
?destroy@MEMPOOL@@QEAAXAEAPEAX@Z PROC			; MEMPOOL::destroy, COMDAT

; 35   : 	{

$LN8:
	mov	QWORD PTR [rsp+8], rbx
	push	rdi
	sub	rsp, 32					; 00000020H
	mov	rdi, rcx
	mov	rbx, rdx
; File C:\Users\Mahito\Desktop\Night outing\Night-outing\src\xrCore\xrSyncronize.cpp

; 64   : 	EnterCriticalSection			( (CRITICAL_SECTION*)pmutex );

	mov	rcx, QWORD PTR [rcx]
	call	QWORD PTR __imp_EnterCriticalSection
; File C:\Users\Mahito\Desktop\Night outing\Night-outing\src\xrCore\xrMemory_POOL.h

; 37   : 		*access(P)		= list;

	mov	rdx, QWORD PTR [rbx]
	mov	rax, QWORD PTR [rdi+32]
	mov	QWORD PTR [rdx], rax
; File C:\Users\Mahito\Desktop\Night outing\Night-outing\src\xrCore\xrSyncronize.cpp

; 69   : 	LeaveCriticalSection			( (CRITICAL_SECTION*)pmutex );

	mov	rcx, QWORD PTR [rdi]
; File C:\Users\Mahito\Desktop\Night outing\Night-outing\src\xrCore\xrMemory_POOL.h

; 38   : 		list			= (u8*)P;

	mov	QWORD PTR [rdi+32], rdx

; 40   : 	}

	mov	rbx, QWORD PTR [rsp+48]
	add	rsp, 32					; 00000020H
	pop	rdi
; File C:\Users\Mahito\Desktop\Night outing\Night-outing\src\xrCore\xrSyncronize.cpp

; 69   : 	LeaveCriticalSection			( (CRITICAL_SECTION*)pmutex );

	rex_jmp	QWORD PTR __imp_LeaveCriticalSection
?destroy@MEMPOOL@@QEAAXAEAPEAX@Z ENDP			; MEMPOOL::destroy
_TEXT	ENDS
; Function compile flags: /Ogtpy
; File C:\Users\Mahito\Desktop\Night outing\Night-outing\src\xrCore\xrMemory_POOL.h
;	COMDAT ?access@MEMPOOL@@AEAAPEAPEAXPEAX@Z
_TEXT	SEGMENT
this$dead$ = 8
P$ = 16
?access@MEMPOOL@@AEAAPEAPEAXPEAX@Z PROC			; MEMPOOL::access, COMDAT

; 16   : 	ICF void**			access			(void* P)	{ return (void**) ((void*)(P));	}

	mov	rax, rdx
	ret	0
?access@MEMPOOL@@AEAAPEAPEAXPEAX@Z ENDP			; MEMPOOL::access
_TEXT	ENDS
; Function compile flags: /Ogtpy
; File C:\Users\Mahito\Desktop\Night outing\Night-outing\src\xrCore\xrMemory_POOL.h
; File C:\Users\Mahito\Desktop\Night outing\Night-outing\src\xrCore\xrSyncronize.cpp
; File C:\Users\Mahito\Desktop\Night outing\Night-outing\src\xrCore\xrMemory_POOL.h
; File C:\Users\Mahito\Desktop\Night outing\Night-outing\src\xrCore\xrSyncronize.cpp
; File C:\Users\Mahito\Desktop\Night outing\Night-outing\src\xrCore\xrMemory_POOL.h
;	COMDAT ?create@MEMPOOL@@QEAAPEAXXZ
_TEXT	SEGMENT
this$ = 48
?create@MEMPOOL@@QEAAPEAXXZ PROC			; MEMPOOL::create, COMDAT

; 25   : 	{

$LN9:
	mov	QWORD PTR [rsp+8], rbx
	push	rdi
	sub	rsp, 32					; 00000020H
	mov	rdi, rcx
; File C:\Users\Mahito\Desktop\Night outing\Night-outing\src\xrCore\xrSyncronize.cpp

; 64   : 	EnterCriticalSection			( (CRITICAL_SECTION*)pmutex );

	mov	rcx, QWORD PTR [rcx]
	call	QWORD PTR __imp_EnterCriticalSection
; File C:\Users\Mahito\Desktop\Night outing\Night-outing\src\xrCore\xrMemory_POOL.h

; 27   : 		if (0==list)	block_create();

	cmp	QWORD PTR [rdi+32], 0
	jne	SHORT $LN2@create
	mov	rcx, rdi
	call	?block_create@MEMPOOL@@AEAAXXZ		; MEMPOOL::block_create
$LN2@create:

; 28   : 
; 29   : 		void* E			= list;

	mov	rbx, QWORD PTR [rdi+32]

; 30   : 		list			= (u8*)*access(list);

	mov	rcx, QWORD PTR [rbx]
	mov	QWORD PTR [rdi+32], rcx
; File C:\Users\Mahito\Desktop\Night outing\Night-outing\src\xrCore\xrSyncronize.cpp

; 69   : 	LeaveCriticalSection			( (CRITICAL_SECTION*)pmutex );

	mov	rcx, QWORD PTR [rdi]
	call	QWORD PTR __imp_LeaveCriticalSection
; File C:\Users\Mahito\Desktop\Night outing\Night-outing\src\xrCore\xrMemory_POOL.h

; 32   : 		return			E;

	mov	rax, rbx

; 33   : 	}

	mov	rbx, QWORD PTR [rsp+48]
	add	rsp, 32					; 00000020H
	pop	rdi
	ret	0
?create@MEMPOOL@@QEAAPEAXXZ ENDP			; MEMPOOL::create
_TEXT	ENDS
END
