; Listing generated by Microsoft (R) Optimizing Compiler Version 19.35.32217.1 

include listing.inc

INCLUDELIB OLDNAMES

EXTRN	__imp_free:PROC
EXTRN	__imp__expand:PROC
EXTRN	__imp__msize:PROC
EXTRN	__imp_malloc:PROC
PUBLIC	?xr_aligned_offset_malloc@@YAPEAX_K00@Z		; xr_aligned_offset_malloc
PUBLIC	?xr_aligned_free@@YAXPEAX@Z			; xr_aligned_free
PUBLIC	?xr_aligned_offset_realloc@@YAPEAXPEAX_K11@Z	; xr_aligned_offset_realloc
pdata	SEGMENT
$pdata$?xr_aligned_offset_malloc@@YAPEAX_K00@Z DD imagerel $LN9
	DD	imagerel $LN9+36
	DD	imagerel $unwind$?xr_aligned_offset_malloc@@YAPEAX_K00@Z
$pdata$1$?xr_aligned_offset_malloc@@YAPEAX_K00@Z DD imagerel $LN9+36
	DD	imagerel $LN9+125
	DD	imagerel $chain$1$?xr_aligned_offset_malloc@@YAPEAX_K00@Z
$pdata$3$?xr_aligned_offset_malloc@@YAPEAX_K00@Z DD imagerel $LN9+125
	DD	imagerel $LN9+172
	DD	imagerel $chain$3$?xr_aligned_offset_malloc@@YAPEAX_K00@Z
$pdata$?xr_aligned_offset_realloc@@YAPEAXPEAX_K11@Z DD imagerel $LN27
	DD	imagerel $LN27+168
	DD	imagerel $unwind$?xr_aligned_offset_realloc@@YAPEAXPEAX_K11@Z
$pdata$3$?xr_aligned_offset_realloc@@YAPEAXPEAX_K11@Z DD imagerel $LN27+168
	DD	imagerel $LN27+460
	DD	imagerel $chain$3$?xr_aligned_offset_realloc@@YAPEAXPEAX_K11@Z
$pdata$4$?xr_aligned_offset_realloc@@YAPEAXPEAX_K11@Z DD imagerel $LN27+460
	DD	imagerel $LN27+480
	DD	imagerel $chain$4$?xr_aligned_offset_realloc@@YAPEAXPEAX_K11@Z
xdata	SEGMENT
$unwind$?xr_aligned_offset_malloc@@YAPEAX_K00@Z DD 020601H
	DD	030023206H
$chain$1$?xr_aligned_offset_malloc@@YAPEAX_K00@Z DD 040a21H
	DD	07740aH
	DD	066405H
	DD	imagerel $LN9
	DD	imagerel $LN9+36
	DD	imagerel $unwind$?xr_aligned_offset_malloc@@YAPEAX_K00@Z
$chain$3$?xr_aligned_offset_malloc@@YAPEAX_K00@Z DD 040021H
	DD	077400H
	DD	066400H
	DD	imagerel $LN9
	DD	imagerel $LN9+36
	DD	imagerel $unwind$?xr_aligned_offset_malloc@@YAPEAX_K00@Z
$unwind$?xr_aligned_offset_realloc@@YAPEAXPEAX_K11@Z DD 098701H
	DD	0fd487H
	DD	0d547bH
	DD	0e006620aH
	DD	060037004H
	DD	03002H
$chain$3$?xr_aligned_offset_realloc@@YAPEAXPEAX_K11@Z DD 040d21H
	DD	06f40dH
	DD	0ec405H
	DD	imagerel $LN27
	DD	imagerel $LN27+168
	DD	imagerel $unwind$?xr_aligned_offset_realloc@@YAPEAXPEAX_K11@Z
$chain$4$?xr_aligned_offset_realloc@@YAPEAXPEAX_K11@Z DD 021H
	DD	imagerel $LN27
	DD	imagerel $LN27+168
	DD	imagerel $unwind$?xr_aligned_offset_realloc@@YAPEAXPEAX_K11@Z
; Function compile flags: /Ogtpy
; File C:\Users\Mahito\Desktop\Night outing\Night-outing\src\xrCore\xrMemory_align.cpp
_TEXT	SEGMENT
diff$1$ = 32
movsz$2$ = 40
align$2$ = 96
memblock$ = 96
size$ = 104
align$ = 112
offset$ = 120
?xr_aligned_offset_realloc@@YAPEAXPEAX_K11@Z PROC	; xr_aligned_offset_realloc

; 169  : {

$LN27:
	push	rbx
	push	rsi
	push	rdi
	push	r14
	sub	rsp, 56					; 00000038H

; 170  : 	uintptr_t ptr, retptr, gap, stptr, diff;
; 171  : 	uintptr_t movsz, reqsz;
; 172  : 	int bFree = 0;

	xor	r14d, r14d
	mov	rsi, r9
	mov	r9, r8
	mov	rdi, rdx
	mov	rbx, rcx

; 173  : 
; 174  : 	if (memblock == NULL)

	test	rcx, rcx
	jne	SHORT $LN2@xr_aligned

; 175  : 	{
; 176  : 		return xr_aligned_offset_malloc(size, align, offset);

	mov	r8, rsi
	mov	rdx, r9
	mov	rcx, rdi

; 255  : }

	add	rsp, 56					; 00000038H
	pop	r14
	pop	rdi
	pop	rsi
	pop	rbx

; 175  : 	{
; 176  : 		return xr_aligned_offset_malloc(size, align, offset);

	jmp	?xr_aligned_offset_malloc@@YAPEAX_K00@Z	; xr_aligned_offset_malloc
$LN2@xr_aligned:

; 177  : 	}
; 178  : 	if (size == 0)

	test	rdi, rdi
	jne	SHORT $LN3@xr_aligned

; 283  : 	ptr = (ptr & ~(PTR_SZ - 1)) - PTR_SZ;

	and	rbx, -8

; 284  : 
; 285  : 	/* ptr is the pointer to the start of memory block*/
; 286  : 	ptr = *((uintptr_t*)ptr);
; 287  : 	free((void*)ptr);

	mov	rcx, QWORD PTR [rbx-8]
	call	QWORD PTR __imp_free

; 179  : 	{
; 180  : 		xr_aligned_free(memblock);
; 181  : 		return NULL;

	xor	eax, eax

; 255  : }

	add	rsp, 56					; 00000038H
	pop	r14
	pop	rdi
	pop	rsi
	pop	rbx
	ret	0
$LN3@xr_aligned:

; 182  : 	}
; 183  : 	if (offset >= size && offset != 0)

	cmp	rsi, rdi
	jb	SHORT $LN4@xr_aligned
	test	rsi, rsi
	je	SHORT $LN4@xr_aligned

; 184  : 	{
; 185  : 		errno = EINVAL;

	call	QWORD PTR __imp__errno
	mov	DWORD PTR [rax], 22

; 186  : 		return NULL;

	xor	eax, eax

; 255  : }

	add	rsp, 56					; 00000038H
	pop	r14
	pop	rdi
	pop	rsi
	pop	rbx
	ret	0
$LN4@xr_aligned:
	mov	QWORD PTR [rsp+104], rbp

; 187  : 	}
; 188  : 
; 189  : 	stptr = (uintptr_t)memblock;
; 190  : 
; 191  : 	/* ptr points to the pointer to starting of the memory block */
; 192  : 	stptr = (stptr & ~(PTR_SZ - 1)) - PTR_SZ;

	mov	rax, rbx
	and	rax, -8
	mov	QWORD PTR [rsp+120], r13

; 193  : 
; 194  : 	/* ptr is the pointer to the start of memory block*/
; 195  : 	stptr = *((uintptr_t*)stptr);

	mov	r13, QWORD PTR [rax-8]

; 196  : 
; 197  : 	if (!IS_2_POW_N(align))

	blsr	rax, r9
	mov	rbp, r13
	je	SHORT $LN5@xr_aligned

; 198  : 	{
; 199  : 		errno = EINVAL;

	call	QWORD PTR __imp__errno
	mov	DWORD PTR [rax], 22

; 200  : 		return NULL;

	xor	eax, eax
	jmp	$LN22@xr_aligned
$LN5@xr_aligned:
	mov	QWORD PTR [rsp+112], r12

; 201  : 	}
; 202  : 
; 203  : 	align = (align > PTR_SZ ? align : PTR_SZ) - 1;
; 204  : 	/* gap = number of bytes needed to round up offset to align with PTR_SZ*/
; 205  : 	gap = (0 - offset) & (PTR_SZ - 1);
; 206  : 
; 207  : 	diff = (uintptr_t)memblock - stptr;

	mov	rax, rbx
	mov	QWORD PTR [rsp+48], r15
	mov	r12d, 8
	cmp	r9, r12
	mov	r15, rsi

; 208  : 	/* Mov size is min of the size of data available and sizw requested.
; 209  : 	*/
; 210  : 	movsz = _msize((void*)stptr) - ((uintptr_t)memblock - stptr);

	mov	rcx, r13
	cmova	r12, r9
	sub	rax, r13
	dec	r12
	mov	QWORD PTR diff$1$[rsp], rax
	neg	r15
	mov	QWORD PTR align$2$[rsp], r12
	and	r15d, 7
	call	QWORD PTR __imp__msize

; 211  : 	movsz = movsz > size ? size : movsz;
; 212  : 	reqsz = PTR_SZ + gap + align + size;
; 213  : 
; 214  : 	/* First check if we can expand(reducing or expanding using expand) data
; 215  : 	* safely, ie no data is lost. eg, reducing alignment and keeping size
; 216  : 	* same might result in loss of data at the tail of data block while
; 217  : 	* expanding.
; 218  : 	*
; 219  : 	* If no, use malloc to allocate the new data and move data.
; 220  : 	*
; 221  : 	* If yes, expand and then check if we need to move the data.
; 222  : 	*/
; 223  : 	if ((stptr + align + PTR_SZ + gap) < (uintptr_t)memblock)

	mov	rdx, QWORD PTR align$2$[rsp]
	mov	rcx, rax
	mov	rax, r13
	sub	rax, rbx
	add	rcx, rax
	lea	rax, QWORD PTR [r15+rdi]
	cmp	rcx, rdi
	cmova	rcx, rdi
	add	r12, 8
	add	r12, rax
	mov	QWORD PTR movsz$2$[rsp], rcx
	add	rdx, 8
	lea	rax, QWORD PTR [r15+r13]
	add	rdx, rax
	cmp	rdx, rbx
	jae	SHORT $LN6@xr_aligned

; 224  : 	{
; 225  : 		if ((ptr = (uintptr_t)malloc(reqsz)) == (uintptr_t)NULL)

	mov	rcx, r12
	call	QWORD PTR __imp_malloc
	mov	rdi, rax
	test	rax, rax
	je	SHORT $LN19@xr_aligned
$LN11@xr_aligned:

; 239  : 	}
; 240  : 
; 241  : 
; 242  : 	if (ptr == ((uintptr_t)memblock - diff)
; 243  : 		&& !(((size_t)memblock + gap + offset) & ~(align)))

	mov	r14d, 1
	jmp	SHORT $LN10@xr_aligned
$LN6@xr_aligned:

; 226  : 			return NULL;
; 227  : 		bFree = 1;
; 228  : 	}
; 229  : 	else
; 230  : 	{
; 231  : 		if ((ptr = (uintptr_t)_expand((void*)stptr, reqsz)) == (uintptr_t)NULL)

	mov	rdx, r12
	mov	rcx, r13
	call	QWORD PTR __imp__expand
	mov	rdi, rax
	test	rax, rax
	jne	SHORT $LN9@xr_aligned

; 232  : 		{
; 233  : 			if ((ptr = (uintptr_t)malloc(reqsz)) == (uintptr_t)NULL)

	mov	rcx, r12
	call	QWORD PTR __imp_malloc
	mov	rdi, rax
	test	rax, rax
	jne	SHORT $LN11@xr_aligned
$LN19@xr_aligned:

; 234  : 				return NULL;

	xor	eax, eax
	jmp	SHORT $LN24@xr_aligned
$LN9@xr_aligned:

; 235  : 			bFree = 1;
; 236  : 		}
; 237  : 		else
; 238  : 			stptr = ptr;

	mov	rbp, rax
$LN10@xr_aligned:

; 239  : 	}
; 240  : 
; 241  : 
; 242  : 	if (ptr == ((uintptr_t)memblock - diff)
; 243  : 		&& !(((size_t)memblock + gap + offset) & ~(align)))

	mov	rdx, QWORD PTR align$2$[rsp]
	mov	rcx, rdx
	not	rcx
	cmp	rdi, r13
	jne	SHORT $LN18@xr_aligned
	lea	rax, QWORD PTR [r15+rbx]
	add	rax, rsi
	test	rax, rcx
	je	SHORT $LN25@xr_aligned
$LN18@xr_aligned:

; 244  : 	{
; 245  : 		return memblock;
; 246  : 	}
; 247  : 
; 248  : 	retptr = ((ptr + PTR_SZ + gap + align + offset) & ~align) - offset;
; 249  : 	memmove((void*)retptr, (void*)(stptr + diff), movsz);

	mov	r8, QWORD PTR movsz$2$[rsp]
	lea	rbx, QWORD PTR [rdi+r15]
	add	rdx, 8
	add	rbx, rdx
	mov	rdx, QWORD PTR diff$1$[rsp]
	add	rbx, rsi
	add	rdx, rbp
	and	rbx, rcx
	sub	rbx, rsi
	mov	rcx, rbx
	call	memmove

; 250  : 	if (bFree)

	test	r14d, r14d
	je	SHORT $LN13@xr_aligned

; 251  : 		free((void*)stptr);

	mov	rcx, rbp
	call	QWORD PTR __imp_free
$LN13@xr_aligned:

; 252  : 
; 253  : 	((uintptr_t*)(retptr - gap))[-1] = ptr;

	mov	rcx, rbx
	sub	rcx, r15
	mov	QWORD PTR [rcx-8], rdi
$LN25@xr_aligned:

; 254  : 	return (void*)retptr;

	mov	rax, rbx
$LN24@xr_aligned:
	mov	r12, QWORD PTR [rsp+112]
	mov	r15, QWORD PTR [rsp+48]
$LN22@xr_aligned:
	mov	rbp, QWORD PTR [rsp+104]
	mov	r13, QWORD PTR [rsp+120]

; 255  : }

	add	rsp, 56					; 00000038H
	pop	r14
	pop	rdi
	pop	rsi
	pop	rbx
	ret	0
?xr_aligned_offset_realloc@@YAPEAXPEAX_K11@Z ENDP	; xr_aligned_offset_realloc
_TEXT	ENDS
; Function compile flags: /Ogtpy
; File C:\Users\Mahito\Desktop\Night outing\Night-outing\src\xrCore\xrMemory_align.cpp
_TEXT	SEGMENT
memblock$ = 8
?xr_aligned_free@@YAXPEAX@Z PROC			; xr_aligned_free

; 275  : 	uintptr_t ptr;
; 276  : 
; 277  : 	if (memblock == NULL)

	test	rcx, rcx
	je	SHORT $LN1@xr_aligned

; 278  : 		return;
; 279  : 
; 280  : 	ptr = (uintptr_t)memblock;
; 281  : 
; 282  : 	/* ptr points to the pointer to starting of the memory block */
; 283  : 	ptr = (ptr & ~(PTR_SZ - 1)) - PTR_SZ;

	and	rcx, -8

; 284  : 
; 285  : 	/* ptr is the pointer to the start of memory block*/
; 286  : 	ptr = *((uintptr_t*)ptr);
; 287  : 	free((void*)ptr);

	mov	rcx, QWORD PTR [rcx-8]
	rex_jmp	QWORD PTR __imp_free
$LN1@xr_aligned:

; 288  : }

	ret	0
?xr_aligned_free@@YAXPEAX@Z ENDP			; xr_aligned_free
_TEXT	ENDS
; Function compile flags: /Ogtpy
; File C:\Users\Mahito\Desktop\Night outing\Night-outing\src\xrCore\xrMemory_align.cpp
_TEXT	SEGMENT
size$ = 48
align$ = 56
offset$ = 64
?xr_aligned_offset_malloc@@YAPEAX_K00@Z PROC		; xr_aligned_offset_malloc

; 86   : {

$LN9:
	push	rbx
	sub	rsp, 32					; 00000020H

; 87   : 	uintptr_t ptr, retptr, gap;
; 88   : 
; 89   : 	if (!IS_2_POW_N(align))

	blsr	rax, rdx
	mov	rbx, r8
	je	SHORT $LN2@xr_aligned

; 90   : 	{
; 91   : 		errno = EINVAL;

	call	QWORD PTR __imp__errno
	mov	DWORD PTR [rax], 22

; 92   : 		return NULL;

	xor	eax, eax

; 107  : 
; 108  : 	return (void*)retptr;
; 109  : }

	add	rsp, 32					; 00000020H
	pop	rbx
	ret	0
$LN2@xr_aligned:
	mov	QWORD PTR [rsp+48], rsi
	mov	QWORD PTR [rsp+56], rdi

; 93   : 	}
; 94   : 	if (offset >= size && offset != 0)

	cmp	rbx, rcx
	jb	SHORT $LN3@xr_aligned
	test	rbx, rbx
	je	SHORT $LN3@xr_aligned

; 95   : 		size = offset + 1;

	lea	rcx, QWORD PTR [r8+1]
$LN3@xr_aligned:

; 96   : 
; 97   : 	align = (align > PTR_SZ ? align : PTR_SZ) - 1;

	mov	edi, 8

; 98   : 
; 99   : 	/* gap = number of bytes needed to round up offset to align with PTR_SZ*/
; 100  : 	gap = (0 - offset) & (PTR_SZ - 1);

	mov	rsi, rbx
	cmp	rdx, rdi
	cmova	rdi, rdx
	neg	rsi
	and	esi, 7
	dec	rdi

; 101  : 
; 102  : 	if ((ptr = (uintptr_t)malloc(PTR_SZ + gap + align + size)) == (uintptr_t)NULL)

	lea	rax, QWORD PTR [rsi+rcx]
	lea	rcx, QWORD PTR [rdi+8]
	add	rcx, rax
	call	QWORD PTR __imp_malloc
	mov	rdx, rax
	test	rax, rax
	jne	SHORT $LN4@xr_aligned
	mov	rsi, QWORD PTR [rsp+48]
	mov	rdi, QWORD PTR [rsp+56]

; 107  : 
; 108  : 	return (void*)retptr;
; 109  : }

	add	rsp, 32					; 00000020H
	pop	rbx
	ret	0
$LN4@xr_aligned:

; 103  : 		return NULL;
; 104  : 
; 105  : 	retptr = ((ptr + PTR_SZ + gap + align + offset) & ~align) - offset;

	lea	rax, QWORD PTR [rsi+8]
	add	rax, rdx
	add	rax, rdi
	add	rax, rbx
	andn	rax, rdi, rax
	mov	rdi, QWORD PTR [rsp+56]
	sub	rax, rbx

; 106  : 	((uintptr_t*)(retptr - gap))[-1] = ptr;

	mov	rcx, rax
	sub	rcx, rsi
	mov	rsi, QWORD PTR [rsp+48]
	mov	QWORD PTR [rcx-8], rdx

; 107  : 
; 108  : 	return (void*)retptr;
; 109  : }

	add	rsp, 32					; 00000020H
	pop	rbx
	ret	0
?xr_aligned_offset_malloc@@YAPEAX_K00@Z ENDP		; xr_aligned_offset_malloc
_TEXT	ENDS
END
