; Listing generated by Microsoft (R) Optimizing Compiler Version 19.35.32217.1 

include listing.inc

INCLUDELIB OLDNAMES

PUBLIC	?mem_initialized@@3HA				; mem_initialized
PUBLIC	?shared_str_initialized@@3_NA			; shared_str_initialized
?mem_initialized@@3HA DD 01H DUP (?)			; mem_initialized
?shared_str_initialized@@3_NA DB 01H DUP (?)		; shared_str_initialized
_BSS	ENDS
PUBLIC	?xr_strlen@@YAIPEBD@Z				; xr_strlen
PUBLIC	?destroy@?$xalloc@PEAUsmem_value@@@@QEAAXPEAPEAUsmem_value@@@Z ; xalloc<smem_value *>::destroy
PUBLIC	??$destroy@PEAUsmem_value@@@?$_Normal_allocator_traits@V?$xalloc@PEAUsmem_value@@@@@std@@SAXAEAV?$xalloc@PEAUsmem_value@@@@PEAPEAUsmem_value@@@Z ; std::_Normal_allocator_traits<xalloc<smem_value *> >::destroy<smem_value *>
PUBLIC	??$_Unfancy@PEAUsmem_value@@@std@@YAPEAPEAUsmem_value@@PEAPEAU1@@Z ; std::_Unfancy<smem_value *>
PUBLIC	??$xr_free@PEAUsmem_value@@@@YAXAEAPEAPEAUsmem_value@@@Z ; xr_free<smem_value *>
PUBLIC	??$_Destroy_range@V?$xalloc@PEAUsmem_value@@@@@std@@YAXPEAPEAUsmem_value@@QEAPEAU1@AEAV?$xalloc@PEAUsmem_value@@@@@Z ; std::_Destroy_range<xalloc<smem_value *> >
PUBLIC	?_Get_first@?$_Compressed_pair@V?$xalloc@PEAUsmem_value@@@@V?$_Vector_val@U?$_Simple_types@PEAUsmem_value@@@std@@@std@@$00@std@@QEAAAEAV?$xalloc@PEAUsmem_value@@@@XZ ; std::_Compressed_pair<xalloc<smem_value *>,std::_Vector_val<std::_Simple_types<smem_value *> >,1>::_Get_first
PUBLIC	?deallocate@?$xalloc@PEAUsmem_value@@@@QEBAXPEAPEAUsmem_value@@_K@Z ; xalloc<smem_value *>::deallocate
PUBLIC	?_Getal@?$vector@PEAUsmem_value@@V?$xalloc@PEAUsmem_value@@@@@std@@AEAAAEAV?$xalloc@PEAUsmem_value@@@@XZ ; std::vector<smem_value *,xalloc<smem_value *> >::_Getal
PUBLIC	?_Tidy@?$vector@PEAUsmem_value@@V?$xalloc@PEAUsmem_value@@@@@std@@AEAAXXZ ; std::vector<smem_value *,xalloc<smem_value *> >::_Tidy
PUBLIC	??1?$vector@PEAUsmem_value@@V?$xalloc@PEAUsmem_value@@@@@std@@QEAA@XZ ; std::vector<smem_value *,xalloc<smem_value *> >::~vector<smem_value *,xalloc<smem_value *> >
PUBLIC	??1?$xr_vector@PEAUsmem_value@@V?$xalloc@PEAUsmem_value@@@@@@QEAA@XZ ; xr_vector<smem_value *,xalloc<smem_value *> >::~xr_vector<smem_value *,xalloc<smem_value *> >
PUBLIC	?xr_strdup@@YAPEADPEBD@Z			; xr_strdup
PUBLIC	?mem_compact@xrMemory@@QEAAXXZ			; xrMemory::mem_compact
PUBLIC	??0xrMemory@@QEAA@XZ				; xrMemory::xrMemory
PUBLIC	?Memory@@3VxrMemory@@A				; Memory
;	COMDAT pdata
pdata	SEGMENT
$pdata$??$xr_free@PEAUsmem_value@@@@YAXAEAPEAPEAUsmem_value@@@Z DD imagerel $LN24
	DD	imagerel $LN24+42
	DD	imagerel $unwind$??$xr_free@PEAUsmem_value@@@@YAXAEAPEAPEAUsmem_value@@@Z
pdata	ENDS
;	COMDAT pdata
pdata	SEGMENT
$pdata$?_Tidy@?$vector@PEAUsmem_value@@V?$xalloc@PEAUsmem_value@@@@@std@@AEAAXXZ DD imagerel $LN29
	DD	imagerel $LN29+48
	DD	imagerel $unwind$?_Tidy@?$vector@PEAUsmem_value@@V?$xalloc@PEAUsmem_value@@@@@std@@AEAAXXZ
pdata	ENDS
;	COMDAT pdata
pdata	SEGMENT
$pdata$??1?$vector@PEAUsmem_value@@V?$xalloc@PEAUsmem_value@@@@@std@@QEAA@XZ DD imagerel $LN31
	DD	imagerel $LN31+48
	DD	imagerel $unwind$??1?$vector@PEAUsmem_value@@V?$xalloc@PEAUsmem_value@@@@@std@@QEAA@XZ
pdata	ENDS
;	COMDAT pdata
pdata	SEGMENT
$pdata$??1?$xr_vector@PEAUsmem_value@@V?$xalloc@PEAUsmem_value@@@@@@QEAA@XZ DD imagerel $LN34
	DD	imagerel $LN34+48
	DD	imagerel $unwind$??1?$xr_vector@PEAUsmem_value@@V?$xalloc@PEAUsmem_value@@@@@@QEAA@XZ
pdata	ENDS
pdata	SEGMENT
$pdata$?xr_strdup@@YAPEADPEBD@Z DD imagerel $LN39
	DD	imagerel $LN39+118
	DD	imagerel $unwind$?xr_strdup@@YAPEADPEBD@Z
xdata	SEGMENT
$unwind$?xr_strdup@@YAPEADPEBD@Z DD 060f01H
	DD	07640fH
	DD	06340fH
	DD	0700b320fH
xdata	ENDS
;	COMDAT xdata
xdata	SEGMENT
$unwind$??1?$xr_vector@PEAUsmem_value@@V?$xalloc@PEAUsmem_value@@@@@@QEAA@XZ DD 020601H
	DD	030023206H
xdata	ENDS
;	COMDAT xdata
xdata	SEGMENT
$unwind$??1?$vector@PEAUsmem_value@@V?$xalloc@PEAUsmem_value@@@@@std@@QEAA@XZ DD 020601H
	DD	030023206H
xdata	ENDS
;	COMDAT xdata
xdata	SEGMENT
$unwind$?_Tidy@?$vector@PEAUsmem_value@@V?$xalloc@PEAUsmem_value@@@@@std@@AEAAXXZ DD 020601H
	DD	030023206H
xdata	ENDS
;	COMDAT xdata
xdata	SEGMENT
$unwind$??$xr_free@PEAUsmem_value@@@@YAXAEAPEAPEAUsmem_value@@@Z DD 020601H
	DD	030023206H
	ORG $+8
?Memory@@3VxrMemory@@A DB 08H DUP (?)
	DQ	FLAT:?xrMemCopy_x86@@YAXPEAXPEBXI@Z	; Memory
	DQ	FLAT:?xrMemFill_x86@@YAXPEAXHI@Z
	DQ	FLAT:?xrMemFill32_x86@@YAXPEAXII@Z
; Function compile flags: /Ogtpy
; File C:\Users\Mahito\Desktop\Night outing\Night-outing\src\xrCore\xrMemory.cpp
_TEXT	SEGMENT
this$dead$ = 8
??0xrMemory@@QEAA@XZ PROC				; xrMemory::xrMemory

; 24   :     mem_copy = xrMemCopy_x86;

	lea	rax, OFFSET FLAT:?xrMemCopy_x86@@YAXPEAXPEBXI@Z ; xrMemCopy_x86
	mov	QWORD PTR ?Memory@@3VxrMemory@@A+8, rax

; 25   :     mem_fill = xrMemFill_x86;

	lea	rax, OFFSET FLAT:?xrMemFill_x86@@YAXPEAXHI@Z ; xrMemFill_x86
	mov	QWORD PTR ?Memory@@3VxrMemory@@A+16, rax

; 26   :     mem_fill32 = xrMemFill32_x86;

	lea	rax, OFFSET FLAT:?xrMemFill32_x86@@YAXPEAXII@Z ; xrMemFill32_x86
	mov	QWORD PTR ?Memory@@3VxrMemory@@A+24, rax

; 27   : }

	lea	rax, OFFSET FLAT:?Memory@@3VxrMemory@@A	; Memory
	ret	0
??0xrMemory@@QEAA@XZ ENDP				; xrMemory::xrMemory
_TEXT	ENDS
; Function compile flags: /Ogtpy
; File C:\Users\Mahito\Desktop\Night outing\Night-outing\src\xrCore\xrMemory.cpp
_TEXT	SEGMENT
this$dead$ = 8
?mem_compact@xrMemory@@QEAAXXZ PROC			; xrMemory::mem_compact

; 58   : }

	ret	0
?mem_compact@xrMemory@@QEAAXXZ ENDP			; xrMemory::mem_compact
_TEXT	ENDS
; Function compile flags: /Ogtpy
; File C:\Users\Mahito\Desktop\Night outing\Night-outing\src\xrCore\xrMemory.cpp
; File C:\Users\Mahito\Desktop\Night outing\Night-outing\src\xrCore\_std_extensions.h
; File C:\Users\Mahito\Desktop\Night outing\Night-outing\src\xrCore\xrMemory_subst_msvc.cpp
; File C:\Users\Mahito\Desktop\Night outing\Night-outing\src\xrCore\xrMemory.cpp
; File C:\Users\Mahito\Desktop\Night outing\Night-outing\src\xrCore\xrMemory_subst_msvc.cpp
; File C:\Users\Mahito\Desktop\Night outing\Night-outing\src\xrCore\xrMemory.cpp
; File C:\Users\Mahito\Desktop\Night outing\Night-outing\src\xrCore\xrMemory_subst_msvc.cpp
; File C:\Users\Mahito\Desktop\Night outing\Night-outing\src\xrCore\xrMemory.cpp
_TEXT	SEGMENT
string$ = 48
?xr_strdup@@YAPEADPEBD@Z PROC				; xr_strdup

; 62   : {

$LN39:
	mov	QWORD PTR [rsp+8], rbx
	mov	QWORD PTR [rsp+16], rsi
	push	rdi
	sub	rsp, 32					; 00000020H
	mov	rbx, rcx
; File C:\Users\Mahito\Desktop\Night outing\Night-outing\src\xrCore\_std_extensions.h

; 186  : {	return (u32)strlen(S);			}

	mov	rax, -1
	npad	7
$LL37@xr_strdup:
	inc	rax
	cmp	BYTE PTR [rcx+rax], 0
	jne	SHORT $LL37@xr_strdup
; File C:\Users\Mahito\Desktop\Night outing\Night-outing\src\xrCore\xrMemory_subst_msvc.cpp

; 39   : 	stat_calls++;

	inc	DWORD PTR ?Memory@@3VxrMemory@@A
; File C:\Users\Mahito\Desktop\Night outing\Night-outing\src\xrCore\xrMemory.cpp

; 64   :     u32 len = u32(xr_strlen(string)) + 1;

	inc	eax
; File C:\Users\Mahito\Desktop\Night outing\Night-outing\src\xrCore\xrMemory_subst_msvc.cpp

; 45   : 		void* result = _aligned_malloc(size, PURE_MEMORY_ALIGNMENT);

	mov	ecx, eax
	mov	edx, 16
; File C:\Users\Mahito\Desktop\Night outing\Night-outing\src\xrCore\xrMemory.cpp

; 65   :     char* memory = (char*)Memory.mem_alloc(len);

	mov	esi, eax
; File C:\Users\Mahito\Desktop\Night outing\Night-outing\src\xrCore\xrMemory_subst_msvc.cpp

; 45   : 		void* result = _aligned_malloc(size, PURE_MEMORY_ALIGNMENT);

	call	QWORD PTR __imp__aligned_malloc
	mov	rdi, rax

; 46   : #ifdef PURE_MEMORY_FILL_ZERO
; 47   : 		if (result)

	test	rax, rax
	je	SHORT $LN10@xr_strdup

; 48   : 			memset(result, 0, size);

	mov	r8d, esi
	xor	edx, edx
	mov	rcx, rax
	call	memset
$LN10@xr_strdup:
; File C:\Users\Mahito\Desktop\Night outing\Night-outing\src\xrCore\xrMemory.cpp

; 66   :     CopyMemory(memory, string, len);

	mov	r8, rsi
	mov	rdx, rbx
	mov	rcx, rdi
	call	memcpy

; 67   :     return memory;
; 68   : }

	mov	rbx, QWORD PTR [rsp+48]
	mov	rax, rdi
	mov	rsi, QWORD PTR [rsp+56]
	add	rsp, 32					; 00000020H
	pop	rdi
	ret	0
?xr_strdup@@YAPEADPEBD@Z ENDP				; xr_strdup
_TEXT	ENDS
; Function compile flags: /Ogtpy
; File C:\Program Files\Microsoft Visual Studio\2022\Community\VC\Tools\MSVC\14.35.32215\include\vector
; File C:\Users\Mahito\Desktop\Night outing\Night-outing\src\xrCore\xrMemory_subst_msvc.cpp
; File C:\Program Files\Microsoft Visual Studio\2022\Community\VC\Tools\MSVC\14.35.32215\include\vector
;	COMDAT ??1?$xr_vector@PEAUsmem_value@@V?$xalloc@PEAUsmem_value@@@@@@QEAA@XZ
_TEXT	SEGMENT
this$ = 48
??1?$xr_vector@PEAUsmem_value@@V?$xalloc@PEAUsmem_value@@@@@@QEAA@XZ PROC ; xr_vector<smem_value *,xalloc<smem_value *> >::~xr_vector<smem_value *,xalloc<smem_value *> >, COMDAT
$LN34:
	push	rbx
	sub	rsp, 32					; 00000020H
	mov	rbx, rcx

; 2107 :         if (_Myfirst) { // destroy and deallocate old array

	mov	rcx, QWORD PTR [rcx]
	test	rcx, rcx
	je	SHORT $LN6@xr_vector
; File C:\Users\Mahito\Desktop\Night outing\Night-outing\src\xrCore\xrMemory_subst_msvc.cpp

; 99   : 	stat_calls++;

	inc	DWORD PTR ?Memory@@3VxrMemory@@A

; 100  : 
; 101  : #ifdef PURE_ALLOC
; 102  : 	if (g_use_pure_alloc)
; 103  : 	{
; 104  : 		//free(P);
; 105  : 		_aligned_free(P);

	call	QWORD PTR __imp__aligned_free
; File C:\Program Files\Microsoft Visual Studio\2022\Community\VC\Tools\MSVC\14.35.32215\include\vector

; 2112 :             _Myfirst = nullptr;

	xor	eax, eax
	mov	QWORD PTR [rbx], rax

; 2113 :             _Mylast  = nullptr;

	mov	QWORD PTR [rbx+8], rax

; 2114 :             _Myend   = nullptr;

	mov	QWORD PTR [rbx+16], rax
$LN6@xr_vector:
	add	rsp, 32					; 00000020H
	pop	rbx
	ret	0
??1?$xr_vector@PEAUsmem_value@@V?$xalloc@PEAUsmem_value@@@@@@QEAA@XZ ENDP ; xr_vector<smem_value *,xalloc<smem_value *> >::~xr_vector<smem_value *,xalloc<smem_value *> >
_TEXT	ENDS
; Function compile flags: /Ogtpy
; File C:\Program Files\Microsoft Visual Studio\2022\Community\VC\Tools\MSVC\14.35.32215\include\vector
; File C:\Users\Mahito\Desktop\Night outing\Night-outing\src\xrCore\xrMemory_subst_msvc.cpp
; File C:\Program Files\Microsoft Visual Studio\2022\Community\VC\Tools\MSVC\14.35.32215\include\vector
;	COMDAT ??1?$vector@PEAUsmem_value@@V?$xalloc@PEAUsmem_value@@@@@std@@QEAA@XZ
_TEXT	SEGMENT
this$ = 48
??1?$vector@PEAUsmem_value@@V?$xalloc@PEAUsmem_value@@@@@std@@QEAA@XZ PROC ; std::vector<smem_value *,xalloc<smem_value *> >::~vector<smem_value *,xalloc<smem_value *> >, COMDAT

; 829  :     _CONSTEXPR20 ~vector() noexcept {

$LN31:
	push	rbx
	sub	rsp, 32					; 00000020H
	mov	rbx, rcx

; 2107 :         if (_Myfirst) { // destroy and deallocate old array

	mov	rcx, QWORD PTR [rcx]
	test	rcx, rcx
	je	SHORT $LN4@vector
; File C:\Users\Mahito\Desktop\Night outing\Night-outing\src\xrCore\xrMemory_subst_msvc.cpp

; 99   : 	stat_calls++;

	inc	DWORD PTR ?Memory@@3VxrMemory@@A

; 100  : 
; 101  : #ifdef PURE_ALLOC
; 102  : 	if (g_use_pure_alloc)
; 103  : 	{
; 104  : 		//free(P);
; 105  : 		_aligned_free(P);

	call	QWORD PTR __imp__aligned_free
; File C:\Program Files\Microsoft Visual Studio\2022\Community\VC\Tools\MSVC\14.35.32215\include\vector

; 2112 :             _Myfirst = nullptr;

	xor	eax, eax
	mov	QWORD PTR [rbx], rax

; 2113 :             _Mylast  = nullptr;

	mov	QWORD PTR [rbx+8], rax

; 2114 :             _Myend   = nullptr;

	mov	QWORD PTR [rbx+16], rax
$LN4@vector:

; 830  :         _Tidy();
; 831  : #if _ITERATOR_DEBUG_LEVEL != 0
; 832  :         auto&& _Alproxy = _GET_PROXY_ALLOCATOR(_Alty, _Getal());
; 833  :         _Delete_plain_internal(_Alproxy, _STD exchange(_Mypair._Myval2._Myproxy, nullptr));
; 834  : #endif // _ITERATOR_DEBUG_LEVEL != 0
; 835  :     }

	add	rsp, 32					; 00000020H
	pop	rbx
	ret	0
??1?$vector@PEAUsmem_value@@V?$xalloc@PEAUsmem_value@@@@@std@@QEAA@XZ ENDP ; std::vector<smem_value *,xalloc<smem_value *> >::~vector<smem_value *,xalloc<smem_value *> >
_TEXT	ENDS
; Function compile flags: /Ogtpy
; File C:\Program Files\Microsoft Visual Studio\2022\Community\VC\Tools\MSVC\14.35.32215\include\vector
; File C:\Users\Mahito\Desktop\Night outing\Night-outing\src\xrCore\xrMemory_subst_msvc.cpp
; File C:\Program Files\Microsoft Visual Studio\2022\Community\VC\Tools\MSVC\14.35.32215\include\vector
;	COMDAT ?_Tidy@?$vector@PEAUsmem_value@@V?$xalloc@PEAUsmem_value@@@@@std@@AEAAXXZ
_TEXT	SEGMENT
this$ = 48
?_Tidy@?$vector@PEAUsmem_value@@V?$xalloc@PEAUsmem_value@@@@@std@@AEAAXXZ PROC ; std::vector<smem_value *,xalloc<smem_value *> >::_Tidy, COMDAT

; 2098 :     _CONSTEXPR20 void _Tidy() noexcept { // free all storage

$LN29:
	push	rbx
	sub	rsp, 32					; 00000020H
	mov	rbx, rcx

; 2099 :         auto& _Al         = _Getal();
; 2100 :         auto& _My_data    = _Mypair._Myval2;
; 2101 :         pointer& _Myfirst = _My_data._Myfirst;
; 2102 :         pointer& _Mylast  = _My_data._Mylast;
; 2103 :         pointer& _Myend   = _My_data._Myend;
; 2104 : 
; 2105 :         _My_data._Orphan_all();
; 2106 : 
; 2107 :         if (_Myfirst) { // destroy and deallocate old array

	mov	rcx, QWORD PTR [rcx]
	test	rcx, rcx
	je	SHORT $LN2@Tidy
; File C:\Users\Mahito\Desktop\Night outing\Night-outing\src\xrCore\xrMemory_subst_msvc.cpp

; 99   : 	stat_calls++;

	inc	DWORD PTR ?Memory@@3VxrMemory@@A

; 100  : 
; 101  : #ifdef PURE_ALLOC
; 102  : 	if (g_use_pure_alloc)
; 103  : 	{
; 104  : 		//free(P);
; 105  : 		_aligned_free(P);

	call	QWORD PTR __imp__aligned_free
; File C:\Program Files\Microsoft Visual Studio\2022\Community\VC\Tools\MSVC\14.35.32215\include\vector

; 2112 :             _Myfirst = nullptr;

	xor	eax, eax
	mov	QWORD PTR [rbx], rax

; 2113 :             _Mylast  = nullptr;

	mov	QWORD PTR [rbx+8], rax

; 2114 :             _Myend   = nullptr;

	mov	QWORD PTR [rbx+16], rax
$LN2@Tidy:

; 2115 :         }
; 2116 :     }

	add	rsp, 32					; 00000020H
	pop	rbx
	ret	0
?_Tidy@?$vector@PEAUsmem_value@@V?$xalloc@PEAUsmem_value@@@@@std@@AEAAXXZ ENDP ; std::vector<smem_value *,xalloc<smem_value *> >::_Tidy
_TEXT	ENDS
; Function compile flags: /Ogtpy
; File C:\Program Files\Microsoft Visual Studio\2022\Community\VC\Tools\MSVC\14.35.32215\include\vector
;	COMDAT ?_Getal@?$vector@PEAUsmem_value@@V?$xalloc@PEAUsmem_value@@@@@std@@AEAAAEAV?$xalloc@PEAUsmem_value@@@@XZ
_TEXT	SEGMENT
this$ = 8
?_Getal@?$vector@PEAUsmem_value@@V?$xalloc@PEAUsmem_value@@@@@std@@AEAAAEAV?$xalloc@PEAUsmem_value@@@@XZ PROC ; std::vector<smem_value *,xalloc<smem_value *> >::_Getal, COMDAT

; 2244 :         return _Mypair._Get_first();

	mov	rax, rcx

; 2245 :     }

	ret	0
?_Getal@?$vector@PEAUsmem_value@@V?$xalloc@PEAUsmem_value@@@@@std@@AEAAAEAV?$xalloc@PEAUsmem_value@@@@XZ ENDP ; std::vector<smem_value *,xalloc<smem_value *> >::_Getal
_TEXT	ENDS
; Function compile flags: /Ogtpy
; File C:\Users\Mahito\Desktop\Night outing\Night-outing\src\xrCore\_stl_extensions.h
; File C:\Users\Mahito\Desktop\Night outing\Night-outing\src\xrCore\xrMemory.h
; File C:\Users\Mahito\Desktop\Night outing\Night-outing\src\xrCore\xrMemory_subst_msvc.cpp
; File C:\Users\Mahito\Desktop\Night outing\Night-outing\src\xrCore\_stl_extensions.h
;	COMDAT ?deallocate@?$xalloc@PEAUsmem_value@@@@QEBAXPEAPEAUsmem_value@@_K@Z
_TEXT	SEGMENT
this$dead$ = 8
p$ = 16
n$dead$ = 24
?deallocate@?$xalloc@PEAUsmem_value@@@@QEBAXPEAPEAUsmem_value@@_K@Z PROC ; xalloc<smem_value *>::deallocate, COMDAT
; File C:\Users\Mahito\Desktop\Night outing\Night-outing\src\xrCore\xrMemory.h

; 69   : 	if (P)

	test	rdx, rdx
	je	SHORT $LN4@deallocate
; File C:\Users\Mahito\Desktop\Night outing\Night-outing\src\xrCore\xrMemory_subst_msvc.cpp

; 99   : 	stat_calls++;

	inc	DWORD PTR ?Memory@@3VxrMemory@@A

; 100  : 
; 101  : #ifdef PURE_ALLOC
; 102  : 	if (g_use_pure_alloc)
; 103  : 	{
; 104  : 		//free(P);
; 105  : 		_aligned_free(P);

	mov	rcx, rdx
	rex_jmp	QWORD PTR __imp__aligned_free
$LN4@deallocate:
; File C:\Users\Mahito\Desktop\Night outing\Night-outing\src\xrCore\_stl_extensions.h

; 83   : 							void					deallocate		(pointer p, size_type n) const			{	xr_free	(p);				}

	ret	0
?deallocate@?$xalloc@PEAUsmem_value@@@@QEBAXPEAPEAUsmem_value@@_K@Z ENDP ; xalloc<smem_value *>::deallocate
_TEXT	ENDS
; Function compile flags: /Ogtpy
; File C:\Program Files\Microsoft Visual Studio\2022\Community\VC\Tools\MSVC\14.35.32215\include\xmemory
;	COMDAT ?_Get_first@?$_Compressed_pair@V?$xalloc@PEAUsmem_value@@@@V?$_Vector_val@U?$_Simple_types@PEAUsmem_value@@@std@@@std@@$00@std@@QEAAAEAV?$xalloc@PEAUsmem_value@@@@XZ
_TEXT	SEGMENT
this$ = 8
?_Get_first@?$_Compressed_pair@V?$xalloc@PEAUsmem_value@@@@V?$_Vector_val@U?$_Simple_types@PEAUsmem_value@@@std@@@std@@$00@std@@QEAAAEAV?$xalloc@PEAUsmem_value@@@@XZ PROC ; std::_Compressed_pair<xalloc<smem_value *>,std::_Vector_val<std::_Simple_types<smem_value *> >,1>::_Get_first, COMDAT

; 1383 :         return *this;

	mov	rax, rcx

; 1384 :     }

	ret	0
?_Get_first@?$_Compressed_pair@V?$xalloc@PEAUsmem_value@@@@V?$_Vector_val@U?$_Simple_types@PEAUsmem_value@@@std@@@std@@$00@std@@QEAAAEAV?$xalloc@PEAUsmem_value@@@@XZ ENDP ; std::_Compressed_pair<xalloc<smem_value *>,std::_Vector_val<std::_Simple_types<smem_value *> >,1>::_Get_first
_TEXT	ENDS
; Function compile flags: /Ogtpy
; File C:\Program Files\Microsoft Visual Studio\2022\Community\VC\Tools\MSVC\14.35.32215\include\xmemory
;	COMDAT ??$_Destroy_range@V?$xalloc@PEAUsmem_value@@@@@std@@YAXPEAPEAUsmem_value@@QEAPEAU1@AEAV?$xalloc@PEAUsmem_value@@@@@Z
_TEXT	SEGMENT
_First$dead$ = 8
_Last$dead$ = 16
_Al$dead$ = 24
??$_Destroy_range@V?$xalloc@PEAUsmem_value@@@@@std@@YAXPEAPEAUsmem_value@@QEAPEAU1@AEAV?$xalloc@PEAUsmem_value@@@@@Z PROC ; std::_Destroy_range<xalloc<smem_value *> >, COMDAT

; 943  :     // note that this is an optimization for debug mode codegen; in release mode the BE removes all of this
; 944  :     using _Ty = typename _Alloc::value_type;
; 945  :     if constexpr (!conjunction_v<is_trivially_destructible<_Ty>, _Uses_default_destroy<_Alloc, _Ty*>>) {
; 946  :         for (; _First != _Last; ++_First) {
; 947  :             allocator_traits<_Alloc>::destroy(_Al, _Unfancy(_First));
; 948  :         }
; 949  :     }
; 950  : }

	ret	0
??$_Destroy_range@V?$xalloc@PEAUsmem_value@@@@@std@@YAXPEAPEAUsmem_value@@QEAPEAU1@AEAV?$xalloc@PEAUsmem_value@@@@@Z ENDP ; std::_Destroy_range<xalloc<smem_value *> >
_TEXT	ENDS
; Function compile flags: /Ogtpy
; File C:\Users\Mahito\Desktop\Night outing\Night-outing\src\xrCore\xrMemory.h
; File C:\Users\Mahito\Desktop\Night outing\Night-outing\src\xrCore\xrMemory_subst_msvc.cpp
; File C:\Users\Mahito\Desktop\Night outing\Night-outing\src\xrCore\xrMemory.h
;	COMDAT ??$xr_free@PEAUsmem_value@@@@YAXAEAPEAPEAUsmem_value@@@Z
_TEXT	SEGMENT
P$ = 48
??$xr_free@PEAUsmem_value@@@@YAXAEAPEAPEAUsmem_value@@@Z PROC ; xr_free<smem_value *>, COMDAT

; 68   : {

$LN24:
	push	rbx
	sub	rsp, 32					; 00000020H
	mov	rbx, rcx

; 69   : 	if (P)

	mov	rcx, QWORD PTR [rcx]
	test	rcx, rcx
	je	SHORT $LN2@xr_free
; File C:\Users\Mahito\Desktop\Night outing\Night-outing\src\xrCore\xrMemory_subst_msvc.cpp

; 99   : 	stat_calls++;

	inc	DWORD PTR ?Memory@@3VxrMemory@@A

; 100  : 
; 101  : #ifdef PURE_ALLOC
; 102  : 	if (g_use_pure_alloc)
; 103  : 	{
; 104  : 		//free(P);
; 105  : 		_aligned_free(P);

	call	QWORD PTR __imp__aligned_free
; File C:\Users\Mahito\Desktop\Night outing\Night-outing\src\xrCore\xrMemory.h

; 72   : 		P = NULL;

	mov	QWORD PTR [rbx], 0
$LN2@xr_free:

; 73   : 	};
; 74   : }

	add	rsp, 32					; 00000020H
	pop	rbx
	ret	0
??$xr_free@PEAUsmem_value@@@@YAXAEAPEAPEAUsmem_value@@@Z ENDP ; xr_free<smem_value *>
_TEXT	ENDS
; Function compile flags: /Ogtpy
; File C:\Program Files\Microsoft Visual Studio\2022\Community\VC\Tools\MSVC\14.35.32215\include\xstddef
;	COMDAT ??$_Unfancy@PEAUsmem_value@@@std@@YAPEAPEAUsmem_value@@PEAPEAU1@@Z
_TEXT	SEGMENT
_Ptr$ = 8
??$_Unfancy@PEAUsmem_value@@@std@@YAPEAPEAUsmem_value@@PEAPEAU1@@Z PROC ; std::_Unfancy<smem_value *>, COMDAT

; 294  :     return _Ptr;

	mov	rax, rcx

; 295  : }

	ret	0
??$_Unfancy@PEAUsmem_value@@@std@@YAPEAPEAUsmem_value@@PEAPEAU1@@Z ENDP ; std::_Unfancy<smem_value *>
_TEXT	ENDS
; Function compile flags: /Ogtpy
; File C:\Program Files\Microsoft Visual Studio\2022\Community\VC\Tools\MSVC\14.35.32215\include\xmemory
;	COMDAT ??$destroy@PEAUsmem_value@@@?$_Normal_allocator_traits@V?$xalloc@PEAUsmem_value@@@@@std@@SAXAEAV?$xalloc@PEAUsmem_value@@@@PEAPEAUsmem_value@@@Z
_TEXT	SEGMENT
_Al$dead$ = 8
_Ptr$dead$ = 16
??$destroy@PEAUsmem_value@@@?$_Normal_allocator_traits@V?$xalloc@PEAUsmem_value@@@@@std@@SAXAEAV?$xalloc@PEAUsmem_value@@@@PEAPEAUsmem_value@@@Z PROC ; std::_Normal_allocator_traits<xalloc<smem_value *> >::destroy<smem_value *>, COMDAT

; 578  :         if constexpr (_Uses_default_destroy<_Alloc, _Ty*>::value) {
; 579  : #if _HAS_CXX20
; 580  :             _STD destroy_at(_Ptr);
; 581  : #else // _HAS_CXX20
; 582  :             _Ptr->~_Ty();
; 583  : #endif // _HAS_CXX20
; 584  :         } else {
; 585  :             _Al.destroy(_Ptr);
; 586  :         }
; 587  :     }

	ret	0
??$destroy@PEAUsmem_value@@@?$_Normal_allocator_traits@V?$xalloc@PEAUsmem_value@@@@@std@@SAXAEAV?$xalloc@PEAUsmem_value@@@@PEAPEAUsmem_value@@@Z ENDP ; std::_Normal_allocator_traits<xalloc<smem_value *> >::destroy<smem_value *>
_TEXT	ENDS
; Function compile flags: /Ogtpy
; File C:\Users\Mahito\Desktop\Night outing\Night-outing\src\xrCore\_stl_extensions.h
;	COMDAT ?destroy@?$xalloc@PEAUsmem_value@@@@QEAAXPEAPEAUsmem_value@@@Z
_TEXT	SEGMENT
this$dead$ = 8
p$dead$ = 16
?destroy@?$xalloc@PEAUsmem_value@@@@QEAAXPEAPEAUsmem_value@@@Z PROC ; xalloc<smem_value *>::destroy, COMDAT

; 86   : 							void					destroy			(pointer p)								{	p->~T();			}

	ret	0
?destroy@?$xalloc@PEAUsmem_value@@@@QEAAXPEAPEAUsmem_value@@@Z ENDP ; xalloc<smem_value *>::destroy
_TEXT	ENDS
; Function compile flags: /Ogtpy
; File C:\Users\Mahito\Desktop\Night outing\Night-outing\src\xrCore\_std_extensions.h
;	COMDAT ?xr_strlen@@YAIPEBD@Z
_TEXT	SEGMENT
S$ = 8
?xr_strlen@@YAIPEBD@Z PROC				; xr_strlen, COMDAT

; 186  : {	return (u32)strlen(S);			}

	mov	rax, -1
$LL3@xr_strlen:
	inc	rax
	cmp	BYTE PTR [rcx+rax], 0
	jne	SHORT $LL3@xr_strlen
	ret	0
?xr_strlen@@YAIPEBD@Z ENDP				; xr_strlen
_TEXT	ENDS
END
