; Listing generated by Microsoft (R) Optimizing Compiler Version 19.35.32217.1 

include listing.inc

INCLUDELIB OLDNAMES

PUBLIC	?g_pSharedMemoryContainer@@3PEAVsmem_container@@EA ; g_pSharedMemoryContainer
PUBLIC	??_C@_0BD@JJAGEJAN@x?3?2$smem_dump$?4txt@	; `string'
PUBLIC	??_C@_0BK@KPOBLFJH@?$CF4d?5?3?5crc?$FL?$CF6x?$FN?0?5?$CFd?5bytes?6@ ; `string'
EXTRN	__std_find_trivial_8:PROC
?g_pSharedMemoryContainer@@3PEAVsmem_container@@EA DQ 01H DUP (?) ; g_pSharedMemoryContainer
_BSS	ENDS
;	COMDAT ??_C@_0BK@KPOBLFJH@?$CF4d?5?3?5crc?$FL?$CF6x?$FN?0?5?$CFd?5bytes?6@
CONST	SEGMENT
??_C@_0BK@KPOBLFJH@?$CF4d?5?3?5crc?$FL?$CF6x?$FN?0?5?$CFd?5bytes?6@ DB '%'
	DB	'4d : crc[%6x], %d bytes', 0aH, 00H		; `string'
CONST	ENDS
;	COMDAT ??_C@_0BD@JJAGEJAN@x?3?2$smem_dump$?4txt@
CONST	SEGMENT
??_C@_0BD@JJAGEJAN@x?3?2$smem_dump$?4txt@ DB 'x:\$smem_dump$.txt', 00H ; `string'
PUBLIC	?smem_search@@YA_NPEBUsmem_value@@0@Z		; smem_search
PUBLIC	??$__std_find_trivial@PEAUsmem_value@@_K@@YAPEAPEAUsmem_value@@PEAPEAU0@0_K@Z ; __std_find_trivial<smem_value *,unsigned __int64>
PUBLIC	??1?$_Uninitialized_backout_al@V?$xalloc@PEAUsmem_value@@@@@std@@QEAA@XZ ; std::_Uninitialized_backout_al<xalloc<smem_value *> >::~_Uninitialized_backout_al<xalloc<smem_value *> >
PUBLIC	??$_Refancy@PEAPEAUsmem_value@@$0A@@std@@YAPEAPEAUsmem_value@@PEAPEAU1@@Z ; std::_Refancy<smem_value * *,0>
PUBLIC	??$__std_find_trivial@PEAUsmem_value@@PEAU1@@@YAPEAPEAUsmem_value@@PEAPEAU0@0QEAU0@@Z ; __std_find_trivial<smem_value *,smem_value *>
PUBLIC	??$_Could_compare_equal_to_value_type@PEAPEAUsmem_value@@PEAU1@@std@@YA_NAEBQEAUsmem_value@@@Z ; std::_Could_compare_equal_to_value_type<smem_value * *,smem_value *>
PUBLIC	??$forward@AEAPEAPEAUsmem_value@@@std@@YAAEAPEAPEAUsmem_value@@AEAPEAPEAU1@@Z ; std::forward<smem_value * * &>
PUBLIC	?_Seek_to@?$_Vector_const_iterator@V?$_Vector_val@U?$_Simple_types@PEAUsmem_value@@@std@@@std@@@std@@QEAAXPEBQEAUsmem_value@@@Z ; std::_Vector_const_iterator<std::_Vector_val<std::_Simple_types<smem_value *> > >::_Seek_to
PUBLIC	??$addressof@PEAUsmem_value@@@std@@YAPEAPEAUsmem_value@@AEAPEAU1@@Z ; std::addressof<smem_value *>
PUBLIC	??$_Copy_memmove@PEAPEAUsmem_value@@PEAPEAU1@@std@@YAPEAPEAUsmem_value@@PEAPEAU1@00@Z ; std::_Copy_memmove<smem_value * *,smem_value * *>
PUBLIC	??$move@AEAPEAUsmem_value@@@std@@YA$$QEAPEAUsmem_value@@AEAPEAU1@@Z ; std::move<smem_value * &>
PUBLIC	??$_To_address@PEAPEAUsmem_value@@@std@@YA?A_PAEBQEAPEAUsmem_value@@@Z ; std::_To_address<smem_value * *>
PUBLIC	??$_Find_unchecked@PEAPEAUsmem_value@@PEAU1@@std@@YAPEAPEAUsmem_value@@PEAPEAU1@QEAPEAU1@AEBQEAU1@@Z ; std::_Find_unchecked<smem_value * *,smem_value *>
PUBLIC	??$_Seek_wrapped@V?$_Vector_iterator@V?$_Vector_val@U?$_Simple_types@PEAUsmem_value@@@std@@@std@@@std@@AEAPEAPEAUsmem_value@@@std@@YAXAEAV?$_Vector_iterator@V?$_Vector_val@U?$_Simple_types@PEAUsmem_value@@@std@@@std@@@0@AEAPEAPEAUsmem_value@@@Z ; std::_Seek_wrapped<std::_Vector_iterator<std::_Vector_val<std::_Simple_types<smem_value *> > >,smem_value * * &>
PUBLIC	??$_Adl_verify_range@V?$_Vector_iterator@V?$_Vector_val@U?$_Simple_types@PEAUsmem_value@@@std@@@std@@@std@@V12@@std@@YAXAEBV?$_Vector_iterator@V?$_Vector_val@U?$_Simple_types@PEAUsmem_value@@@std@@@std@@@0@0@Z ; std::_Adl_verify_range<std::_Vector_iterator<std::_Vector_val<std::_Simple_types<smem_value *> > >,std::_Vector_iterator<std::_Vector_val<std::_Simple_types<smem_value *> > > >
PUBLIC	?_Unwrapped@?$_Vector_iterator@V?$_Vector_val@U?$_Simple_types@PEAUsmem_value@@@std@@@std@@@std@@QEBAPEAPEAUsmem_value@@XZ ; std::_Vector_iterator<std::_Vector_val<std::_Simple_types<smem_value *> > >::_Unwrapped
PUBLIC	?_Get_value@?$_Alloc_temporary2@V?$xalloc@PEAUsmem_value@@@@@std@@QEAAAEAPEAUsmem_value@@XZ ; std::_Alloc_temporary2<xalloc<smem_value *> >::_Get_value
PUBLIC	??1?$_Alloc_temporary2@V?$xalloc@PEAUsmem_value@@@@@std@@QEAA@XZ ; std::_Alloc_temporary2<xalloc<smem_value *> >::~_Alloc_temporary2<xalloc<smem_value *> >
PUBLIC	??$_Move_unchecked@PEAPEAUsmem_value@@PEAPEAU1@@std@@YAPEAPEAUsmem_value@@PEAPEAU1@00@Z ; std::_Move_unchecked<smem_value * *,smem_value * *>
PUBLIC	??$addressof@V?$_Vector_val@U?$_Simple_types@PEAUsmem_value@@@std@@@std@@@std@@YAPEAV?$_Vector_val@U?$_Simple_types@PEAUsmem_value@@@std@@@0@AEAV10@@Z ; std::addressof<std::_Vector_val<std::_Simple_types<smem_value *> > >
PUBLIC	??$remove@V?$_Vector_iterator@V?$_Vector_val@U?$_Simple_types@PEAUsmem_value@@@std@@@std@@@std@@PEAUsmem_value@@@std@@YA?AV?$_Vector_iterator@V?$_Vector_val@U?$_Simple_types@PEAUsmem_value@@@std@@@std@@@0@V10@V10@AEBQEAUsmem_value@@@Z ; std::remove<std::_Vector_iterator<std::_Vector_val<std::_Simple_types<smem_value *> > >,smem_value *>
PUBLIC	??$xr_free@Usmem_value@@@@YAXAEAPEAUsmem_value@@@Z ; xr_free<smem_value>
PUBLIC	??$_Get_unwrapped@AEBV?$_Vector_iterator@V?$_Vector_val@U?$_Simple_types@PEAUsmem_value@@@std@@@std@@@std@@@std@@YA?A_TAEBV?$_Vector_iterator@V?$_Vector_val@U?$_Simple_types@PEAUsmem_value@@@std@@@std@@@0@@Z ; std::_Get_unwrapped<std::_Vector_iterator<std::_Vector_val<std::_Simple_types<smem_value *> > > const &>
PUBLIC	??$_Get_unwrapped@AEAV?$_Vector_iterator@V?$_Vector_val@U?$_Simple_types@PEAUsmem_value@@@std@@@std@@@std@@@std@@YA?A_TAEAV?$_Vector_iterator@V?$_Vector_val@U?$_Simple_types@PEAUsmem_value@@@std@@@std@@@0@@Z ; std::_Get_unwrapped<std::_Vector_iterator<std::_Vector_val<std::_Simple_types<smem_value *> > > &>
PUBLIC	?clear@?$vector@PEAUsmem_value@@V?$xalloc@PEAUsmem_value@@@@@std@@QEAAXXZ ; std::vector<smem_value *,xalloc<smem_value *> >::clear
PUBLIC	?_Orphan_range@?$vector@PEAUsmem_value@@V?$xalloc@PEAUsmem_value@@@@@std@@AEBAXPEAPEAUsmem_value@@0@Z ; std::vector<smem_value *,xalloc<smem_value *> >::_Orphan_range
PUBLIC	?clear_and_free@?$xr_vector@PEAUsmem_value@@V?$xalloc@PEAUsmem_value@@@@@@QEAAXXZ ; xr_vector<smem_value *,xalloc<smem_value *> >::clear_and_free
PUBLIC	??0?$_Vector_const_iterator@V?$_Vector_val@U?$_Simple_types@PEAUsmem_value@@@std@@@std@@@std@@QEAA@PEAPEAUsmem_value@@PEBU_Container_base0@1@@Z ; std::_Vector_const_iterator<std::_Vector_val<std::_Simple_types<smem_value *> > >::_Vector_const_iterator<std::_Vector_val<std::_Simple_types<smem_value *> > >
PUBLIC	??D?$_Vector_const_iterator@V?$_Vector_val@U?$_Simple_types@PEAUsmem_value@@@std@@@std@@@std@@QEBAAEBQEAUsmem_value@@XZ ; std::_Vector_const_iterator<std::_Vector_val<std::_Simple_types<smem_value *> > >::operator*
PUBLIC	??E?$_Vector_const_iterator@V?$_Vector_val@U?$_Simple_types@PEAUsmem_value@@@std@@@std@@@std@@QEAAAEAV01@XZ ; std::_Vector_const_iterator<std::_Vector_val<std::_Simple_types<smem_value *> > >::operator++
PUBLIC	?_Compat@?$_Vector_const_iterator@V?$_Vector_val@U?$_Simple_types@PEAUsmem_value@@@std@@@std@@@std@@QEBAXAEBV12@@Z ; std::_Vector_const_iterator<std::_Vector_val<std::_Simple_types<smem_value *> > >::_Compat
PUBLIC	??0?$_Vector_iterator@V?$_Vector_val@U?$_Simple_types@PEAUsmem_value@@@std@@@std@@@std@@QEAA@PEAPEAUsmem_value@@PEBU_Container_base0@1@@Z ; std::_Vector_iterator<std::_Vector_val<std::_Simple_types<smem_value *> > >::_Vector_iterator<std::_Vector_val<std::_Simple_types<smem_value *> > >
PUBLIC	?erase@?$vector@PEAUsmem_value@@V?$xalloc@PEAUsmem_value@@@@@std@@QEAA?AV?$_Vector_iterator@V?$_Vector_val@U?$_Simple_types@PEAUsmem_value@@@std@@@std@@@2@V?$_Vector_const_iterator@V?$_Vector_val@U?$_Simple_types@PEAUsmem_value@@@std@@@std@@@2@0@Z ; std::vector<smem_value *,xalloc<smem_value *> >::erase
PUBLIC	?begin@?$vector@PEAUsmem_value@@V?$xalloc@PEAUsmem_value@@@@@std@@QEAA?AV?$_Vector_iterator@V?$_Vector_val@U?$_Simple_types@PEAUsmem_value@@@std@@@std@@@2@XZ ; std::vector<smem_value *,xalloc<smem_value *> >::begin
PUBLIC	?end@?$vector@PEAUsmem_value@@V?$xalloc@PEAUsmem_value@@@@@std@@QEAA?AV?$_Vector_iterator@V?$_Vector_val@U?$_Simple_types@PEAUsmem_value@@@std@@@std@@@2@XZ ; std::vector<smem_value *,xalloc<smem_value *> >::end
PUBLIC	?empty@?$vector@PEAUsmem_value@@V?$xalloc@PEAUsmem_value@@@@@std@@QEBA_NXZ ; std::vector<smem_value *,xalloc<smem_value *> >::empty
PUBLIC	?clear@?$xr_vector@PEAUsmem_value@@V?$xalloc@PEAUsmem_value@@@@@@QEAAXXZ ; xr_vector<smem_value *,xalloc<smem_value *> >::clear
PUBLIC	??8?$_Vector_const_iterator@V?$_Vector_val@U?$_Simple_types@PEAUsmem_value@@@std@@@std@@@std@@QEBA_NAEBV01@@Z ; std::_Vector_const_iterator<std::_Vector_val<std::_Simple_types<smem_value *> > >::operator==
PUBLIC	??9?$_Vector_const_iterator@V?$_Vector_val@U?$_Simple_types@PEAUsmem_value@@@std@@@std@@@std@@QEBA_NAEBV01@@Z ; std::_Vector_const_iterator<std::_Vector_val<std::_Simple_types<smem_value *> > >::operator!=
PUBLIC	??D?$_Vector_iterator@V?$_Vector_val@U?$_Simple_types@PEAUsmem_value@@@std@@@std@@@std@@QEBAAEAPEAUsmem_value@@XZ ; std::_Vector_iterator<std::_Vector_val<std::_Simple_types<smem_value *> > >::operator*
PUBLIC	??E?$_Vector_iterator@V?$_Vector_val@U?$_Simple_types@PEAUsmem_value@@@std@@@std@@@std@@QEAA?AV01@H@Z ; std::_Vector_iterator<std::_Vector_val<std::_Simple_types<smem_value *> > >::operator++
PUBLIC	?clean@smem_container@@QEAAXXZ			; smem_container::clean
PUBLIC	?stat_economy@smem_container@@QEAAIXZ		; smem_container::stat_economy
PUBLIC	??1smem_container@@QEAA@XZ			; smem_container::~smem_container
;	COMDAT pdata
pdata	SEGMENT
$pdata$??$_Copy_memmove@PEAPEAUsmem_value@@PEAPEAU1@@std@@YAPEAPEAUsmem_value@@PEAPEAU1@00@Z DD imagerel $LN4
	DD	imagerel $LN4+48
	DD	imagerel $unwind$??$_Copy_memmove@PEAPEAUsmem_value@@PEAPEAU1@@std@@YAPEAPEAUsmem_value@@PEAPEAU1@00@Z
pdata	ENDS
;	COMDAT pdata
pdata	SEGMENT
$pdata$??$_Move_unchecked@PEAPEAUsmem_value@@PEAPEAU1@@std@@YAPEAPEAUsmem_value@@PEAPEAU1@00@Z DD imagerel $LN9
	DD	imagerel $LN9+48
	DD	imagerel $unwind$??$_Move_unchecked@PEAPEAUsmem_value@@PEAPEAU1@@std@@YAPEAPEAUsmem_value@@PEAPEAU1@00@Z
pdata	ENDS
;	COMDAT pdata
pdata	SEGMENT
$pdata$??$remove@V?$_Vector_iterator@V?$_Vector_val@U?$_Simple_types@PEAUsmem_value@@@std@@@std@@@std@@PEAUsmem_value@@@std@@YA?AV?$_Vector_iterator@V?$_Vector_val@U?$_Simple_types@PEAUsmem_value@@@std@@@std@@@0@V10@V10@AEBQEAUsmem_value@@@Z DD imagerel $LN24
	DD	imagerel $LN24+110
	DD	imagerel $unwind$??$remove@V?$_Vector_iterator@V?$_Vector_val@U?$_Simple_types@PEAUsmem_value@@@std@@@std@@@std@@PEAUsmem_value@@@std@@YA?AV?$_Vector_iterator@V?$_Vector_val@U?$_Simple_types@PEAUsmem_value@@@std@@@std@@@0@V10@V10@AEBQEAUsmem_value@@@Z
pdata	ENDS
;	COMDAT pdata
pdata	SEGMENT
$pdata$??$xr_free@Usmem_value@@@@YAXAEAPEAUsmem_value@@@Z DD imagerel $LN24
	DD	imagerel $LN24+42
	DD	imagerel $unwind$??$xr_free@Usmem_value@@@@YAXAEAPEAUsmem_value@@@Z
pdata	ENDS
;	COMDAT pdata
pdata	SEGMENT
$pdata$?erase@?$vector@PEAUsmem_value@@V?$xalloc@PEAUsmem_value@@@@@std@@QEAA?AV?$_Vector_iterator@V?$_Vector_val@U?$_Simple_types@PEAUsmem_value@@@std@@@std@@@2@V?$_Vector_const_iterator@V?$_Vector_val@U?$_Simple_types@PEAUsmem_value@@@std@@@std@@@2@0@Z DD imagerel $LN18
	DD	imagerel $LN18+29
	DD	imagerel $unwind$?erase@?$vector@PEAUsmem_value@@V?$xalloc@PEAUsmem_value@@@@@std@@QEAA?AV?$_Vector_iterator@V?$_Vector_val@U?$_Simple_types@PEAUsmem_value@@@std@@@std@@@2@V?$_Vector_const_iterator@V?$_Vector_val@U?$_Simple_types@PEAUsmem_value@@@std@@@std@@@2@0@Z
pdata	ENDS
;	COMDAT pdata
pdata	SEGMENT
$pdata$0$?erase@?$vector@PEAUsmem_value@@V?$xalloc@PEAUsmem_value@@@@@std@@QEAA?AV?$_Vector_iterator@V?$_Vector_val@U?$_Simple_types@PEAUsmem_value@@@std@@@std@@@2@V?$_Vector_const_iterator@V?$_Vector_val@U?$_Simple_types@PEAUsmem_value@@@std@@@std@@@2@0@Z DD imagerel $LN18+29
	DD	imagerel $LN18+90
	DD	imagerel $chain$0$?erase@?$vector@PEAUsmem_value@@V?$xalloc@PEAUsmem_value@@@@@std@@QEAA?AV?$_Vector_iterator@V?$_Vector_val@U?$_Simple_types@PEAUsmem_value@@@std@@@std@@@2@V?$_Vector_const_iterator@V?$_Vector_val@U?$_Simple_types@PEAUsmem_value@@@std@@@std@@@2@0@Z
pdata	ENDS
;	COMDAT pdata
pdata	SEGMENT
$pdata$1$?erase@?$vector@PEAUsmem_value@@V?$xalloc@PEAUsmem_value@@@@@std@@QEAA?AV?$_Vector_iterator@V?$_Vector_val@U?$_Simple_types@PEAUsmem_value@@@std@@@std@@@2@V?$_Vector_const_iterator@V?$_Vector_val@U?$_Simple_types@PEAUsmem_value@@@std@@@std@@@2@0@Z DD imagerel $LN18+90
	DD	imagerel $LN18+112
	DD	imagerel $chain$1$?erase@?$vector@PEAUsmem_value@@V?$xalloc@PEAUsmem_value@@@@@std@@QEAA?AV?$_Vector_iterator@V?$_Vector_val@U?$_Simple_types@PEAUsmem_value@@@std@@@std@@@2@V?$_Vector_const_iterator@V?$_Vector_val@U?$_Simple_types@PEAUsmem_value@@@std@@@std@@@2@0@Z
pdata	ENDS
pdata	SEGMENT
$pdata$?clean@smem_container@@QEAAXXZ DD imagerel $LN121
	DD	imagerel $LN121+207
	DD	imagerel $unwind$?clean@smem_container@@QEAAXXZ
$pdata$?stat_economy@smem_container@@QEAAIXZ DD imagerel $LN35
	DD	imagerel $LN35+119
	DD	imagerel $unwind$?stat_economy@smem_container@@QEAAIXZ
$pdata$??1smem_container@@QEAA@XZ DD imagerel $LN179
	DD	imagerel $LN179+287
	DD	imagerel $unwind$??1smem_container@@QEAA@XZ
xdata	SEGMENT
$unwind$?clean@smem_container@@QEAAXXZ DD 081501H
	DD	087415H
	DD	076415H
	DD	063415H
	DD	0e0113215H
$unwind$?stat_economy@smem_container@@QEAAIXZ DD 040a01H
	DD	06340aH
	DD	07006320aH
$unwind$??1smem_container@@QEAA@XZ DD 0a1a01H
	DD	09741aH
	DD	08641aH
	DD	07541aH
	DD	06341aH
	DD	0e016321aH
xdata	ENDS
;	COMDAT xdata
xdata	SEGMENT
$chain$1$?erase@?$vector@PEAUsmem_value@@V?$xalloc@PEAUsmem_value@@@@@std@@QEAA?AV?$_Vector_iterator@V?$_Vector_val@U?$_Simple_types@PEAUsmem_value@@@std@@@std@@@2@V?$_Vector_const_iterator@V?$_Vector_val@U?$_Simple_types@PEAUsmem_value@@@std@@@std@@@2@0@Z DD 021H
	DD	imagerel $LN18
	DD	imagerel $LN18+29
	DD	imagerel $unwind$?erase@?$vector@PEAUsmem_value@@V?$xalloc@PEAUsmem_value@@@@@std@@QEAA?AV?$_Vector_iterator@V?$_Vector_val@U?$_Simple_types@PEAUsmem_value@@@std@@@std@@@2@V?$_Vector_const_iterator@V?$_Vector_val@U?$_Simple_types@PEAUsmem_value@@@std@@@std@@@2@0@Z
xdata	ENDS
;	COMDAT xdata
xdata	SEGMENT
$chain$0$?erase@?$vector@PEAUsmem_value@@V?$xalloc@PEAUsmem_value@@@@@std@@QEAA?AV?$_Vector_iterator@V?$_Vector_val@U?$_Simple_types@PEAUsmem_value@@@std@@@std@@@2@V?$_Vector_const_iterator@V?$_Vector_val@U?$_Simple_types@PEAUsmem_value@@@std@@@std@@@2@0@Z DD 020521H
	DD	067405H
	DD	imagerel $LN18
	DD	imagerel $LN18+29
	DD	imagerel $unwind$?erase@?$vector@PEAUsmem_value@@V?$xalloc@PEAUsmem_value@@@@@std@@QEAA?AV?$_Vector_iterator@V?$_Vector_val@U?$_Simple_types@PEAUsmem_value@@@std@@@std@@@2@V?$_Vector_const_iterator@V?$_Vector_val@U?$_Simple_types@PEAUsmem_value@@@std@@@std@@@2@0@Z
xdata	ENDS
;	COMDAT xdata
xdata	SEGMENT
$unwind$?erase@?$vector@PEAUsmem_value@@V?$xalloc@PEAUsmem_value@@@@@std@@QEAA?AV?$_Vector_iterator@V?$_Vector_val@U?$_Simple_types@PEAUsmem_value@@@std@@@std@@@2@V?$_Vector_const_iterator@V?$_Vector_val@U?$_Simple_types@PEAUsmem_value@@@std@@@std@@@2@0@Z DD 060f01H
	DD	08540fH
	DD	07340fH
	DD	0600b320fH
xdata	ENDS
;	COMDAT xdata
xdata	SEGMENT
$unwind$??$xr_free@Usmem_value@@@@YAXAEAPEAUsmem_value@@@Z DD 020601H
	DD	030023206H
xdata	ENDS
;	COMDAT xdata
xdata	SEGMENT
$unwind$??$remove@V?$_Vector_iterator@V?$_Vector_val@U?$_Simple_types@PEAUsmem_value@@@std@@@std@@@std@@PEAUsmem_value@@@std@@YA?AV?$_Vector_iterator@V?$_Vector_val@U?$_Simple_types@PEAUsmem_value@@@std@@@std@@@0@V10@V10@AEBQEAUsmem_value@@@Z DD 060f01H
	DD	07640fH
	DD	06340fH
	DD	0700b320fH
xdata	ENDS
;	COMDAT xdata
xdata	SEGMENT
$unwind$??$_Move_unchecked@PEAPEAUsmem_value@@PEAPEAU1@@std@@YAPEAPEAUsmem_value@@PEAPEAU1@00@Z DD 040a01H
	DD	06340aH
	DD	07006320aH
xdata	ENDS
;	COMDAT xdata
xdata	SEGMENT
$unwind$??$_Copy_memmove@PEAPEAUsmem_value@@PEAPEAU1@@std@@YAPEAPEAUsmem_value@@PEAPEAU1@00@Z DD 040a01H
	DD	06340aH
	DD	07006320aH
; Function compile flags: /Ogtpy
; File C:\Users\Mahito\Desktop\Night outing\Night-outing\src\xrCore\xrsharedmem.cpp
; File C:\Users\Mahito\Desktop\Night outing\Night-outing\src\xrCore\xrSyncronize.cpp
; File C:\Program Files\Microsoft Visual Studio\2022\Community\VC\Tools\MSVC\14.35.32215\include\vector
; File C:\Users\Mahito\Desktop\Night outing\Night-outing\src\xrCore\xrsharedmem.cpp
; File C:\Program Files\Microsoft Visual Studio\2022\Community\VC\Tools\MSVC\14.35.32215\include\vector
; File C:\Users\Mahito\Desktop\Night outing\Night-outing\src\xrCore\xrsharedmem.cpp
; File C:\Users\Mahito\Desktop\Night outing\Night-outing\src\xrCore\xrMemory_subst_msvc.cpp
; File C:\Users\Mahito\Desktop\Night outing\Night-outing\src\xrCore\xrMemory.h
; File C:\Program Files\Microsoft Visual Studio\2022\Community\VC\Tools\MSVC\14.35.32215\include\vector
; File C:\Users\Mahito\Desktop\Night outing\Night-outing\src\xrCore\xrsharedmem.cpp
; File C:\Program Files\Microsoft Visual Studio\2022\Community\VC\Tools\MSVC\14.35.32215\include\xutility
; File C:\Program Files\Microsoft Visual Studio\2022\Community\VC\Tools\MSVC\14.35.32215\include\xmemory
; File C:\Program Files\Microsoft Visual Studio\2022\Community\VC\Tools\MSVC\14.35.32215\include\vector
; File C:\Program Files\Microsoft Visual Studio\2022\Community\VC\Tools\MSVC\14.35.32215\include\xutility
; File C:\Program Files\Microsoft Visual Studio\2022\Community\VC\Tools\MSVC\14.35.32215\include\vector
; File C:\Users\Mahito\Desktop\Night outing\Night-outing\src\xrCore\xrSyncronize.cpp
; File C:\Program Files\Microsoft Visual Studio\2022\Community\VC\Tools\MSVC\14.35.32215\include\vector
; File C:\Users\Mahito\Desktop\Night outing\Night-outing\src\xrCore\xrMemory_subst_msvc.cpp
; File C:\Program Files\Microsoft Visual Studio\2022\Community\VC\Tools\MSVC\14.35.32215\include\vector
; File C:\Users\Mahito\Desktop\Night outing\Night-outing\src\xrCore\xrSyncronize.cpp
; File C:\Users\Mahito\Desktop\Night outing\Night-outing\src\xrCore\xrMemory.h
; File C:\Users\Mahito\Desktop\Night outing\Night-outing\src\xrCore\xrMemory_subst_msvc.cpp
; File C:\Users\Mahito\Desktop\Night outing\Night-outing\src\xrCore\xrMemory.h
; File C:\Users\Mahito\Desktop\Night outing\Night-outing\src\xrCore\xrsharedmem.cpp
_TEXT	SEGMENT
this$ = 48
??1smem_container@@QEAA@XZ PROC				; smem_container::~smem_container

; 101  : {

$LN179:
	mov	QWORD PTR [rsp+8], rbx
	mov	QWORD PTR [rsp+16], rbp
	mov	QWORD PTR [rsp+24], rsi
	mov	QWORD PTR [rsp+32], rdi
	push	r14
	sub	rsp, 32					; 00000020H
	mov	rsi, rcx
; File C:\Users\Mahito\Desktop\Night outing\Night-outing\src\xrCore\xrSyncronize.cpp

; 64   : 	EnterCriticalSection			( (CRITICAL_SECTION*)pmutex );

	mov	rcx, QWORD PTR [rcx]
	call	QWORD PTR __imp_EnterCriticalSection
; File C:\Program Files\Microsoft Visual Studio\2022\Community\VC\Tools\MSVC\14.35.32215\include\vector

; 1859 :         return iterator(_My_data._Myfirst, _STD addressof(_My_data));

	mov	rdi, QWORD PTR [rsi+8]
; File C:\Users\Mahito\Desktop\Night outing\Night-outing\src\xrCore\xrsharedmem.cpp

; 63   : 	for (; it!=end; it++)	if (0==(*it)->dwReference)	xr_free	(*it);

	xor	r14d, r14d
; File C:\Program Files\Microsoft Visual Studio\2022\Community\VC\Tools\MSVC\14.35.32215\include\vector

; 41   :     _CONSTEXPR20 _Vector_const_iterator(_Tptr _Parg, const _Container_base* _Pvector) noexcept : _Ptr(_Parg) {

	mov	rbx, QWORD PTR [rsi+16]
; File C:\Users\Mahito\Desktop\Night outing\Night-outing\src\xrCore\xrsharedmem.cpp

; 63   : 	for (; it!=end; it++)	if (0==(*it)->dwReference)	xr_free	(*it);

	cmp	rdi, rbx
	je	SHORT $LN5@smem_conta
$LL6@smem_conta:
	mov	rcx, QWORD PTR [rdi]
	cmp	DWORD PTR [rcx], r14d
	jne	SHORT $LN4@smem_conta
; File C:\Users\Mahito\Desktop\Night outing\Night-outing\src\xrCore\xrMemory_subst_msvc.cpp

; 99   : 	stat_calls++;

	inc	DWORD PTR ?Memory@@3VxrMemory@@A

; 100  : 
; 101  : #ifdef PURE_ALLOC
; 102  : 	if (g_use_pure_alloc)
; 103  : 	{
; 104  : 		//free(P);
; 105  : 		_aligned_free(P);

	call	QWORD PTR __imp__aligned_free
; File C:\Users\Mahito\Desktop\Night outing\Night-outing\src\xrCore\xrMemory.h

; 72   : 		P = NULL;

	mov	QWORD PTR [rdi], r14
$LN4@smem_conta:
; File C:\Program Files\Microsoft Visual Studio\2022\Community\VC\Tools\MSVC\14.35.32215\include\vector

; 74   :         ++_Ptr;

	add	rdi, 8
; File C:\Users\Mahito\Desktop\Night outing\Night-outing\src\xrCore\xrsharedmem.cpp

; 63   : 	for (; it!=end; it++)	if (0==(*it)->dwReference)	xr_free	(*it);

	cmp	rdi, rbx
	jne	SHORT $LL6@smem_conta
	mov	rdi, QWORD PTR [rsi+8]
$LN5@smem_conta:

; 64   : 	container.erase	(remove(container.begin(),container.end(),(smem_value*)0),container.end());

	mov	rbp, QWORD PTR [rsi+16]
; File C:\Program Files\Microsoft Visual Studio\2022\Community\VC\Tools\MSVC\14.35.32215\include\xutility

; 123  :         return const_cast<_Ty*>(

	xor	r8d, r8d
	mov	rdx, rbp
	mov	rcx, rdi
	call	__std_find_trivial_8
; File C:\Program Files\Microsoft Visual Studio\2022\Community\VC\Tools\MSVC\14.35.32215\include\xmemory

; 2047 :     auto _UNext       = _UFirst;

	mov	rdi, rax

; 2048 :     if (_UFirst != _ULast) {

	cmp	rax, rbp
	je	SHORT $LN38@smem_conta

; 2049 :         while (++_UFirst != _ULast) {

	add	rax, 8
	cmp	rax, rbp
	je	SHORT $LN38@smem_conta
	npad	3
$LL37@smem_conta:

; 2050 :             if (!(*_UFirst == _Val)) {

	mov	rcx, QWORD PTR [rax]
	test	rcx, rcx
	je	SHORT $LN40@smem_conta

; 2051 :                 *_UNext = _STD move(*_UFirst);

	mov	QWORD PTR [rdi], rcx

; 2052 :                 ++_UNext;

	add	rdi, 8
$LN40@smem_conta:

; 2049 :         while (++_UFirst != _ULast) {

	add	rax, 8
	cmp	rax, rbp
	jne	SHORT $LL37@smem_conta
$LN38@smem_conta:
; File C:\Program Files\Microsoft Visual Studio\2022\Community\VC\Tools\MSVC\14.35.32215\include\vector

; 1812 :         if (_Firstptr != _Lastptr) { // something to do, invalidate iterators

	cmp	rdi, rbp
	je	SHORT $LN174@smem_conta
; File C:\Program Files\Microsoft Visual Studio\2022\Community\VC\Tools\MSVC\14.35.32215\include\xutility

; 4238 :     const auto _Count           = static_cast<size_t>(_Last_ch - _First_ch);

	mov	rbx, QWORD PTR [rsi+16]

; 4239 :     _CSTD memmove(_Dest_ch, _First_ch, _Count);

	mov	rdx, rbp
	sub	rbx, rbp
	mov	rcx, rdi
	mov	r8, rbx
	call	memmove

; 4240 :     if constexpr (is_pointer_v<_OutCtgIt>) {
; 4241 :         return reinterpret_cast<_OutCtgIt>(_Dest_ch + _Count);

	lea	rax, QWORD PTR [rbx+rdi]
; File C:\Program Files\Microsoft Visual Studio\2022\Community\VC\Tools\MSVC\14.35.32215\include\vector

; 1818 :             _Mylast = _Newlast;

	mov	QWORD PTR [rsi+16], rax
$LN174@smem_conta:
; File C:\Users\Mahito\Desktop\Night outing\Night-outing\src\xrCore\xrSyncronize.cpp

; 69   : 	LeaveCriticalSection			( (CRITICAL_SECTION*)pmutex );

	mov	rcx, QWORD PTR [rsi]
	call	QWORD PTR __imp_LeaveCriticalSection
; File C:\Program Files\Microsoft Visual Studio\2022\Community\VC\Tools\MSVC\14.35.32215\include\vector

; 2107 :         if (_Myfirst) { // destroy and deallocate old array

	mov	rcx, QWORD PTR [rsi+8]
	test	rcx, rcx
	je	SHORT $LN119@smem_conta
; File C:\Users\Mahito\Desktop\Night outing\Night-outing\src\xrCore\xrMemory_subst_msvc.cpp

; 99   : 	stat_calls++;

	inc	DWORD PTR ?Memory@@3VxrMemory@@A

; 100  : 
; 101  : #ifdef PURE_ALLOC
; 102  : 	if (g_use_pure_alloc)
; 103  : 	{
; 104  : 		//free(P);
; 105  : 		_aligned_free(P);

	call	QWORD PTR __imp__aligned_free
; File C:\Program Files\Microsoft Visual Studio\2022\Community\VC\Tools\MSVC\14.35.32215\include\vector

; 2112 :             _Myfirst = nullptr;

	mov	QWORD PTR [rsi+8], r14

; 2113 :             _Mylast  = nullptr;

	mov	QWORD PTR [rsi+16], r14

; 2114 :             _Myend   = nullptr;

	mov	QWORD PTR [rsi+24], r14
$LN119@smem_conta:
; File C:\Users\Mahito\Desktop\Night outing\Night-outing\src\xrCore\xrSyncronize.cpp

; 46   : 	DeleteCriticalSection			( (CRITICAL_SECTION*)pmutex	);

	mov	rcx, QWORD PTR [rsi]
	call	QWORD PTR __imp_DeleteCriticalSection
; File C:\Users\Mahito\Desktop\Night outing\Night-outing\src\xrCore\xrMemory.h

; 69   : 	if (P)

	mov	rcx, QWORD PTR [rsi]
	test	rcx, rcx
	je	SHORT $LN148@smem_conta
; File C:\Users\Mahito\Desktop\Night outing\Night-outing\src\xrCore\xrMemory_subst_msvc.cpp

; 99   : 	stat_calls++;

	inc	DWORD PTR ?Memory@@3VxrMemory@@A

; 100  : 
; 101  : #ifdef PURE_ALLOC
; 102  : 	if (g_use_pure_alloc)
; 103  : 	{
; 104  : 		//free(P);
; 105  : 		_aligned_free(P);

	call	QWORD PTR __imp__aligned_free
; File C:\Users\Mahito\Desktop\Night outing\Night-outing\src\xrCore\xrMemory.h

; 72   : 		P = NULL;

	mov	QWORD PTR [rsi], r14
$LN148@smem_conta:
; File C:\Users\Mahito\Desktop\Night outing\Night-outing\src\xrCore\xrsharedmem.cpp

; 103  : }

	mov	rbx, QWORD PTR [rsp+48]
	mov	rbp, QWORD PTR [rsp+56]
	mov	rsi, QWORD PTR [rsp+64]
	mov	rdi, QWORD PTR [rsp+72]
	add	rsp, 32					; 00000020H
	pop	r14
	ret	0
??1smem_container@@QEAA@XZ ENDP				; smem_container::~smem_container
_TEXT	ENDS
; Function compile flags: /Ogtpy
; File C:\Users\Mahito\Desktop\Night outing\Night-outing\src\xrCore\xrsharedmem.cpp
; File C:\Users\Mahito\Desktop\Night outing\Night-outing\src\xrCore\xrSyncronize.cpp
; File C:\Program Files\Microsoft Visual Studio\2022\Community\VC\Tools\MSVC\14.35.32215\include\vector
; File C:\Users\Mahito\Desktop\Night outing\Night-outing\src\xrCore\xrsharedmem.cpp
; File C:\Program Files\Microsoft Visual Studio\2022\Community\VC\Tools\MSVC\14.35.32215\include\vector
; File C:\Users\Mahito\Desktop\Night outing\Night-outing\src\xrCore\xrsharedmem.cpp
; File C:\Users\Mahito\Desktop\Night outing\Night-outing\src\xrCore\xrSyncronize.cpp
; File C:\Users\Mahito\Desktop\Night outing\Night-outing\src\xrCore\xrsharedmem.cpp
_TEXT	SEGMENT
this$dead$ = 48
?stat_economy@smem_container@@QEAAIXZ PROC		; smem_container::stat_economy

; 82   : {

$LN35:
	mov	QWORD PTR [rsp+8], rbx
	push	rdi
	sub	rsp, 32					; 00000020H
	xor	edi, edi
; File C:\Users\Mahito\Desktop\Night outing\Night-outing\src\xrCore\xrSyncronize.cpp

; 64   : 	EnterCriticalSection			( (CRITICAL_SECTION*)pmutex );

	mov	rcx, QWORD PTR [rdi]
	call	QWORD PTR __imp_EnterCriticalSection
; File C:\Program Files\Microsoft Visual Studio\2022\Community\VC\Tools\MSVC\14.35.32215\include\vector

; 41   :     _CONSTEXPR20 _Vector_const_iterator(_Tptr _Parg, const _Container_base* _Pvector) noexcept : _Ptr(_Parg) {

	mov	r8, QWORD PTR ds:16
; File C:\Users\Mahito\Desktop\Night outing\Night-outing\src\xrCore\xrsharedmem.cpp

; 88   : 	counter			-= sizeof(cdb::allocator_type);

	lea	rbx, QWORD PTR [rdi-33]

; 89   : 	const int		node_size = 20;
; 90   : 	for (; it!=end; it++)	{

	mov	rdx, QWORD PTR ds:8
	cmp	rdx, r8
	je	SHORT $LN3@stat_econo
	npad	2
$LL4@stat_econo:

; 93   : 		counter		+= s64((s64((*it)->dwReference) - 1)*s64((*it)->dwLength));

	mov	r9, QWORD PTR [rdx]
	add	rbx, -36				; ffffffffffffffdcH
; File C:\Program Files\Microsoft Visual Studio\2022\Community\VC\Tools\MSVC\14.35.32215\include\vector

; 74   :         ++_Ptr;

	add	rdx, 8
; File C:\Users\Mahito\Desktop\Night outing\Night-outing\src\xrCore\xrsharedmem.cpp

; 93   : 		counter		+= s64((s64((*it)->dwReference) - 1)*s64((*it)->dwLength));

	mov	r10d, DWORD PTR [r9]
	mov	r9d, DWORD PTR [r9+8]
	dec	r10
	imul	r10, r9
	add	rbx, r10
	cmp	rdx, r8
	jne	SHORT $LL4@stat_econo
$LN3@stat_econo:
; File C:\Users\Mahito\Desktop\Night outing\Night-outing\src\xrCore\xrSyncronize.cpp

; 69   : 	LeaveCriticalSection			( (CRITICAL_SECTION*)pmutex );

	mov	rcx, QWORD PTR [rdi]
	call	QWORD PTR __imp_LeaveCriticalSection
; File C:\Users\Mahito\Desktop\Night outing\Night-outing\src\xrCore\xrsharedmem.cpp

; 97   : 	return			u32(s64(counter)/s64(1024));

	mov	rax, rbx

; 98   : }

	mov	rbx, QWORD PTR [rsp+48]
	cdq
	and	edx, 1023				; 000003ffH
	add	rax, rdx
	sar	rax, 10
	add	rsp, 32					; 00000020H
	pop	rdi
	ret	0
?stat_economy@smem_container@@QEAAIXZ ENDP		; smem_container::stat_economy
_TEXT	ENDS
; Function compile flags: /Ogtpy
; File C:\Users\Mahito\Desktop\Night outing\Night-outing\src\xrCore\xrsharedmem.cpp
; File C:\Users\Mahito\Desktop\Night outing\Night-outing\src\xrCore\xrSyncronize.cpp
; File C:\Program Files\Microsoft Visual Studio\2022\Community\VC\Tools\MSVC\14.35.32215\include\vector
; File C:\Users\Mahito\Desktop\Night outing\Night-outing\src\xrCore\xrsharedmem.cpp
; File C:\Users\Mahito\Desktop\Night outing\Night-outing\src\xrCore\xrMemory_subst_msvc.cpp
; File C:\Users\Mahito\Desktop\Night outing\Night-outing\src\xrCore\xrMemory.h
; File C:\Program Files\Microsoft Visual Studio\2022\Community\VC\Tools\MSVC\14.35.32215\include\vector
; File C:\Users\Mahito\Desktop\Night outing\Night-outing\src\xrCore\xrsharedmem.cpp
; File C:\Program Files\Microsoft Visual Studio\2022\Community\VC\Tools\MSVC\14.35.32215\include\xutility
; File C:\Program Files\Microsoft Visual Studio\2022\Community\VC\Tools\MSVC\14.35.32215\include\xmemory
; File C:\Program Files\Microsoft Visual Studio\2022\Community\VC\Tools\MSVC\14.35.32215\include\vector
; File C:\Program Files\Microsoft Visual Studio\2022\Community\VC\Tools\MSVC\14.35.32215\include\xutility
; File C:\Program Files\Microsoft Visual Studio\2022\Community\VC\Tools\MSVC\14.35.32215\include\vector
; File C:\Users\Mahito\Desktop\Night outing\Night-outing\src\xrCore\xrSyncronize.cpp
; File C:\Users\Mahito\Desktop\Night outing\Night-outing\src\xrCore\xrsharedmem.cpp
; File C:\Users\Mahito\Desktop\Night outing\Night-outing\src\xrCore\xrSyncronize.cpp
; File C:\Users\Mahito\Desktop\Night outing\Night-outing\src\xrCore\xrsharedmem.cpp
_TEXT	SEGMENT
this$ = 48
?clean@smem_container@@QEAAXXZ PROC			; smem_container::clean

; 59   : {

$LN121:
	mov	QWORD PTR [rsp+8], rbx
	mov	QWORD PTR [rsp+16], rsi
	mov	QWORD PTR [rsp+24], rdi
	push	r14
	sub	rsp, 32					; 00000020H
	mov	r14, rcx
; File C:\Users\Mahito\Desktop\Night outing\Night-outing\src\xrCore\xrSyncronize.cpp

; 64   : 	EnterCriticalSection			( (CRITICAL_SECTION*)pmutex );

	mov	rcx, QWORD PTR [rcx]
	call	QWORD PTR __imp_EnterCriticalSection
; File C:\Program Files\Microsoft Visual Studio\2022\Community\VC\Tools\MSVC\14.35.32215\include\vector

; 1859 :         return iterator(_My_data._Myfirst, _STD addressof(_My_data));

	mov	rdi, QWORD PTR [r14+8]

; 41   :     _CONSTEXPR20 _Vector_const_iterator(_Tptr _Parg, const _Container_base* _Pvector) noexcept : _Ptr(_Parg) {

	mov	rbx, QWORD PTR [r14+16]
; File C:\Users\Mahito\Desktop\Night outing\Night-outing\src\xrCore\xrsharedmem.cpp

; 63   : 	for (; it!=end; it++)	if (0==(*it)->dwReference)	xr_free	(*it);

	cmp	rdi, rbx
	je	SHORT $LN3@clean
	xor	esi, esi
$LL4@clean:
	mov	rcx, QWORD PTR [rdi]
	cmp	DWORD PTR [rcx], esi
	jne	SHORT $LN2@clean
; File C:\Users\Mahito\Desktop\Night outing\Night-outing\src\xrCore\xrMemory_subst_msvc.cpp

; 99   : 	stat_calls++;

	inc	DWORD PTR ?Memory@@3VxrMemory@@A

; 100  : 
; 101  : #ifdef PURE_ALLOC
; 102  : 	if (g_use_pure_alloc)
; 103  : 	{
; 104  : 		//free(P);
; 105  : 		_aligned_free(P);

	call	QWORD PTR __imp__aligned_free
; File C:\Users\Mahito\Desktop\Night outing\Night-outing\src\xrCore\xrMemory.h

; 72   : 		P = NULL;

	mov	QWORD PTR [rdi], rsi
$LN2@clean:
; File C:\Program Files\Microsoft Visual Studio\2022\Community\VC\Tools\MSVC\14.35.32215\include\vector

; 74   :         ++_Ptr;

	add	rdi, 8
; File C:\Users\Mahito\Desktop\Night outing\Night-outing\src\xrCore\xrsharedmem.cpp

; 63   : 	for (; it!=end; it++)	if (0==(*it)->dwReference)	xr_free	(*it);

	cmp	rdi, rbx
	jne	SHORT $LL4@clean
	mov	rdi, QWORD PTR [r14+8]
$LN3@clean:

; 64   : 	container.erase	(remove(container.begin(),container.end(),(smem_value*)0),container.end());

	mov	rsi, QWORD PTR [r14+16]
; File C:\Program Files\Microsoft Visual Studio\2022\Community\VC\Tools\MSVC\14.35.32215\include\xutility

; 123  :         return const_cast<_Ty*>(

	xor	r8d, r8d
	mov	rdx, rsi
	mov	rcx, rdi
	call	__std_find_trivial_8
; File C:\Program Files\Microsoft Visual Studio\2022\Community\VC\Tools\MSVC\14.35.32215\include\xmemory

; 2047 :     auto _UNext       = _UFirst;

	mov	rdi, rax

; 2048 :     if (_UFirst != _ULast) {

	cmp	rax, rsi
	je	SHORT $LN36@clean

; 2049 :         while (++_UFirst != _ULast) {

	add	rax, 8
	cmp	rax, rsi
	je	SHORT $LN36@clean
$LL35@clean:

; 2050 :             if (!(*_UFirst == _Val)) {

	mov	rcx, QWORD PTR [rax]
	test	rcx, rcx
	je	SHORT $LN38@clean

; 2051 :                 *_UNext = _STD move(*_UFirst);

	mov	QWORD PTR [rdi], rcx

; 2052 :                 ++_UNext;

	add	rdi, 8
$LN38@clean:

; 2049 :         while (++_UFirst != _ULast) {

	add	rax, 8
	cmp	rax, rsi
	jne	SHORT $LL35@clean
$LN36@clean:
; File C:\Program Files\Microsoft Visual Studio\2022\Community\VC\Tools\MSVC\14.35.32215\include\vector

; 1812 :         if (_Firstptr != _Lastptr) { // something to do, invalidate iterators

	cmp	rdi, rsi
	je	SHORT $LN117@clean
; File C:\Program Files\Microsoft Visual Studio\2022\Community\VC\Tools\MSVC\14.35.32215\include\xutility

; 4238 :     const auto _Count           = static_cast<size_t>(_Last_ch - _First_ch);

	mov	rbx, QWORD PTR [r14+16]

; 4239 :     _CSTD memmove(_Dest_ch, _First_ch, _Count);

	mov	rdx, rsi
	sub	rbx, rsi
	mov	rcx, rdi
	mov	r8, rbx
	call	memmove

; 4240 :     if constexpr (is_pointer_v<_OutCtgIt>) {
; 4241 :         return reinterpret_cast<_OutCtgIt>(_Dest_ch + _Count);

	lea	rax, QWORD PTR [rbx+rdi]
; File C:\Program Files\Microsoft Visual Studio\2022\Community\VC\Tools\MSVC\14.35.32215\include\vector

; 1818 :             _Mylast = _Newlast;

	mov	QWORD PTR [r14+16], rax
$LN117@clean:
; File C:\Users\Mahito\Desktop\Night outing\Night-outing\src\xrCore\xrSyncronize.cpp

; 69   : 	LeaveCriticalSection			( (CRITICAL_SECTION*)pmutex );

	mov	rcx, QWORD PTR [r14]
; File C:\Users\Mahito\Desktop\Night outing\Night-outing\src\xrCore\xrsharedmem.cpp

; 67   : }

	mov	rbx, QWORD PTR [rsp+48]
	mov	rsi, QWORD PTR [rsp+56]
	mov	rdi, QWORD PTR [rsp+64]
	add	rsp, 32					; 00000020H
	pop	r14
; File C:\Users\Mahito\Desktop\Night outing\Night-outing\src\xrCore\xrSyncronize.cpp

; 69   : 	LeaveCriticalSection			( (CRITICAL_SECTION*)pmutex );

	rex_jmp	QWORD PTR __imp_LeaveCriticalSection
?clean@smem_container@@QEAAXXZ ENDP			; smem_container::clean
_TEXT	ENDS
; Function compile flags: /Ogtpy
; File C:\Program Files\Microsoft Visual Studio\2022\Community\VC\Tools\MSVC\14.35.32215\include\vector
;	COMDAT ??E?$_Vector_iterator@V?$_Vector_val@U?$_Simple_types@PEAUsmem_value@@@std@@@std@@@std@@QEAA?AV01@H@Z
_TEXT	SEGMENT
this$ = 8
__$ReturnUdt$ = 16
__formal$dead$ = 24
??E?$_Vector_iterator@V?$_Vector_val@U?$_Simple_types@PEAUsmem_value@@@std@@@std@@@std@@QEAA?AV01@H@Z PROC ; std::_Vector_iterator<std::_Vector_val<std::_Simple_types<smem_value *> > >::operator++, COMDAT

; 281  :         _Vector_iterator _Tmp = *this;

	mov	rax, QWORD PTR [rcx]
	mov	QWORD PTR [rdx], rax

; 74   :         ++_Ptr;

	add	rax, 8
	mov	QWORD PTR [rcx], rax

; 282  :         _Mybase::operator++();
; 283  :         return _Tmp;

	mov	rax, rdx

; 284  :     }

	ret	0
??E?$_Vector_iterator@V?$_Vector_val@U?$_Simple_types@PEAUsmem_value@@@std@@@std@@@std@@QEAA?AV01@H@Z ENDP ; std::_Vector_iterator<std::_Vector_val<std::_Simple_types<smem_value *> > >::operator++
_TEXT	ENDS
; Function compile flags: /Ogtpy
; File C:\Program Files\Microsoft Visual Studio\2022\Community\VC\Tools\MSVC\14.35.32215\include\vector
;	COMDAT ??D?$_Vector_iterator@V?$_Vector_val@U?$_Simple_types@PEAUsmem_value@@@std@@@std@@@std@@QEBAAEAPEAUsmem_value@@XZ
_TEXT	SEGMENT
this$ = 8
??D?$_Vector_iterator@V?$_Vector_val@U?$_Simple_types@PEAUsmem_value@@@std@@@std@@@std@@QEBAAEAPEAUsmem_value@@XZ PROC ; std::_Vector_iterator<std::_Vector_val<std::_Simple_types<smem_value *> > >::operator*, COMDAT

; 261  :         return const_cast<reference>(_Mybase::operator*());

	mov	rax, QWORD PTR [rcx]

; 262  :     }

	ret	0
??D?$_Vector_iterator@V?$_Vector_val@U?$_Simple_types@PEAUsmem_value@@@std@@@std@@@std@@QEBAAEAPEAUsmem_value@@XZ ENDP ; std::_Vector_iterator<std::_Vector_val<std::_Simple_types<smem_value *> > >::operator*
_TEXT	ENDS
; Function compile flags: /Ogtpy
; File C:\Program Files\Microsoft Visual Studio\2022\Community\VC\Tools\MSVC\14.35.32215\include\vector
;	COMDAT ??9?$_Vector_const_iterator@V?$_Vector_val@U?$_Simple_types@PEAUsmem_value@@@std@@@std@@@std@@QEBA_NAEBV01@@Z
_TEXT	SEGMENT
this$ = 8
_Right$ = 16
??9?$_Vector_const_iterator@V?$_Vector_val@U?$_Simple_types@PEAUsmem_value@@@std@@@std@@@std@@QEBA_NAEBV01@@Z PROC ; std::_Vector_const_iterator<std::_Vector_val<std::_Simple_types<smem_value *> > >::operator!=, COMDAT

; 166  :         return !(*this == _Right);

	mov	rax, QWORD PTR [rdx]
	cmp	QWORD PTR [rcx], rax
	setne	al

; 167  :     }

	ret	0
??9?$_Vector_const_iterator@V?$_Vector_val@U?$_Simple_types@PEAUsmem_value@@@std@@@std@@@std@@QEBA_NAEBV01@@Z ENDP ; std::_Vector_const_iterator<std::_Vector_val<std::_Simple_types<smem_value *> > >::operator!=
_TEXT	ENDS
; Function compile flags: /Ogtpy
; File C:\Program Files\Microsoft Visual Studio\2022\Community\VC\Tools\MSVC\14.35.32215\include\vector
;	COMDAT ??8?$_Vector_const_iterator@V?$_Vector_val@U?$_Simple_types@PEAUsmem_value@@@std@@@std@@@std@@QEBA_NAEBV01@@Z
_TEXT	SEGMENT
this$ = 8
_Right$ = 16
??8?$_Vector_const_iterator@V?$_Vector_val@U?$_Simple_types@PEAUsmem_value@@@std@@@std@@@std@@QEBA_NAEBV01@@Z PROC ; std::_Vector_const_iterator<std::_Vector_val<std::_Simple_types<smem_value *> > >::operator==, COMDAT

; 155  :         _Compat(_Right);
; 156  :         return _Ptr == _Right._Ptr;

	mov	rax, QWORD PTR [rdx]
	cmp	QWORD PTR [rcx], rax
	sete	al

; 157  :     }

	ret	0
??8?$_Vector_const_iterator@V?$_Vector_val@U?$_Simple_types@PEAUsmem_value@@@std@@@std@@@std@@QEBA_NAEBV01@@Z ENDP ; std::_Vector_const_iterator<std::_Vector_val<std::_Simple_types<smem_value *> > >::operator==
_TEXT	ENDS
; Function compile flags: /Ogtpy
; File C:\Users\Mahito\Desktop\Night outing\Night-outing\src\xrCore\_stl_extensions.h
; File C:\Program Files\Microsoft Visual Studio\2022\Community\VC\Tools\MSVC\14.35.32215\include\vector
; File C:\Users\Mahito\Desktop\Night outing\Night-outing\src\xrCore\_stl_extensions.h
;	COMDAT ?clear@?$xr_vector@PEAUsmem_value@@V?$xalloc@PEAUsmem_value@@@@@@QEAAXXZ
_TEXT	SEGMENT
this$ = 8
?clear@?$xr_vector@PEAUsmem_value@@V?$xalloc@PEAUsmem_value@@@@@@QEAAXXZ PROC ; xr_vector<smem_value *,xalloc<smem_value *> >::clear, COMDAT
; File C:\Program Files\Microsoft Visual Studio\2022\Community\VC\Tools\MSVC\14.35.32215\include\vector

; 1829 :         if (_Myfirst == _Mylast) { // already empty, nothing to do

	mov	rax, QWORD PTR [rcx]
	cmp	rax, QWORD PTR [rcx+8]
	je	SHORT $LN5@clear

; 1830 :             // This is an optimization for debug mode: we can avoid taking the debug lock to invalidate iterators.
; 1831 :             // Note that when clearing an empty vector, this will preserve past-the-end iterators, which is allowed by
; 1832 :             // N4901 [tab:container.seq.req] "a.clear() [...] may invalidate the past-the-end iterator".
; 1833 :             return;
; 1834 :         }
; 1835 : 
; 1836 :         _My_data._Orphan_all();
; 1837 :         _Destroy_range(_Myfirst, _Mylast, _Getal());
; 1838 :         _ASAN_VECTOR_MODIFY(static_cast<difference_type>(_Myfirst - _Mylast)); // negative when destroying elements
; 1839 :         _Mylast = _Myfirst;

	mov	QWORD PTR [rcx+8], rax
$LN5@clear:
; File C:\Users\Mahito\Desktop\Night outing\Night-outing\src\xrCore\_stl_extensions.h

; 133  : 	void	clear				()									{ clear_and_free	();			}

	ret	0
?clear@?$xr_vector@PEAUsmem_value@@V?$xalloc@PEAUsmem_value@@@@@@QEAAXXZ ENDP ; xr_vector<smem_value *,xalloc<smem_value *> >::clear
_TEXT	ENDS
; Function compile flags: /Ogtpy
; File C:\Program Files\Microsoft Visual Studio\2022\Community\VC\Tools\MSVC\14.35.32215\include\vector
;	COMDAT ?empty@?$vector@PEAUsmem_value@@V?$xalloc@PEAUsmem_value@@@@@std@@QEBA_NXZ
_TEXT	SEGMENT
this$ = 8
?empty@?$vector@PEAUsmem_value@@V?$xalloc@PEAUsmem_value@@@@@std@@QEBA_NXZ PROC ; std::vector<smem_value *,xalloc<smem_value *> >::empty, COMDAT

; 1926 :         auto& _My_data = _Mypair._Myval2;
; 1927 :         return _My_data._Myfirst == _My_data._Mylast;

	mov	rax, QWORD PTR [rcx+8]
	cmp	QWORD PTR [rcx], rax
	sete	al

; 1928 :     }

	ret	0
?empty@?$vector@PEAUsmem_value@@V?$xalloc@PEAUsmem_value@@@@@std@@QEBA_NXZ ENDP ; std::vector<smem_value *,xalloc<smem_value *> >::empty
_TEXT	ENDS
; Function compile flags: /Ogtpy
; File C:\Program Files\Microsoft Visual Studio\2022\Community\VC\Tools\MSVC\14.35.32215\include\vector
;	COMDAT ?end@?$vector@PEAUsmem_value@@V?$xalloc@PEAUsmem_value@@@@@std@@QEAA?AV?$_Vector_iterator@V?$_Vector_val@U?$_Simple_types@PEAUsmem_value@@@std@@@std@@@2@XZ
_TEXT	SEGMENT
this$ = 8
__$ReturnUdt$ = 16
?end@?$vector@PEAUsmem_value@@V?$xalloc@PEAUsmem_value@@@@@std@@QEAA?AV?$_Vector_iterator@V?$_Vector_val@U?$_Simple_types@PEAUsmem_value@@@std@@@std@@@2@XZ PROC ; std::vector<smem_value *,xalloc<smem_value *> >::end, COMDAT

; 41   :     _CONSTEXPR20 _Vector_const_iterator(_Tptr _Parg, const _Container_base* _Pvector) noexcept : _Ptr(_Parg) {

	mov	rax, QWORD PTR [rcx+8]
	mov	QWORD PTR [rdx], rax

; 1868 :         auto& _My_data = _Mypair._Myval2;
; 1869 :         return iterator(_My_data._Mylast, _STD addressof(_My_data));

	mov	rax, rdx

; 1870 :     }

	ret	0
?end@?$vector@PEAUsmem_value@@V?$xalloc@PEAUsmem_value@@@@@std@@QEAA?AV?$_Vector_iterator@V?$_Vector_val@U?$_Simple_types@PEAUsmem_value@@@std@@@std@@@2@XZ ENDP ; std::vector<smem_value *,xalloc<smem_value *> >::end
_TEXT	ENDS
; Function compile flags: /Ogtpy
; File C:\Program Files\Microsoft Visual Studio\2022\Community\VC\Tools\MSVC\14.35.32215\include\vector
;	COMDAT ?begin@?$vector@PEAUsmem_value@@V?$xalloc@PEAUsmem_value@@@@@std@@QEAA?AV?$_Vector_iterator@V?$_Vector_val@U?$_Simple_types@PEAUsmem_value@@@std@@@std@@@2@XZ
_TEXT	SEGMENT
this$ = 8
__$ReturnUdt$ = 16
?begin@?$vector@PEAUsmem_value@@V?$xalloc@PEAUsmem_value@@@@@std@@QEAA?AV?$_Vector_iterator@V?$_Vector_val@U?$_Simple_types@PEAUsmem_value@@@std@@@std@@@2@XZ PROC ; std::vector<smem_value *,xalloc<smem_value *> >::begin, COMDAT

; 41   :     _CONSTEXPR20 _Vector_const_iterator(_Tptr _Parg, const _Container_base* _Pvector) noexcept : _Ptr(_Parg) {

	mov	rax, QWORD PTR [rcx]
	mov	QWORD PTR [rdx], rax

; 1858 :         auto& _My_data = _Mypair._Myval2;
; 1859 :         return iterator(_My_data._Myfirst, _STD addressof(_My_data));

	mov	rax, rdx

; 1860 :     }

	ret	0
?begin@?$vector@PEAUsmem_value@@V?$xalloc@PEAUsmem_value@@@@@std@@QEAA?AV?$_Vector_iterator@V?$_Vector_val@U?$_Simple_types@PEAUsmem_value@@@std@@@std@@@2@XZ ENDP ; std::vector<smem_value *,xalloc<smem_value *> >::begin
_TEXT	ENDS
; Function compile flags: /Ogtpy
; File C:\Program Files\Microsoft Visual Studio\2022\Community\VC\Tools\MSVC\14.35.32215\include\vector
; File C:\Program Files\Microsoft Visual Studio\2022\Community\VC\Tools\MSVC\14.35.32215\include\xutility
; File C:\Program Files\Microsoft Visual Studio\2022\Community\VC\Tools\MSVC\14.35.32215\include\vector
;	COMDAT ?erase@?$vector@PEAUsmem_value@@V?$xalloc@PEAUsmem_value@@@@@std@@QEAA?AV?$_Vector_iterator@V?$_Vector_val@U?$_Simple_types@PEAUsmem_value@@@std@@@std@@@2@V?$_Vector_const_iterator@V?$_Vector_val@U?$_Simple_types@PEAUsmem_value@@@std@@@std@@@2@0@Z
_TEXT	SEGMENT
this$ = 48
__$ReturnUdt$ = 56
_First$ = 64
_Last$ = 72
?erase@?$vector@PEAUsmem_value@@V?$xalloc@PEAUsmem_value@@@@@std@@QEAA?AV?$_Vector_iterator@V?$_Vector_val@U?$_Simple_types@PEAUsmem_value@@@std@@@std@@@2@V?$_Vector_const_iterator@V?$_Vector_val@U?$_Simple_types@PEAUsmem_value@@@std@@@std@@@2@0@Z PROC ; std::vector<smem_value *,xalloc<smem_value *> >::erase, COMDAT

; 1800 :         is_nothrow_move_assignable_v<value_type>) /* strengthened */ {

$LN18:
	mov	QWORD PTR [rsp+16], rbx
	mov	QWORD PTR [rsp+24], rbp
	push	rsi
	sub	rsp, 32					; 00000020H
	mov	rbx, r8
	mov	rsi, rdx
	mov	rbp, rcx

; 1801 :         const pointer _Firstptr = _First._Ptr;
; 1802 :         const pointer _Lastptr  = _Last._Ptr;
; 1803 :         auto& _My_data          = _Mypair._Myval2;
; 1804 :         pointer& _Mylast        = _My_data._Mylast;
; 1805 : 
; 1806 : #if _ITERATOR_DEBUG_LEVEL == 2
; 1807 :         _STL_VERIFY(_First._Getcont() == _STD addressof(_My_data) && _Last._Getcont() == _STD addressof(_My_data)
; 1808 :                         && _Firstptr >= _My_data._Myfirst && _Lastptr >= _Firstptr && _Mylast >= _Lastptr,
; 1809 :             "vector erase iterator outside range");
; 1810 : #endif // _ITERATOR_DEBUG_LEVEL == 2
; 1811 : 
; 1812 :         if (_Firstptr != _Lastptr) { // something to do, invalidate iterators

	cmp	r8, r9
	je	SHORT $LN15@erase
; File C:\Program Files\Microsoft Visual Studio\2022\Community\VC\Tools\MSVC\14.35.32215\include\xutility

; 4238 :     const auto _Count           = static_cast<size_t>(_Last_ch - _First_ch);

	mov	QWORD PTR [rsp+48], rdi

; 4239 :     _CSTD memmove(_Dest_ch, _First_ch, _Count);

	mov	rdx, r9
	mov	rdi, QWORD PTR [rcx+8]
	mov	rcx, rbx
	sub	rdi, r9
	mov	r8, rdi
	call	memmove

; 4240 :     if constexpr (is_pointer_v<_OutCtgIt>) {
; 4241 :         return reinterpret_cast<_OutCtgIt>(_Dest_ch + _Count);

	lea	rax, QWORD PTR [rdi+rbx]
; File C:\Program Files\Microsoft Visual Studio\2022\Community\VC\Tools\MSVC\14.35.32215\include\vector

; 41   :     _CONSTEXPR20 _Vector_const_iterator(_Tptr _Parg, const _Container_base* _Pvector) noexcept : _Ptr(_Parg) {

	mov	QWORD PTR [rsi], rbx

; 1813 :             _Orphan_range(_Firstptr, _Mylast);
; 1814 : 
; 1815 :             const pointer _Newlast = _Move_unchecked(_Lastptr, _Mylast, _Firstptr);
; 1816 :             _Destroy_range(_Newlast, _Mylast, _Getal());
; 1817 :             _ASAN_VECTOR_MODIFY(static_cast<difference_type>(_Newlast - _Mylast)); // negative when destroying elements
; 1818 :             _Mylast = _Newlast;
; 1819 :         }
; 1820 : 
; 1821 :         return iterator(_Firstptr, _STD addressof(_My_data));

	mov	rdi, QWORD PTR [rsp+48]
	mov	QWORD PTR [rbp+8], rax

; 1822 :     }

	mov	rax, rsi
	mov	rbx, QWORD PTR [rsp+56]
	mov	rbp, QWORD PTR [rsp+64]
	add	rsp, 32					; 00000020H
	pop	rsi
	ret	0
$LN15@erase:
	mov	rbp, QWORD PTR [rsp+64]
	mov	rax, rsi

; 41   :     _CONSTEXPR20 _Vector_const_iterator(_Tptr _Parg, const _Container_base* _Pvector) noexcept : _Ptr(_Parg) {

	mov	QWORD PTR [rdx], rbx

; 1822 :     }

	mov	rbx, QWORD PTR [rsp+56]
	add	rsp, 32					; 00000020H
	pop	rsi
	ret	0
?erase@?$vector@PEAUsmem_value@@V?$xalloc@PEAUsmem_value@@@@@std@@QEAA?AV?$_Vector_iterator@V?$_Vector_val@U?$_Simple_types@PEAUsmem_value@@@std@@@std@@@2@V?$_Vector_const_iterator@V?$_Vector_val@U?$_Simple_types@PEAUsmem_value@@@std@@@std@@@2@0@Z ENDP ; std::vector<smem_value *,xalloc<smem_value *> >::erase
_TEXT	ENDS
; Function compile flags: /Ogtpy
; File C:\Program Files\Microsoft Visual Studio\2022\Community\VC\Tools\MSVC\14.35.32215\include\vector
;	COMDAT ??0?$_Vector_iterator@V?$_Vector_val@U?$_Simple_types@PEAUsmem_value@@@std@@@std@@@std@@QEAA@PEAPEAUsmem_value@@PEBU_Container_base0@1@@Z
_TEXT	SEGMENT
this$ = 8
__param0$ = 16
__param1$dead$ = 24
??0?$_Vector_iterator@V?$_Vector_val@U?$_Simple_types@PEAUsmem_value@@@std@@@std@@@std@@QEAA@PEAPEAUsmem_value@@PEBU_Container_base0@1@@Z PROC ; std::_Vector_iterator<std::_Vector_val<std::_Simple_types<smem_value *> > >::_Vector_iterator<std::_Vector_val<std::_Simple_types<smem_value *> > >, COMDAT

; 41   :     _CONSTEXPR20 _Vector_const_iterator(_Tptr _Parg, const _Container_base* _Pvector) noexcept : _Ptr(_Parg) {

	mov	QWORD PTR [rcx], rdx
	mov	rax, rcx
	ret	0
??0?$_Vector_iterator@V?$_Vector_val@U?$_Simple_types@PEAUsmem_value@@@std@@@std@@@std@@QEAA@PEAPEAUsmem_value@@PEBU_Container_base0@1@@Z ENDP ; std::_Vector_iterator<std::_Vector_val<std::_Simple_types<smem_value *> > >::_Vector_iterator<std::_Vector_val<std::_Simple_types<smem_value *> > >
_TEXT	ENDS
; Function compile flags: /Ogtpy
; File C:\Program Files\Microsoft Visual Studio\2022\Community\VC\Tools\MSVC\14.35.32215\include\vector
;	COMDAT ?_Compat@?$_Vector_const_iterator@V?$_Vector_val@U?$_Simple_types@PEAUsmem_value@@@std@@@std@@@std@@QEBAXAEBV12@@Z
_TEXT	SEGMENT
this$dead$ = 8
_Right$dead$ = 16
?_Compat@?$_Vector_const_iterator@V?$_Vector_val@U?$_Simple_types@PEAUsmem_value@@@std@@@std@@@std@@QEBAXAEBV12@@Z PROC ; std::_Vector_const_iterator<std::_Vector_val<std::_Simple_types<smem_value *> > >::_Compat, COMDAT

; 188  :         // test for compatible iterator pair
; 189  : #if _ITERATOR_DEBUG_LEVEL == 0
; 190  :         (void) _Right;
; 191  : #else // ^^^ _ITERATOR_DEBUG_LEVEL == 0 ^^^ // vvv _ITERATOR_DEBUG_LEVEL != 0 vvv
; 192  :         _STL_VERIFY(this->_Getcont() == _Right._Getcont(), "vector iterators incompatible");
; 193  : #endif // _ITERATOR_DEBUG_LEVEL == 0
; 194  :     }

	ret	0
?_Compat@?$_Vector_const_iterator@V?$_Vector_val@U?$_Simple_types@PEAUsmem_value@@@std@@@std@@@std@@QEBAXAEBV12@@Z ENDP ; std::_Vector_const_iterator<std::_Vector_val<std::_Simple_types<smem_value *> > >::_Compat
_TEXT	ENDS
; Function compile flags: /Ogtpy
; File C:\Program Files\Microsoft Visual Studio\2022\Community\VC\Tools\MSVC\14.35.32215\include\vector
;	COMDAT ??E?$_Vector_const_iterator@V?$_Vector_val@U?$_Simple_types@PEAUsmem_value@@@std@@@std@@@std@@QEAAAEAV01@XZ
_TEXT	SEGMENT
this$ = 8
??E?$_Vector_const_iterator@V?$_Vector_val@U?$_Simple_types@PEAUsmem_value@@@std@@@std@@@std@@QEAAAEAV01@XZ PROC ; std::_Vector_const_iterator<std::_Vector_val<std::_Simple_types<smem_value *> > >::operator++, COMDAT

; 68   : #if _ITERATOR_DEBUG_LEVEL != 0
; 69   :         const auto _Mycont = static_cast<const _Myvec*>(this->_Getcont());
; 70   :         _STL_VERIFY(_Ptr, "can't increment value-initialized vector iterator");
; 71   :         _STL_VERIFY(_Ptr < _Mycont->_Mylast, "can't increment vector iterator past end");
; 72   : #endif // _ITERATOR_DEBUG_LEVEL != 0
; 73   : 
; 74   :         ++_Ptr;

	add	QWORD PTR [rcx], 8

; 75   :         return *this;

	mov	rax, rcx

; 76   :     }

	ret	0
??E?$_Vector_const_iterator@V?$_Vector_val@U?$_Simple_types@PEAUsmem_value@@@std@@@std@@@std@@QEAAAEAV01@XZ ENDP ; std::_Vector_const_iterator<std::_Vector_val<std::_Simple_types<smem_value *> > >::operator++
_TEXT	ENDS
; Function compile flags: /Ogtpy
; File C:\Program Files\Microsoft Visual Studio\2022\Community\VC\Tools\MSVC\14.35.32215\include\vector
;	COMDAT ??D?$_Vector_const_iterator@V?$_Vector_val@U?$_Simple_types@PEAUsmem_value@@@std@@@std@@@std@@QEBAAEBQEAUsmem_value@@XZ
_TEXT	SEGMENT
this$ = 8
??D?$_Vector_const_iterator@V?$_Vector_val@U?$_Simple_types@PEAUsmem_value@@@std@@@std@@@std@@QEBAAEBQEAUsmem_value@@XZ PROC ; std::_Vector_const_iterator<std::_Vector_val<std::_Simple_types<smem_value *> > >::operator*, COMDAT

; 46   : #if _ITERATOR_DEBUG_LEVEL != 0
; 47   :         const auto _Mycont = static_cast<const _Myvec*>(this->_Getcont());
; 48   :         _STL_VERIFY(_Ptr, "can't dereference value-initialized vector iterator");
; 49   :         _STL_VERIFY(
; 50   :             _Mycont->_Myfirst <= _Ptr && _Ptr < _Mycont->_Mylast, "can't dereference out of range vector iterator");
; 51   : #endif // _ITERATOR_DEBUG_LEVEL != 0
; 52   : 
; 53   :         return *_Ptr;

	mov	rax, QWORD PTR [rcx]

; 54   :     }

	ret	0
??D?$_Vector_const_iterator@V?$_Vector_val@U?$_Simple_types@PEAUsmem_value@@@std@@@std@@@std@@QEBAAEBQEAUsmem_value@@XZ ENDP ; std::_Vector_const_iterator<std::_Vector_val<std::_Simple_types<smem_value *> > >::operator*
_TEXT	ENDS
; Function compile flags: /Ogtpy
; File C:\Program Files\Microsoft Visual Studio\2022\Community\VC\Tools\MSVC\14.35.32215\include\vector
;	COMDAT ??0?$_Vector_const_iterator@V?$_Vector_val@U?$_Simple_types@PEAUsmem_value@@@std@@@std@@@std@@QEAA@PEAPEAUsmem_value@@PEBU_Container_base0@1@@Z
_TEXT	SEGMENT
this$ = 8
_Parg$ = 16
_Pvector$dead$ = 24
??0?$_Vector_const_iterator@V?$_Vector_val@U?$_Simple_types@PEAUsmem_value@@@std@@@std@@@std@@QEAA@PEAPEAUsmem_value@@PEBU_Container_base0@1@@Z PROC ; std::_Vector_const_iterator<std::_Vector_val<std::_Simple_types<smem_value *> > >::_Vector_const_iterator<std::_Vector_val<std::_Simple_types<smem_value *> > >, COMDAT

; 41   :     _CONSTEXPR20 _Vector_const_iterator(_Tptr _Parg, const _Container_base* _Pvector) noexcept : _Ptr(_Parg) {

	mov	QWORD PTR [rcx], rdx

; 42   :         this->_Adopt(_Pvector);
; 43   :     }

	mov	rax, rcx
	ret	0
??0?$_Vector_const_iterator@V?$_Vector_val@U?$_Simple_types@PEAUsmem_value@@@std@@@std@@@std@@QEAA@PEAPEAUsmem_value@@PEBU_Container_base0@1@@Z ENDP ; std::_Vector_const_iterator<std::_Vector_val<std::_Simple_types<smem_value *> > >::_Vector_const_iterator<std::_Vector_val<std::_Simple_types<smem_value *> > >
_TEXT	ENDS
; Function compile flags: /Ogtpy
; File C:\Users\Mahito\Desktop\Night outing\Night-outing\src\xrCore\_stl_extensions.h
; File C:\Program Files\Microsoft Visual Studio\2022\Community\VC\Tools\MSVC\14.35.32215\include\vector
; File C:\Users\Mahito\Desktop\Night outing\Night-outing\src\xrCore\_stl_extensions.h
;	COMDAT ?clear_and_free@?$xr_vector@PEAUsmem_value@@V?$xalloc@PEAUsmem_value@@@@@@QEAAXXZ
_TEXT	SEGMENT
this$ = 8
?clear_and_free@?$xr_vector@PEAUsmem_value@@V?$xalloc@PEAUsmem_value@@@@@@QEAAXXZ PROC ; xr_vector<smem_value *,xalloc<smem_value *> >::clear_and_free, COMDAT
; File C:\Program Files\Microsoft Visual Studio\2022\Community\VC\Tools\MSVC\14.35.32215\include\vector

; 1829 :         if (_Myfirst == _Mylast) { // already empty, nothing to do

	mov	rax, QWORD PTR [rcx]
	cmp	rax, QWORD PTR [rcx+8]
	je	SHORT $LN3@clear_and_

; 1830 :             // This is an optimization for debug mode: we can avoid taking the debug lock to invalidate iterators.
; 1831 :             // Note that when clearing an empty vector, this will preserve past-the-end iterators, which is allowed by
; 1832 :             // N4901 [tab:container.seq.req] "a.clear() [...] may invalidate the past-the-end iterator".
; 1833 :             return;
; 1834 :         }
; 1835 : 
; 1836 :         _My_data._Orphan_all();
; 1837 :         _Destroy_range(_Myfirst, _Mylast, _Getal());
; 1838 :         _ASAN_VECTOR_MODIFY(static_cast<difference_type>(_Myfirst - _Mylast)); // negative when destroying elements
; 1839 :         _Mylast = _Myfirst;

	mov	QWORD PTR [rcx+8], rax
$LN3@clear_and_:
; File C:\Users\Mahito\Desktop\Night outing\Night-outing\src\xrCore\_stl_extensions.h

; 128  : 	void	clear_and_free		()									{ inherited::clear();			}

	ret	0
?clear_and_free@?$xr_vector@PEAUsmem_value@@V?$xalloc@PEAUsmem_value@@@@@@QEAAXXZ ENDP ; xr_vector<smem_value *,xalloc<smem_value *> >::clear_and_free
_TEXT	ENDS
; Function compile flags: /Ogtpy
; File C:\Program Files\Microsoft Visual Studio\2022\Community\VC\Tools\MSVC\14.35.32215\include\vector
;	COMDAT ?_Orphan_range@?$vector@PEAUsmem_value@@V?$xalloc@PEAUsmem_value@@@@@std@@AEBAXPEAPEAUsmem_value@@0@Z
_TEXT	SEGMENT
this$dead$ = 8
__formal$dead$ = 16
__formal$dead$ = 24
?_Orphan_range@?$vector@PEAUsmem_value@@V?$xalloc@PEAUsmem_value@@@@@std@@AEBAXPEAPEAUsmem_value@@0@Z PROC ; std::vector<smem_value *,xalloc<smem_value *> >::_Orphan_range, COMDAT

; 2240 :     _CONSTEXPR20 void _Orphan_range(pointer, pointer) const {}

	ret	0
?_Orphan_range@?$vector@PEAUsmem_value@@V?$xalloc@PEAUsmem_value@@@@@std@@AEBAXPEAPEAUsmem_value@@0@Z ENDP ; std::vector<smem_value *,xalloc<smem_value *> >::_Orphan_range
_TEXT	ENDS
; Function compile flags: /Ogtpy
; File C:\Program Files\Microsoft Visual Studio\2022\Community\VC\Tools\MSVC\14.35.32215\include\vector
;	COMDAT ?clear@?$vector@PEAUsmem_value@@V?$xalloc@PEAUsmem_value@@@@@std@@QEAAXXZ
_TEXT	SEGMENT
this$ = 8
?clear@?$vector@PEAUsmem_value@@V?$xalloc@PEAUsmem_value@@@@@std@@QEAAXXZ PROC ; std::vector<smem_value *,xalloc<smem_value *> >::clear, COMDAT

; 1825 :         auto& _My_data    = _Mypair._Myval2;
; 1826 :         pointer& _Myfirst = _My_data._Myfirst;
; 1827 :         pointer& _Mylast  = _My_data._Mylast;
; 1828 : 
; 1829 :         if (_Myfirst == _Mylast) { // already empty, nothing to do

	mov	rax, QWORD PTR [rcx]
	cmp	rax, QWORD PTR [rcx+8]
	je	SHORT $LN1@clear

; 1830 :             // This is an optimization for debug mode: we can avoid taking the debug lock to invalidate iterators.
; 1831 :             // Note that when clearing an empty vector, this will preserve past-the-end iterators, which is allowed by
; 1832 :             // N4901 [tab:container.seq.req] "a.clear() [...] may invalidate the past-the-end iterator".
; 1833 :             return;
; 1834 :         }
; 1835 : 
; 1836 :         _My_data._Orphan_all();
; 1837 :         _Destroy_range(_Myfirst, _Mylast, _Getal());
; 1838 :         _ASAN_VECTOR_MODIFY(static_cast<difference_type>(_Myfirst - _Mylast)); // negative when destroying elements
; 1839 :         _Mylast = _Myfirst;

	mov	QWORD PTR [rcx+8], rax
$LN1@clear:

; 1840 :     }

	ret	0
?clear@?$vector@PEAUsmem_value@@V?$xalloc@PEAUsmem_value@@@@@std@@QEAAXXZ ENDP ; std::vector<smem_value *,xalloc<smem_value *> >::clear
_TEXT	ENDS
; Function compile flags: /Ogtpy
; File C:\Program Files\Microsoft Visual Studio\2022\Community\VC\Tools\MSVC\14.35.32215\include\xutility
;	COMDAT ??$_Get_unwrapped@AEAV?$_Vector_iterator@V?$_Vector_val@U?$_Simple_types@PEAUsmem_value@@@std@@@std@@@std@@@std@@YA?A_TAEAV?$_Vector_iterator@V?$_Vector_val@U?$_Simple_types@PEAUsmem_value@@@std@@@std@@@0@@Z
_TEXT	SEGMENT
_It$ = 8
??$_Get_unwrapped@AEAV?$_Vector_iterator@V?$_Vector_val@U?$_Simple_types@PEAUsmem_value@@@std@@@std@@@std@@@std@@YA?A_TAEAV?$_Vector_iterator@V?$_Vector_val@U?$_Simple_types@PEAUsmem_value@@@std@@@std@@@0@@Z PROC ; std::_Get_unwrapped<std::_Vector_iterator<std::_Vector_val<std::_Simple_types<smem_value *> > > &>, COMDAT

; 957  :     // unwrap an iterator previously subjected to _Adl_verify_range or otherwise validated
; 958  :     if constexpr (is_pointer_v<decay_t<_Iter>>) { // special-case pointers and arrays
; 959  :         return _It + 0;
; 960  :     } else if constexpr (_Unwrappable_v<_Iter>) {
; 961  :         return static_cast<_Iter&&>(_It)._Unwrapped();

	mov	rax, QWORD PTR [rcx]

; 962  :     } else {
; 963  :         return static_cast<_Iter&&>(_It);
; 964  :     }
; 965  : }

	ret	0
??$_Get_unwrapped@AEAV?$_Vector_iterator@V?$_Vector_val@U?$_Simple_types@PEAUsmem_value@@@std@@@std@@@std@@@std@@YA?A_TAEAV?$_Vector_iterator@V?$_Vector_val@U?$_Simple_types@PEAUsmem_value@@@std@@@std@@@0@@Z ENDP ; std::_Get_unwrapped<std::_Vector_iterator<std::_Vector_val<std::_Simple_types<smem_value *> > > &>
_TEXT	ENDS
; Function compile flags: /Ogtpy
; File C:\Program Files\Microsoft Visual Studio\2022\Community\VC\Tools\MSVC\14.35.32215\include\xutility
;	COMDAT ??$_Get_unwrapped@AEBV?$_Vector_iterator@V?$_Vector_val@U?$_Simple_types@PEAUsmem_value@@@std@@@std@@@std@@@std@@YA?A_TAEBV?$_Vector_iterator@V?$_Vector_val@U?$_Simple_types@PEAUsmem_value@@@std@@@std@@@0@@Z
_TEXT	SEGMENT
_It$ = 8
??$_Get_unwrapped@AEBV?$_Vector_iterator@V?$_Vector_val@U?$_Simple_types@PEAUsmem_value@@@std@@@std@@@std@@@std@@YA?A_TAEBV?$_Vector_iterator@V?$_Vector_val@U?$_Simple_types@PEAUsmem_value@@@std@@@std@@@0@@Z PROC ; std::_Get_unwrapped<std::_Vector_iterator<std::_Vector_val<std::_Simple_types<smem_value *> > > const &>, COMDAT

; 957  :     // unwrap an iterator previously subjected to _Adl_verify_range or otherwise validated
; 958  :     if constexpr (is_pointer_v<decay_t<_Iter>>) { // special-case pointers and arrays
; 959  :         return _It + 0;
; 960  :     } else if constexpr (_Unwrappable_v<_Iter>) {
; 961  :         return static_cast<_Iter&&>(_It)._Unwrapped();

	mov	rax, QWORD PTR [rcx]

; 962  :     } else {
; 963  :         return static_cast<_Iter&&>(_It);
; 964  :     }
; 965  : }

	ret	0
??$_Get_unwrapped@AEBV?$_Vector_iterator@V?$_Vector_val@U?$_Simple_types@PEAUsmem_value@@@std@@@std@@@std@@@std@@YA?A_TAEBV?$_Vector_iterator@V?$_Vector_val@U?$_Simple_types@PEAUsmem_value@@@std@@@std@@@0@@Z ENDP ; std::_Get_unwrapped<std::_Vector_iterator<std::_Vector_val<std::_Simple_types<smem_value *> > > const &>
_TEXT	ENDS
; Function compile flags: /Ogtpy
; File C:\Users\Mahito\Desktop\Night outing\Night-outing\src\xrCore\xrMemory.h
; File C:\Users\Mahito\Desktop\Night outing\Night-outing\src\xrCore\xrMemory_subst_msvc.cpp
; File C:\Users\Mahito\Desktop\Night outing\Night-outing\src\xrCore\xrMemory.h
;	COMDAT ??$xr_free@Usmem_value@@@@YAXAEAPEAUsmem_value@@@Z
_TEXT	SEGMENT
P$ = 48
??$xr_free@Usmem_value@@@@YAXAEAPEAUsmem_value@@@Z PROC	; xr_free<smem_value>, COMDAT

; 68   : {

$LN24:
	push	rbx
	sub	rsp, 32					; 00000020H
	mov	rbx, rcx

; 69   : 	if (P)

	mov	rcx, QWORD PTR [rcx]
	test	rcx, rcx
	je	SHORT $LN2@xr_free
; File C:\Users\Mahito\Desktop\Night outing\Night-outing\src\xrCore\xrMemory_subst_msvc.cpp

; 99   : 	stat_calls++;

	inc	DWORD PTR ?Memory@@3VxrMemory@@A

; 100  : 
; 101  : #ifdef PURE_ALLOC
; 102  : 	if (g_use_pure_alloc)
; 103  : 	{
; 104  : 		//free(P);
; 105  : 		_aligned_free(P);

	call	QWORD PTR __imp__aligned_free
; File C:\Users\Mahito\Desktop\Night outing\Night-outing\src\xrCore\xrMemory.h

; 72   : 		P = NULL;

	mov	QWORD PTR [rbx], 0
$LN2@xr_free:

; 73   : 	};
; 74   : }

	add	rsp, 32					; 00000020H
	pop	rbx
	ret	0
??$xr_free@Usmem_value@@@@YAXAEAPEAUsmem_value@@@Z ENDP	; xr_free<smem_value>
_TEXT	ENDS
; Function compile flags: /Ogtpy
; File C:\Program Files\Microsoft Visual Studio\2022\Community\VC\Tools\MSVC\14.35.32215\include\xmemory
; File C:\Program Files\Microsoft Visual Studio\2022\Community\VC\Tools\MSVC\14.35.32215\include\xutility
; File C:\Program Files\Microsoft Visual Studio\2022\Community\VC\Tools\MSVC\14.35.32215\include\xmemory
; File C:\Program Files\Microsoft Visual Studio\2022\Community\VC\Tools\MSVC\14.35.32215\include\xutility
; File C:\Program Files\Microsoft Visual Studio\2022\Community\VC\Tools\MSVC\14.35.32215\include\xmemory
; File C:\Program Files\Microsoft Visual Studio\2022\Community\VC\Tools\MSVC\14.35.32215\include\xutility
; File C:\Program Files\Microsoft Visual Studio\2022\Community\VC\Tools\MSVC\14.35.32215\include\xmemory
;	COMDAT ??$remove@V?$_Vector_iterator@V?$_Vector_val@U?$_Simple_types@PEAUsmem_value@@@std@@@std@@@std@@PEAUsmem_value@@@std@@YA?AV?$_Vector_iterator@V?$_Vector_val@U?$_Simple_types@PEAUsmem_value@@@std@@@std@@@0@V10@V10@AEBQEAUsmem_value@@@Z
_TEXT	SEGMENT
__$ReturnUdt$ = 48
_First$ = 56
_Last$ = 64
_Val$ = 72
??$remove@V?$_Vector_iterator@V?$_Vector_val@U?$_Simple_types@PEAUsmem_value@@@std@@@std@@@std@@PEAUsmem_value@@@std@@YA?AV?$_Vector_iterator@V?$_Vector_val@U?$_Simple_types@PEAUsmem_value@@@std@@@std@@@0@V10@V10@AEBQEAUsmem_value@@@Z PROC ; std::remove<std::_Vector_iterator<std::_Vector_val<std::_Simple_types<smem_value *> > >,smem_value *>, COMDAT

; 2041 : _NODISCARD_REMOVE_ALG _CONSTEXPR20 _FwdIt remove(_FwdIt _First, const _FwdIt _Last, const _Ty& _Val) {

$LN24:
	mov	QWORD PTR [rsp+8], rbx
	mov	QWORD PTR [rsp+16], rsi
	push	rdi
	sub	rsp, 32					; 00000020H
	mov	rbx, r8
	mov	rax, rdx
; File C:\Program Files\Microsoft Visual Studio\2022\Community\VC\Tools\MSVC\14.35.32215\include\xutility

; 123  :         return const_cast<_Ty*>(

	mov	r8, QWORD PTR [r9]
; File C:\Program Files\Microsoft Visual Studio\2022\Community\VC\Tools\MSVC\14.35.32215\include\xmemory

; 2041 : _NODISCARD_REMOVE_ALG _CONSTEXPR20 _FwdIt remove(_FwdIt _First, const _FwdIt _Last, const _Ty& _Val) {

	mov	rdi, rcx
; File C:\Program Files\Microsoft Visual Studio\2022\Community\VC\Tools\MSVC\14.35.32215\include\xutility

; 123  :         return const_cast<_Ty*>(

	mov	rdx, rbx
	mov	rcx, rax
; File C:\Program Files\Microsoft Visual Studio\2022\Community\VC\Tools\MSVC\14.35.32215\include\xmemory

; 2041 : _NODISCARD_REMOVE_ALG _CONSTEXPR20 _FwdIt remove(_FwdIt _First, const _FwdIt _Last, const _Ty& _Val) {

	mov	rsi, r9
; File C:\Program Files\Microsoft Visual Studio\2022\Community\VC\Tools\MSVC\14.35.32215\include\xutility

; 123  :         return const_cast<_Ty*>(

	call	__std_find_trivial_8
; File C:\Program Files\Microsoft Visual Studio\2022\Community\VC\Tools\MSVC\14.35.32215\include\xmemory

; 2047 :     auto _UNext       = _UFirst;

	mov	rdx, rax

; 2048 :     if (_UFirst != _ULast) {

	cmp	rax, rbx
	je	SHORT $LN21@remove

; 2049 :         while (++_UFirst != _ULast) {

	add	rax, 8
	cmp	rax, rbx
	je	SHORT $LN21@remove
	npad	6
$LL2@remove:

; 2050 :             if (!(*_UFirst == _Val)) {

	mov	rcx, QWORD PTR [rax]
	cmp	rcx, QWORD PTR [rsi]
	je	SHORT $LN5@remove

; 2051 :                 *_UNext = _STD move(*_UFirst);

	mov	QWORD PTR [rdx], rcx

; 2052 :                 ++_UNext;

	add	rdx, 8
$LN5@remove:

; 2049 :         while (++_UFirst != _ULast) {

	add	rax, 8
	cmp	rax, rbx
	jne	SHORT $LL2@remove
$LN21@remove:

; 2053 :             }
; 2054 :         }
; 2055 :     }
; 2056 : 
; 2057 :     _Seek_wrapped(_First, _UNext);
; 2058 :     return _First;
; 2059 : }

	mov	rbx, QWORD PTR [rsp+48]
	mov	rax, rdi
	mov	rsi, QWORD PTR [rsp+56]
	mov	QWORD PTR [rdi], rdx
	add	rsp, 32					; 00000020H
	pop	rdi
	ret	0
??$remove@V?$_Vector_iterator@V?$_Vector_val@U?$_Simple_types@PEAUsmem_value@@@std@@@std@@@std@@PEAUsmem_value@@@std@@YA?AV?$_Vector_iterator@V?$_Vector_val@U?$_Simple_types@PEAUsmem_value@@@std@@@std@@@0@V10@V10@AEBQEAUsmem_value@@@Z ENDP ; std::remove<std::_Vector_iterator<std::_Vector_val<std::_Simple_types<smem_value *> > >,smem_value *>
_TEXT	ENDS
; Function compile flags: /Ogtpy
; File C:\Program Files\Microsoft Visual Studio\2022\Community\VC\Tools\MSVC\14.35.32215\include\xstddef
;	COMDAT ??$addressof@V?$_Vector_val@U?$_Simple_types@PEAUsmem_value@@@std@@@std@@@std@@YAPEAV?$_Vector_val@U?$_Simple_types@PEAUsmem_value@@@std@@@0@AEAV10@@Z
_TEXT	SEGMENT
_Val$ = 8
??$addressof@V?$_Vector_val@U?$_Simple_types@PEAUsmem_value@@@std@@@std@@@std@@YAPEAV?$_Vector_val@U?$_Simple_types@PEAUsmem_value@@@std@@@0@AEAV10@@Z PROC ; std::addressof<std::_Vector_val<std::_Simple_types<smem_value *> > >, COMDAT

; 281  :     return __builtin_addressof(_Val);

	mov	rax, rcx

; 282  : }

	ret	0
??$addressof@V?$_Vector_val@U?$_Simple_types@PEAUsmem_value@@@std@@@std@@@std@@YAPEAV?$_Vector_val@U?$_Simple_types@PEAUsmem_value@@@std@@@0@AEAV10@@Z ENDP ; std::addressof<std::_Vector_val<std::_Simple_types<smem_value *> > >
_TEXT	ENDS
; Function compile flags: /Ogtpy
; File C:\Program Files\Microsoft Visual Studio\2022\Community\VC\Tools\MSVC\14.35.32215\include\xutility
;	COMDAT ??$_Move_unchecked@PEAPEAUsmem_value@@PEAPEAU1@@std@@YAPEAPEAUsmem_value@@PEAPEAU1@00@Z
_TEXT	SEGMENT
_First$ = 48
_Last$ = 56
_Dest$ = 64
??$_Move_unchecked@PEAPEAUsmem_value@@PEAPEAU1@@std@@YAPEAPEAUsmem_value@@PEAPEAU1@00@Z PROC ; std::_Move_unchecked<smem_value * *,smem_value * *>, COMDAT

; 4591 : _CONSTEXPR20 _OutIt _Move_unchecked(_InIt _First, _InIt _Last, _OutIt _Dest) {

$LN9:
	mov	QWORD PTR [rsp+8], rbx
	push	rdi
	sub	rsp, 32					; 00000020H
	mov	rbx, rdx
	mov	rdi, r8

; 4238 :     const auto _Count           = static_cast<size_t>(_Last_ch - _First_ch);

	sub	rbx, rcx

; 4239 :     _CSTD memmove(_Dest_ch, _First_ch, _Count);

	mov	rdx, rcx
	mov	r8, rbx
	mov	rcx, rdi
	call	memmove

; 4240 :     if constexpr (is_pointer_v<_OutCtgIt>) {
; 4241 :         return reinterpret_cast<_OutCtgIt>(_Dest_ch + _Count);

	lea	rax, QWORD PTR [rbx+rdi]

; 4592 :     // move [_First, _Last) to [_Dest, ...)
; 4593 :     // note: _Move_unchecked has callers other than the move family
; 4594 :     if constexpr (_Iter_move_cat<_InIt, _OutIt>::_Bitcopy_assignable) {
; 4595 : #if _HAS_CXX20
; 4596 :         if (!_STD is_constant_evaluated())
; 4597 : #endif // _HAS_CXX20
; 4598 :         {
; 4599 :             return _Copy_memmove(_First, _Last, _Dest);
; 4600 :         }
; 4601 :     }
; 4602 : 
; 4603 :     for (; _First != _Last; ++_Dest, (void) ++_First) {
; 4604 :         *_Dest = _STD move(*_First);
; 4605 :     }
; 4606 : 
; 4607 :     return _Dest;
; 4608 : }

	mov	rbx, QWORD PTR [rsp+48]
	add	rsp, 32					; 00000020H
	pop	rdi
	ret	0
??$_Move_unchecked@PEAPEAUsmem_value@@PEAPEAU1@@std@@YAPEAPEAUsmem_value@@PEAPEAU1@00@Z ENDP ; std::_Move_unchecked<smem_value * *,smem_value * *>
_TEXT	ENDS
; Function compile flags: /Ogtpy
; File C:\Program Files\Microsoft Visual Studio\2022\Community\VC\Tools\MSVC\14.35.32215\include\xmemory
;	COMDAT ??1?$_Alloc_temporary2@V?$xalloc@PEAUsmem_value@@@@@std@@QEAA@XZ
_TEXT	SEGMENT
this$ = 8
??1?$_Alloc_temporary2@V?$xalloc@PEAUsmem_value@@@@@std@@QEAA@XZ PROC ; std::_Alloc_temporary2<xalloc<smem_value *> >::~_Alloc_temporary2<xalloc<smem_value *> >, COMDAT

; 2027 :         _Traits::destroy(_Al, _STD addressof(_Get_value()));
; 2028 :     }

	ret	0
??1?$_Alloc_temporary2@V?$xalloc@PEAUsmem_value@@@@@std@@QEAA@XZ ENDP ; std::_Alloc_temporary2<xalloc<smem_value *> >::~_Alloc_temporary2<xalloc<smem_value *> >
_TEXT	ENDS
; Function compile flags: /Ogtpy
; File C:\Program Files\Microsoft Visual Studio\2022\Community\VC\Tools\MSVC\14.35.32215\include\xmemory
;	COMDAT ?_Get_value@?$_Alloc_temporary2@V?$xalloc@PEAUsmem_value@@@@@std@@QEAAAEAPEAUsmem_value@@XZ
_TEXT	SEGMENT
this$ = 8
?_Get_value@?$_Alloc_temporary2@V?$xalloc@PEAUsmem_value@@@@@std@@QEAAAEAPEAUsmem_value@@XZ PROC ; std::_Alloc_temporary2<xalloc<smem_value *> >::_Get_value, COMDAT

; 2008 :         return _Value;

	lea	rax, QWORD PTR [rcx+8]

; 2009 :     }

	ret	0
?_Get_value@?$_Alloc_temporary2@V?$xalloc@PEAUsmem_value@@@@@std@@QEAAAEAPEAUsmem_value@@XZ ENDP ; std::_Alloc_temporary2<xalloc<smem_value *> >::_Get_value
_TEXT	ENDS
; Function compile flags: /Ogtpy
; File C:\Program Files\Microsoft Visual Studio\2022\Community\VC\Tools\MSVC\14.35.32215\include\vector
;	COMDAT ?_Unwrapped@?$_Vector_iterator@V?$_Vector_val@U?$_Simple_types@PEAUsmem_value@@@std@@@std@@@std@@QEBAPEAPEAUsmem_value@@XZ
_TEXT	SEGMENT
this$ = 8
?_Unwrapped@?$_Vector_iterator@V?$_Vector_val@U?$_Simple_types@PEAUsmem_value@@@std@@@std@@@std@@QEBAPEAPEAUsmem_value@@XZ PROC ; std::_Vector_iterator<std::_Vector_val<std::_Simple_types<smem_value *> > >::_Unwrapped, COMDAT

; 334  :         return _Unfancy(this->_Ptr);

	mov	rax, QWORD PTR [rcx]

; 335  :     }

	ret	0
?_Unwrapped@?$_Vector_iterator@V?$_Vector_val@U?$_Simple_types@PEAUsmem_value@@@std@@@std@@@std@@QEBAPEAPEAUsmem_value@@XZ ENDP ; std::_Vector_iterator<std::_Vector_val<std::_Simple_types<smem_value *> > >::_Unwrapped
_TEXT	ENDS
; Function compile flags: /Ogtpy
; File C:\Program Files\Microsoft Visual Studio\2022\Community\VC\Tools\MSVC\14.35.32215\include\xutility
;	COMDAT ??$_Adl_verify_range@V?$_Vector_iterator@V?$_Vector_val@U?$_Simple_types@PEAUsmem_value@@@std@@@std@@@std@@V12@@std@@YAXAEBV?$_Vector_iterator@V?$_Vector_val@U?$_Simple_types@PEAUsmem_value@@@std@@@std@@@0@0@Z
_TEXT	SEGMENT
_First$dead$ = 8
_Last$dead$ = 16
??$_Adl_verify_range@V?$_Vector_iterator@V?$_Vector_val@U?$_Simple_types@PEAUsmem_value@@@std@@@std@@@std@@V12@@std@@YAXAEBV?$_Vector_iterator@V?$_Vector_val@U?$_Simple_types@PEAUsmem_value@@@std@@@std@@@0@0@Z PROC ; std::_Adl_verify_range<std::_Vector_iterator<std::_Vector_val<std::_Simple_types<smem_value *> > >,std::_Vector_iterator<std::_Vector_val<std::_Simple_types<smem_value *> > > >, COMDAT

; 934  :     // check that [_First, _Last) forms an iterator range
; 935  :     if constexpr (_Range_verifiable_v<_Iter, _Sentinel>) {
; 936  :         _Verify_range(_First, _Last);
; 937  :     }
; 938  : }

	ret	0
??$_Adl_verify_range@V?$_Vector_iterator@V?$_Vector_val@U?$_Simple_types@PEAUsmem_value@@@std@@@std@@@std@@V12@@std@@YAXAEBV?$_Vector_iterator@V?$_Vector_val@U?$_Simple_types@PEAUsmem_value@@@std@@@std@@@0@0@Z ENDP ; std::_Adl_verify_range<std::_Vector_iterator<std::_Vector_val<std::_Simple_types<smem_value *> > >,std::_Vector_iterator<std::_Vector_val<std::_Simple_types<smem_value *> > > >
_TEXT	ENDS
; Function compile flags: /Ogtpy
; File C:\Program Files\Microsoft Visual Studio\2022\Community\VC\Tools\MSVC\14.35.32215\include\xutility
;	COMDAT ??$_Seek_wrapped@V?$_Vector_iterator@V?$_Vector_val@U?$_Simple_types@PEAUsmem_value@@@std@@@std@@@std@@AEAPEAPEAUsmem_value@@@std@@YAXAEAV?$_Vector_iterator@V?$_Vector_val@U?$_Simple_types@PEAUsmem_value@@@std@@@std@@@0@AEAPEAPEAUsmem_value@@@Z
_TEXT	SEGMENT
_It$ = 8
_UIt$ = 16
??$_Seek_wrapped@V?$_Vector_iterator@V?$_Vector_val@U?$_Simple_types@PEAUsmem_value@@@std@@@std@@@std@@AEAPEAPEAUsmem_value@@@std@@YAXAEAV?$_Vector_iterator@V?$_Vector_val@U?$_Simple_types@PEAUsmem_value@@@std@@@std@@@0@AEAPEAPEAUsmem_value@@@Z PROC ; std::_Seek_wrapped<std::_Vector_iterator<std::_Vector_val<std::_Simple_types<smem_value *> > >,smem_value * * &>, COMDAT

; 1057 :     if constexpr (_Wrapped_seekable_v<_Iter, _UIter>) {
; 1058 :         _It._Seek_to(_STD forward<_UIter>(_UIt));

	mov	rax, QWORD PTR [rdx]
	mov	QWORD PTR [rcx], rax

; 1059 :     } else {
; 1060 :         _It = _STD forward<_UIter>(_UIt);
; 1061 :     }
; 1062 : }

	ret	0
??$_Seek_wrapped@V?$_Vector_iterator@V?$_Vector_val@U?$_Simple_types@PEAUsmem_value@@@std@@@std@@@std@@AEAPEAPEAUsmem_value@@@std@@YAXAEAV?$_Vector_iterator@V?$_Vector_val@U?$_Simple_types@PEAUsmem_value@@@std@@@std@@@0@AEAPEAPEAUsmem_value@@@Z ENDP ; std::_Seek_wrapped<std::_Vector_iterator<std::_Vector_val<std::_Simple_types<smem_value *> > >,smem_value * * &>
_TEXT	ENDS
; Function compile flags: /Ogtpy
; File C:\Program Files\Microsoft Visual Studio\2022\Community\VC\Tools\MSVC\14.35.32215\include\xutility
;	COMDAT ??$_Find_unchecked@PEAPEAUsmem_value@@PEAU1@@std@@YAPEAPEAUsmem_value@@PEAPEAU1@QEAPEAU1@AEBQEAU1@@Z
_TEXT	SEGMENT
_First$ = 8
_Last$ = 16
_Val$ = 24
??$_Find_unchecked@PEAPEAUsmem_value@@PEAU1@@std@@YAPEAPEAUsmem_value@@PEAPEAU1@QEAPEAU1@AEBQEAU1@@Z PROC ; std::_Find_unchecked<smem_value * *,smem_value *>, COMDAT

; 123  :         return const_cast<_Ty*>(

	mov	r8, QWORD PTR [r8]
	jmp	__std_find_trivial_8
??$_Find_unchecked@PEAPEAUsmem_value@@PEAU1@@std@@YAPEAPEAUsmem_value@@PEAPEAU1@QEAPEAU1@AEBQEAU1@@Z ENDP ; std::_Find_unchecked<smem_value * *,smem_value *>
_TEXT	ENDS
; Function compile flags: /Ogtpy
; File C:\Program Files\Microsoft Visual Studio\2022\Community\VC\Tools\MSVC\14.35.32215\include\xutility
;	COMDAT ??$_To_address@PEAPEAUsmem_value@@@std@@YA?A_PAEBQEAPEAUsmem_value@@@Z
_TEXT	SEGMENT
_Val$ = 8
??$_To_address@PEAPEAUsmem_value@@@std@@YA?A_PAEBQEAPEAUsmem_value@@@Z PROC ; std::_To_address<smem_value * *>, COMDAT

; 4110 :     _STL_INTERNAL_STATIC_ASSERT(is_pointer_v<_Iter>);
; 4111 :     return _Val;

	mov	rax, QWORD PTR [rcx]

; 4112 : }

	ret	0
??$_To_address@PEAPEAUsmem_value@@@std@@YA?A_PAEBQEAPEAUsmem_value@@@Z ENDP ; std::_To_address<smem_value * *>
_TEXT	ENDS
; Function compile flags: /Ogtpy
; File C:\Program Files\Microsoft Visual Studio\2022\Community\VC\Tools\MSVC\14.35.32215\include\type_traits
;	COMDAT ??$move@AEAPEAUsmem_value@@@std@@YA$$QEAPEAUsmem_value@@AEAPEAU1@@Z
_TEXT	SEGMENT
_Arg$ = 8
??$move@AEAPEAUsmem_value@@@std@@YA$$QEAPEAUsmem_value@@AEAPEAU1@@Z PROC ; std::move<smem_value * &>, COMDAT

; 1438 :     return static_cast<remove_reference_t<_Ty>&&>(_Arg);

	mov	rax, rcx

; 1439 : }

	ret	0
??$move@AEAPEAUsmem_value@@@std@@YA$$QEAPEAUsmem_value@@AEAPEAU1@@Z ENDP ; std::move<smem_value * &>
_TEXT	ENDS
; Function compile flags: /Ogtpy
; File C:\Program Files\Microsoft Visual Studio\2022\Community\VC\Tools\MSVC\14.35.32215\include\xutility
;	COMDAT ??$_Copy_memmove@PEAPEAUsmem_value@@PEAPEAU1@@std@@YAPEAPEAUsmem_value@@PEAPEAU1@00@Z
_TEXT	SEGMENT
_First$ = 48
_Last$ = 56
_Dest$ = 64
??$_Copy_memmove@PEAPEAUsmem_value@@PEAPEAU1@@std@@YAPEAPEAUsmem_value@@PEAPEAU1@00@Z PROC ; std::_Copy_memmove<smem_value * *,smem_value * *>, COMDAT

; 4231 : _OutCtgIt _Copy_memmove(_CtgIt _First, _CtgIt _Last, _OutCtgIt _Dest) {

$LN4:
	mov	QWORD PTR [rsp+8], rbx
	push	rdi
	sub	rsp, 32					; 00000020H
	mov	rbx, rdx
	mov	rdi, r8

; 4232 :     auto _FirstPtr              = _To_address(_First);
; 4233 :     auto _LastPtr               = _To_address(_Last);
; 4234 :     auto _DestPtr               = _To_address(_Dest);
; 4235 :     const char* const _First_ch = const_cast<const char*>(reinterpret_cast<const volatile char*>(_FirstPtr));
; 4236 :     const char* const _Last_ch  = const_cast<const char*>(reinterpret_cast<const volatile char*>(_LastPtr));
; 4237 :     char* const _Dest_ch        = const_cast<char*>(reinterpret_cast<const volatile char*>(_DestPtr));
; 4238 :     const auto _Count           = static_cast<size_t>(_Last_ch - _First_ch);

	sub	rbx, rcx

; 4239 :     _CSTD memmove(_Dest_ch, _First_ch, _Count);

	mov	rdx, rcx
	mov	r8, rbx
	mov	rcx, rdi
	call	memmove

; 4240 :     if constexpr (is_pointer_v<_OutCtgIt>) {
; 4241 :         return reinterpret_cast<_OutCtgIt>(_Dest_ch + _Count);

	lea	rax, QWORD PTR [rbx+rdi]

; 4242 :     } else {
; 4243 :         return _Dest + (_LastPtr - _FirstPtr);
; 4244 :     }
; 4245 : }

	mov	rbx, QWORD PTR [rsp+48]
	add	rsp, 32					; 00000020H
	pop	rdi
	ret	0
??$_Copy_memmove@PEAPEAUsmem_value@@PEAPEAU1@@std@@YAPEAPEAUsmem_value@@PEAPEAU1@00@Z ENDP ; std::_Copy_memmove<smem_value * *,smem_value * *>
_TEXT	ENDS
; Function compile flags: /Ogtpy
; File C:\Program Files\Microsoft Visual Studio\2022\Community\VC\Tools\MSVC\14.35.32215\include\xstddef
;	COMDAT ??$addressof@PEAUsmem_value@@@std@@YAPEAPEAUsmem_value@@AEAPEAU1@@Z
_TEXT	SEGMENT
_Val$ = 8
??$addressof@PEAUsmem_value@@@std@@YAPEAPEAUsmem_value@@AEAPEAU1@@Z PROC ; std::addressof<smem_value *>, COMDAT

; 281  :     return __builtin_addressof(_Val);

	mov	rax, rcx

; 282  : }

	ret	0
??$addressof@PEAUsmem_value@@@std@@YAPEAPEAUsmem_value@@AEAPEAU1@@Z ENDP ; std::addressof<smem_value *>
_TEXT	ENDS
; Function compile flags: /Ogtpy
; File C:\Program Files\Microsoft Visual Studio\2022\Community\VC\Tools\MSVC\14.35.32215\include\vector
;	COMDAT ?_Seek_to@?$_Vector_const_iterator@V?$_Vector_val@U?$_Simple_types@PEAUsmem_value@@@std@@@std@@@std@@QEAAXPEBQEAUsmem_value@@@Z
_TEXT	SEGMENT
this$ = 8
_It$ = 16
?_Seek_to@?$_Vector_const_iterator@V?$_Vector_val@U?$_Simple_types@PEAUsmem_value@@@std@@@std@@@std@@QEAAXPEBQEAUsmem_value@@@Z PROC ; std::_Vector_const_iterator<std::_Vector_val<std::_Simple_types<smem_value *> > >::_Seek_to, COMDAT

; 211  :         _Ptr = _Refancy<_Tptr>(const_cast<value_type*>(_It));

	mov	QWORD PTR [rcx], rdx

; 212  :     }

	ret	0
?_Seek_to@?$_Vector_const_iterator@V?$_Vector_val@U?$_Simple_types@PEAUsmem_value@@@std@@@std@@@std@@QEAAXPEBQEAUsmem_value@@@Z ENDP ; std::_Vector_const_iterator<std::_Vector_val<std::_Simple_types<smem_value *> > >::_Seek_to
_TEXT	ENDS
; Function compile flags: /Ogtpy
; File C:\Program Files\Microsoft Visual Studio\2022\Community\VC\Tools\MSVC\14.35.32215\include\type_traits
;	COMDAT ??$forward@AEAPEAPEAUsmem_value@@@std@@YAAEAPEAPEAUsmem_value@@AEAPEAPEAU1@@Z
_TEXT	SEGMENT
_Arg$ = 8
??$forward@AEAPEAPEAUsmem_value@@@std@@YAAEAPEAPEAUsmem_value@@AEAPEAPEAU1@@Z PROC ; std::forward<smem_value * * &>, COMDAT

; 1427 :     return static_cast<_Ty&&>(_Arg);

	mov	rax, rcx

; 1428 : }

	ret	0
??$forward@AEAPEAPEAUsmem_value@@@std@@YAAEAPEAPEAUsmem_value@@AEAPEAPEAU1@@Z ENDP ; std::forward<smem_value * * &>
_TEXT	ENDS
; Function compile flags: /Ogtpy
; File C:\Program Files\Microsoft Visual Studio\2022\Community\VC\Tools\MSVC\14.35.32215\include\xutility
;	COMDAT ??$_Could_compare_equal_to_value_type@PEAPEAUsmem_value@@PEAU1@@std@@YA_NAEBQEAUsmem_value@@@Z
_TEXT	SEGMENT
_Val$dead$ = 8
??$_Could_compare_equal_to_value_type@PEAPEAUsmem_value@@PEAU1@@std@@YA_NAEBQEAUsmem_value@@@Z PROC ; std::_Could_compare_equal_to_value_type<smem_value * *,smem_value *>, COMDAT

; 5428 :     // check whether _Val is within the limits of _Elem
; 5429 :     _STL_INTERNAL_STATIC_ASSERT(_Vector_alg_in_find_is_safe<_InIt, _Ty>);
; 5430 : 
; 5431 :     if constexpr (disjunction_v<
; 5432 : #ifdef __cpp_lib_byte
; 5433 :                       is_same<_Ty, byte>,
; 5434 : #endif // __cpp_lib_byte
; 5435 :                       is_same<_Ty, bool>, is_pointer<_Ty>>) {
; 5436 :         return true;

	mov	al, 1

; 5437 :     } else {
; 5438 :         using _Elem = _Iter_value_t<_InIt>;
; 5439 :         _STL_INTERNAL_STATIC_ASSERT(is_integral_v<_Elem> && is_integral_v<_Ty>);
; 5440 : 
; 5441 :         if constexpr (is_same_v<_Elem, bool>) {
; 5442 :             return _Val == true || _Val == false;
; 5443 :         } else if constexpr (is_signed_v<_Elem>) {
; 5444 :             // use instead of numeric_limits::min/max; avoid <limits> dependency
; 5445 :             constexpr _Elem _Min = static_cast<_Elem>(_Elem{1} << (sizeof(_Elem) * CHAR_BIT - 1));
; 5446 :             constexpr _Elem _Max = static_cast<_Elem>(~_Min);
; 5447 : 
; 5448 :             if constexpr (is_signed_v<_Ty>) {
; 5449 :                 // signed _Elem, signed _Ty
; 5450 :                 return _Min <= _Val && _Val <= _Max;
; 5451 :             } else {
; 5452 :                 // signed _Elem, unsigned _Ty
; 5453 :                 if constexpr (_Elem{-1} == static_cast<_Ty>(-1)) {
; 5454 :                     // negative values of _Elem can compare equal to values of _Ty
; 5455 :                     return _Val <= _Max || static_cast<_Ty>(_Min) <= _Val;
; 5456 :                 } else {
; 5457 :                     // negative values of _Elem cannot compare equal to values of _Ty
; 5458 :                     return _Val <= _Max;
; 5459 :                 }
; 5460 :             }
; 5461 :         } else {
; 5462 :             constexpr _Elem _Max = static_cast<_Elem>(~_Elem{0});
; 5463 : 
; 5464 :             if constexpr (is_unsigned_v<_Ty>) {
; 5465 :                 // unsigned _Elem, unsigned _Ty
; 5466 :                 return _Val <= _Max;
; 5467 :             } else {
; 5468 :                 // unsigned _Elem, signed _Ty
; 5469 :                 if constexpr (_Ty{-1} == static_cast<_Elem>(-1)) {
; 5470 :                     // negative values of _Ty can compare equal to values of _Elem
; 5471 :                     return _Val <= _Max;
; 5472 :                 } else {
; 5473 :                     // negative values of _Ty cannot compare equal to values of _Elem
; 5474 :                     return 0 <= _Val && _Val <= _Max;
; 5475 :                 }
; 5476 :             }
; 5477 :         }
; 5478 :     }
; 5479 : }

	ret	0
??$_Could_compare_equal_to_value_type@PEAPEAUsmem_value@@PEAU1@@std@@YA_NAEBQEAUsmem_value@@@Z ENDP ; std::_Could_compare_equal_to_value_type<smem_value * *,smem_value *>
_TEXT	ENDS
; Function compile flags: /Ogtpy
; File C:\Program Files\Microsoft Visual Studio\2022\Community\VC\Tools\MSVC\14.35.32215\include\xutility
;	COMDAT ??$__std_find_trivial@PEAUsmem_value@@PEAU1@@@YAPEAPEAUsmem_value@@PEAPEAU0@0QEAU0@@Z
_TEXT	SEGMENT
_First$ = 8
_Last$ = 16
_Val$ = 24
??$__std_find_trivial@PEAUsmem_value@@PEAU1@@@YAPEAPEAUsmem_value@@PEAPEAU0@0QEAU0@@Z PROC ; __std_find_trivial<smem_value *,smem_value *>, COMDAT

; 123  :         return const_cast<_Ty*>(

	jmp	__std_find_trivial_8
??$__std_find_trivial@PEAUsmem_value@@PEAU1@@@YAPEAPEAUsmem_value@@PEAPEAU0@0QEAU0@@Z ENDP ; __std_find_trivial<smem_value *,smem_value *>
_TEXT	ENDS
; Function compile flags: /Ogtpy
; File C:\Program Files\Microsoft Visual Studio\2022\Community\VC\Tools\MSVC\14.35.32215\include\xmemory
;	COMDAT ??$_Refancy@PEAPEAUsmem_value@@$0A@@std@@YAPEAPEAUsmem_value@@PEAPEAU1@@Z
_TEXT	SEGMENT
_Ptr$ = 8
??$_Refancy@PEAPEAUsmem_value@@$0A@@std@@YAPEAPEAUsmem_value@@PEAPEAU1@@Z PROC ; std::_Refancy<smem_value * *,0>, COMDAT

; 287  :     return _Ptr;

	mov	rax, rcx

; 288  : }

	ret	0
??$_Refancy@PEAPEAUsmem_value@@$0A@@std@@YAPEAPEAUsmem_value@@PEAPEAU1@@Z ENDP ; std::_Refancy<smem_value * *,0>
_TEXT	ENDS
; Function compile flags: /Ogtpy
; File C:\Program Files\Microsoft Visual Studio\2022\Community\VC\Tools\MSVC\14.35.32215\include\xmemory
;	COMDAT ??1?$_Uninitialized_backout_al@V?$xalloc@PEAUsmem_value@@@@@std@@QEAA@XZ
_TEXT	SEGMENT
this$ = 8
??1?$_Uninitialized_backout_al@V?$xalloc@PEAUsmem_value@@@@@std@@QEAA@XZ PROC ; std::_Uninitialized_backout_al<xalloc<smem_value *> >::~_Uninitialized_backout_al<xalloc<smem_value *> >, COMDAT

; 1655 :         _Destroy_range(_First, _Last, _Al);
; 1656 :     }

	ret	0
??1?$_Uninitialized_backout_al@V?$xalloc@PEAUsmem_value@@@@@std@@QEAA@XZ ENDP ; std::_Uninitialized_backout_al<xalloc<smem_value *> >::~_Uninitialized_backout_al<xalloc<smem_value *> >
_TEXT	ENDS
; Function compile flags: /Ogtpy
; File C:\Program Files\Microsoft Visual Studio\2022\Community\VC\Tools\MSVC\14.35.32215\include\xutility
;	COMDAT ??$__std_find_trivial@PEAUsmem_value@@_K@@YAPEAPEAUsmem_value@@PEAPEAU0@0_K@Z
_TEXT	SEGMENT
_First$ = 8
_Last$ = 16
_Val$ = 24
??$__std_find_trivial@PEAUsmem_value@@_K@@YAPEAPEAUsmem_value@@PEAPEAU0@0_K@Z PROC ; __std_find_trivial<smem_value *,unsigned __int64>, COMDAT

; 111  :     if constexpr (_STD is_pointer_v<_TVal> || _STD is_null_pointer_v<_TVal>) {
; 112  :         return __std_find_trivial(_First, _Last, reinterpret_cast<uintptr_t>(_Val));
; 113  :     } else if constexpr (sizeof(_Ty) == 1) {
; 114  :         return const_cast<_Ty*>(
; 115  :             static_cast<const _Ty*>(__std_find_trivial_1(_First, _Last, static_cast<uint8_t>(_Val))));
; 116  :     } else if constexpr (sizeof(_Ty) == 2) {
; 117  :         return const_cast<_Ty*>(
; 118  :             static_cast<const _Ty*>(__std_find_trivial_2(_First, _Last, static_cast<uint16_t>(_Val))));
; 119  :     } else if constexpr (sizeof(_Ty) == 4) {
; 120  :         return const_cast<_Ty*>(
; 121  :             static_cast<const _Ty*>(__std_find_trivial_4(_First, _Last, static_cast<uint32_t>(_Val))));
; 122  :     } else if constexpr (sizeof(_Ty) == 8) {
; 123  :         return const_cast<_Ty*>(

	jmp	__std_find_trivial_8
??$__std_find_trivial@PEAUsmem_value@@_K@@YAPEAPEAUsmem_value@@PEAPEAU0@0_K@Z ENDP ; __std_find_trivial<smem_value *,unsigned __int64>
_TEXT	ENDS
; Function compile flags: /Ogtpy
; File C:\Users\Mahito\Desktop\Night outing\Night-outing\src\xrCore\xrsharedmem.h
;	COMDAT ?smem_search@@YA_NPEBUsmem_value@@0@Z
_TEXT	SEGMENT
A$ = 8
B$ = 16
?smem_search@@YA_NPEBUsmem_value@@0@Z PROC		; smem_search, COMDAT

; 27   : 	if (A->dwCRC < B->dwCRC)			return		true;

	mov	eax, DWORD PTR [rcx+4]
	cmp	eax, DWORD PTR [rdx+4]
	jae	SHORT $LN2@smem_searc
	mov	al, 1

; 30   : };

	ret	0
$LN2@smem_searc:

; 28   : 	if (A->dwCRC > B->dwCRC)			return		false;

	jbe	SHORT $LN3@smem_searc
	xor	al, al

; 30   : };

	ret	0
$LN3@smem_searc:

; 29   : 	return	A->dwLength < B->dwLength;

	mov	eax, DWORD PTR [rdx+8]
	cmp	DWORD PTR [rcx+8], eax
	setb	al

; 30   : };

	ret	0
?smem_search@@YA_NPEBUsmem_value@@0@Z ENDP		; smem_search
_TEXT	ENDS
END
