; Listing generated by Microsoft (R) Optimizing Compiler Version 19.35.32217.1 

include listing.inc

INCLUDELIB OLDNAMES

PUBLIC	?g_pStringContainer@@3PEAVstr_container@@EA	; g_pStringContainer
PUBLIC	??_C@_0BH@CKABECBM@strings?5verify?5started@	; `string'
PUBLIC	??_C@_0BL@HCCOONPO@str_container_impl?3?3verify@ ; `string'
PUBLIC	??_C@_0EK@PHPDBIEM@C?3?2Users?2Mahito?2Desktop?2Night?5o@ ; `string'
PUBLIC	??_C@_0DI@MODFLCOP@CorePanic?3?5read?9only?5memory?5cor@ ; `string'
PUBLIC	??_C@_0BC@JDOEGBFF@crc?$DN?$DNvalue?9?$DOdwCRC@	; `string'
PUBLIC	??_C@_0EN@LMBPALPM@CorePanic?3?5read?9only?5memory?5cor@ ; `string'
PUBLIC	??_C@_0CL@JPHOICJC@value?9?$DOdwLength?5?$DN?$DN?5xr_strlen?$CIva@ ; `string'
PUBLIC	??_C@_0BJ@EHLPHOMD@strings?5verify?5completed@	; `string'
PUBLIC	??_C@_0CB@NIJMNPED@ref?$FL?$CF4d?$FN?9len?$FL?$CF3d?$FN?9crc?$FL?$CF8X?$FN?5?3?5?$CFs@ ; `string'
PUBLIC	??_C@_0BC@PHBIOCL@d?3?2$str_dump$?4txt@		; `string'
PUBLIC	?ignore_always@?M@??verify@str_container_impl@@QEAAXXZ@4_NA ; `str_container_impl::verify'::`12'::ignore_always
PUBLIC	?ignore_always@?7??verify@str_container_impl@@QEAAXXZ@4_NA ; `str_container_impl::verify'::`8'::ignore_always
EXTRN	__imp___stdio_common_vfprintf:PROC
EXTRN	__imp_itoa:PROC
?g_pStringContainer@@3PEAVstr_container@@EA DQ 01H DUP (?) ; g_pStringContainer
_BSS	ENDS
;	COMDAT ?ignore_always@?M@??verify@str_container_impl@@QEAAXXZ@4_NA
_BSS	SEGMENT
?ignore_always@?M@??verify@str_container_impl@@QEAAXXZ@4_NA DB 01H DUP (?) ; `str_container_impl::verify'::`12'::ignore_always
_BSS	ENDS
;	COMDAT ?ignore_always@?7??verify@str_container_impl@@QEAAXXZ@4_NA
_BSS	SEGMENT
?ignore_always@?7??verify@str_container_impl@@QEAAXXZ@4_NA DB 01H DUP (?) ; `str_container_impl::verify'::`8'::ignore_always
_BSS	ENDS
;	COMDAT ??_C@_0BC@PHBIOCL@d?3?2$str_dump$?4txt@
CONST	SEGMENT
??_C@_0BC@PHBIOCL@d?3?2$str_dump$?4txt@ DB 'd:\$str_dump$.txt', 00H ; `string'
CONST	ENDS
;	COMDAT ??_C@_0CB@NIJMNPED@ref?$FL?$CF4d?$FN?9len?$FL?$CF3d?$FN?9crc?$FL?$CF8X?$FN?5?3?5?$CFs@
CONST	SEGMENT
??_C@_0CB@NIJMNPED@ref?$FL?$CF4d?$FN?9len?$FL?$CF3d?$FN?9crc?$FL?$CF8X?$FN?5?3?5?$CFs@ DB 'r'
	DB	'ef[%4d]-len[%3d]-crc[%8X] : %s', 0aH, 00H	; `string'
CONST	ENDS
;	COMDAT ??_C@_0BJ@EHLPHOMD@strings?5verify?5completed@
CONST	SEGMENT
??_C@_0BJ@EHLPHOMD@strings?5verify?5completed@ DB 'strings verify complet'
	DB	'ed', 00H					; `string'
CONST	ENDS
;	COMDAT ??_C@_0CL@JPHOICJC@value?9?$DOdwLength?5?$DN?$DN?5xr_strlen?$CIva@
CONST	SEGMENT
??_C@_0CL@JPHOICJC@value?9?$DOdwLength?5?$DN?$DN?5xr_strlen?$CIva@ DB 'va'
	DB	'lue->dwLength == xr_strlen(value->value)', 00H ; `string'
CONST	ENDS
;	COMDAT ??_C@_0EN@LMBPALPM@CorePanic?3?5read?9only?5memory?5cor@
CONST	SEGMENT
??_C@_0EN@LMBPALPM@CorePanic?3?5read?9only?5memory?5cor@ DB 'CorePanic: r'
	DB	'ead-only memory corruption (shared_strings, internal structur'
	DB	'es)', 00H					; `string'
CONST	ENDS
;	COMDAT ??_C@_0BC@JDOEGBFF@crc?$DN?$DNvalue?9?$DOdwCRC@
CONST	SEGMENT
??_C@_0BC@JDOEGBFF@crc?$DN?$DNvalue?9?$DOdwCRC@ DB 'crc==value->dwCRC', 00H ; `string'
CONST	ENDS
;	COMDAT ??_C@_0DI@MODFLCOP@CorePanic?3?5read?9only?5memory?5cor@
CONST	SEGMENT
??_C@_0DI@MODFLCOP@CorePanic?3?5read?9only?5memory?5cor@ DB 'CorePanic: r'
	DB	'ead-only memory corruption (shared_strings)', 00H ; `string'
CONST	ENDS
;	COMDAT ??_C@_0EK@PHPDBIEM@C?3?2Users?2Mahito?2Desktop?2Night?5o@
CONST	SEGMENT
??_C@_0EK@PHPDBIEM@C?3?2Users?2Mahito?2Desktop?2Night?5o@ DB 'C:\Users\Ma'
	DB	'hito\Desktop\Night outing\Night-outing\src\xrCore\xrstring.cp'
	DB	'p', 00H					; `string'
CONST	ENDS
;	COMDAT ??_C@_0BL@HCCOONPO@str_container_impl?3?3verify@
CONST	SEGMENT
??_C@_0BL@HCCOONPO@str_container_impl?3?3verify@ DB 'str_container_impl::'
	DB	'verify', 00H				; `string'
CONST	ENDS
;	COMDAT ??_C@_0BH@CKABECBM@strings?5verify?5started@
CONST	SEGMENT
??_C@_0BH@CKABECBM@strings?5verify?5started@ DB 'strings verify started', 00H ; `string'
PUBLIC	??R?$xr_special_free@$0A@Ustr_container_impl@@@@QEAAXAEAPEAUstr_container_impl@@@Z ; xr_special_free<0,str_container_impl>::operator()
PUBLIC	??$xr_delete@Ustr_container_impl@@@@YAXAEAPEAUstr_container_impl@@@Z ; xr_delete<str_container_impl>
PUBLIC	??$xr_free@Ustr_value@@@@YAXAEAPEAUstr_value@@@Z ; xr_free<str_value>
PUBLIC	?clean@str_container@@QEAAXXZ			; str_container::clean
PUBLIC	?stat_economy@str_container_impl@@QEAAHXZ	; str_container_impl::stat_economy
PUBLIC	?clean@str_container_impl@@QEAAXXZ		; str_container_impl::clean
PUBLIC	?insert@str_container_impl@@QEAAXPEAUstr_value@@@Z ; str_container_impl::insert
PUBLIC	?find@str_container_impl@@QEAAPEAUstr_value@@PEAU2@PEBD@Z ; str_container_impl::find
PUBLIC	?stat_economy@str_container@@QEAAIXZ		; str_container::stat_economy
PUBLIC	?dock@str_container@@QEAAPEAUstr_value@@PEBD@Z	; str_container::dock
PUBLIC	??1str_container@@QEAA@XZ			; str_container::~str_container
;	COMDAT pdata
pdata	SEGMENT
$pdata$??$xr_delete@Ustr_container_impl@@@@YAXAEAPEAUstr_container_impl@@@Z DD imagerel $LN26
	DD	imagerel $LN26+42
	DD	imagerel $unwind$??$xr_delete@Ustr_container_impl@@@@YAXAEAPEAUstr_container_impl@@@Z
pdata	ENDS
;	COMDAT pdata
pdata	SEGMENT
$pdata$??$xr_free@Ustr_value@@@@YAXAEAPEAUstr_value@@@Z DD imagerel $LN24
	DD	imagerel $LN24+42
	DD	imagerel $unwind$??$xr_free@Ustr_value@@@@YAXAEAPEAUstr_value@@@Z
pdata	ENDS
pdata	SEGMENT
$pdata$?clean@str_container@@QEAAXXZ DD imagerel $LN46
	DD	imagerel $LN46+150
	DD	imagerel $unwind$?clean@str_container@@QEAAXXZ
pdata	ENDS
;	COMDAT pdata
pdata	SEGMENT
$pdata$?clean@str_container_impl@@QEAAXXZ DD imagerel $LN40
	DD	imagerel $LN40+119
	DD	imagerel $unwind$?clean@str_container_impl@@QEAAXXZ
pdata	ENDS
;	COMDAT pdata
pdata	SEGMENT
$pdata$?find@str_container_impl@@QEAAPEAUstr_value@@PEAU2@PEBD@Z DD imagerel $LN13
	DD	imagerel $LN13+117
	DD	imagerel $unwind$?find@str_container_impl@@QEAAPEAUstr_value@@PEAU2@PEBD@Z
pdata	ENDS
pdata	SEGMENT
$pdata$?stat_economy@str_container@@QEAAIXZ DD imagerel $LN23
	DD	imagerel $LN23+111
	DD	imagerel $unwind$?stat_economy@str_container@@QEAAIXZ
$pdata$?dock@str_container@@QEAAPEAUstr_value@@PEBD@Z DD imagerel $LN67
	DD	imagerel $LN67+283
	DD	imagerel $unwind$?dock@str_container@@QEAAPEAUstr_value@@PEBD@Z
$pdata$??1str_container@@QEAA@XZ DD imagerel $LN97
	DD	imagerel $LN97+209
	DD	imagerel $unwind$??1str_container@@QEAA@XZ
;	COMDAT xdata
xdata	SEGMENT
$unwind$?find@str_container_impl@@QEAAPEAUstr_value@@PEAU2@PEBD@Z DD 081401H
	DD	086414H
	DD	075414H
	DD	063414H
	DD	070103214H
xdata	ENDS
;	COMDAT xdata
xdata	SEGMENT
$unwind$?clean@str_container_impl@@QEAAXXZ DD 060f01H
	DD	07640fH
	DD	06340fH
	DD	0700b320fH
xdata	ENDS
xdata	SEGMENT
$unwind$?clean@str_container@@QEAAXXZ DD 081501H
	DD	087415H
	DD	076415H
	DD	063415H
	DD	0e0113215H
$unwind$?stat_economy@str_container@@QEAAIXZ DD 040a01H
	DD	06340aH
	DD	07006320aH
$unwind$?dock@str_container@@QEAAPEAUstr_value@@PEBD@Z DD 0b3401H
	DD	08e434H
	DD	0e742fH
	DD	0d642aH
	DD	0c3425H
	DD	0f0048208H
	DD	05002H
$unwind$??1str_container@@QEAA@XZ DD 081501H
	DD	087415H
	DD	076415H
	DD	063415H
	DD	0e0113215H
xdata	ENDS
;	COMDAT xdata
xdata	SEGMENT
$unwind$??$xr_free@Ustr_value@@@@YAXAEAPEAUstr_value@@@Z DD 020601H
	DD	030023206H
xdata	ENDS
;	COMDAT xdata
xdata	SEGMENT
$unwind$??$xr_delete@Ustr_container_impl@@@@YAXAEAPEAUstr_container_impl@@@Z DD 020601H
	DD	030023206H
; Function compile flags: /Ogtpy
; File C:\Users\Mahito\Desktop\Night outing\Night-outing\src\xrCore\xrstring.cpp
; File C:\Users\Mahito\Desktop\Night outing\Night-outing\src\xrCore\xrSyncronize.cpp
; File C:\Users\Mahito\Desktop\Night outing\Night-outing\src\xrCore\xrstring.cpp
; File C:\Users\Mahito\Desktop\Night outing\Night-outing\src\xrCore\xrSyncronize.cpp
; File C:\Users\Mahito\Desktop\Night outing\Night-outing\src\xrCore\xrstring.cpp
; File C:\Users\Mahito\Desktop\Night outing\Night-outing\src\xrCore\xrMemory_subst_msvc.cpp
; File C:\Users\Mahito\Desktop\Night outing\Night-outing\src\xrCore\xrstring.cpp
; File C:\Users\Mahito\Desktop\Night outing\Night-outing\src\xrCore\xrSyncronize.cpp
; File C:\Users\Mahito\Desktop\Night outing\Night-outing\src\xrCore\xrMemory_subst_msvc.h
; File C:\Users\Mahito\Desktop\Night outing\Night-outing\src\xrCore\xrMemory_subst_msvc.cpp
; File C:\Users\Mahito\Desktop\Night outing\Night-outing\src\xrCore\xrMemory_subst_msvc.h
; File C:\Users\Mahito\Desktop\Night outing\Night-outing\src\xrCore\xrSyncronize.cpp
; File C:\Users\Mahito\Desktop\Night outing\Night-outing\src\xrCore\xrMemory.h
; File C:\Users\Mahito\Desktop\Night outing\Night-outing\src\xrCore\xrMemory_subst_msvc.cpp
; File C:\Users\Mahito\Desktop\Night outing\Night-outing\src\xrCore\xrMemory.h
; File C:\Users\Mahito\Desktop\Night outing\Night-outing\src\xrCore\xrstring.cpp
_TEXT	SEGMENT
this$ = 48
??1str_container@@QEAA@XZ PROC				; str_container::~str_container

; 247  : {

$LN97:
	mov	QWORD PTR [rsp+8], rbx
	mov	QWORD PTR [rsp+16], rsi
	mov	QWORD PTR [rsp+24], rdi
	push	r14
	sub	rsp, 32					; 00000020H
	mov	r14, rcx
; File C:\Users\Mahito\Desktop\Night outing\Night-outing\src\xrCore\xrSyncronize.cpp

; 64   : 	EnterCriticalSection			( (CRITICAL_SECTION*)pmutex );

	mov	rcx, QWORD PTR [rcx]
	call	QWORD PTR __imp_EnterCriticalSection
; File C:\Users\Mahito\Desktop\Night outing\Night-outing\src\xrCore\xrstring.cpp

; 209  : 	impl->clean ();

	mov	rdi, QWORD PTR [r14+8]
; File C:\Users\Mahito\Desktop\Night outing\Night-outing\src\xrCore\xrSyncronize.cpp

; 64   : 	EnterCriticalSection			( (CRITICAL_SECTION*)pmutex );

	mov	esi, 262144				; 00040000H
	npad	6
$LL10@str_contai:
; File C:\Users\Mahito\Desktop\Night outing\Night-outing\src\xrCore\xrstring.cpp

; 56   : 			while ( *current != NULL )

	mov	rax, QWORD PTR [rdi]
	mov	rbx, rdi
	test	rax, rax
	je	SHORT $LN8@str_contai
	npad	5
$LL11@str_contai:

; 57   : 			{
; 58   : 				str_value* value = *current;
; 59   : 				if ( !value->dwReference )

	cmp	DWORD PTR [rax], 0
	jne	SHORT $LN13@str_contai

; 60   : 				{
; 61   : 					*current = value->next;

	mov	rcx, QWORD PTR [rax+12]
	mov	QWORD PTR [rbx], rcx
; File C:\Users\Mahito\Desktop\Night outing\Night-outing\src\xrCore\xrMemory_subst_msvc.cpp

; 105  : 		_aligned_free(P);

	mov	rcx, rax
	inc	DWORD PTR ?Memory@@3VxrMemory@@A
	call	QWORD PTR __imp__aligned_free
; File C:\Users\Mahito\Desktop\Night outing\Night-outing\src\xrCore\xrstring.cpp

; 63   : 				}

	mov	rax, QWORD PTR [rbx]
	jmp	SHORT $LN14@str_contai
$LN13@str_contai:

; 64   : 				else
; 65   : 				{
; 66   : 					current = &value->next;

	lea	rbx, QWORD PTR [rax+12]
	mov	rax, QWORD PTR [rax+12]
$LN14@str_contai:

; 56   : 			while ( *current != NULL )

	test	rax, rax
	jne	SHORT $LL11@str_contai
$LN8@str_contai:

; 52   : 		for ( u32 i=0; i<buffer_size; ++i )

	add	rdi, 8
	sub	rsi, 1
	jne	SHORT $LL10@str_contai
; File C:\Users\Mahito\Desktop\Night outing\Night-outing\src\xrCore\xrSyncronize.cpp

; 69   : 	LeaveCriticalSection			( (CRITICAL_SECTION*)pmutex );

	mov	rcx, QWORD PTR [r14]
	call	QWORD PTR __imp_LeaveCriticalSection
; File C:\Users\Mahito\Desktop\Night outing\Night-outing\src\xrCore\xrMemory_subst_msvc.h

; 39   : 	if (ptr)

	mov	rcx, QWORD PTR [r14+8]
	xor	ebx, ebx
	test	rcx, rcx
	je	SHORT $LN41@str_contai
; File C:\Users\Mahito\Desktop\Night outing\Night-outing\src\xrCore\xrMemory_subst_msvc.cpp

; 99   : 	stat_calls++;

	inc	DWORD PTR ?Memory@@3VxrMemory@@A

; 105  : 		_aligned_free(P);

	call	QWORD PTR __imp__aligned_free
; File C:\Users\Mahito\Desktop\Night outing\Night-outing\src\xrCore\xrMemory_subst_msvc.h

; 42   : 		ptr = NULL;

	mov	QWORD PTR [r14+8], rbx
$LN41@str_contai:
; File C:\Users\Mahito\Desktop\Night outing\Night-outing\src\xrCore\xrSyncronize.cpp

; 46   : 	DeleteCriticalSection			( (CRITICAL_SECTION*)pmutex	);

	mov	rcx, QWORD PTR [r14]
	call	QWORD PTR __imp_DeleteCriticalSection
; File C:\Users\Mahito\Desktop\Night outing\Night-outing\src\xrCore\xrMemory.h

; 69   : 	if (P)

	mov	rcx, QWORD PTR [r14]
	test	rcx, rcx
	je	SHORT $LN67@str_contai
; File C:\Users\Mahito\Desktop\Night outing\Night-outing\src\xrCore\xrMemory_subst_msvc.cpp

; 99   : 	stat_calls++;

	inc	DWORD PTR ?Memory@@3VxrMemory@@A

; 105  : 		_aligned_free(P);

	call	QWORD PTR __imp__aligned_free
; File C:\Users\Mahito\Desktop\Night outing\Night-outing\src\xrCore\xrMemory.h

; 72   : 		P = NULL;

	mov	QWORD PTR [r14], rbx
$LN67@str_contai:
; File C:\Users\Mahito\Desktop\Night outing\Night-outing\src\xrCore\xrstring.cpp

; 251  : }

	mov	rbx, QWORD PTR [rsp+48]
	mov	rsi, QWORD PTR [rsp+56]
	mov	rdi, QWORD PTR [rsp+64]
	add	rsp, 32					; 00000020H
	pop	r14
	ret	0
??1str_container@@QEAA@XZ ENDP				; str_container::~str_container
_TEXT	ENDS
; Function compile flags: /Ogtpy
; File C:\Users\Mahito\Desktop\Night outing\Night-outing\src\xrCore\xrstring.cpp
; File C:\Users\Mahito\Desktop\Night outing\Night-outing\src\xrCore\xrSyncronize.cpp
; File C:\Users\Mahito\Desktop\Night outing\Night-outing\src\xrCore\_std_extensions.h
; File C:\Users\Mahito\Desktop\Night outing\Night-outing\src\xrCore\xrstring.cpp
; File C:\Users\Mahito\Desktop\Night outing\Night-outing\src\xrCore\xrSyncronize.cpp
; File C:\Users\Mahito\Desktop\Night outing\Night-outing\src\xrCore\xrstring.cpp
_TEXT	SEGMENT
header$ = 32
this$dead$ = 96
value$ = 104
?dock@str_container@@QEAAPEAUstr_value@@PEBD@Z PROC	; str_container::dock

; 142  : {

$LN67:
	push	rbp
	push	r15
	sub	rsp, 72					; 00000048H
	xor	r15d, r15d
	mov	rbp, rdx

; 143  : 	if (0==value)				return 0;

	test	rdx, rdx
	jne	SHORT $LN5@dock
	xor	eax, eax

; 204  : }

	add	rsp, 72					; 00000048H
	pop	r15
	pop	rbp
	ret	0
$LN5@dock:
; File C:\Users\Mahito\Desktop\Night outing\Night-outing\src\xrCore\xrSyncronize.cpp

; 64   : 	EnterCriticalSection			( (CRITICAL_SECTION*)pmutex );

	mov	rcx, QWORD PTR [r15]
	mov	QWORD PTR [rsp+96], rbx
	mov	QWORD PTR [rsp+104], rsi
	mov	QWORD PTR [rsp+112], rdi
	mov	QWORD PTR [rsp+64], r14
	call	QWORD PTR __imp_EnterCriticalSection
; File C:\Users\Mahito\Desktop\Night outing\Night-outing\src\xrCore\_std_extensions.h

; 186  : {	return (u32)strlen(S);			}

	mov	rsi, -1
$LL65@dock:
	inc	rsi
	cmp	BYTE PTR [rsi+rbp], r15b
	jne	SHORT $LL65@dock
; File C:\Users\Mahito\Desktop\Night outing\Night-outing\src\xrCore\xrstring.cpp

; 155  : 	u32		s_len_with_zero		= (u32)s_len+1;

	mov	edx, esi
	lea	edi, DWORD PTR [rsi+1]

; 156  : 	VERIFY	(HEADER+s_len_with_zero < 4096);
; 157  : 
; 158  : 	// setup find structure
; 159  : 	char	header[sizeof(str_value)];
; 160  : 	str_value*	sv				= (str_value*)header;
; 161  : 	sv->dwReference				= 0;
; 162  : 	sv->dwLength				= s_len;
; 163  : 	sv->dwCRC					= crc32	(value,s_len);

	mov	rcx, rbp
	call	?crc32@@YAIPEBXI@Z			; crc32

; 27   : 		str_value* candidate = buffer[ value->dwCRC % buffer_size ];

	mov	rbx, QWORD PTR ds:8

; 156  : 	VERIFY	(HEADER+s_len_with_zero < 4096);
; 157  : 
; 158  : 	// setup find structure
; 159  : 	char	header[sizeof(str_value)];
; 160  : 	str_value*	sv				= (str_value*)header;
; 161  : 	sv->dwReference				= 0;
; 162  : 	sv->dwLength				= s_len;
; 163  : 	sv->dwCRC					= crc32	(value,s_len);

	mov	r14d, eax
	mov	DWORD PTR header$[rsp+8], eax

; 27   : 		str_value* candidate = buffer[ value->dwCRC % buffer_size ];

	mov	rcx, QWORD PTR header$[rsp+8]
	and	ecx, 262143				; 0003ffffH
	mov	rbx, QWORD PTR [rbx+rcx*8]

; 28   : 		while ( candidate )

	test	rbx, rbx
	je	SHORT $LN64@dock
	npad	6
$LL13@dock:

; 29   : 		{
; 30   : 			if ( candidate->dwCRC == value->dwCRC &&
; 31   : 				 candidate->dwLength == value->dwLength &&

	cmp	DWORD PTR [rbx+8], r14d
	jne	SHORT $LN15@dock
	cmp	DWORD PTR [rbx+4], esi
	jne	SHORT $LN15@dock
	mov	r8d, esi
	lea	rcx, QWORD PTR [rbx+20]
	mov	rdx, rbp
	call	memcmp
	test	eax, eax
	je	SHORT $LN6@dock
$LN15@dock:

; 32   : 				 !memcmp(candidate->value, str, value->dwLength) )
; 33   : 			{
; 34   : 				return candidate;				
; 35   : 			}
; 36   : 
; 37   : 			candidate = candidate->next;

	mov	rbx, QWORD PTR [rbx+12]
	test	rbx, rbx
	jne	SHORT $LL13@dock
$LN64@dock:

; 164  : 
; 165  : 	// search
; 166  : 	result						= impl->find	(sv, value);
; 167  : 	
; 168  : #ifdef DEBUG
; 169  : 	bool is_leaked_string = !xr_strcmp(value, "enter leaked string here");
; 170  : #endif //DEBUG
; 171  : 
; 172  : 	// it may be the case, string is not found or has "non-exact" match
; 173  : 	if (0==result 
; 174  : #ifdef DEBUG
; 175  : 		|| is_leaked_string
; 176  : #endif //DEBUG
; 177  : 		) {
; 178  : 
; 179  : 		result					= (str_value*)Memory.mem_alloc(HEADER+s_len_with_zero

	lea	rdx, QWORD PTR [rdi+20]
	lea	rcx, OFFSET FLAT:?Memory@@3VxrMemory@@A	; Memory
	call	?mem_alloc@xrMemory@@QEAAPEAX_K@Z	; xrMemory::mem_alloc

; 180  : #ifdef DEBUG_MEMORY_NAME
; 181  : 			, "storage: sstring"
; 182  : #endif // DEBUG_MEMORY_NAME
; 183  : 			);
; 184  : 
; 185  : #ifdef DEBUG
; 186  : 		static int num_leaked_string = 0;
; 187  : 		if ( is_leaked_string )
; 188  : 		{
; 189  : 			++num_leaked_string;
; 190  : 			Msg("leaked_string: %d 0x%08x", num_leaked_string, result);
; 191  : 		}
; 192  : #endif // DEBUG
; 193  : 
; 194  : 		result->dwReference		= 0;
; 195  : 		result->dwLength		= sv->dwLength;
; 196  : 		result->dwCRC			= sv->dwCRC;
; 197  : 		CopyMemory				(result->value,value,s_len_with_zero);

	mov	r8, rdi
	mov	rdx, rbp
	mov	rbx, rax
	lea	rcx, QWORD PTR [rax+20]
	mov	DWORD PTR [rax], r15d
	mov	DWORD PTR [rax+4], esi
	mov	DWORD PTR [rax+8], r14d
	call	memcpy

; 45   : 		str_value** element = &buffer[ value->dwCRC % buffer_size ];

	mov	rax, QWORD PTR ds:8
	mov	edx, DWORD PTR [rbx+8]
	and	edx, 262143				; 0003ffffH
	lea	r8, QWORD PTR [rax+rdx*8]

; 46   : 		value->next = *element;

	mov	rax, QWORD PTR [rax+rdx*8]
	mov	QWORD PTR [rbx+12], rax

; 47   : 		*element = value;

	mov	QWORD PTR [r8], rbx
$LN6@dock:
; File C:\Users\Mahito\Desktop\Night outing\Night-outing\src\xrCore\xrSyncronize.cpp

; 69   : 	LeaveCriticalSection			( (CRITICAL_SECTION*)pmutex );

	mov	rcx, QWORD PTR [r15]
	call	QWORD PTR __imp_LeaveCriticalSection
; File C:\Users\Mahito\Desktop\Night outing\Night-outing\src\xrCore\xrstring.cpp

; 203  : 	return	result;

	mov	r14, QWORD PTR [rsp+64]
	mov	rax, rbx
	mov	rbx, QWORD PTR [rsp+96]
	mov	rdi, QWORD PTR [rsp+112]
	mov	rsi, QWORD PTR [rsp+104]

; 204  : }

	add	rsp, 72					; 00000048H
	pop	r15
	pop	rbp
	ret	0
?dock@str_container@@QEAAPEAUstr_value@@PEBD@Z ENDP	; str_container::dock
_TEXT	ENDS
; Function compile flags: /Ogtpy
; File C:\Users\Mahito\Desktop\Night outing\Night-outing\src\xrCore\xrstring.cpp
; File C:\Users\Mahito\Desktop\Night outing\Night-outing\src\xrCore\xrSyncronize.cpp
; File C:\Users\Mahito\Desktop\Night outing\Night-outing\src\xrCore\xrstring.cpp
; File C:\Users\Mahito\Desktop\Night outing\Night-outing\src\xrCore\xrSyncronize.cpp
; File C:\Users\Mahito\Desktop\Night outing\Night-outing\src\xrCore\xrstring.cpp
_TEXT	SEGMENT
this$dead$ = 48
?stat_economy@str_container@@QEAAIXZ PROC		; str_container::stat_economy

; 237  : {

$LN23:
	mov	QWORD PTR [rsp+8], rbx
	push	rdi
	sub	rsp, 32					; 00000020H
	xor	edi, edi
; File C:\Users\Mahito\Desktop\Night outing\Night-outing\src\xrCore\xrSyncronize.cpp

; 64   : 	EnterCriticalSection			( (CRITICAL_SECTION*)pmutex );

	mov	rcx, QWORD PTR [rdi]
	call	QWORD PTR __imp_EnterCriticalSection
	mov	r9, QWORD PTR ds:8
	mov	r10d, 262144				; 00040000H
; File C:\Users\Mahito\Desktop\Night outing\Night-outing\src\xrCore\xrstring.cpp

; 120  : 		int				counter	  = 0;

	mov	ebx, edi
$LL8@stat_econo:

; 122  : 		{
; 123  : 			str_value* value = buffer[i];

	mov	rax, QWORD PTR [r9]

; 124  : 			while ( value )

	test	rax, rax
	je	SHORT $LN6@stat_econo
	npad	3
$LL9@stat_econo:

; 125  : 			{
; 126  : 				counter -= sizeof(str_value);
; 127  : 				counter += (value->dwReference-1)*(value->dwLength+1);

	mov	r8d, DWORD PTR [rax+4]
	add	ebx, -20
	mov	edx, DWORD PTR [rax]
	inc	r8d

; 128  : 				value = value->next;

	mov	rax, QWORD PTR [rax+12]
	dec	edx
	imul	r8d, edx
	add	ebx, r8d
	test	rax, rax
	jne	SHORT $LL9@stat_econo
$LN6@stat_econo:

; 121  : 		for ( u32 i=0; i<buffer_size; ++i )

	add	r9, 8
	sub	r10, 1
	jne	SHORT $LL8@stat_econo
; File C:\Users\Mahito\Desktop\Night outing\Night-outing\src\xrCore\xrSyncronize.cpp

; 69   : 	LeaveCriticalSection			( (CRITICAL_SECTION*)pmutex );

	mov	rcx, QWORD PTR [rdi]
	call	QWORD PTR __imp_LeaveCriticalSection
; File C:\Users\Mahito\Desktop\Night outing\Night-outing\src\xrCore\xrstring.cpp

; 241  : 	counter			+= impl->stat_economy();

	lea	eax, DWORD PTR [rbx-16]

; 242  :  	cs.Leave		(); 
; 243  :  	return			u32(counter);
; 244  : }

	mov	rbx, QWORD PTR [rsp+48]
	add	rsp, 32					; 00000020H
	pop	rdi
	ret	0
?stat_economy@str_container@@QEAAIXZ ENDP		; str_container::stat_economy
_TEXT	ENDS
; Function compile flags: /Ogtpy
; File C:\Users\Mahito\Desktop\Night outing\Night-outing\src\xrCore\xrstring.cpp
;	COMDAT ?find@str_container_impl@@QEAAPEAUstr_value@@PEAU2@PEBD@Z
_TEXT	SEGMENT
this$ = 48
value$ = 56
str$ = 64
?find@str_container_impl@@QEAAPEAUstr_value@@PEAU2@PEBD@Z PROC ; str_container_impl::find, COMDAT

; 26   : 	{

$LN13:
	mov	QWORD PTR [rsp+8], rbx
	mov	QWORD PTR [rsp+16], rbp
	mov	QWORD PTR [rsp+24], rsi
	push	rdi
	sub	rsp, 32					; 00000020H

; 27   : 		str_value* candidate = buffer[ value->dwCRC % buffer_size ];

	mov	edi, DWORD PTR [rdx+8]
	mov	rbp, r8
	mov	ebx, edi
	mov	rsi, rdx
	and	ebx, 262143				; 0003ffffH
	mov	rbx, QWORD PTR [rcx+rbx*8]

; 28   : 		while ( candidate )

	test	rbx, rbx
	je	SHORT $LN11@find
	npad	2
$LL2@find:

; 29   : 		{
; 30   : 			if ( candidate->dwCRC == value->dwCRC &&
; 31   : 				 candidate->dwLength == value->dwLength &&

	cmp	DWORD PTR [rbx+8], edi
	jne	SHORT $LN4@find
	mov	eax, DWORD PTR [rsi+4]
	cmp	DWORD PTR [rbx+4], eax
	jne	SHORT $LN4@find
	mov	r8d, eax
	lea	rcx, QWORD PTR [rbx+20]
	mov	rdx, rbp
	call	memcmp
	test	eax, eax
	je	SHORT $LN7@find
$LN4@find:

; 35   : 			}
; 36   : 
; 37   : 			candidate = candidate->next;

	mov	rbx, QWORD PTR [rbx+12]
	test	rbx, rbx
	jne	SHORT $LL2@find
$LN11@find:

; 38   : 		}
; 39   : 
; 40   : 		return NULL;

	xor	eax, eax
$LN1@find:

; 41   : 	}

	mov	rbx, QWORD PTR [rsp+48]
	mov	rbp, QWORD PTR [rsp+56]
	mov	rsi, QWORD PTR [rsp+64]
	add	rsp, 32					; 00000020H
	pop	rdi
	ret	0
$LN7@find:

; 32   : 				 !memcmp(candidate->value, str, value->dwLength) )
; 33   : 			{
; 34   : 				return candidate;				

	mov	rax, rbx
	jmp	SHORT $LN1@find
?find@str_container_impl@@QEAAPEAUstr_value@@PEAU2@PEBD@Z ENDP ; str_container_impl::find
_TEXT	ENDS
; Function compile flags: /Ogtpy
; File C:\Users\Mahito\Desktop\Night outing\Night-outing\src\xrCore\xrstring.cpp
;	COMDAT ?insert@str_container_impl@@QEAAXPEAUstr_value@@@Z
_TEXT	SEGMENT
this$ = 8
value$ = 16
?insert@str_container_impl@@QEAAXPEAUstr_value@@@Z PROC	; str_container_impl::insert, COMDAT

; 45   : 		str_value** element = &buffer[ value->dwCRC % buffer_size ];

	mov	eax, DWORD PTR [rdx+8]
	and	eax, 262143				; 0003ffffH
	lea	rcx, QWORD PTR [rcx+rax*8]

; 46   : 		value->next = *element;

	mov	rax, QWORD PTR [rcx]
	mov	QWORD PTR [rdx+12], rax

; 47   : 		*element = value;

	mov	QWORD PTR [rcx], rdx

; 48   : 	}

	ret	0
?insert@str_container_impl@@QEAAXPEAUstr_value@@@Z ENDP	; str_container_impl::insert
_TEXT	ENDS
; Function compile flags: /Ogtpy
; File C:\Users\Mahito\Desktop\Night outing\Night-outing\src\xrCore\xrstring.cpp
; File C:\Users\Mahito\Desktop\Night outing\Night-outing\src\xrCore\xrMemory_subst_msvc.cpp
; File C:\Users\Mahito\Desktop\Night outing\Night-outing\src\xrCore\xrstring.cpp
;	COMDAT ?clean@str_container_impl@@QEAAXXZ
_TEXT	SEGMENT
this$ = 48
?clean@str_container_impl@@QEAAXXZ PROC			; str_container_impl::clean, COMDAT

; 51   : 	{

$LN40:
	mov	QWORD PTR [rsp+8], rbx
	mov	QWORD PTR [rsp+16], rsi
	push	rdi
	sub	rsp, 32					; 00000020H
	mov	rdi, rcx

; 52   : 		for ( u32 i=0; i<buffer_size; ++i )

	mov	esi, 262144				; 00040000H
	npad	9
$LL4@clean:

; 53   : 		{
; 54   : 			str_value** current = &buffer[i];
; 55   : 
; 56   : 			while ( *current != NULL )

	mov	rax, QWORD PTR [rdi]
	mov	rbx, rdi
	test	rax, rax
	je	SHORT $LN2@clean
	npad	5
$LL5@clean:

; 57   : 			{
; 58   : 				str_value* value = *current;
; 59   : 				if ( !value->dwReference )

	cmp	DWORD PTR [rax], 0
	jne	SHORT $LN7@clean

; 60   : 				{
; 61   : 					*current = value->next;

	mov	rcx, QWORD PTR [rax+12]
	mov	QWORD PTR [rbx], rcx
; File C:\Users\Mahito\Desktop\Night outing\Night-outing\src\xrCore\xrMemory_subst_msvc.cpp

; 105  : 		_aligned_free(P);

	mov	rcx, rax
	inc	DWORD PTR ?Memory@@3VxrMemory@@A
	call	QWORD PTR __imp__aligned_free
; File C:\Users\Mahito\Desktop\Night outing\Night-outing\src\xrCore\xrstring.cpp

; 63   : 				}

	mov	rax, QWORD PTR [rbx]
	jmp	SHORT $LN8@clean
$LN7@clean:

; 64   : 				else
; 65   : 				{
; 66   : 					current = &value->next;

	lea	rbx, QWORD PTR [rax+12]
	mov	rax, QWORD PTR [rax+12]
$LN8@clean:

; 53   : 		{
; 54   : 			str_value** current = &buffer[i];
; 55   : 
; 56   : 			while ( *current != NULL )

	test	rax, rax
	jne	SHORT $LL5@clean
$LN2@clean:

; 52   : 		for ( u32 i=0; i<buffer_size; ++i )

	add	rdi, 8
	sub	rsi, 1
	jne	SHORT $LL4@clean

; 67   : 				}
; 68   : 			}
; 69   : 		}
; 70   : 	}

	mov	rbx, QWORD PTR [rsp+48]
	mov	rsi, QWORD PTR [rsp+56]
	add	rsp, 32					; 00000020H
	pop	rdi
	ret	0
?clean@str_container_impl@@QEAAXXZ ENDP			; str_container_impl::clean
_TEXT	ENDS
; Function compile flags: /Ogtpy
; File C:\Users\Mahito\Desktop\Night outing\Night-outing\src\xrCore\xrstring.cpp
;	COMDAT ?stat_economy@str_container_impl@@QEAAHXZ
_TEXT	SEGMENT
this$ = 8
?stat_economy@str_container_impl@@QEAAHXZ PROC		; str_container_impl::stat_economy, COMDAT

; 119  : 	{

	mov	r9, rcx

; 120  : 		int				counter	  = 0;

	xor	eax, eax
	mov	r10d, 262144				; 00040000H
	npad	5
$LL4@stat_econo:

; 122  : 		{
; 123  : 			str_value* value = buffer[i];

	mov	rdx, QWORD PTR [r9]

; 124  : 			while ( value )

	test	rdx, rdx
	je	SHORT $LN2@stat_econo
	npad	8
$LL5@stat_econo:

; 125  : 			{
; 126  : 				counter -= sizeof(str_value);
; 127  : 				counter += (value->dwReference-1)*(value->dwLength+1);

	mov	r8d, DWORD PTR [rdx+4]
	add	eax, -20
	mov	ecx, DWORD PTR [rdx]
	inc	r8d

; 128  : 				value = value->next;

	mov	rdx, QWORD PTR [rdx+12]
	dec	ecx
	imul	r8d, ecx
	add	eax, r8d
	test	rdx, rdx
	jne	SHORT $LL5@stat_econo
$LN2@stat_econo:

; 121  : 		for ( u32 i=0; i<buffer_size; ++i )

	add	r9, 8
	sub	r10, 1
	jne	SHORT $LL4@stat_econo

; 129  : 			}
; 130  : 		}
; 131  : 
; 132  : 		return counter;
; 133  : 	}

	ret	0
?stat_economy@str_container_impl@@QEAAHXZ ENDP		; str_container_impl::stat_economy
_TEXT	ENDS
; Function compile flags: /Ogtpy
; File C:\Users\Mahito\Desktop\Night outing\Night-outing\src\xrCore\xrstring.cpp
; File C:\Users\Mahito\Desktop\Night outing\Night-outing\src\xrCore\xrSyncronize.cpp
; File C:\Users\Mahito\Desktop\Night outing\Night-outing\src\xrCore\xrstring.cpp
; File C:\Users\Mahito\Desktop\Night outing\Night-outing\src\xrCore\xrSyncronize.cpp
; File C:\Users\Mahito\Desktop\Night outing\Night-outing\src\xrCore\xrstring.cpp
; File C:\Users\Mahito\Desktop\Night outing\Night-outing\src\xrCore\xrMemory_subst_msvc.cpp
; File C:\Users\Mahito\Desktop\Night outing\Night-outing\src\xrCore\xrstring.cpp
; File C:\Users\Mahito\Desktop\Night outing\Night-outing\src\xrCore\xrSyncronize.cpp
; File C:\Users\Mahito\Desktop\Night outing\Night-outing\src\xrCore\xrstring.cpp
; File C:\Users\Mahito\Desktop\Night outing\Night-outing\src\xrCore\xrSyncronize.cpp
; File C:\Users\Mahito\Desktop\Night outing\Night-outing\src\xrCore\xrstring.cpp
_TEXT	SEGMENT
this$ = 48
?clean@str_container@@QEAAXXZ PROC			; str_container::clean

; 207  : {

$LN46:
	mov	QWORD PTR [rsp+8], rbx
	mov	QWORD PTR [rsp+16], rsi
	mov	QWORD PTR [rsp+24], rdi
	push	r14
	sub	rsp, 32					; 00000020H
	mov	r14, rcx
; File C:\Users\Mahito\Desktop\Night outing\Night-outing\src\xrCore\xrSyncronize.cpp

; 64   : 	EnterCriticalSection			( (CRITICAL_SECTION*)pmutex );

	mov	rcx, QWORD PTR [rcx]
	call	QWORD PTR __imp_EnterCriticalSection
; File C:\Users\Mahito\Desktop\Night outing\Night-outing\src\xrCore\xrstring.cpp

; 209  : 	impl->clean ();

	mov	rdi, QWORD PTR [r14+8]
; File C:\Users\Mahito\Desktop\Night outing\Night-outing\src\xrCore\xrSyncronize.cpp

; 64   : 	EnterCriticalSection			( (CRITICAL_SECTION*)pmutex );

	mov	esi, 262144				; 00040000H
	npad	6
$LL8@clean:
; File C:\Users\Mahito\Desktop\Night outing\Night-outing\src\xrCore\xrstring.cpp

; 56   : 			while ( *current != NULL )

	mov	rax, QWORD PTR [rdi]
	mov	rbx, rdi
	test	rax, rax
	je	SHORT $LN6@clean
	npad	5
$LL9@clean:

; 57   : 			{
; 58   : 				str_value* value = *current;
; 59   : 				if ( !value->dwReference )

	cmp	DWORD PTR [rax], 0
	jne	SHORT $LN11@clean

; 60   : 				{
; 61   : 					*current = value->next;

	mov	rcx, QWORD PTR [rax+12]
	mov	QWORD PTR [rbx], rcx
; File C:\Users\Mahito\Desktop\Night outing\Night-outing\src\xrCore\xrMemory_subst_msvc.cpp

; 105  : 		_aligned_free(P);

	mov	rcx, rax
	inc	DWORD PTR ?Memory@@3VxrMemory@@A
	call	QWORD PTR __imp__aligned_free
; File C:\Users\Mahito\Desktop\Night outing\Night-outing\src\xrCore\xrstring.cpp

; 63   : 				}

	mov	rax, QWORD PTR [rbx]
	jmp	SHORT $LN12@clean
$LN11@clean:

; 64   : 				else
; 65   : 				{
; 66   : 					current = &value->next;

	lea	rbx, QWORD PTR [rax+12]
	mov	rax, QWORD PTR [rax+12]
$LN12@clean:

; 56   : 			while ( *current != NULL )

	test	rax, rax
	jne	SHORT $LL9@clean
$LN6@clean:

; 52   : 		for ( u32 i=0; i<buffer_size; ++i )

	add	rdi, 8
	sub	rsi, 1
	jne	SHORT $LL8@clean
; File C:\Users\Mahito\Desktop\Night outing\Night-outing\src\xrCore\xrSyncronize.cpp

; 69   : 	LeaveCriticalSection			( (CRITICAL_SECTION*)pmutex );

	mov	rcx, QWORD PTR [r14]
; File C:\Users\Mahito\Desktop\Night outing\Night-outing\src\xrCore\xrstring.cpp

; 211  : }

	mov	rbx, QWORD PTR [rsp+48]
	mov	rsi, QWORD PTR [rsp+56]
	mov	rdi, QWORD PTR [rsp+64]
	add	rsp, 32					; 00000020H
	pop	r14
; File C:\Users\Mahito\Desktop\Night outing\Night-outing\src\xrCore\xrSyncronize.cpp

; 69   : 	LeaveCriticalSection			( (CRITICAL_SECTION*)pmutex );

	rex_jmp	QWORD PTR __imp_LeaveCriticalSection
?clean@str_container@@QEAAXXZ ENDP			; str_container::clean
_TEXT	ENDS
; Function compile flags: /Ogtpy
; File C:\Users\Mahito\Desktop\Night outing\Night-outing\src\xrCore\xrMemory.h
; File C:\Users\Mahito\Desktop\Night outing\Night-outing\src\xrCore\xrMemory_subst_msvc.cpp
; File C:\Users\Mahito\Desktop\Night outing\Night-outing\src\xrCore\xrMemory.h
;	COMDAT ??$xr_free@Ustr_value@@@@YAXAEAPEAUstr_value@@@Z
_TEXT	SEGMENT
P$ = 48
??$xr_free@Ustr_value@@@@YAXAEAPEAUstr_value@@@Z PROC	; xr_free<str_value>, COMDAT

; 68   : {

$LN24:
	push	rbx
	sub	rsp, 32					; 00000020H
	mov	rbx, rcx

; 69   : 	if (P)

	mov	rcx, QWORD PTR [rcx]
	test	rcx, rcx
	je	SHORT $LN2@xr_free
; File C:\Users\Mahito\Desktop\Night outing\Night-outing\src\xrCore\xrMemory_subst_msvc.cpp

; 99   : 	stat_calls++;

	inc	DWORD PTR ?Memory@@3VxrMemory@@A

; 100  : 
; 101  : #ifdef PURE_ALLOC
; 102  : 	if (g_use_pure_alloc)
; 103  : 	{
; 104  : 		//free(P);
; 105  : 		_aligned_free(P);

	call	QWORD PTR __imp__aligned_free
; File C:\Users\Mahito\Desktop\Night outing\Night-outing\src\xrCore\xrMemory.h

; 72   : 		P = NULL;

	mov	QWORD PTR [rbx], 0
$LN2@xr_free:

; 73   : 	};
; 74   : }

	add	rsp, 32					; 00000020H
	pop	rbx
	ret	0
??$xr_free@Ustr_value@@@@YAXAEAPEAUstr_value@@@Z ENDP	; xr_free<str_value>
_TEXT	ENDS
; Function compile flags: /Ogtpy
; File C:\Users\Mahito\Desktop\Night outing\Night-outing\src\xrCore\xrMemory_subst_msvc.h
; File C:\Users\Mahito\Desktop\Night outing\Night-outing\src\xrCore\xrMemory_subst_msvc.cpp
; File C:\Users\Mahito\Desktop\Night outing\Night-outing\src\xrCore\xrMemory_subst_msvc.h
;	COMDAT ??$xr_delete@Ustr_container_impl@@@@YAXAEAPEAUstr_container_impl@@@Z
_TEXT	SEGMENT
ptr$ = 48
??$xr_delete@Ustr_container_impl@@@@YAXAEAPEAUstr_container_impl@@@Z PROC ; xr_delete<str_container_impl>, COMDAT

; 38   : {

$LN26:
	push	rbx
	sub	rsp, 32					; 00000020H
	mov	rbx, rcx

; 39   : 	if (ptr)

	mov	rcx, QWORD PTR [rcx]
	test	rcx, rcx
	je	SHORT $LN2@xr_delete
; File C:\Users\Mahito\Desktop\Night outing\Night-outing\src\xrCore\xrMemory_subst_msvc.cpp

; 99   : 	stat_calls++;

	inc	DWORD PTR ?Memory@@3VxrMemory@@A

; 100  : 
; 101  : #ifdef PURE_ALLOC
; 102  : 	if (g_use_pure_alloc)
; 103  : 	{
; 104  : 		//free(P);
; 105  : 		_aligned_free(P);

	call	QWORD PTR __imp__aligned_free
; File C:\Users\Mahito\Desktop\Night outing\Night-outing\src\xrCore\xrMemory_subst_msvc.h

; 42   : 		ptr = NULL;

	mov	QWORD PTR [rbx], 0
$LN2@xr_delete:

; 43   : 	}
; 44   : }

	add	rsp, 32					; 00000020H
	pop	rbx
	ret	0
??$xr_delete@Ustr_container_impl@@@@YAXAEAPEAUstr_container_impl@@@Z ENDP ; xr_delete<str_container_impl>
_TEXT	ENDS
; Function compile flags: /Ogtpy
; File C:\Users\Mahito\Desktop\Night outing\Night-outing\src\xrCore\xrMemory_subst_msvc.h
; File C:\Users\Mahito\Desktop\Night outing\Night-outing\src\xrCore\xrMemory_subst_msvc.cpp
; File C:\Users\Mahito\Desktop\Night outing\Night-outing\src\xrCore\xrMemory_subst_msvc.h
;	COMDAT ??R?$xr_special_free@$0A@Ustr_container_impl@@@@QEAAXAEAPEAUstr_container_impl@@@Z
_TEXT	SEGMENT
this$dead$ = 8
ptr$ = 16
??R?$xr_special_free@$0A@Ustr_container_impl@@@@QEAAXAEAPEAUstr_container_impl@@@Z PROC ; xr_special_free<0,str_container_impl>::operator(), COMDAT

; 31   : 		ptr->~T();
; 32   : 		Memory.mem_free(ptr);

	mov	rcx, QWORD PTR [rdx]
; File C:\Users\Mahito\Desktop\Night outing\Night-outing\src\xrCore\xrMemory_subst_msvc.cpp

; 99   : 	stat_calls++;

	inc	DWORD PTR ?Memory@@3VxrMemory@@A

; 100  : 
; 101  : #ifdef PURE_ALLOC
; 102  : 	if (g_use_pure_alloc)
; 103  : 	{
; 104  : 		//free(P);
; 105  : 		_aligned_free(P);

	rex_jmp	QWORD PTR __imp__aligned_free
??R?$xr_special_free@$0A@Ustr_container_impl@@@@QEAAXAEAPEAUstr_container_impl@@@Z ENDP ; xr_special_free<0,str_container_impl>::operator()
_TEXT	ENDS
END
